ARM GAS  C:\Users\run1009\AppData\Local\Temp\cch0f4sO.s 			page 1


   1              		.syntax unified
   2              		.cpu cortex-m0
   3              		.fpu softvfp
   4              		.eabi_attribute 20, 1
   5              		.eabi_attribute 21, 1
   6              		.eabi_attribute 23, 3
   7              		.eabi_attribute 24, 1
   8              		.eabi_attribute 25, 1
   9              		.eabi_attribute 26, 1
  10              		.eabi_attribute 30, 6
  11              		.eabi_attribute 34, 0
  12              		.eabi_attribute 18, 4
  13              		.thumb
  14              		.syntax unified
  15              		.file	"ble_process.c"
  16              		.text
  17              	.Ltext0:
  18              		.cfi_sections	.debug_frame
  19              		.comm	RGBData,4,4
  20              		.global	dataADVCounter
  21              		.data
  22              		.type	dataADVCounter, %object
  23              		.size	dataADVCounter, 1
  24              	dataADVCounter:
  25 0000 01       		.byte	1
  26              		.global	switch_Role
  27              		.bss
  28              		.type	switch_Role, %object
  29              		.size	switch_Role, 1
  30              	switch_Role:
  31 0000 00       		.space	1
  32              		.global	node_address
  33 0001 00       		.align	1
  34              		.type	node_address, %object
  35              		.size	node_address, 2
  36              	node_address:
  37 0002 0000     		.space	2
  38              		.comm	new_advData,32,4
  39              		.global	potential_node_found
  40              		.type	potential_node_found, %object
  41              		.size	potential_node_found, 1
  42              	potential_node_found:
  43 0004 00       		.space	1
  44              		.comm	potential_node_bdAddr,6,4
  45              		.global	potential_node_bdAddrType
  46              		.type	potential_node_bdAddrType, %object
  47              		.size	potential_node_bdAddrType, 1
  48              	potential_node_bdAddrType:
  49 0005 00       		.space	1
  50              		.global	scan_tag
  51              		.data
  52 0001 000000   		.align	2
  53              		.type	scan_tag, %object
  54              		.size	scan_tag, 20
  55              	scan_tag:
  56 0004 13       		.byte	19
  57 0005 21       		.byte	33
ARM GAS  C:\Users\run1009\AppData\Local\Temp\cch0f4sO.s 			page 2


  58 0006 31       		.byte	49
  59 0007 01       		.byte	1
  60 0008 9B       		.byte	-101
  61 0009 5F       		.byte	95
  62 000a 80       		.byte	-128
  63 000b 00       		.byte	0
  64 000c 00       		.byte	0
  65 000d 80       		.byte	-128
  66 000e 00       		.byte	0
  67 000f 10       		.byte	16
  68 0010 00       		.byte	0
  69 0011 00       		.byte	0
  70 0012 BB       		.byte	-69
  71 0013 C2       		.byte	-62
  72 0014 03       		.byte	3
  73 0015 00       		.byte	0
  74 0016 BB       		.byte	-69
  75 0017 CB       		.byte	-53
  76              		.comm	peripAddr,7,4
  77              		.global	clientConnectToDevice
  78              		.bss
  79              		.type	clientConnectToDevice, %object
  80              		.size	clientConnectToDevice, 1
  81              	clientConnectToDevice:
  82 0006 00       		.space	1
  83              		.global	ble_gap_state
  84              		.data
  85              		.type	ble_gap_state, %object
  86              		.size	ble_gap_state, 1
  87              	ble_gap_state:
  88 0018 01       		.byte	1
  89              		.global	deviceConnected
  90              		.bss
  91              		.type	deviceConnected, %object
  92              		.size	deviceConnected, 1
  93              	deviceConnected:
  94 0007 00       		.space	1
  95              		.global	restartScanning
  96              		.type	restartScanning, %object
  97              		.size	restartScanning, 1
  98              	restartScanning:
  99 0008 00       		.space	1
 100              		.global	centralStartedTime
 101 0009 00       		.align	1
 102              		.type	centralStartedTime, %object
 103              		.size	centralStartedTime, 2
 104              	centralStartedTime:
 105 000a 0000     		.space	2
 106              		.comm	val,31,4
 107              		.section	.rodata
 108              		.align	2
 109              	.LC1:
 110 0000 4359424C 		.ascii	"CYBLE_EVT_STACK_ON \000"
 110      455F4556 
 110      545F5354 
 110      41434B5F 
 110      4F4E2000 
ARM GAS  C:\Users\run1009\AppData\Local\Temp\cch0f4sO.s 			page 3


 111              		.align	2
 112              	.LC5:
 113 0014 53746172 		.ascii	"Start scan after Stack RESET \000"
 113      74207363 
 113      616E2061 
 113      66746572 
 113      20537461 
 114 0032 0000     		.align	2
 115              	.LC11:
 116 0034 52657374 		.ascii	"Restart Advertisement \000"
 116      61727420 
 116      41647665 
 116      72746973 
 116      656D656E 
 117 004b 00       		.align	2
 118              	.LC13:
 119 004c 4359424C 		.ascii	"CYBLE_EVT_GATTC_READ_BLOB_RSP :\000"
 119      455F4556 
 119      545F4741 
 119      5454435F 
 119      52454144 
 120              		.align	2
 121              	.LC15:
 122 006c 4359424C 		.ascii	"CYBLE_EVT_GAPC_SCAN_START_STOP :\000"
 122      455F4556 
 122      545F4741 
 122      50435F53 
 122      43414E5F 
 123 008d 000000   		.align	2
 124              	.LC17:
 125 0090 31323220 		.ascii	"122 \000"
 125      00
 126 0095 000000   		.align	2
 127              	.LC19:
 128 0098 4359424C 		.ascii	"CYBLE_EVT_GATT_DISCONNECT_IND \000"
 128      455F4556 
 128      545F4741 
 128      54545F44 
 128      4953434F 
 129 00b7 00       		.align	2
 130              	.LC21:
 131 00b8 4E6F6465 		.ascii	"Node Address Written: \000"
 131      20416464 
 131      72657373 
 131      20577269 
 131      7474656E 
 132 00cf 00       		.align	2
 133              	.LC24:
 134 00d0 4572726F 		.ascii	"Error ERR_INVALID_PDU \000"
 134      72204552 
 134      525F494E 
 134      56414C49 
 134      445F5044 
 135 00e7 00       		.align	2
 136              	.LC28:
 137 00e8 52474220 		.ascii	"RGB CYBLE_EVT_GATTS_WRITE_REQ \000"
 137      4359424C 
ARM GAS  C:\Users\run1009\AppData\Local\Temp\cch0f4sO.s 			page 4


 137      455F4556 
 137      545F4741 
 137      5454535F 
 138 0107 00       		.align	2
 139              	.LC33:
 140 0108 55706461 		.ascii	"UpdateRGBled \000"
 140      74655247 
 140      426C6564 
 140      2000
 141 0116 0000     		.align	2
 142              	.LC36:
 143 0118 696E6372 		.ascii	"incremented dataADVCounter value in CYBLE_EVT_GATTS"
 143      656D656E 
 143      74656420 
 143      64617461 
 143      41445643 
 144 014b 5F575249 		.ascii	"_WRITE_REQ= \000"
 144      54455F52 
 144      45513D20 
 144      00
 145              		.align	2
 146              	.LC38:
 147 0158 73776974 		.ascii	"switchRole to Central\000"
 147      6368526F 
 147      6C652074 
 147      6F204365 
 147      6E747261 
 148 016e 0000     		.align	2
 149              	.LC40:
 150 0170 64617461 		.ascii	"dataADVCounter from CYBLE_EVT_GATTS_WRITE_CMD_REQ ="
 150      41445643 
 150      6F756E74 
 150      65722066 
 150      726F6D20 
 151 01a3 2000     		.ascii	" \000"
 152 01a5 000000   		.align	2
 153              	.LC45:
 154 01a8 706F7465 		.ascii	"potential_node_found \000"
 154      6E746961 
 154      6C5F6E6F 
 154      64655F66 
 154      6F756E64 
 155 01be 0000     		.align	2
 156              	.LC48:
 157 01c0 53746F70 		.ascii	"Stop Scan called \000"
 157      20536361 
 157      6E206361 
 157      6C6C6564 
 157      2000
 158 01d2 0000     		.align	2
 159              	.LC50:
 160 01d4 4556454E 		.ascii	"EVENType: \000"
 160      54797065 
 160      3A2000
 161 01df 00       		.align	2
 162              	.LC52:
 163 01e0 256400   		.ascii	"%d\000"
ARM GAS  C:\Users\run1009\AppData\Local\Temp\cch0f4sO.s 			page 5


 164 01e3 00       		.align	2
 165              	.LC54:
 166 01e4 0D0A00   		.ascii	"\015\012\000"
 167 01e7 00       		.align	2
 168              	.LC56:
 169 01e8 52535349 		.ascii	"RSSI: \000"
 169      3A2000
 170 01ef 00       		.align	2
 171              	.LC58:
 172 01f0 424C4520 		.ascii	"BLE Address: 0x\000"
 172      41646472 
 172      6573733A 
 172      20307800 
 173              		.align	2
 174              	.LC60:
 175 0200 2A2A2A2A 		.ascii	"****************Device Found***************\015\012"
 175      2A2A2A2A 
 175      2A2A2A2A 
 175      2A2A2A2A 
 175      44657669 
 176 022d 00       		.ascii	"\000"
 177 022e 0000     		.align	2
 178              	.LC65:
 179 0230 74656D70 		.ascii	"temperature: \000"
 179      65726174 
 179      7572653A 
 179      2000
 180 023e 0000     		.align	2
 181              	.LC67:
 182 0240 25686900 		.ascii	"%hi\000"
 183              		.align	2
 184              	.LC69:
 185 0244 6C696768 		.ascii	"light: \000"
 185      743A2000 
 186              		.align	2
 187              	.LC71:
 188 024c 6E6F6973 		.ascii	"noise: \000"
 188      653A2000 
 189              		.align	2
 190              	.LC73:
 191 0254 68756D69 		.ascii	"humidity: \000"
 191      64697479 
 191      3A2000
 192 025f 00       		.align	2
 193              	.LC75:
 194 0260 75763A20 		.ascii	"uv: \000"
 194      00
 195 0265 000000   		.align	2
 196              	.LC77:
 197 0268 70726573 		.ascii	"pressure: \000"
 197      73757265 
 197      3A2000
 198 0273 00       		.align	2
 199              	.LC79:
 200 0274 64696D65 		.ascii	"dimention: \000"
 200      6E74696F 
 200      6E3A2000 
ARM GAS  C:\Users\run1009\AppData\Local\Temp\cch0f4sO.s 			page 6


 201              		.align	2
 202              	.LC81:
 203 0280 68656174 		.ascii	"heat: \000"
 203      3A2000
 204 0287 00       		.align	2
 205              	.LC83:
 206 0288 62617474 		.ascii	"battery: \000"
 206      6572793A 
 206      2000
 207 0292 0000     		.align	2
 208              	.LC85:
 209 0294 64697374 		.ascii	"distance: \000"
 209      616E6365 
 209      3A2000
 210 029f 00       		.align	2
 211              	.LC88:
 212 02a0 54697461 		.ascii	"Titan Found \000"
 212      6E20466F 
 212      756E6420 
 212      00
 213 02ad 000000   		.align	2
 214              	.LC90:
 215 02b0 4359424C 		.ascii	"CYBLE_EVT_GAP_DEVICE_CONNECTED: \000"
 215      455F4556 
 215      545F4741 
 215      505F4445 
 215      56494345 
 216 02d1 000000   		.align	2
 217              	.LC92:
 218 02d4 4359424C 		.ascii	"CYBLE_EVT_GAP_DEVICE_CONNECTED \000"
 218      455F4556 
 218      545F4741 
 218      505F4445 
 218      56494345 
 219              		.align	2
 220              	.LC95:
 221 02f4 4359424C 		.ascii	"CYBLE_EVT_GATTC_DISCOVERY_COMPLETE \000"
 221      455F4556 
 221      545F4741 
 221      5454435F 
 221      44495343 
 222              		.align	2
 223              	.LC97:
 224 0318 4359424C 		.ascii	"CYBLE_EVT_GATTC_WRITE_RSP \000"
 224      455F4556 
 224      545F4741 
 224      5454435F 
 224      57524954 
 225 0333 00       		.align	2
 226              	.LC100:
 227 0334 44697363 		.ascii	"Disconnect and restart scanning \000"
 227      6F6E6E65 
 227      63742061 
 227      6E642072 
 227      65737461 
 228 0355 000000   		.align	2
 229              	.LC102:
ARM GAS  C:\Users\run1009\AppData\Local\Temp\cch0f4sO.s 			page 7


 230 0358 4359424C 		.ascii	"CYBLE_EVT_GAP_DEVICE_DISCONNECTED \000"
 230      455F4556 
 230      545F4741 
 230      505F4445 
 230      56494345 
 231 037b 00       		.align	2
 232              	.LC104:
 233 037c 52657374 		.ascii	"Restart Scanning \000"
 233      61727420 
 233      5363616E 
 233      6E696E67 
 233      2000
 234 038e 0000     		.align	2
 235              	.LC0:
 236 0390 04       		.byte	4
 237 0391 27       		.byte	39
 238 0392 A8       		.byte	-88
 239 0393 1B       		.byte	27
 240 0394 00       		.byte	0
 241 0395 C4       		.byte	-60
 242              		.section	.text.GenericEventHandler,"ax",%progbits
 243              		.align	2
 244              		.global	GenericEventHandler
 245              		.code	16
 246              		.thumb_func
 247              		.type	GenericEventHandler, %function
 248              	GenericEventHandler:
 249              	.LFB36:
 250              		.file 1 "ble_process.c"
   1:ble_process.c **** /*******************************************************************************
   2:ble_process.c **** * File Name: ble_process.c
   3:ble_process.c **** *
   4:ble_process.c **** * Version: 1.0
   5:ble_process.c **** *
   6:ble_process.c **** * Description:
   7:ble_process.c **** * This file contains the definiton for BLE related functions, such as event handler,
   8:ble_process.c **** * GAP role switching, central scanning and connection to peripherals.
   9:ble_process.c **** *
  10:ble_process.c **** ********************************************************************************
  11:ble_process.c **** * Copyright 2015, Cypress Semiconductor Corporation.  All rights reserved.
  12:ble_process.c **** * You may use this file only in accordance with the license, terms, conditions,
  13:ble_process.c **** * disclaimers, and limitations in the end user license agreement accompanying
  14:ble_process.c **** * the software package with which this file was provided.
  15:ble_process.c **** *******************************************************************************/
  16:ble_process.c **** 
  17:ble_process.c **** #include <main.h>
  18:ble_process.c **** 
  19:ble_process.c **** uint8 RGBData[4];
  20:ble_process.c **** uint8 dataADVCounter = 1;
  21:ble_process.c **** uint8 switch_Role = FALSE;
  22:ble_process.c **** 
  23:ble_process.c **** uint16 node_address = 0;
  24:ble_process.c **** 
  25:ble_process.c **** #ifdef ENABLE_ADV_DATA_COUNTER
  26:ble_process.c **** CYBLE_GAPP_DISC_DATA_T  new_advData;
  27:ble_process.c **** uint8 potential_node_found = 0;
  28:ble_process.c **** uint8 potential_node_bdAddr[6];
ARM GAS  C:\Users\run1009\AppData\Local\Temp\cch0f4sO.s 			page 8


  29:ble_process.c **** uint8 potential_node_bdAddrType = 0;
  30:ble_process.c **** #endif
  31:ble_process.c **** 
  32:ble_process.c **** /* DO NOT CHANGE: This tag allows system to filter the correct nodes and resemble to 
  33:ble_process.c **** * value set in BLE component Scan Response Packet settings */
  34:ble_process.c **** uint8 scan_tag[SCAN_TAG_DATA_LEN] = {0x13, 0x21, 0x31, 0x01, 0x9B, 0x5F, 0x80, 0x00,
  35:ble_process.c **** 									0x00, 0x80, 0x00, 0x10, 0x00, 0x00, 0xBB, 0xC2, 
  36:ble_process.c **** 									0x03, 0x00, 0xBB, 0xCB};
  37:ble_process.c **** 
  38:ble_process.c **** CYBLE_GAP_BD_ADDR_T				peripAddr;
  39:ble_process.c **** volatile uint8 clientConnectToDevice = FALSE;
  40:ble_process.c **** uint8 ble_gap_state = BLE_PERIPHERAL;
  41:ble_process.c **** 
  42:ble_process.c **** uint8 deviceConnected = FALSE;
  43:ble_process.c **** uint8 restartScanning = FALSE;
  44:ble_process.c **** volatile uint16 centralStartedTime = 0;
  45:ble_process.c **** char val[31];
  46:ble_process.c **** 
  47:ble_process.c **** #ifdef RESTART_BLE_STACK
  48:ble_process.c **** extern uint8 stackRestartIssued;
  49:ble_process.c **** #endif
  50:ble_process.c **** /*******************************************************************************
  51:ble_process.c **** * Function Name: GenericEventHandler
  52:ble_process.c **** ********************************************************************************
  53:ble_process.c **** * Summary:
  54:ble_process.c **** *        Event handler function for the BLE stack. All the events by BLE stack
  55:ble_process.c **** * are received by application through this function. For this, CyBle_ProcessEvents()
  56:ble_process.c **** * should be called continuously in main loop and wherever required.
  57:ble_process.c **** *
  58:ble_process.c **** * Parameters:
  59:ble_process.c **** *  event: 		event value
  60:ble_process.c **** *  eventParame: pointer to the location where relevant event data is stored
  61:ble_process.c **** *
  62:ble_process.c **** * Return:
  63:ble_process.c **** *  void
  64:ble_process.c **** *
  65:ble_process.c **** *******************************************************************************/
  66:ble_process.c **** void GenericEventHandler(uint32 event, void * eventParam)
  67:ble_process.c **** {
 251              		.loc 1 67 0
 252              		.cfi_startproc
 253              		@ args = 0, pretend = 0, frame = 256
 254              		@ frame_needed = 1, uses_anonymous_args = 0
 255 0000 90B5     		push	{r4, r7, lr}
 256              		.cfi_def_cfa_offset 12
 257              		.cfi_offset 4, -12
 258              		.cfi_offset 7, -8
 259              		.cfi_offset 14, -4
 260 0002 C1B0     		sub	sp, sp, #260
 261              		.cfi_def_cfa_offset 272
 262 0004 00AF     		add	r7, sp, #0
 263              		.cfi_def_cfa_register 7
 264 0006 7860     		str	r0, [r7, #4]
 265 0008 3960     		str	r1, [r7]
  68:ble_process.c **** 	/* Local variables and data structures*/
  69:ble_process.c **** 	CYBLE_GATTS_WRITE_REQ_PARAM_T 		writeReqData;
  70:ble_process.c **** 	CYBLE_GATTC_WRITE_REQ_T				writeADVcounterdata;
ARM GAS  C:\Users\run1009\AppData\Local\Temp\cch0f4sO.s 			page 9


  71:ble_process.c **** 	CYBLE_GAPC_ADV_REPORT_T				scan_report;
  72:ble_process.c **** 	CYBLE_GATTS_WRITE_CMD_REQ_PARAM_T	writeCmdData;
  73:ble_process.c **** 	CYBLE_API_RESULT_T					apiResult;
  74:ble_process.c **** 	CYBLE_GATTC_WRITE_REQ_T 			writeRGBdata;
  75:ble_process.c ****     CYBLE_GATTC_READ_BLOB_REQ_T         readBlobdata;
  76:ble_process.c **** 	static uint16 						received_node_addr ;
  77:ble_process.c **** 	static uint8 						received_node_addr_type ;
  78:ble_process.c **** 	
  79:ble_process.c **** 	#if (DEBUG_ENABLED == 1)
  80:ble_process.c **** 	CYBLE_GAP_BD_ADDR_T					gap_bdaddr;
  81:ble_process.c **** 	#endif
  82:ble_process.c **** 	
  83:ble_process.c **** 	switch(event)
 266              		.loc 1 83 0
 267 000a 7B68     		ldr	r3, [r7, #4]
 268 000c 412B     		cmp	r3, #65
 269 000e 00D1     		bne	.LCB17
 270 0010 ACE0     		b	.L3	@long jump
 271              	.LCB17:
 272 0012 16D8     		bhi	.L4
 273 0014 262B     		cmp	r3, #38
 274 0016 00D1     		bne	.LCB21
 275 0018 67E0     		b	.L5	@long jump
 276              	.LCB21:
 277 001a 06D8     		bhi	.L6
 278 001c 012B     		cmp	r3, #1
 279 001e 29D0     		beq	.L7
 280 0020 202B     		cmp	r3, #32
 281 0022 00D1     		bne	.LCB27
 282 0024 65E2     		b	.L8	@long jump
 283              	.LCB27:
  84:ble_process.c **** 	{
  85:ble_process.c **** 		case CYBLE_EVT_STACK_ON:
  86:ble_process.c **** 			#if (DEBUG_ENABLED == 1)
  87:ble_process.c **** 			UART_UartPutString("CYBLE_EVT_STACK_ON ");
  88:ble_process.c **** 			UART_UartPutCRLF(' ');
  89:ble_process.c **** 			#endif
  90:ble_process.c **** 			
  91:ble_process.c **** 			#ifdef RESTART_BLE_STACK
  92:ble_process.c **** 			if(!stackRestartIssued)
  93:ble_process.c **** 			{
  94:ble_process.c **** 			#endif
  95:ble_process.c **** 				/* At the start of the BLE stack, start advertisement */
  96:ble_process.c **** 				apiResult = CyBle_GappStartAdvertisement(CYBLE_ADVERTISING_FAST);
  97:ble_process.c **** 				
  98:ble_process.c **** 				if(CYBLE_ERROR_OK == apiResult)
  99:ble_process.c **** 				{
 100:ble_process.c **** 					/* Set the BLE gap state flag */
 101:ble_process.c **** 					ble_gap_state = BLE_PERIPHERAL;
 102:ble_process.c **** 				}
 103:ble_process.c **** 			#ifdef RESTART_BLE_STACK
 104:ble_process.c **** 				
 105:ble_process.c **** 			}
 106:ble_process.c **** 			else
 107:ble_process.c **** 			{
 108:ble_process.c **** 				apiResult = CyBle_GapcStartScan(CYBLE_SCANNING_FAST);
 109:ble_process.c **** 					
ARM GAS  C:\Users\run1009\AppData\Local\Temp\cch0f4sO.s 			page 10


 110:ble_process.c **** 				if(CYBLE_ERROR_OK == apiResult)
 111:ble_process.c **** 				{
 112:ble_process.c **** 					#if (DEBUG_ENABLED == 1)
 113:ble_process.c **** 					UART_UartPutString("Start scan after Stack RESET ");
 114:ble_process.c **** 					UART_UartPutCRLF(' ');
 115:ble_process.c **** 					#endif
 116:ble_process.c **** 					
 117:ble_process.c **** 					/* Record the time at which Central role was started. This will be 
 118:ble_process.c **** 					* used for timeout and switching to Peripheral operation*/
 119:ble_process.c **** 					centralStartedTime = WatchDog_CurrentCount();
 120:ble_process.c **** 					
 121:ble_process.c **** 					/* Update the current BLE role to Central */
 122:ble_process.c **** 					ble_gap_state = BLE_CENTRAL;
 123:ble_process.c **** 				}
 124:ble_process.c **** 			}
 125:ble_process.c **** 			
 126:ble_process.c **** 			/*Reset stackRestartIssued flag */
 127:ble_process.c **** 			stackRestartIssued = FALSE;
 128:ble_process.c **** 			#endif
 129:ble_process.c **** 		break;
 130:ble_process.c **** 			
 131:ble_process.c **** 		case CYBLE_EVT_GAPP_ADVERTISEMENT_START_STOP:
 132:ble_process.c **** 			/* This event is received at every start or stop of peripheral advertisement*/
 133:ble_process.c **** 			#if (DEBUG_ENABLED == 1)
 134:ble_process.c **** 			//UART_UartPutString("CYBLE_EVT_GAPP_ADVERTISEMENT_START_STOP :");
 135:ble_process.c **** 			//PrintHex(*(uint8*)eventParam);
 136:ble_process.c **** 			//SendBLEStatetoUART(CyBle_GetState());
 137:ble_process.c **** 			//UART_UartPutCRLF(' ');
 138:ble_process.c **** 			#endif
 139:ble_process.c **** 			
 140:ble_process.c **** 			if((CYBLE_STATE_DISCONNECTED == CyBle_GetState()) && (switch_Role == FALSE))
 141:ble_process.c **** 			{
 142:ble_process.c **** 				/* If the current state of the BLE is Disconnected, then restart advertisement.
 143:ble_process.c **** 				* Note that the advertisement should only be restarted if the switch flag is not
 144:ble_process.c **** 				* TRUE. If switch role flag is TRUE, then there is no need to start advertisement
 145:ble_process.c **** 				* as the GAP role has to be switched*/
 146:ble_process.c **** 				apiResult = CyBle_GappStartAdvertisement(CYBLE_ADVERTISING_FAST);	
 147:ble_process.c **** 				
 148:ble_process.c **** 				if(apiResult == CYBLE_ERROR_OK)
 149:ble_process.c **** 				{
 150:ble_process.c **** 					#if (DEBUG_ENABLED == 1)
 151:ble_process.c **** 					UART_UartPutString("Restart Advertisement ");
 152:ble_process.c **** 					SendBLEStatetoUART(CyBle_GetState());
 153:ble_process.c **** 					UART_UartPutCRLF(' ');
 154:ble_process.c **** 					#endif
 155:ble_process.c **** 				}
 156:ble_process.c **** 			}
 157:ble_process.c **** 		break;
 158:ble_process.c ****             
 159:ble_process.c ****         case CYBLE_EVT_GATTC_READ_BLOB_RSP:
 160:ble_process.c ****             //CyBle_ReadByTypeEventHandler((CYBLE_GATTC_READ_BY_TYPE_RSP_PARAM_T *)eventParam);
 161:ble_process.c ****             UART_UartPutString("CYBLE_EVT_GATTC_READ_BLOB_RSP :");
 162:ble_process.c ****             break;
 163:ble_process.c **** 			
 164:ble_process.c **** 		case CYBLE_EVT_GAPC_SCAN_START_STOP:
 165:ble_process.c **** 			/* This event is received at every start or stop of central scanning*/
 166:ble_process.c **** 			#if (DEBUG_ENABLED == 1)
ARM GAS  C:\Users\run1009\AppData\Local\Temp\cch0f4sO.s 			page 11


 167:ble_process.c **** 			UART_UartPutString("CYBLE_EVT_GAPC_SCAN_START_STOP :");
 168:ble_process.c **** 			PrintHex(*(uint8*)eventParam);
 169:ble_process.c **** 			SendBLEStatetoUART(CyBle_GetState());
 170:ble_process.c **** 			UART_UartPutCRLF(' ');
 171:ble_process.c **** 			#endif
 172:ble_process.c **** 		break;
 173:ble_process.c **** 			
 174:ble_process.c **** 		case CYBLE_EVT_GATT_CONNECT_IND:
 175:ble_process.c **** 			/* This event is received at GATT connection with a device. This event
 176:ble_process.c **** 			* is received for both Client or Server role */
 177:ble_process.c **** 			#if (DEBUG_ENABLED == 1)
 178:ble_process.c **** 			UART_UartPutString("122 ");
 179:ble_process.c **** 			UART_UartPutCRLF(' ');
 180:ble_process.c ****             /*
 181:ble_process.c ****             writeReqData = *(CYBLE_GATTS_WRITE_REQ_PARAM_T*)eventParam;
 182:ble_process.c ****                         int index = 0;
 183:ble_process.c ****                         UART_UartPutString("writeReqData: ");
 184:ble_process.c ****                         for(int i=0;i<writeReqData.handleValPair.value.len;i++){
 185:ble_process.c ****                             char val = writeReqData.handleValPair.value.val[i];
 186:ble_process.c ****                             PrintHex(val);
 187:ble_process.c ****                         }
 188:ble_process.c ****             */
 189:ble_process.c **** 			#endif
 190:ble_process.c **** 		break;
 191:ble_process.c **** 		
 192:ble_process.c **** 		case CYBLE_EVT_GATT_DISCONNECT_IND:
 193:ble_process.c **** 			/* This event is received at GATT disconnection with a device. This event
 194:ble_process.c **** 			* is received for both Client or Server role */
 195:ble_process.c **** 			#if (DEBUG_ENABLED == 1)
 196:ble_process.c **** 			UART_UartPutString("CYBLE_EVT_GATT_DISCONNECT_IND ");
 197:ble_process.c **** 			UART_UartPutCRLF(' ');
 198:ble_process.c **** 			#endif
 199:ble_process.c **** 		break;
 200:ble_process.c **** 			
 201:ble_process.c **** 		case CYBLE_EVT_GATTS_WRITE_REQ:
 202:ble_process.c **** 			/* This event is received at when Server receives a Write request from
 203:ble_process.c **** 			* connected Client device */
 204:ble_process.c **** 			/* Save the associated event parameter in local variable */
 205:ble_process.c **** 			
 206:ble_process.c **** 			if(writeReqData.handleValPair.attrHandle == CYBLE_NODE_ADDRESS_CHAR_HANDLE)
 207:ble_process.c **** 			{
 208:ble_process.c **** 				/* If the Write request is on Node Address Characteristic, then Client is 
 209:ble_process.c **** 				* trying to set a node address to this device */
 210:ble_process.c **** 				if(writeReqData.handleValPair.value.len == NODE_ADDR_DATA_LEN)
 211:ble_process.c **** 				{
 212:ble_process.c **** 					#if (DEBUG_ENABLED == 1)
 213:ble_process.c **** 					UART_UartPutString("Node Address Written: ");
 214:ble_process.c **** 					#endif
 215:ble_process.c **** 					/* Extract the node address from the event parameter */
 216:ble_process.c **** 					node_address = (uint16)(((uint16)writeReqData.handleValPair.value.val[NODE_ADDR_MSB_VAL_INDEX]
 217:ble_process.c **** 													| writeReqData.handleValPair.value.val[NODE_ADDR_LSB_VAL_INDEX]);
 218:ble_process.c **** 					
 219:ble_process.c **** 					if(node_address == 0x0000 || node_address == 0xFFFF)
 220:ble_process.c **** 					{
 221:ble_process.c **** 						/* A node address with value 0x0000 or 0xFFFF is invalid. Sent the 
 222:ble_process.c **** 						* appropriate error code to the Client device*/
 223:ble_process.c **** 						SendErrorCode(CYBLE_GATT_WRITE_REQ, 
ARM GAS  C:\Users\run1009\AppData\Local\Temp\cch0f4sO.s 			page 12


 224:ble_process.c **** 										writeReqData.handleValPair.attrHandle, 
 225:ble_process.c **** 										ERR_INVALID_PDU);
 226:ble_process.c **** 						
 227:ble_process.c **** 						#if (DEBUG_ENABLED == 1)
 228:ble_process.c **** 							UART_UartPutString("Error ERR_INVALID_PDU ");
 229:ble_process.c **** 						#endif
 230:ble_process.c **** 						/* Reset Node Address and return */
 231:ble_process.c **** 						node_address = 0x0000;
 232:ble_process.c **** 						
 233:ble_process.c **** 						return;
 234:ble_process.c **** 					}
 235:ble_process.c **** 					else
 236:ble_process.c **** 					{
 237:ble_process.c **** 						/* If node address is valid, then save the value */
 238:ble_process.c **** 						#ifdef STORE_SFLASH_NODE_ADDRESS
 239:ble_process.c **** 							/* Save the set node address to user SFLASH to allow it to be
 240:ble_process.c **** 							* permanently set. This will still exist even on device reset. */
 241:ble_process.c **** 							UpdateSFlashNodeAddress(node_address);
 242:ble_process.c **** 						#endif
 243:ble_process.c **** 						
 244:ble_process.c **** 						/* Update the Node address Characteristic GATT DB value so that Client 
 245:ble_process.c **** 						* can read the current set node address */
 246:ble_process.c **** 						CyBle_GattsWriteAttributeValue(&writeReqData.handleValPair,
 247:ble_process.c **** 														0,
 248:ble_process.c **** 														&cyBle_connHandle,
 249:ble_process.c **** 														CYBLE_GATT_DB_LOCALLY_INITIATED);
 250:ble_process.c **** 						
 251:ble_process.c **** 						#if (DEBUG_ENABLED == 1)
 252:ble_process.c **** 							UART_UartPutCRLF(' ');
 253:ble_process.c **** 						#endif
 254:ble_process.c **** 						
 255:ble_process.c **** 						/* Reset the name of the device to 'Titan'. This indicates to the Central
 256:ble_process.c **** 						* device that the device has valie node address set */
 257:ble_process.c **** 						new_advData.advData[ADV_DATA_NAME_START_INDEX] = 'T';
 258:ble_process.c **** 						new_advData.advData[ADV_DATA_NAME_START_INDEX+1] = 'i';
 259:ble_process.c **** 						new_advData.advData[ADV_DATA_NAME_START_INDEX+2] = 't';
 260:ble_process.c **** 						new_advData.advData[ADV_DATA_NAME_START_INDEX+3] = 'a';
 261:ble_process.c **** 						new_advData.advData[ADV_DATA_NAME_START_INDEX+4] = 'n';
 262:ble_process.c **** 					}
 263:ble_process.c **** 				}
 264:ble_process.c **** 				else	/* if(writeReqData.handleValPair.value.len == NODE_ADDR_DATA_LEN) */
 265:ble_process.c **** 				{
 266:ble_process.c **** 						/* If the length of the data sent from the Client does not match the
 267:ble_process.c **** 						* expected data length on Node Address characteristic, then send a 
 268:ble_process.c **** 						* Error code indicating invalid length */
 269:ble_process.c **** 						SendErrorCode(CYBLE_GATT_WRITE_REQ, 
 270:ble_process.c **** 										writeReqData.handleValPair.attrHandle, 
 271:ble_process.c **** 										ERR_INVALID_ATT_LEN);
 272:ble_process.c **** 						node_address = 0x0000;
 273:ble_process.c **** 						
 274:ble_process.c **** 						/* Do not proceed further */
 275:ble_process.c **** 						return;
 276:ble_process.c **** 				}
 277:ble_process.c **** 			}
 278:ble_process.c **** 			
 279:ble_process.c **** 			if(writeReqData.handleValPair.attrHandle == CYBLE_RGB_LED_CONTROL_CHAR_HANDLE)
 280:ble_process.c **** 			{
ARM GAS  C:\Users\run1009\AppData\Local\Temp\cch0f4sO.s 			page 13


 281:ble_process.c **** 				/* If the Write request is on RGB LED Control Characteristic, then Client is 
 282:ble_process.c **** 				* trying to set a new color to the device. */
 283:ble_process.c **** 				/* Proceed with color setting only if the node address has been set for the 
 284:ble_process.c **** 				* device. Else, send error code */
 285:ble_process.c **** 				if(node_address != 0)
 286:ble_process.c **** 				{
 287:ble_process.c **** 					/* If the data length of the received data meets the expected data 
 288:ble_process.c **** 					* length, then proceeed. Else send error code */
 289:ble_process.c **** 					if(writeReqData.handleValPair.value.len == RGB_LED_DATA_LEN)
 290:ble_process.c **** 					{
 291:ble_process.c **** 						#if (DEBUG_ENABLED == 1)
 292:ble_process.c **** 							UART_UartPutString("RGB CYBLE_EVT_GATTS_WRITE_REQ ");
 293:ble_process.c **** 							UART_UartPutCRLF(' ');
 294:ble_process.c **** 						#endif
 295:ble_process.c **** 						
 296:ble_process.c **** 						/* Extract the node address and its type sent as part of the RGB LED control data.  
 297:ble_process.c **** 						* The first byte is node address type (piconet addressing or not).
 298:ble_process.c **** 						* The third and fourth bytes of the received data has the desired node address */
 299:ble_process.c **** 						received_node_addr_type = writeReqData.handleValPair.value.val[DATA_NODE_ADDR_TYPE_INDEX];
 300:ble_process.c **** 						received_node_addr = (uint16)(((uint16)writeReqData.handleValPair.value.val[DATA_NODE_ADDR_MS
 301:ble_process.c **** 													| writeReqData.handleValPair.value.val[DATA_NODE_ADDR_LSB_INDEX]);
 302:ble_process.c **** 						
 303:ble_process.c **** 						/* Next four bytes contain the color value. Store the Color Value */
 304:ble_process.c **** 						RGBData[RGB_RED_INDEX] = writeReqData.handleValPair.value.val[DATA_INDEX];
 305:ble_process.c **** 						RGBData[RGB_GREEN_INDEX] = writeReqData.handleValPair.value.val[DATA_INDEX+1];
 306:ble_process.c **** 						RGBData[RGB_BLUE_INDEX] = writeReqData.handleValPair.value.val[DATA_INDEX+2];
 307:ble_process.c **** 						RGBData[RGB_INTENSITY_INDEX] = writeReqData.handleValPair.value.val[DATA_INDEX+3];
 308:ble_process.c **** 						
 309:ble_process.c **** 						
 310:ble_process.c **** 						if(writeReqData.handleValPair.value.val[DATA_NODE_ADDR_TYPE_INDEX] == NODE_ADDR_TYPE_PICONET)
 311:ble_process.c **** 						{
 312:ble_process.c **** 							/* If the Address type in received packet is of Piconet type, then update data
 313:ble_process.c **** 							* for all nodes in a Piconet. Nodes in Piconet have the same MSB in address */
 314:ble_process.c **** 							if((received_node_addr & PICONET_SUBMASK) == (node_address & PICONET_SUBMASK))
 315:ble_process.c **** 							{
 316:ble_process.c **** 								/* If the MSB of node address matches the MSB of address in write request packet, 
 317:ble_process.c **** 								* then the Piconet address matches; change the RGB Color */
 318:ble_process.c **** 								UpdateRGBled(RGBData, RGB_PAYLOAD_LEN);
 319:ble_process.c **** 								
 320:ble_process.c **** 								/* Update the RGB LED Control characteristic in GATT DB  to allow
 321:ble_process.c **** 								* Client to read the latest RGB LED color value set */
 322:ble_process.c **** 								CyBle_GattsWriteAttributeValue(&writeReqData.handleValPair,0,&cyBle_connHandle,CYBLE_GATT_D
 323:ble_process.c **** 								
 324:ble_process.c **** 								#if (DEBUG_ENABLED == 1)
 325:ble_process.c **** 									UART_UartPutString("UpdateRGBled ");
 326:ble_process.c **** 									SendBLEStatetoUART(CyBle_GetState());
 327:ble_process.c **** 									UART_UartPutCRLF(' ');
 328:ble_process.c **** 								#endif
 329:ble_process.c **** 							}
 330:ble_process.c **** 						}
 331:ble_process.c **** 						else
 332:ble_process.c **** 						{
 333:ble_process.c **** 							/* If the Address type in received packet is NOT of Piconet type, then update data
 334:ble_process.c **** 							* for particular node or all nodes, depending on address. */
 335:ble_process.c **** 							if((received_node_addr == node_address) ||
 336:ble_process.c **** 								(received_node_addr == BROADCAST_ADDR))
 337:ble_process.c **** 							{
ARM GAS  C:\Users\run1009\AppData\Local\Temp\cch0f4sO.s 			page 14


 338:ble_process.c **** 								/* If the node address matches the address in write request packet, 
 339:ble_process.c **** 								* or if the address is broadcast all, change the RGB Color */
 340:ble_process.c **** 								UpdateRGBled(RGBData, RGB_PAYLOAD_LEN);
 341:ble_process.c **** 								
 342:ble_process.c **** 								/* Update the RGB LED Control characteristic in GATT DB  to allow
 343:ble_process.c **** 								* Client to read the latest RGB LED color value set */
 344:ble_process.c **** 								CyBle_GattsWriteAttributeValue(&writeReqData.handleValPair,0,&cyBle_connHandle,CYBLE_GATT_D
 345:ble_process.c **** 								
 346:ble_process.c **** 								#if (DEBUG_ENABLED == 1)
 347:ble_process.c **** 									UART_UartPutString("UpdateRGBled ");
 348:ble_process.c **** 									SendBLEStatetoUART(CyBle_GetState());
 349:ble_process.c **** 									UART_UartPutCRLF(' ');
 350:ble_process.c **** 								#endif
 351:ble_process.c **** 							}
 352:ble_process.c **** 						}
 353:ble_process.c **** 						
 354:ble_process.c **** 						#ifdef ENABLE_ADV_DATA_COUNTER
 355:ble_process.c **** 						/* Increment the ADV data counter so that scanning Central device knows
 356:ble_process.c **** 						* if this device has updated RGB LED data or not */
 357:ble_process.c **** 						dataADVCounter++;
 358:ble_process.c **** 						#endif
 359:ble_process.c **** 						
 360:ble_process.c **** 						#if (DEBUG_ENABLED == 1)
 361:ble_process.c **** 						UART_UartPutString("incremented dataADVCounter value in CYBLE_EVT_GATTS_WRITE_REQ= ");
 362:ble_process.c **** 						PrintNum(dataADVCounter);
 363:ble_process.c **** 						UART_UartPutCRLF(' ');
 364:ble_process.c **** 						#endif
 365:ble_process.c **** 						
 366:ble_process.c **** 						/* After receiveing the color value, set the switch role flag to allow the system
 367:ble_process.c **** 						* to switch role to Central role */
 368:ble_process.c **** 						switch_Role = TRUE;
 369:ble_process.c **** 						
 370:ble_process.c **** 						#if (DEBUG_ENABLED == 1)
 371:ble_process.c **** 						UART_UartPutString("switchRole to Central");
 372:ble_process.c **** 						UART_UartPutCRLF(' ');
 373:ble_process.c **** 						#endif
 374:ble_process.c **** 					}
 375:ble_process.c **** 					else	/* if(writeReqData.handleValPair.value.len == RGB_LED_DATA_LEN) */
 376:ble_process.c **** 					{
 377:ble_process.c **** 						/* Send the error code for invalid attribute length packet */
 378:ble_process.c **** 						SendErrorCode(CYBLE_GATT_WRITE_REQ, 
 379:ble_process.c **** 										writeReqData.handleValPair.attrHandle, 
 380:ble_process.c **** 										ERR_INVALID_ATT_LEN);
 381:ble_process.c **** 						return;
 382:ble_process.c **** 					}	/* if(writeReqData.handleValPair.value.len == RGB_LED_DATA_LEN) */
 383:ble_process.c **** 				}
 384:ble_process.c **** 				else	/* if(node_address != 0) */
 385:ble_process.c **** 				{
 386:ble_process.c **** 						/* As the node has not been assigned any address yet, send a error response to RGB
 387:ble_process.c **** 						* LED data Write request*/
 388:ble_process.c **** 						SendErrorCode(CYBLE_GATT_WRITE_REQ, 
 389:ble_process.c **** 										writeReqData.handleValPair.attrHandle, 
 390:ble_process.c **** 										ERR_INSUFF_RESOURCE);
 391:ble_process.c **** 						return;
 392:ble_process.c **** 				}
 393:ble_process.c **** 			}
 394:ble_process.c **** 			
ARM GAS  C:\Users\run1009\AppData\Local\Temp\cch0f4sO.s 			page 15


 395:ble_process.c **** 			/* As part of every write request, the server needs to send a write response. Note
 396:ble_process.c **** 			* that this will be sent only if all the application layer conditions are met on a 
 397:ble_process.c **** 			* write request. Else, an appropriate error code is sent. */
 398:ble_process.c **** 	        CyBle_GattsWriteRsp(cyBle_connHandle);
 399:ble_process.c **** 		break;
 400:ble_process.c **** 			
 401:ble_process.c **** 		case CYBLE_EVT_GATTS_WRITE_CMD_REQ:
 402:ble_process.c **** 			/* This event is generated whenever a Client device sends a Write Command (Write 
 403:ble_process.c **** 			* without response) to a connected Server. Save the associated event parameter in
 404:ble_process.c **** 			* local variable. */
 405:ble_process.c **** 			writeCmdData = *(CYBLE_GATTS_WRITE_CMD_REQ_PARAM_T*)eventParam;
 406:ble_process.c **** 			
 407:ble_process.c **** 			/* Entertain the Write command only when the node address has been set to a valid 
 408:ble_process.c **** 			* value. Else, ignore the request. */
 409:ble_process.c **** 			if(node_address != 0)
 410:ble_process.c **** 			{
 411:ble_process.c **** 				/* Check if the Write command is for ADV Data counter characteristic */
 412:ble_process.c **** 				if(writeCmdData.handleValPair.attrHandle == CYBLE_RGB_DATA_COUNT_CHAR_HANDLE)
 413:ble_process.c **** 				{
 414:ble_process.c **** 					/* If the data sent is of one byte, then proceed. */
 415:ble_process.c **** 					if(writeCmdData.handleValPair.value.len == 1)
 416:ble_process.c **** 					{
 417:ble_process.c **** 						/* Extract and save the set ADV data counter value */
 418:ble_process.c **** 						dataADVCounter = *(writeCmdData.handleValPair.value.val);
 419:ble_process.c **** 						
 420:ble_process.c **** 						/* This increment is done to balance the ++ done as part of CYBLE_EVT_GATTS_WRITE_REQ */
 421:ble_process.c **** 						dataADVCounter--;
 422:ble_process.c **** 						
 423:ble_process.c **** 						/* Update the ADV data counter characteristic in GATT DB  to allow
 424:ble_process.c **** 						* Client to read the latest ADV data counter value */
 425:ble_process.c **** 						CyBle_GattsWriteAttributeValue(&writeCmdData.handleValPair,
 426:ble_process.c **** 														0,
 427:ble_process.c **** 														&cyBle_connHandle,
 428:ble_process.c **** 														CYBLE_GATT_DB_LOCALLY_INITIATED);
 429:ble_process.c **** 						
 430:ble_process.c **** 						#if (DEBUG_ENABLED == 1)
 431:ble_process.c **** 						UART_UartPutString("dataADVCounter from CYBLE_EVT_GATTS_WRITE_CMD_REQ = ");
 432:ble_process.c **** 						PrintNum(dataADVCounter);
 433:ble_process.c **** 						UART_UartPutCRLF(' ');
 434:ble_process.c **** 						#endif
 435:ble_process.c **** 					} /* if(writeCmdData.handleValPair.value.len == 1) */
 436:ble_process.c **** 				}
 437:ble_process.c **** 			}	/* if(node_address != 0) */
 438:ble_process.c **** 			break;
 439:ble_process.c **** 		
 440:ble_process.c **** 		case CYBLE_EVT_GAPC_SCAN_PROGRESS_RESULT:
 441:ble_process.c **** 			/* This event is generated whenever there is a peripheral device found by 
 442:ble_process.c **** 			* while scanning */
 443:ble_process.c **** 			if(CYBLE_STATE_CONNECTED != CyBle_GetState())	
 444:ble_process.c **** 			{
 445:ble_process.c **** 				/* If we are not connected to any peripheral device, then save the new device  
 446:ble_process.c **** 				* information so to add it to our list */
 447:ble_process.c **** 				scan_report = *(CYBLE_GAPC_ADV_REPORT_T*)eventParam;
 448:ble_process.c **** 				
 449:ble_process.c **** 				#if (DEBUG_ENABLED == 1)
 450:ble_process.c ****                     
 451:ble_process.c **** 					//UART_UartPutString("CYBLE_EVT_GAPC_SCAN_PROGRESS_RESULT ");
ARM GAS  C:\Users\run1009\AppData\Local\Temp\cch0f4sO.s 			page 16


 452:ble_process.c ****                     //UART_UartPutCRLF(' ');
 453:ble_process.c ****                     //UART_UartPutCRLF(' ');
 454:ble_process.c ****                     
 455:ble_process.c **** 				#endif
 456:ble_process.c **** 				
 457:ble_process.c **** 				#ifdef ENABLE_ADV_DATA_COUNTER
 458:ble_process.c **** 				/* If ADV DATA COUNTER is enabled, then the central device would check
 459:ble_process.c **** 				* if the counter in ADV packet of peripheral is less than its own counter
 460:ble_process.c **** 				* or not. If yes, then it will consider the peripheral has a older RGB LED
 461:ble_process.c **** 				* data and treat it as a potential device to connect to.*/
 462:ble_process.c **** 				if(scan_report.eventType == CYBLE_GAPC_CONN_UNDIRECTED_ADV)
 463:ble_process.c **** 				{                          
 464:ble_process.c **** 					/* If the scan report received is of advertising nature and the data 
 465:ble_process.c **** 					* length is as expected... */
 466:ble_process.c ****                     
 467:ble_process.c **** 					if(scan_report.dataLen == new_advData.advDataLen)
 468:ble_process.c **** 					{
 469:ble_process.c **** 						/* If the second last value of the advertising data matches the custom 
 470:ble_process.c **** 						* marker, then the peripheral is a node of the network */
 471:ble_process.c **** 						if(scan_report.data[scan_report.dataLen-2] == CUSTOM_ADV_DATA_MARKER)
 472:ble_process.c **** 						{
 473:ble_process.c **** 							/* If the ADV counter data in Advertising data is less than that of
 474:ble_process.c **** 							* the value in this scanning device, then the node is a potential node 
 475:ble_process.c **** 							* whose color has to be updated. */
 476:ble_process.c **** 							if((scan_report.data[scan_report.dataLen-1] < dataADVCounter) ||
 477:ble_process.c **** 							((scan_report.data[scan_report.dataLen-1] == 255) && (dataADVCounter == 0)))
 478:ble_process.c **** 							{
 479:ble_process.c **** 								/* Potential node found*/
 480:ble_process.c **** 								potential_node_found = TRUE;
 481:ble_process.c **** 								/* Save the advertising peripheral address and type*/
 482:ble_process.c **** 								memcpy(potential_node_bdAddr, scan_report.peerBdAddr, 6);
 483:ble_process.c **** 								potential_node_bdAddrType = scan_report.peerAddrType;
 484:ble_process.c **** 								
 485:ble_process.c **** 								#if (DEBUG_ENABLED == 1)
 486:ble_process.c **** 								UART_UartPutString("potential_node_found ");
 487:ble_process.c **** 								UART_UartPutCRLF(' ');
 488:ble_process.c **** 								#endif
 489:ble_process.c **** 							}
 490:ble_process.c **** 							else
 491:ble_process.c **** 							{
 492:ble_process.c **** 								/* If the ADV data counter is equal or more than the data counter
 493:ble_process.c **** 								* in this scanning device, then the node has latest RGB LED data
 494:ble_process.c **** 								* and does not need to be connected to. Reset the potential node 
 495:ble_process.c **** 								* address */
 496:ble_process.c **** 								potential_node_found = FALSE;
 497:ble_process.c **** 								
 498:ble_process.c **** 								potential_node_bdAddrType = 0;
 499:ble_process.c **** 								
 500:ble_process.c **** 								potential_node_bdAddr[0] = 0x00;
 501:ble_process.c **** 								potential_node_bdAddr[1] = 0x00;
 502:ble_process.c **** 								potential_node_bdAddr[2] = 0x00;
 503:ble_process.c **** 								potential_node_bdAddr[3] = 0x00;
 504:ble_process.c **** 								potential_node_bdAddr[4] = 0x00;
 505:ble_process.c **** 								potential_node_bdAddr[5] = 0x00;
 506:ble_process.c **** 							}
 507:ble_process.c **** 						}
 508:ble_process.c ****                         
ARM GAS  C:\Users\run1009\AppData\Local\Temp\cch0f4sO.s 			page 17


 509:ble_process.c ****                     }
 510:ble_process.c ****                     else{
 511:ble_process.c ****                     int check = 0;
 512:ble_process.c ****                     uint8 bt_addr[6] = {0x04,0x27,0xA8,0x1B,0x00,0xC4};
 513:ble_process.c ****                     
 514:ble_process.c ****                     for(uint8 i=0u;i<6u;i++){
 515:ble_process.c ****                         if(scan_report.peerBdAddr[i] == bt_addr[i]){
 516:ble_process.c ****                             check++;   
 517:ble_process.c ****                         }
 518:ble_process.c ****                     }
 519:ble_process.c ****                     
 520:ble_process.c ****                     if(check == 6){
 521:ble_process.c ****                         /* Stop existing scan */
 522:ble_process.c ****     					CyBle_GapcStopScan();
 523:ble_process.c ****     					
 524:ble_process.c ****     					#if (DEBUG_ENABLED == 1)
 525:ble_process.c ****     					UART_UartPutString("Stop Scan called ");
 526:ble_process.c ****     					UART_UartPutCRLF(' ');
 527:ble_process.c ****                         UART_UartPutCRLF(' ');
 528:ble_process.c ****                
 529:ble_process.c ****                         UART_UartPutString("EVENType: ");
 530:ble_process.c ****                         char eventType[1];
 531:ble_process.c ****                         sprintf(eventType, "%d", scan_report.eventType);
 532:ble_process.c ****                         UART_UartPutString(eventType);
 533:ble_process.c ****                         UART_UartPutString("\r\n");
 534:ble_process.c ****                         UART_UartPutString("RSSI: ");
 535:ble_process.c ****                         char rssi[12];
 536:ble_process.c ****                         sprintf(rssi, "%d", scan_report.rssi);
 537:ble_process.c ****                         UART_UartPutString(rssi);
 538:ble_process.c ****                         UART_UartPutString("\r\n");
 539:ble_process.c ****                         UART_UartPutString("BLE Address: 0x");
 540:ble_process.c **** 
 541:ble_process.c ****                         PrintHex(scan_report.peerBdAddr[5u]);
 542:ble_process.c ****     				    PrintHex(scan_report.peerBdAddr[4u]);
 543:ble_process.c ****     				    PrintHex(scan_report.peerBdAddr[3u]);
 544:ble_process.c ****                         PrintHex(scan_report.peerBdAddr[2u]);
 545:ble_process.c ****                         PrintHex(scan_report.peerBdAddr[1u]);
 546:ble_process.c ****                         PrintHex(scan_report.peerBdAddr[0u]);
 547:ble_process.c ****                         
 548:ble_process.c ****                         UART_UartPutCRLF(' ');
 549:ble_process.c ****                         UART_UartPutCRLF(' ');
 550:ble_process.c ****     					
 551:ble_process.c ****                         UART_UartPutString("****************Device Found***************\r\n");
 552:ble_process.c ****                         peripAddr.type = scan_report.peerAddrType;
 553:ble_process.c **** 						peripAddr.bdAddr[0] = scan_report.peerBdAddr[0];
 554:ble_process.c **** 						peripAddr.bdAddr[1] = scan_report.peerBdAddr[1];
 555:ble_process.c **** 						peripAddr.bdAddr[2] = scan_report.peerBdAddr[2];
 556:ble_process.c **** 						peripAddr.bdAddr[3] = scan_report.peerBdAddr[3];
 557:ble_process.c **** 						peripAddr.bdAddr[4] = scan_report.peerBdAddr[4];
 558:ble_process.c **** 						peripAddr.bdAddr[5] = scan_report.peerBdAddr[5];
 559:ble_process.c ****                         
 560:ble_process.c ****                         /* Set the flag to allow application to connect to the
 561:ble_process.c **** 									* peripheral found */
 562:ble_process.c **** 									clientConnectToDevice = TRUE;
 563:ble_process.c ****                         
 564:ble_process.c ****                        //writeReqData = *(CYBLE_GATTS_WRITE_REQ_PARAM_T*)eventParam;
 565:ble_process.c ****                         int index = 0;
ARM GAS  C:\Users\run1009\AppData\Local\Temp\cch0f4sO.s 			page 18


 566:ble_process.c ****                         //UART_UartPutString("writeReqData: ");
 567:ble_process.c ****                     
 568:ble_process.c ****                         for(int i=0;i<scan_report.dataLen;i++){
 569:ble_process.c ****                             val[i] = (uint8_t) scan_report.data[i];
 570:ble_process.c ****                         }
 571:ble_process.c ****                         //UART_UartPutCRLF(' '); 
 572:ble_process.c ****                         // for(int i=0;i<scan_report.dataLen;i++)
 573:ble_process.c ****                         //    UART_UartPutChar(val[i]);                      
 574:ble_process.c ****                         UART_UartPutCRLF(' ');
 575:ble_process.c ****                         EnvSensorProcess(scan_report.rssi,scan_report.data);
 576:ble_process.c ****                         ENV_SENSOR_T result = GetSensorData();
 577:ble_process.c ****                         char* temp = ftoa(result.temp);
 578:ble_process.c ****                         UART_UartPutString("temperature: ");
 579:ble_process.c ****                         UART_UartPutString(temp);
 580:ble_process.c ****                         UART_UartPutCRLF(' ');
 581:ble_process.c ****                         char li[1];
 582:ble_process.c ****                         sprintf(li, "%hi", result.light);
 583:ble_process.c ****                         UART_UartPutString("light: ");
 584:ble_process.c ****                         //UART_UartPutChar(li);
 585:ble_process.c ****                         PrintNum(result.light);
 586:ble_process.c ****                         UART_UartPutCRLF(' ');
 587:ble_process.c ****                         char* noise = ftoa(result.noise);
 588:ble_process.c ****                         UART_UartPutString("noise: ");
 589:ble_process.c ****                         UART_UartPutString(noise);
 590:ble_process.c ****                         UART_UartPutCRLF(' ');
 591:ble_process.c ****                         char* humi = ftoa(result.humi);
 592:ble_process.c ****                         UART_UartPutString("humidity: ");
 593:ble_process.c ****                         UART_UartPutString(humi);
 594:ble_process.c ****                         UART_UartPutCRLF(' ');
 595:ble_process.c ****                         char* uv = ftoa(result.uv);
 596:ble_process.c ****                         UART_UartPutString("uv: ");
 597:ble_process.c ****                         UART_UartPutString(uv);
 598:ble_process.c ****                         UART_UartPutCRLF(' ');
 599:ble_process.c ****                         char* press = ftoa(result.pressure);
 600:ble_process.c ****                         UART_UartPutString("pressure: ");
 601:ble_process.c ****                         UART_UartPutString(press);
 602:ble_process.c ****                         UART_UartPutCRLF(' ');
 603:ble_process.c ****                         char* di = ftoa(result.di);
 604:ble_process.c ****                         UART_UartPutString("dimention: ");
 605:ble_process.c ****                         UART_UartPutString(di);
 606:ble_process.c ****                         UART_UartPutCRLF(' ');
 607:ble_process.c ****                         char* heat = ftoa(result.heat);
 608:ble_process.c ****                         UART_UartPutString("heat: ");
 609:ble_process.c ****                         UART_UartPutString(heat);
 610:ble_process.c ****                         UART_UartPutCRLF(' ');
 611:ble_process.c ****                         char* battery = ftoa(result.battery);
 612:ble_process.c ****                         UART_UartPutString("battery: ");
 613:ble_process.c ****                         UART_UartPutString(battery);
 614:ble_process.c ****                         UART_UartPutCRLF(' ');
 615:ble_process.c ****                         char* distance = ftoa(result.distance);
 616:ble_process.c ****                         UART_UartPutString("distance: ");
 617:ble_process.c ****                         UART_UartPutString(distance);
 618:ble_process.c ****                         UART_UartPutCRLF(' ');
 619:ble_process.c ****                         UART_UartPutCRLF(' ');
 620:ble_process.c ****                         #endif
 621:ble_process.c ****                     }
 622:ble_process.c **** 					}
ARM GAS  C:\Users\run1009\AppData\Local\Temp\cch0f4sO.s 			page 19


 623:ble_process.c **** 				}
 624:ble_process.c **** 				#endif
 625:ble_process.c **** 				
 626:ble_process.c **** 				/* If the received scan data is part of scan response from a peripheral... */
 627:ble_process.c **** 				if(scan_report.eventType == CYBLE_GAPC_SCAN_RSP)
 628:ble_process.c **** 				{
 629:ble_process.c **** 					/* If the data lenght of the scan reponse packet is equal to expected
 630:ble_process.c **** 					* scan response data lenght...*/
 631:ble_process.c **** 					if(scan_report.dataLen == SCAN_TAG_DATA_LEN)
 632:ble_process.c **** 					{
 633:ble_process.c **** 						#ifdef ENABLE_ADV_DATA_COUNTER
 634:ble_process.c **** 						/* If a potential node had been found earlier as part of received 
 635:ble_process.c **** 						* advertising data, then compare the address of stored potential 
 636:ble_process.c **** 						* node and received address of the scan response */
 637:ble_process.c **** 						if(potential_node_found)
 638:ble_process.c **** 						{
 639:ble_process.c **** 							/* Compare the two addresses and type */
 640:ble_process.c **** 							if((!memcmp(scan_report.peerBdAddr, potential_node_bdAddr, 6))  
 641:ble_process.c **** 								&& (potential_node_bdAddrType == scan_report.peerAddrType))
 642:ble_process.c **** 							{
 643:ble_process.c **** 						#endif
 644:ble_process.c **** 								/* If the scan report data matches the expected data (scan_tag),
 645:ble_process.c **** 								* then it is our desired node */
 646:ble_process.c **** 								if(!memcmp(scan_report.data, scan_tag, scan_report.dataLen))
 647:ble_process.c **** 								{
 648:ble_process.c **** 									#if (DEBUG_ENABLED == 1)
 649:ble_process.c **** 									UART_UartPutString("Titan Found ");
 650:ble_process.c **** 									UART_UartPutCRLF(' ');
 651:ble_process.c **** 									#endif
 652:ble_process.c **** 									/* Stop existing scan */
 653:ble_process.c **** 									CyBle_GapcStopScan();
 654:ble_process.c **** 									
 655:ble_process.c **** 									#if (DEBUG_ENABLED == 1)
 656:ble_process.c **** 									UART_UartPutString("Stop Scan called ");
 657:ble_process.c **** 									UART_UartPutCRLF(' ');
 658:ble_process.c **** 									#endif
 659:ble_process.c **** 									
 660:ble_process.c **** 									/* Save the peripheral BD address and type */
 661:ble_process.c **** 									peripAddr.type = scan_report.peerAddrType;
 662:ble_process.c **** 									peripAddr.bdAddr[0] = scan_report.peerBdAddr[0];
 663:ble_process.c **** 									peripAddr.bdAddr[1] = scan_report.peerBdAddr[1];
 664:ble_process.c **** 									peripAddr.bdAddr[2] = scan_report.peerBdAddr[2];
 665:ble_process.c **** 									peripAddr.bdAddr[3] = scan_report.peerBdAddr[3];
 666:ble_process.c **** 									peripAddr.bdAddr[4] = scan_report.peerBdAddr[4];
 667:ble_process.c **** 									peripAddr.bdAddr[5] = scan_report.peerBdAddr[5];
 668:ble_process.c **** 									
 669:ble_process.c **** 									/* Set the flag to allow application to connect to the
 670:ble_process.c **** 									* peripheral found */
 671:ble_process.c **** 									clientConnectToDevice = TRUE;
 672:ble_process.c **** 									
 673:ble_process.c **** 									#ifdef ENABLE_ADV_DATA_COUNTER
 674:ble_process.c **** 									/* Reset the potential node flag*/
 675:ble_process.c **** 									potential_node_found = FALSE;
 676:ble_process.c **** 									#endif
 677:ble_process.c **** 									
 678:ble_process.c **** 								}
 679:ble_process.c **** 						#ifdef ENABLE_ADV_DATA_COUNTER
ARM GAS  C:\Users\run1009\AppData\Local\Temp\cch0f4sO.s 			page 20


 680:ble_process.c **** 							}
 681:ble_process.c **** 						}
 682:ble_process.c **** 						#endif
 683:ble_process.c **** 					}
 684:ble_process.c **** 				}
 685:ble_process.c **** 			}
 686:ble_process.c **** 
 687:ble_process.c **** 		break;
 688:ble_process.c **** 			
 689:ble_process.c **** 		case CYBLE_EVT_GAP_DEVICE_CONNECTED:
 690:ble_process.c **** 			/* This event is received whenever the device connect on GAP layer */
 691:ble_process.c **** 			#if (DEBUG_ENABLED == 1)
 692:ble_process.c **** 				UART_UartPutString("CYBLE_EVT_GAP_DEVICE_CONNECTED: ");
 693:ble_process.c **** 				CyBle_GapGetPeerBdAddr(cyBle_connHandle.bdHandle, &gap_bdaddr);
 694:ble_process.c **** 				PrintHex(gap_bdaddr.bdAddr[0]);
 695:ble_process.c **** 				PrintHex(gap_bdaddr.bdAddr[1]);
 696:ble_process.c **** 				PrintHex(gap_bdaddr.bdAddr[2]);
 697:ble_process.c **** 				UART_UartPutCRLF(' ');
 698:ble_process.c **** 			#endif
 699:ble_process.c **** 			
 700:ble_process.c **** 			if(ble_gap_state == BLE_CENTRAL)
 701:ble_process.c **** 			{
 702:ble_process.c **** 				uint8 rgb_data[RGB_LED_DATA_LEN];
 703:ble_process.c **** 				
 704:ble_process.c **** 				#ifdef ENABLE_CENTRAL_DISCOVERY
 705:ble_process.c **** 					/* The Device is connected now. Start Attributes discovery process.*/
 706:ble_process.c **** 					CyBle_GattcStartDiscovery(cyBle_connHandle);
 707:ble_process.c **** 					#if (DEBUG_ENABLED == 1)
 708:ble_process.c **** 						UART_UartPutString("CYBLE_EVT_GAP_DEVICE_CONNECTED ");
 709:ble_process.c **** 						SendBLEStatetoUART(CyBle_GetState());
 710:ble_process.c **** 						UART_UartPutCRLF(' ');
 711:ble_process.c ****                         
 712:ble_process.c ****                         
 713:ble_process.c **** 					#endif
 714:ble_process.c **** 				#else
 715:ble_process.c **** 					/* If this system is currently acting in Central role and has connected
 716:ble_process.c **** 					* to a peripheral device, then write directly the ADV counter data and
 717:ble_process.c **** 					* RGB LED control data using attribute handles */
 718:ble_process.c **** 					
 719:ble_process.c **** 					/* Set the device connected flag */
 720:ble_process.c **** 					deviceConnected = TRUE;
 721:ble_process.c **** 					#if (DEBUG_ENABLED == 1)
 722:ble_process.c **** 						UART_UartPutString("Directly write RGB using Attr handle ");
 723:ble_process.c **** 						SendBLEStatetoUART(CyBle_GetState());
 724:ble_process.c **** 						UART_UartPutCRLF(' ');
 725:ble_process.c **** 					#endif
 726:ble_process.c **** 					
 727:ble_process.c **** 					/* Write the Data Counter value */
 728:ble_process.c **** 					writeADVcounterdata.attrHandle = CYBLE_RGB_DATA_COUNT_CHAR_HANDLE;
 729:ble_process.c **** 					writeADVcounterdata.value.val = &dataADVCounter;
 730:ble_process.c **** 					writeADVcounterdata.value.len = 1;
 731:ble_process.c **** 					CyBle_GattcWriteWithoutResponse(cyBle_connHandle, &writeADVcounterdata);
 732:ble_process.c **** 				
 733:ble_process.c **** 					/* Write the RGB LED Data */
 734:ble_process.c **** 					rgb_data[DATA_NODE_ADDR_TYPE_INDEX] = 	received_node_addr_type;
 735:ble_process.c **** 					rgb_data[RESERVED_BYTE_INDEX] = 		RESERVED_BYTE_VALUE;
 736:ble_process.c **** 					rgb_data[DATA_NODE_ADDR_LSB_INDEX] = 	(uint8)(received_node_addr & 0x00FF);
ARM GAS  C:\Users\run1009\AppData\Local\Temp\cch0f4sO.s 			page 21


 737:ble_process.c **** 					rgb_data[DATA_NODE_ADDR_MSB_INDEX] = 	(uint8)((received_node_addr & 0xFF00) >> 8);
 738:ble_process.c **** 					rgb_data[DATA_INDEX] = 					RGBData[RGB_RED_INDEX];
 739:ble_process.c **** 					rgb_data[DATA_INDEX+1] = 				RGBData[RGB_GREEN_INDEX];
 740:ble_process.c **** 					rgb_data[DATA_INDEX+2] = 				RGBData[RGB_BLUE_INDEX];
 741:ble_process.c **** 					rgb_data[DATA_INDEX+3] = 				RGBData[RGB_INTENSITY_INDEX];
 742:ble_process.c **** 					
 743:ble_process.c **** 					writeRGBdata.attrHandle = CYBLE_RGB_LED_CONTROL_CHAR_HANDLE;
 744:ble_process.c **** 					writeRGBdata.value.val = rgb_data;
 745:ble_process.c **** 					writeRGBdata.value.len = RGB_LED_DATA_LEN;
 746:ble_process.c **** 					CyBle_GattcWriteCharacteristicValue(cyBle_connHandle, &writeRGBdata);
 747:ble_process.c **** 				#endif
 748:ble_process.c **** 			}	
 749:ble_process.c ****         break;
 750:ble_process.c **** 			
 751:ble_process.c **** 		case CYBLE_EVT_GATTC_DISCOVERY_COMPLETE:
 752:ble_process.c **** 			/* This event is generated whenever the discovery procedure is complete*/
 753:ble_process.c **** 			
 754:ble_process.c **** 			#ifdef ENABLE_CENTRAL_DISCOVERY
 755:ble_process.c **** 			deviceConnected = TRUE;
 756:ble_process.c **** 			#if (DEBUG_ENABLED == 1)
 757:ble_process.c **** 				UART_UartPutString("CYBLE_EVT_GATTC_DISCOVERY_COMPLETE ");
 758:ble_process.c **** 				SendBLEStatetoUART(CyBle_GetState());
 759:ble_process.c **** 				UART_UartPutCRLF(' ');
 760:ble_process.c **** 
 761:ble_process.c ****                 readBlobdata.attrHandle = CYBLE_CUSTOM_SERVICE_CHAR_DESCRIPTORS_COUNT;
 762:ble_process.c ****                 readBlobdata.offset = 
 763:ble_process.c ****                CyBle_GattcReadLongCharacteristicDescriptors(cyBle_connHandle, &readBlobdata);
 764:ble_process.c **** 			#endif
 765:ble_process.c **** 			
 766:ble_process.c **** 			/* Write the Data Counter value */
 767:ble_process.c **** 			writeADVcounterdata.attrHandle = CYBLE_RGB_DATA_COUNT_CHAR_HANDLE;
 768:ble_process.c **** 			writeADVcounterdata.value.val = &dataADVCounter;
 769:ble_process.c **** 			writeADVcounterdata.value.len = 1;
 770:ble_process.c **** 			CyBle_GattcWriteWithoutResponse(cyBle_connHandle, &writeADVcounterdata);
 771:ble_process.c **** 		
 772:ble_process.c **** 			/* Write the RGB LED Value */
 773:ble_process.c **** 			writeRGBdata.attrHandle = CYBLE_RGB_LED_CONTROL_CHAR_HANDLE;
 774:ble_process.c **** 			writeRGBdata.value.val = RGBData;
 775:ble_process.c **** 			writeRGBdata.value.len = RGB_LED_DATA_LEN;
 776:ble_process.c **** 			CyBle_GattcWriteCharacteristicValue(cyBle_connHandle, &writeRGBdata);
 777:ble_process.c **** 			#endif
 778:ble_process.c ****             
 779:ble_process.c **** 		break;
 780:ble_process.c **** 			
 781:ble_process.c **** 		case CYBLE_EVT_GATTC_WRITE_RSP:
 782:ble_process.c **** 			/* This event is generated when the Client device receives a response
 783:ble_process.c **** 			* as part of the Write request sent earlier. This indicates that
 784:ble_process.c **** 			* the RGB LED data was written successfully */
 785:ble_process.c **** 			#if (DEBUG_ENABLED == 1)
 786:ble_process.c **** 				UART_UartPutString("CYBLE_EVT_GATTC_WRITE_RSP ");
 787:ble_process.c **** 				SendBLEStatetoUART(CyBle_GetState());
 788:ble_process.c **** 				UART_UartPutCRLF(' ');
 789:ble_process.c **** 			#endif
 790:ble_process.c **** 			
 791:ble_process.c **** 			/* Disconnect the existing connection and restart scanning */
 792:ble_process.c **** 			if((cyBle_connHandle.bdHandle != 0))
 793:ble_process.c **** 			{
ARM GAS  C:\Users\run1009\AppData\Local\Temp\cch0f4sO.s 			page 22


 794:ble_process.c **** 				CyBle_GapDisconnect(cyBle_connHandle.bdHandle);
 795:ble_process.c **** 				
 796:ble_process.c **** 				restartScanning = TRUE;
 797:ble_process.c **** 				
 798:ble_process.c **** 				#if (DEBUG_ENABLED == 1)
 799:ble_process.c **** 				UART_UartPutString("Disconnect and restart scanning ");
 800:ble_process.c **** 				SendBLEStatetoUART(CyBle_GetState());
 801:ble_process.c **** 				UART_UartPutCRLF(' ');
 802:ble_process.c **** 				#endif
 803:ble_process.c **** 			}
 804:ble_process.c **** 		break;
 805:ble_process.c **** 			
 806:ble_process.c **** 		case CYBLE_EVT_GAP_DEVICE_DISCONNECTED:
 807:ble_process.c **** 			/* This event is generated when the device disconnects from an 
 808:ble_process.c **** 			* existing connection */
 809:ble_process.c **** 			deviceConnected = FALSE;
 810:ble_process.c **** 			
 811:ble_process.c **** 			#if (DEBUG_ENABLED == 1)
 812:ble_process.c **** 				UART_UartPutString("CYBLE_EVT_GAP_DEVICE_DISCONNECTED ");
 813:ble_process.c **** 				SendBLEStatetoUART(CyBle_GetState());
 814:ble_process.c **** 				UART_UartPutCRLF(' ');
 815:ble_process.c **** 			#endif
 816:ble_process.c **** 			
 817:ble_process.c **** 			if((ble_gap_state == BLE_PERIPHERAL) && (switch_Role != TRUE))
 818:ble_process.c **** 			{
 819:ble_process.c **** 				/* If the current role of this system was Peripheral and the role
 820:ble_process.c **** 				* is not to be switched, then restart advertisement */
 821:ble_process.c **** 				if(CYBLE_STATE_DISCONNECTED == CyBle_GetState())
 822:ble_process.c **** 				{
 823:ble_process.c **** 					CyBle_GappStartAdvertisement(CYBLE_ADVERTISING_FAST);	
 824:ble_process.c **** 					#if (DEBUG_ENABLED == 1)
 825:ble_process.c **** 					UART_UartPutString("Restart Advertisement ");
 826:ble_process.c **** 					SendBLEStatetoUART(CyBle_GetState());
 827:ble_process.c **** 					UART_UartPutCRLF(' ');
 828:ble_process.c **** 					#endif
 829:ble_process.c **** 				}
 830:ble_process.c **** 			}
 831:ble_process.c **** 			else if((ble_gap_state == BLE_CENTRAL) && (switch_Role != TRUE))
 832:ble_process.c **** 			{
 833:ble_process.c **** 				/* If the current role of this system was Central and the role
 834:ble_process.c **** 				* is not to be switched, then restart scanning */
 835:ble_process.c **** 				if(CYBLE_STATE_DISCONNECTED == CyBle_GetState())
 836:ble_process.c **** 				{
 837:ble_process.c **** 					CyBle_GapcStartScan(CYBLE_SCANNING_FAST);	
 838:ble_process.c **** 					#if (DEBUG_ENABLED == 1)
 839:ble_process.c **** 					UART_UartPutString("Restart Scanning ");
 840:ble_process.c **** 					SendBLEStatetoUART(CyBle_GetState());
 841:ble_process.c **** 					UART_UartPutCRLF(' ');
 842:ble_process.c **** 					#endif
 843:ble_process.c **** 				}	
 844:ble_process.c **** 			}
 845:ble_process.c **** 		break;
 846:ble_process.c **** 			
 847:ble_process.c **** 		default:
 848:ble_process.c **** 			eventParam = eventParam;
 849:ble_process.c **** 		break;
 284              		.loc 1 849 0
ARM GAS  C:\Users\run1009\AppData\Local\Temp\cch0f4sO.s 			page 23


 285 0026 00F0C6FE 		bl	.L1	@ far jump
 286              	.L6:
  83:ble_process.c **** 	{
 287              		.loc 1 83 0
 288 002a 282B     		cmp	r3, #40
 289 002c 01D1     		bne	.LCB33
 290 002e 00F06FFE 		bl	.L9	@far jump
 291              	.LCB33:
 292 0032 01D2     		bcs	.LCB35
 293 0034 00F072FD 		bl	.L10	@far jump
 294              	.LCB35:
 295 0038 2B2B     		cmp	r3, #43
 296 003a 00D1     		bne	.LCB37
 297 003c 83E0     		b	.L11	@long jump
 298              	.LCB37:
 299              		.loc 1 849 0
 300 003e 00F0BAFE 		bl	.L1	@ far jump
 301              	.L4:
  83:ble_process.c **** 	{
 302              		.loc 1 83 0
 303 0042 4C2B     		cmp	r3, #76
 304 0044 00D1     		bne	.LCB43
 305 0046 A3E0     		b	.L12	@long jump
 306              	.LCB43:
 307 0048 06D8     		bhi	.L13
 308 004a 422B     		cmp	r3, #66
 309 004c 00D1     		bne	.LCB47
 310 004e 96E0     		b	.L14	@long jump
 311              	.LCB47:
 312 0050 4A2B     		cmp	r3, #74
 313 0052 72D0     		beq	.L15
 314              		.loc 1 849 0
 315 0054 00F0AFFE 		bl	.L1	@ far jump
 316              	.L13:
  83:ble_process.c **** 	{
 317              		.loc 1 83 0
 318 0058 4E2B     		cmp	r3, #78
 319 005a 00D1     		bne	.LCB55
 320 005c 0CE2     		b	.L16	@long jump
 321              	.LCB55:
 322 005e 01D2     		bcs	.LCB57
 323 0060 00F031FE 		bl	.L17	@far jump
 324              	.LCB57:
 325 0064 8922     		movs	r2, #137
 326 0066 5200     		lsls	r2, r2, #1
 327 0068 9342     		cmp	r3, r2
 328 006a 01D1     		bne	.LCB61
 329 006c 00F0CAFD 		bl	.L18	@far jump
 330              	.LCB61:
 331              		.loc 1 849 0
 332 0070 00F0A1FE 		bl	.L1	@ far jump
 333              	.L7:
  87:ble_process.c **** 			UART_UartPutCRLF(' ');
 334              		.loc 1 87 0
 335 0074 DD4B     		ldr	r3, .L61
 336 0076 1800     		movs	r0, r3
 337 0078 FFF7FEFF 		bl	UART_UartPutString
ARM GAS  C:\Users\run1009\AppData\Local\Temp\cch0f4sO.s 			page 24


  88:ble_process.c **** 			#endif
 338              		.loc 1 88 0
 339 007c 2020     		movs	r0, #32
 340 007e FFF7FEFF 		bl	UART_UartPutCRLF
  92:ble_process.c **** 			{
 341              		.loc 1 92 0
 342 0082 DB4B     		ldr	r3, .L61+4
 343 0084 1B78     		ldrb	r3, [r3]
 344 0086 002B     		cmp	r3, #0
 345 0088 0FD1     		bne	.L19
  96:ble_process.c **** 				
 346              		.loc 1 96 0
 347 008a F223     		movs	r3, #242
 348 008c FC18     		adds	r4, r7, r3
 349 008e 0020     		movs	r0, #0
 350 0090 FFF7FEFF 		bl	CyBle_GappStartAdvertisement
 351 0094 0300     		movs	r3, r0
 352 0096 2380     		strh	r3, [r4]
  98:ble_process.c **** 				{
 353              		.loc 1 98 0
 354 0098 F223     		movs	r3, #242
 355 009a FB18     		adds	r3, r7, r3
 356 009c 1B88     		ldrh	r3, [r3]
 357 009e 002B     		cmp	r3, #0
 358 00a0 1ED1     		bne	.L21
 101:ble_process.c **** 				}
 359              		.loc 1 101 0
 360 00a2 D44B     		ldr	r3, .L61+8
 361 00a4 0122     		movs	r2, #1
 362 00a6 1A70     		strb	r2, [r3]
 363 00a8 1AE0     		b	.L21
 364              	.L19:
 108:ble_process.c **** 					
 365              		.loc 1 108 0
 366 00aa F223     		movs	r3, #242
 367 00ac FC18     		adds	r4, r7, r3
 368 00ae 0020     		movs	r0, #0
 369 00b0 FFF7FEFF 		bl	CyBle_GapcStartScan
 370 00b4 0300     		movs	r3, r0
 371 00b6 2380     		strh	r3, [r4]
 110:ble_process.c **** 				{
 372              		.loc 1 110 0
 373 00b8 F223     		movs	r3, #242
 374 00ba FB18     		adds	r3, r7, r3
 375 00bc 1B88     		ldrh	r3, [r3]
 376 00be 002B     		cmp	r3, #0
 377 00c0 0ED1     		bne	.L21
 113:ble_process.c **** 					UART_UartPutCRLF(' ');
 378              		.loc 1 113 0
 379 00c2 CD4B     		ldr	r3, .L61+12
 380 00c4 1800     		movs	r0, r3
 381 00c6 FFF7FEFF 		bl	UART_UartPutString
 114:ble_process.c **** 					#endif
 382              		.loc 1 114 0
 383 00ca 2020     		movs	r0, #32
 384 00cc FFF7FEFF 		bl	UART_UartPutCRLF
 119:ble_process.c **** 					
ARM GAS  C:\Users\run1009\AppData\Local\Temp\cch0f4sO.s 			page 25


 385              		.loc 1 119 0
 386 00d0 CA4B     		ldr	r3, .L61+16
 387 00d2 1B88     		ldrh	r3, [r3]
 388 00d4 9AB2     		uxth	r2, r3
 389 00d6 CA4B     		ldr	r3, .L61+20
 390 00d8 1A80     		strh	r2, [r3]
 122:ble_process.c **** 				}
 391              		.loc 1 122 0
 392 00da C64B     		ldr	r3, .L61+8
 393 00dc 0222     		movs	r2, #2
 394 00de 1A70     		strb	r2, [r3]
 395              	.L21:
 127:ble_process.c **** 			#endif
 396              		.loc 1 127 0
 397 00e0 C34B     		ldr	r3, .L61+4
 398 00e2 0022     		movs	r2, #0
 399 00e4 1A70     		strb	r2, [r3]
 129:ble_process.c **** 			
 400              		.loc 1 129 0
 401 00e6 00F066FE 		bl	.L1	@ far jump
 402              	.L5:
 140:ble_process.c **** 			{
 403              		.loc 1 140 0
 404 00ea C64B     		ldr	r3, .L61+24
 405 00ec 1B78     		ldrb	r3, [r3]
 406 00ee 062B     		cmp	r3, #6
 407 00f0 01D0     		beq	.LCB129
 408 00f2 00F055FE 		bl	.L55	@far jump
 409              	.LCB129:
 140:ble_process.c **** 			{
 410              		.loc 1 140 0 is_stmt 0 discriminator 1
 411 00f6 C44B     		ldr	r3, .L61+28
 412 00f8 1B78     		ldrb	r3, [r3]
 413 00fa 002B     		cmp	r3, #0
 414 00fc 01D0     		beq	.LCB133
 415 00fe 00F04FFE 		bl	.L55	@far jump
 416              	.LCB133:
 146:ble_process.c **** 				
 417              		.loc 1 146 0 is_stmt 1
 418 0102 F223     		movs	r3, #242
 419 0104 FC18     		adds	r4, r7, r3
 420 0106 0020     		movs	r0, #0
 421 0108 FFF7FEFF 		bl	CyBle_GappStartAdvertisement
 422 010c 0300     		movs	r3, r0
 423 010e 2380     		strh	r3, [r4]
 148:ble_process.c **** 				{
 424              		.loc 1 148 0
 425 0110 F223     		movs	r3, #242
 426 0112 FB18     		adds	r3, r7, r3
 427 0114 1B88     		ldrh	r3, [r3]
 428 0116 002B     		cmp	r3, #0
 429 0118 01D0     		beq	.LCB144
 430 011a 00F041FE 		bl	.L55	@far jump
 431              	.LCB144:
 151:ble_process.c **** 					SendBLEStatetoUART(CyBle_GetState());
 432              		.loc 1 151 0
 433 011e BB4B     		ldr	r3, .L61+32
ARM GAS  C:\Users\run1009\AppData\Local\Temp\cch0f4sO.s 			page 26


 434 0120 1800     		movs	r0, r3
 435 0122 FFF7FEFF 		bl	UART_UartPutString
 152:ble_process.c **** 					UART_UartPutCRLF(' ');
 436              		.loc 1 152 0
 437 0126 B74B     		ldr	r3, .L61+24
 438 0128 1B78     		ldrb	r3, [r3]
 439 012a 1800     		movs	r0, r3
 440 012c FFF7FEFF 		bl	SendBLEStatetoUART
 153:ble_process.c **** 					#endif
 441              		.loc 1 153 0
 442 0130 2020     		movs	r0, #32
 443 0132 FFF7FEFF 		bl	UART_UartPutCRLF
 157:ble_process.c ****             
 444              		.loc 1 157 0
 445 0136 00F033FE 		bl	.L55	@ far jump
 446              	.L15:
 161:ble_process.c ****             break;
 447              		.loc 1 161 0
 448 013a B54B     		ldr	r3, .L61+36
 449 013c 1800     		movs	r0, r3
 450 013e FFF7FEFF 		bl	UART_UartPutString
 162:ble_process.c **** 			
 451              		.loc 1 162 0
 452 0142 00F038FE 		bl	.L1	@ far jump
 453              	.L11:
 167:ble_process.c **** 			PrintHex(*(uint8*)eventParam);
 454              		.loc 1 167 0
 455 0146 B34B     		ldr	r3, .L61+40
 456 0148 1800     		movs	r0, r3
 457 014a FFF7FEFF 		bl	UART_UartPutString
 168:ble_process.c **** 			SendBLEStatetoUART(CyBle_GetState());
 458              		.loc 1 168 0
 459 014e 3B68     		ldr	r3, [r7]
 460 0150 1B78     		ldrb	r3, [r3]
 461 0152 1800     		movs	r0, r3
 462 0154 FFF7FEFF 		bl	PrintHex
 169:ble_process.c **** 			UART_UartPutCRLF(' ');
 463              		.loc 1 169 0
 464 0158 AA4B     		ldr	r3, .L61+24
 465 015a 1B78     		ldrb	r3, [r3]
 466 015c 1800     		movs	r0, r3
 467 015e FFF7FEFF 		bl	SendBLEStatetoUART
 170:ble_process.c **** 			#endif
 468              		.loc 1 170 0
 469 0162 2020     		movs	r0, #32
 470 0164 FFF7FEFF 		bl	UART_UartPutCRLF
 172:ble_process.c **** 			
 471              		.loc 1 172 0
 472 0168 00F025FE 		bl	.L1	@ far jump
 473              	.L3:
 178:ble_process.c **** 			UART_UartPutCRLF(' ');
 474              		.loc 1 178 0
 475 016c AA4B     		ldr	r3, .L61+44
 476 016e 1800     		movs	r0, r3
 477 0170 FFF7FEFF 		bl	UART_UartPutString
 179:ble_process.c ****             /*
 478              		.loc 1 179 0
ARM GAS  C:\Users\run1009\AppData\Local\Temp\cch0f4sO.s 			page 27


 479 0174 2020     		movs	r0, #32
 480 0176 FFF7FEFF 		bl	UART_UartPutCRLF
 190:ble_process.c **** 		
 481              		.loc 1 190 0
 482 017a 00F01CFE 		bl	.L1	@ far jump
 483              	.L14:
 196:ble_process.c **** 			UART_UartPutCRLF(' ');
 484              		.loc 1 196 0
 485 017e A74B     		ldr	r3, .L61+48
 486 0180 1800     		movs	r0, r3
 487 0182 FFF7FEFF 		bl	UART_UartPutString
 197:ble_process.c **** 			#endif
 488              		.loc 1 197 0
 489 0186 2020     		movs	r0, #32
 490 0188 FFF7FEFF 		bl	UART_UartPutCRLF
 199:ble_process.c **** 			
 491              		.loc 1 199 0
 492 018c 00F013FE 		bl	.L1	@ far jump
 493              	.L12:
 206:ble_process.c **** 			{
 494              		.loc 1 206 0
 495 0190 B823     		movs	r3, #184
 496 0192 FB18     		adds	r3, r7, r3
 497 0194 9B89     		ldrh	r3, [r3, #12]
 498 0196 152B     		cmp	r3, #21
 499 0198 60D1     		bne	.L24
 210:ble_process.c **** 				{
 500              		.loc 1 210 0
 501 019a B823     		movs	r3, #184
 502 019c FB18     		adds	r3, r7, r3
 503 019e 1B89     		ldrh	r3, [r3, #8]
 504 01a0 022B     		cmp	r3, #2
 505 01a2 4ED1     		bne	.L25
 213:ble_process.c **** 					#endif
 506              		.loc 1 213 0
 507 01a4 9E4B     		ldr	r3, .L61+52
 508 01a6 1800     		movs	r0, r3
 509 01a8 FFF7FEFF 		bl	UART_UartPutString
 216:ble_process.c **** 													| writeReqData.handleValPair.value.val[NODE_ADDR_LSB_VAL_INDEX]);
 510              		.loc 1 216 0
 511 01ac B823     		movs	r3, #184
 512 01ae FB18     		adds	r3, r7, r3
 513 01b0 5B68     		ldr	r3, [r3, #4]
 514 01b2 0133     		adds	r3, r3, #1
 515 01b4 1B78     		ldrb	r3, [r3]
 516 01b6 1B02     		lsls	r3, r3, #8
 517 01b8 1AB2     		sxth	r2, r3
 217:ble_process.c **** 					
 518              		.loc 1 217 0
 519 01ba B823     		movs	r3, #184
 520 01bc FB18     		adds	r3, r7, r3
 521 01be 5B68     		ldr	r3, [r3, #4]
 522 01c0 1B78     		ldrb	r3, [r3]
 216:ble_process.c **** 													| writeReqData.handleValPair.value.val[NODE_ADDR_LSB_VAL_INDEX]);
 523              		.loc 1 216 0
 524 01c2 1BB2     		sxth	r3, r3
 525 01c4 1343     		orrs	r3, r2
ARM GAS  C:\Users\run1009\AppData\Local\Temp\cch0f4sO.s 			page 28


 526 01c6 1BB2     		sxth	r3, r3
 527 01c8 9AB2     		uxth	r2, r3
 528 01ca 964B     		ldr	r3, .L61+56
 529 01cc 1A80     		strh	r2, [r3]
 219:ble_process.c **** 					{
 530              		.loc 1 219 0
 531 01ce 954B     		ldr	r3, .L61+56
 532 01d0 1B88     		ldrh	r3, [r3]
 533 01d2 002B     		cmp	r3, #0
 534 01d4 04D0     		beq	.L26
 219:ble_process.c **** 					{
 535              		.loc 1 219 0 is_stmt 0 discriminator 1
 536 01d6 934B     		ldr	r3, .L61+56
 537 01d8 1B88     		ldrh	r3, [r3]
 538 01da 934A     		ldr	r2, .L61+60
 539 01dc 9342     		cmp	r3, r2
 540 01de 10D1     		bne	.L27
 541              	.L26:
 223:ble_process.c **** 										writeReqData.handleValPair.attrHandle, 
 542              		.loc 1 223 0 is_stmt 1
 543 01e0 B823     		movs	r3, #184
 544 01e2 FB18     		adds	r3, r7, r3
 545 01e4 9B89     		ldrh	r3, [r3, #12]
 546 01e6 0422     		movs	r2, #4
 547 01e8 1900     		movs	r1, r3
 548 01ea 1220     		movs	r0, #18
 549 01ec FFF7FEFF 		bl	SendErrorCode
 228:ble_process.c **** 						#endif
 550              		.loc 1 228 0
 551 01f0 8E4B     		ldr	r3, .L61+64
 552 01f2 1800     		movs	r0, r3
 553 01f4 FFF7FEFF 		bl	UART_UartPutString
 231:ble_process.c **** 						
 554              		.loc 1 231 0
 555 01f8 8A4B     		ldr	r3, .L61+56
 556 01fa 0022     		movs	r2, #0
 557 01fc 1A80     		strh	r2, [r3]
 233:ble_process.c **** 					}
 558              		.loc 1 233 0
 559 01fe 00F0DAFD 		bl	.L1	@ far jump
 560              	.L27:
 241:ble_process.c **** 						#endif
 561              		.loc 1 241 0
 562 0202 884B     		ldr	r3, .L61+56
 563 0204 1B88     		ldrh	r3, [r3]
 564 0206 1800     		movs	r0, r3
 565 0208 FFF7FEFF 		bl	UpdateSFlashNodeAddress
 246:ble_process.c **** 														0,
 566              		.loc 1 246 0
 567 020c 884A     		ldr	r2, .L61+68
 568 020e B823     		movs	r3, #184
 569 0210 FB18     		adds	r3, r7, r3
 570 0212 181D     		adds	r0, r3, #4
 571 0214 0023     		movs	r3, #0
 572 0216 0021     		movs	r1, #0
 573 0218 FFF7FEFF 		bl	CyBle_GattsWriteAttributeValue
 252:ble_process.c **** 						#endif
ARM GAS  C:\Users\run1009\AppData\Local\Temp\cch0f4sO.s 			page 29


 574              		.loc 1 252 0
 575 021c 2020     		movs	r0, #32
 576 021e FFF7FEFF 		bl	UART_UartPutCRLF
 257:ble_process.c **** 						new_advData.advData[ADV_DATA_NAME_START_INDEX+1] = 'i';
 577              		.loc 1 257 0
 578 0222 844B     		ldr	r3, .L61+72
 579 0224 5422     		movs	r2, #84
 580 0226 5A71     		strb	r2, [r3, #5]
 258:ble_process.c **** 						new_advData.advData[ADV_DATA_NAME_START_INDEX+2] = 't';
 581              		.loc 1 258 0
 582 0228 824B     		ldr	r3, .L61+72
 583 022a 6922     		movs	r2, #105
 584 022c 9A71     		strb	r2, [r3, #6]
 259:ble_process.c **** 						new_advData.advData[ADV_DATA_NAME_START_INDEX+3] = 'a';
 585              		.loc 1 259 0
 586 022e 814B     		ldr	r3, .L61+72
 587 0230 7422     		movs	r2, #116
 588 0232 DA71     		strb	r2, [r3, #7]
 260:ble_process.c **** 						new_advData.advData[ADV_DATA_NAME_START_INDEX+4] = 'n';
 589              		.loc 1 260 0
 590 0234 7F4B     		ldr	r3, .L61+72
 591 0236 6122     		movs	r2, #97
 592 0238 1A72     		strb	r2, [r3, #8]
 261:ble_process.c **** 					}
 593              		.loc 1 261 0
 594 023a 7E4B     		ldr	r3, .L61+72
 595 023c 6E22     		movs	r2, #110
 596 023e 5A72     		strb	r2, [r3, #9]
 597 0240 0CE0     		b	.L24
 598              	.L25:
 269:ble_process.c **** 										writeReqData.handleValPair.attrHandle, 
 599              		.loc 1 269 0
 600 0242 B823     		movs	r3, #184
 601 0244 FB18     		adds	r3, r7, r3
 602 0246 9B89     		ldrh	r3, [r3, #12]
 603 0248 0D22     		movs	r2, #13
 604 024a 1900     		movs	r1, r3
 605 024c 1220     		movs	r0, #18
 606 024e FFF7FEFF 		bl	SendErrorCode
 272:ble_process.c **** 						
 607              		.loc 1 272 0
 608 0252 744B     		ldr	r3, .L61+56
 609 0254 0022     		movs	r2, #0
 610 0256 1A80     		strh	r2, [r3]
 275:ble_process.c **** 				}
 611              		.loc 1 275 0
 612 0258 00F0ADFD 		bl	.L1	@ far jump
 613              	.L24:
 279:ble_process.c **** 			{
 614              		.loc 1 279 0
 615 025c B823     		movs	r3, #184
 616 025e FB18     		adds	r3, r7, r3
 617 0260 9B89     		ldrh	r3, [r3, #12]
 618 0262 0E2B     		cmp	r3, #14
 619 0264 00D0     		beq	.LCB307
 620 0266 F7E0     		b	.L29	@long jump
 621              	.LCB307:
ARM GAS  C:\Users\run1009\AppData\Local\Temp\cch0f4sO.s 			page 30


 285:ble_process.c **** 				{
 622              		.loc 1 285 0
 623 0268 6E4B     		ldr	r3, .L61+56
 624 026a 1B88     		ldrh	r3, [r3]
 625 026c 002B     		cmp	r3, #0
 626 026e 00D1     		bne	.LCB311
 627 0270 B1E0     		b	.L30	@long jump
 628              	.LCB311:
 289:ble_process.c **** 					{
 629              		.loc 1 289 0
 630 0272 B823     		movs	r3, #184
 631 0274 FB18     		adds	r3, r7, r3
 632 0276 1B89     		ldrh	r3, [r3, #8]
 633 0278 082B     		cmp	r3, #8
 634 027a 00D0     		beq	.LCB316
 635 027c A1E0     		b	.L31	@long jump
 636              	.LCB316:
 292:ble_process.c **** 							UART_UartPutCRLF(' ');
 637              		.loc 1 292 0
 638 027e 6E4B     		ldr	r3, .L61+76
 639 0280 1800     		movs	r0, r3
 640 0282 FFF7FEFF 		bl	UART_UartPutString
 293:ble_process.c **** 						#endif
 641              		.loc 1 293 0
 642 0286 2020     		movs	r0, #32
 643 0288 FFF7FEFF 		bl	UART_UartPutCRLF
 299:ble_process.c **** 						received_node_addr = (uint16)(((uint16)writeReqData.handleValPair.value.val[DATA_NODE_ADDR_MS
 644              		.loc 1 299 0
 645 028c B823     		movs	r3, #184
 646 028e FB18     		adds	r3, r7, r3
 647 0290 5B68     		ldr	r3, [r3, #4]
 648 0292 1A78     		ldrb	r2, [r3]
 649 0294 694B     		ldr	r3, .L61+80
 650 0296 1A70     		strb	r2, [r3]
 300:ble_process.c **** 													| writeReqData.handleValPair.value.val[DATA_NODE_ADDR_LSB_INDEX]);
 651              		.loc 1 300 0
 652 0298 B823     		movs	r3, #184
 653 029a FB18     		adds	r3, r7, r3
 654 029c 5B68     		ldr	r3, [r3, #4]
 655 029e 0333     		adds	r3, r3, #3
 656 02a0 1B78     		ldrb	r3, [r3]
 657 02a2 1B02     		lsls	r3, r3, #8
 658 02a4 1AB2     		sxth	r2, r3
 301:ble_process.c **** 						
 659              		.loc 1 301 0
 660 02a6 B823     		movs	r3, #184
 661 02a8 FB18     		adds	r3, r7, r3
 662 02aa 5B68     		ldr	r3, [r3, #4]
 663 02ac 0233     		adds	r3, r3, #2
 664 02ae 1B78     		ldrb	r3, [r3]
 300:ble_process.c **** 													| writeReqData.handleValPair.value.val[DATA_NODE_ADDR_LSB_INDEX]);
 665              		.loc 1 300 0
 666 02b0 1BB2     		sxth	r3, r3
 667 02b2 1343     		orrs	r3, r2
 668 02b4 1BB2     		sxth	r3, r3
 669 02b6 9AB2     		uxth	r2, r3
 670 02b8 614B     		ldr	r3, .L61+84
ARM GAS  C:\Users\run1009\AppData\Local\Temp\cch0f4sO.s 			page 31


 671 02ba 1A80     		strh	r2, [r3]
 304:ble_process.c **** 						RGBData[RGB_GREEN_INDEX] = writeReqData.handleValPair.value.val[DATA_INDEX+1];
 672              		.loc 1 304 0
 673 02bc B823     		movs	r3, #184
 674 02be FB18     		adds	r3, r7, r3
 675 02c0 5B68     		ldr	r3, [r3, #4]
 676 02c2 1A79     		ldrb	r2, [r3, #4]
 677 02c4 5F4B     		ldr	r3, .L61+88
 678 02c6 1A70     		strb	r2, [r3]
 305:ble_process.c **** 						RGBData[RGB_BLUE_INDEX] = writeReqData.handleValPair.value.val[DATA_INDEX+2];
 679              		.loc 1 305 0
 680 02c8 B823     		movs	r3, #184
 681 02ca FB18     		adds	r3, r7, r3
 682 02cc 5B68     		ldr	r3, [r3, #4]
 683 02ce 5A79     		ldrb	r2, [r3, #5]
 684 02d0 5C4B     		ldr	r3, .L61+88
 685 02d2 5A70     		strb	r2, [r3, #1]
 306:ble_process.c **** 						RGBData[RGB_INTENSITY_INDEX] = writeReqData.handleValPair.value.val[DATA_INDEX+3];
 686              		.loc 1 306 0
 687 02d4 B823     		movs	r3, #184
 688 02d6 FB18     		adds	r3, r7, r3
 689 02d8 5B68     		ldr	r3, [r3, #4]
 690 02da 9A79     		ldrb	r2, [r3, #6]
 691 02dc 594B     		ldr	r3, .L61+88
 692 02de 9A70     		strb	r2, [r3, #2]
 307:ble_process.c **** 						
 693              		.loc 1 307 0
 694 02e0 B823     		movs	r3, #184
 695 02e2 FB18     		adds	r3, r7, r3
 696 02e4 5B68     		ldr	r3, [r3, #4]
 697 02e6 DA79     		ldrb	r2, [r3, #7]
 698 02e8 564B     		ldr	r3, .L61+88
 699 02ea DA70     		strb	r2, [r3, #3]
 310:ble_process.c **** 						{
 700              		.loc 1 310 0
 701 02ec B823     		movs	r3, #184
 702 02ee FB18     		adds	r3, r7, r3
 703 02f0 5B68     		ldr	r3, [r3, #4]
 704 02f2 1B78     		ldrb	r3, [r3]
 705 02f4 012B     		cmp	r3, #1
 706 02f6 24D1     		bne	.L32
 314:ble_process.c **** 							{
 707              		.loc 1 314 0
 708 02f8 514B     		ldr	r3, .L61+84
 709 02fa 1A88     		ldrh	r2, [r3]
 710 02fc 494B     		ldr	r3, .L61+56
 711 02fe 1B88     		ldrh	r3, [r3]
 712 0300 5340     		eors	r3, r2
 713 0302 9BB2     		uxth	r3, r3
 714 0304 1A00     		movs	r2, r3
 715 0306 FF23     		movs	r3, #255
 716 0308 1B02     		lsls	r3, r3, #8
 717 030a 1340     		ands	r3, r2
 718 030c 3CD1     		bne	.L34
 318:ble_process.c **** 								
 719              		.loc 1 318 0
 720 030e 4D4B     		ldr	r3, .L61+88
ARM GAS  C:\Users\run1009\AppData\Local\Temp\cch0f4sO.s 			page 32


 721 0310 0421     		movs	r1, #4
 722 0312 1800     		movs	r0, r3
 723 0314 FFF7FEFF 		bl	UpdateRGBled
 322:ble_process.c **** 								
 724              		.loc 1 322 0
 725 0318 454A     		ldr	r2, .L61+68
 726 031a B823     		movs	r3, #184
 727 031c FB18     		adds	r3, r7, r3
 728 031e 181D     		adds	r0, r3, #4
 729 0320 0023     		movs	r3, #0
 730 0322 0021     		movs	r1, #0
 731 0324 FFF7FEFF 		bl	CyBle_GattsWriteAttributeValue
 325:ble_process.c **** 									SendBLEStatetoUART(CyBle_GetState());
 732              		.loc 1 325 0
 733 0328 474B     		ldr	r3, .L61+92
 734 032a 1800     		movs	r0, r3
 735 032c FFF7FEFF 		bl	UART_UartPutString
 326:ble_process.c **** 									UART_UartPutCRLF(' ');
 736              		.loc 1 326 0
 737 0330 344B     		ldr	r3, .L61+24
 738 0332 1B78     		ldrb	r3, [r3]
 739 0334 1800     		movs	r0, r3
 740 0336 FFF7FEFF 		bl	SendBLEStatetoUART
 327:ble_process.c **** 								#endif
 741              		.loc 1 327 0
 742 033a 2020     		movs	r0, #32
 743 033c FFF7FEFF 		bl	UART_UartPutCRLF
 744 0340 22E0     		b	.L34
 745              	.L32:
 335:ble_process.c **** 								(received_node_addr == BROADCAST_ADDR))
 746              		.loc 1 335 0
 747 0342 3F4B     		ldr	r3, .L61+84
 748 0344 1A88     		ldrh	r2, [r3]
 749 0346 374B     		ldr	r3, .L61+56
 750 0348 1B88     		ldrh	r3, [r3]
 751 034a 9A42     		cmp	r2, r3
 752 034c 03D0     		beq	.L35
 336:ble_process.c **** 							{
 753              		.loc 1 336 0 discriminator 1
 754 034e 3C4B     		ldr	r3, .L61+84
 755 0350 1B88     		ldrh	r3, [r3]
 335:ble_process.c **** 								(received_node_addr == BROADCAST_ADDR))
 756              		.loc 1 335 0 discriminator 1
 757 0352 002B     		cmp	r3, #0
 758 0354 18D1     		bne	.L34
 759              	.L35:
 340:ble_process.c **** 								
 760              		.loc 1 340 0
 761 0356 3B4B     		ldr	r3, .L61+88
 762 0358 0421     		movs	r1, #4
 763 035a 1800     		movs	r0, r3
 764 035c FFF7FEFF 		bl	UpdateRGBled
 344:ble_process.c **** 								
 765              		.loc 1 344 0
 766 0360 334A     		ldr	r2, .L61+68
 767 0362 B823     		movs	r3, #184
 768 0364 FB18     		adds	r3, r7, r3
ARM GAS  C:\Users\run1009\AppData\Local\Temp\cch0f4sO.s 			page 33


 769 0366 181D     		adds	r0, r3, #4
 770 0368 0023     		movs	r3, #0
 771 036a 0021     		movs	r1, #0
 772 036c FFF7FEFF 		bl	CyBle_GattsWriteAttributeValue
 347:ble_process.c **** 									SendBLEStatetoUART(CyBle_GetState());
 773              		.loc 1 347 0
 774 0370 354B     		ldr	r3, .L61+92
 775 0372 1800     		movs	r0, r3
 776 0374 FFF7FEFF 		bl	UART_UartPutString
 348:ble_process.c **** 									UART_UartPutCRLF(' ');
 777              		.loc 1 348 0
 778 0378 224B     		ldr	r3, .L61+24
 779 037a 1B78     		ldrb	r3, [r3]
 780 037c 1800     		movs	r0, r3
 781 037e FFF7FEFF 		bl	SendBLEStatetoUART
 349:ble_process.c **** 								#endif
 782              		.loc 1 349 0
 783 0382 2020     		movs	r0, #32
 784 0384 FFF7FEFF 		bl	UART_UartPutCRLF
 785              	.L34:
 357:ble_process.c **** 						#endif
 786              		.loc 1 357 0
 787 0388 304B     		ldr	r3, .L61+96
 788 038a 1B78     		ldrb	r3, [r3]
 789 038c 0133     		adds	r3, r3, #1
 790 038e DAB2     		uxtb	r2, r3
 791 0390 2E4B     		ldr	r3, .L61+96
 792 0392 1A70     		strb	r2, [r3]
 361:ble_process.c **** 						PrintNum(dataADVCounter);
 793              		.loc 1 361 0
 794 0394 2E4B     		ldr	r3, .L61+100
 795 0396 1800     		movs	r0, r3
 796 0398 FFF7FEFF 		bl	UART_UartPutString
 362:ble_process.c **** 						UART_UartPutCRLF(' ');
 797              		.loc 1 362 0
 798 039c 2B4B     		ldr	r3, .L61+96
 799 039e 1B78     		ldrb	r3, [r3]
 800 03a0 1800     		movs	r0, r3
 801 03a2 FFF7FEFF 		bl	PrintNum
 363:ble_process.c **** 						#endif
 802              		.loc 1 363 0
 803 03a6 2020     		movs	r0, #32
 804 03a8 FFF7FEFF 		bl	UART_UartPutCRLF
 368:ble_process.c **** 						
 805              		.loc 1 368 0
 806 03ac 164B     		ldr	r3, .L61+28
 807 03ae 0122     		movs	r2, #1
 808 03b0 1A70     		strb	r2, [r3]
 371:ble_process.c **** 						UART_UartPutCRLF(' ');
 809              		.loc 1 371 0
 810 03b2 284B     		ldr	r3, .L61+104
 811 03b4 1800     		movs	r0, r3
 812 03b6 FFF7FEFF 		bl	UART_UartPutString
 372:ble_process.c **** 						#endif
 813              		.loc 1 372 0
 814 03ba 2020     		movs	r0, #32
 815 03bc FFF7FEFF 		bl	UART_UartPutCRLF
ARM GAS  C:\Users\run1009\AppData\Local\Temp\cch0f4sO.s 			page 34


 816 03c0 4AE0     		b	.L29
 817              	.L31:
 378:ble_process.c **** 										writeReqData.handleValPair.attrHandle, 
 818              		.loc 1 378 0
 819 03c2 B823     		movs	r3, #184
 820 03c4 FB18     		adds	r3, r7, r3
 821 03c6 9B89     		ldrh	r3, [r3, #12]
 822 03c8 0D22     		movs	r2, #13
 823 03ca 1900     		movs	r1, r3
 824 03cc 1220     		movs	r0, #18
 825 03ce FFF7FEFF 		bl	SendErrorCode
 381:ble_process.c **** 					}	/* if(writeReqData.handleValPair.value.len == RGB_LED_DATA_LEN) */
 826              		.loc 1 381 0
 827 03d2 00F0F0FC 		bl	.L1	@ far jump
 828              	.L30:
 388:ble_process.c **** 										writeReqData.handleValPair.attrHandle, 
 829              		.loc 1 388 0
 830 03d6 B823     		movs	r3, #184
 831 03d8 FB18     		adds	r3, r7, r3
 832 03da 9B89     		ldrh	r3, [r3, #12]
 833 03dc 1122     		movs	r2, #17
 834 03de 1900     		movs	r1, r3
 835 03e0 1220     		movs	r0, #18
 836 03e2 FFF7FEFF 		bl	SendErrorCode
 391:ble_process.c **** 				}
 837              		.loc 1 391 0
 838 03e6 00F0E6FC 		bl	.L1	@ far jump
 839              	.L62:
 840 03ea C046     		.align	2
 841              	.L61:
 842 03ec 00000000 		.word	.LC1
 843 03f0 00000000 		.word	stackRestartIssued
 844 03f4 00000000 		.word	ble_gap_state
 845 03f8 14000000 		.word	.LC5
 846 03fc 00000000 		.word	current_watchdog_counter
 847 0400 00000000 		.word	centralStartedTime
 848 0404 00000000 		.word	cyBle_state
 849 0408 00000000 		.word	switch_Role
 850 040c 34000000 		.word	.LC11
 851 0410 4C000000 		.word	.LC13
 852 0414 6C000000 		.word	.LC15
 853 0418 90000000 		.word	.LC17
 854 041c 98000000 		.word	.LC19
 855 0420 B8000000 		.word	.LC21
 856 0424 00000000 		.word	node_address
 857 0428 FFFF0000 		.word	65535
 858 042c D0000000 		.word	.LC24
 859 0430 00000000 		.word	cyBle_connHandle
 860 0434 00000000 		.word	new_advData
 861 0438 E8000000 		.word	.LC28
 862 043c 0C000000 		.word	received_node_addr_type.8806
 863 0440 0E000000 		.word	received_node_addr.8805
 864 0444 00000000 		.word	RGBData
 865 0448 08010000 		.word	.LC33
 866 044c 00000000 		.word	dataADVCounter
 867 0450 18010000 		.word	.LC36
 868 0454 58010000 		.word	.LC38
ARM GAS  C:\Users\run1009\AppData\Local\Temp\cch0f4sO.s 			page 35


 869              	.L29:
 398:ble_process.c **** 		break;
 870              		.loc 1 398 0
 871 0458 D44B     		ldr	r3, .L63
 872 045a 1A78     		ldrb	r2, [r3]
 873 045c 5B78     		ldrb	r3, [r3, #1]
 874 045e 1B02     		lsls	r3, r3, #8
 875 0460 1A43     		orrs	r2, r3
 876 0462 0023     		movs	r3, #0
 877 0464 1204     		lsls	r2, r2, #16
 878 0466 120C     		lsrs	r2, r2, #16
 879 0468 1B0C     		lsrs	r3, r3, #16
 880 046a 1B04     		lsls	r3, r3, #16
 881 046c 1343     		orrs	r3, r2
 882 046e 1800     		movs	r0, r3
 883 0470 FFF7FEFF 		bl	CyBle_GattsWriteRsp
 399:ble_process.c **** 			
 884              		.loc 1 399 0
 885 0474 00F09FFC 		bl	.L1	@ far jump
 886              	.L16:
 405:ble_process.c **** 			
 887              		.loc 1 405 0
 888 0478 8823     		movs	r3, #136
 889 047a FB18     		adds	r3, r7, r3
 890 047c 3A68     		ldr	r2, [r7]
 891 047e 13CA     		ldmia	r2!, {r0, r1, r4}
 892 0480 13C3     		stmia	r3!, {r0, r1, r4}
 893 0482 1268     		ldr	r2, [r2]
 894 0484 1A60     		str	r2, [r3]
 409:ble_process.c **** 			{
 895              		.loc 1 409 0
 896 0486 CA4B     		ldr	r3, .L63+4
 897 0488 1B88     		ldrh	r3, [r3]
 898 048a 002B     		cmp	r3, #0
 899 048c 01D1     		bne	.LCB552
 900 048e 00F089FC 		bl	.L56	@far jump
 901              	.LCB552:
 412:ble_process.c **** 				{
 902              		.loc 1 412 0
 903 0492 8823     		movs	r3, #136
 904 0494 FB18     		adds	r3, r7, r3
 905 0496 9B89     		ldrh	r3, [r3, #12]
 906 0498 112B     		cmp	r3, #17
 907 049a 01D0     		beq	.LCB557
 908 049c 00F082FC 		bl	.L56	@far jump
 909              	.LCB557:
 415:ble_process.c **** 					{
 910              		.loc 1 415 0
 911 04a0 8823     		movs	r3, #136
 912 04a2 FB18     		adds	r3, r7, r3
 913 04a4 1B89     		ldrh	r3, [r3, #8]
 914 04a6 012B     		cmp	r3, #1
 915 04a8 01D0     		beq	.LCB562
 916 04aa 00F07BFC 		bl	.L56	@far jump
 917              	.LCB562:
 418:ble_process.c **** 						
 918              		.loc 1 418 0
ARM GAS  C:\Users\run1009\AppData\Local\Temp\cch0f4sO.s 			page 36


 919 04ae 8823     		movs	r3, #136
 920 04b0 FB18     		adds	r3, r7, r3
 921 04b2 5B68     		ldr	r3, [r3, #4]
 922 04b4 1A78     		ldrb	r2, [r3]
 923 04b6 BF4B     		ldr	r3, .L63+8
 924 04b8 1A70     		strb	r2, [r3]
 421:ble_process.c **** 						
 925              		.loc 1 421 0
 926 04ba BE4B     		ldr	r3, .L63+8
 927 04bc 1B78     		ldrb	r3, [r3]
 928 04be 013B     		subs	r3, r3, #1
 929 04c0 DAB2     		uxtb	r2, r3
 930 04c2 BC4B     		ldr	r3, .L63+8
 931 04c4 1A70     		strb	r2, [r3]
 425:ble_process.c **** 														0,
 932              		.loc 1 425 0
 933 04c6 B94A     		ldr	r2, .L63
 934 04c8 8823     		movs	r3, #136
 935 04ca FB18     		adds	r3, r7, r3
 936 04cc 181D     		adds	r0, r3, #4
 937 04ce 0023     		movs	r3, #0
 938 04d0 0021     		movs	r1, #0
 939 04d2 FFF7FEFF 		bl	CyBle_GattsWriteAttributeValue
 431:ble_process.c **** 						PrintNum(dataADVCounter);
 940              		.loc 1 431 0
 941 04d6 B84B     		ldr	r3, .L63+12
 942 04d8 1800     		movs	r0, r3
 943 04da FFF7FEFF 		bl	UART_UartPutString
 432:ble_process.c **** 						UART_UartPutCRLF(' ');
 944              		.loc 1 432 0
 945 04de B54B     		ldr	r3, .L63+8
 946 04e0 1B78     		ldrb	r3, [r3]
 947 04e2 1800     		movs	r0, r3
 948 04e4 FFF7FEFF 		bl	PrintNum
 433:ble_process.c **** 						#endif
 949              		.loc 1 433 0
 950 04e8 2020     		movs	r0, #32
 951 04ea FFF7FEFF 		bl	UART_UartPutCRLF
 438:ble_process.c **** 		
 952              		.loc 1 438 0
 953 04ee 00F059FC 		bl	.L56	@ far jump
 954              	.L8:
 443:ble_process.c **** 			{
 955              		.loc 1 443 0
 956 04f2 B24B     		ldr	r3, .L63+16
 957 04f4 1B78     		ldrb	r3, [r3]
 958 04f6 022B     		cmp	r3, #2
 959 04f8 01D1     		bne	.LCB598
 960 04fa 00F055FC 		bl	.L57	@far jump
 961              	.LCB598:
 447:ble_process.c **** 				
 962              		.loc 1 447 0
 963 04fe 9823     		movs	r3, #152
 964 0500 FB18     		adds	r3, r7, r3
 965 0502 3A68     		ldr	r2, [r7]
 966 0504 13CA     		ldmia	r2!, {r0, r1, r4}
 967 0506 13C3     		stmia	r3!, {r0, r1, r4}
ARM GAS  C:\Users\run1009\AppData\Local\Temp\cch0f4sO.s 			page 37


 968 0508 03CA     		ldmia	r2!, {r0, r1}
 969 050a 03C3     		stmia	r3!, {r0, r1}
 462:ble_process.c **** 				{                          
 970              		.loc 1 462 0
 971 050c 9823     		movs	r3, #152
 972 050e FB18     		adds	r3, r7, r3
 973 0510 1B78     		ldrb	r3, [r3]
 974 0512 002B     		cmp	r3, #0
 975 0514 00D0     		beq	.LCB608
 976 0516 8FE2     		b	.L38	@long jump
 977              	.LCB608:
 467:ble_process.c **** 					{
 978              		.loc 1 467 0
 979 0518 9823     		movs	r3, #152
 980 051a FB18     		adds	r3, r7, r3
 981 051c 1A7A     		ldrb	r2, [r3, #8]
 982 051e A84B     		ldr	r3, .L63+20
 983 0520 DB7F     		ldrb	r3, [r3, #31]
 984 0522 9A42     		cmp	r2, r3
 985 0524 5AD1     		bne	.L39
 471:ble_process.c **** 						{
 986              		.loc 1 471 0
 987 0526 9823     		movs	r3, #152
 988 0528 FB18     		adds	r3, r7, r3
 989 052a DA68     		ldr	r2, [r3, #12]
 990 052c 9823     		movs	r3, #152
 991 052e FB18     		adds	r3, r7, r3
 992 0530 1B7A     		ldrb	r3, [r3, #8]
 993 0532 023B     		subs	r3, r3, #2
 994 0534 D318     		adds	r3, r2, r3
 995 0536 1B78     		ldrb	r3, [r3]
 996 0538 012B     		cmp	r3, #1
 997 053a 00D0     		beq	.LCB626
 998 053c 7CE2     		b	.L38	@long jump
 999              	.LCB626:
 476:ble_process.c **** 							((scan_report.data[scan_report.dataLen-1] == 255) && (dataADVCounter == 0)))
 1000              		.loc 1 476 0
 1001 053e 9823     		movs	r3, #152
 1002 0540 FB18     		adds	r3, r7, r3
 1003 0542 DA68     		ldr	r2, [r3, #12]
 1004 0544 9823     		movs	r3, #152
 1005 0546 FB18     		adds	r3, r7, r3
 1006 0548 1B7A     		ldrb	r3, [r3, #8]
 1007 054a 013B     		subs	r3, r3, #1
 1008 054c D318     		adds	r3, r2, r3
 1009 054e 1A78     		ldrb	r2, [r3]
 1010 0550 984B     		ldr	r3, .L63+8
 1011 0552 1B78     		ldrb	r3, [r3]
 1012 0554 9A42     		cmp	r2, r3
 1013 0556 0ED3     		bcc	.L41
 477:ble_process.c **** 							{
 1014              		.loc 1 477 0 discriminator 1
 1015 0558 9823     		movs	r3, #152
 1016 055a FB18     		adds	r3, r7, r3
 1017 055c DA68     		ldr	r2, [r3, #12]
 1018 055e 9823     		movs	r3, #152
 1019 0560 FB18     		adds	r3, r7, r3
ARM GAS  C:\Users\run1009\AppData\Local\Temp\cch0f4sO.s 			page 38


 1020 0562 1B7A     		ldrb	r3, [r3, #8]
 1021 0564 013B     		subs	r3, r3, #1
 1022 0566 D318     		adds	r3, r2, r3
 1023 0568 1B78     		ldrb	r3, [r3]
 476:ble_process.c **** 							((scan_report.data[scan_report.dataLen-1] == 255) && (dataADVCounter == 0)))
 1024              		.loc 1 476 0 discriminator 1
 1025 056a FF2B     		cmp	r3, #255
 1026 056c 1DD1     		bne	.L42
 477:ble_process.c **** 							{
 1027              		.loc 1 477 0
 1028 056e 914B     		ldr	r3, .L63+8
 1029 0570 1B78     		ldrb	r3, [r3]
 1030 0572 002B     		cmp	r3, #0
 1031 0574 19D1     		bne	.L42
 1032              	.L41:
 480:ble_process.c **** 								/* Save the advertising peripheral address and type*/
 1033              		.loc 1 480 0
 1034 0576 934B     		ldr	r3, .L63+24
 1035 0578 0122     		movs	r2, #1
 1036 057a 1A70     		strb	r2, [r3]
 482:ble_process.c **** 								potential_node_bdAddrType = scan_report.peerAddrType;
 1037              		.loc 1 482 0
 1038 057c 9823     		movs	r3, #152
 1039 057e FB18     		adds	r3, r7, r3
 1040 0580 5B68     		ldr	r3, [r3, #4]
 1041 0582 914A     		ldr	r2, .L63+28
 1042 0584 1000     		movs	r0, r2
 1043 0586 1900     		movs	r1, r3
 1044 0588 0623     		movs	r3, #6
 1045 058a 1A00     		movs	r2, r3
 1046 058c FFF7FEFF 		bl	memcpy
 483:ble_process.c **** 								
 1047              		.loc 1 483 0
 1048 0590 9823     		movs	r3, #152
 1049 0592 FB18     		adds	r3, r7, r3
 1050 0594 5A78     		ldrb	r2, [r3, #1]
 1051 0596 8D4B     		ldr	r3, .L63+32
 1052 0598 1A70     		strb	r2, [r3]
 486:ble_process.c **** 								UART_UartPutCRLF(' ');
 1053              		.loc 1 486 0
 1054 059a 8D4B     		ldr	r3, .L63+36
 1055 059c 1800     		movs	r0, r3
 1056 059e FFF7FEFF 		bl	UART_UartPutString
 487:ble_process.c **** 								#endif
 1057              		.loc 1 487 0
 1058 05a2 2020     		movs	r0, #32
 1059 05a4 FFF7FEFF 		bl	UART_UartPutCRLF
 1060 05a8 46E2     		b	.L38
 1061              	.L42:
 496:ble_process.c **** 								
 1062              		.loc 1 496 0
 1063 05aa 864B     		ldr	r3, .L63+24
 1064 05ac 0022     		movs	r2, #0
 1065 05ae 1A70     		strb	r2, [r3]
 498:ble_process.c **** 								
 1066              		.loc 1 498 0
 1067 05b0 864B     		ldr	r3, .L63+32
ARM GAS  C:\Users\run1009\AppData\Local\Temp\cch0f4sO.s 			page 39


 1068 05b2 0022     		movs	r2, #0
 1069 05b4 1A70     		strb	r2, [r3]
 500:ble_process.c **** 								potential_node_bdAddr[1] = 0x00;
 1070              		.loc 1 500 0
 1071 05b6 844B     		ldr	r3, .L63+28
 1072 05b8 0022     		movs	r2, #0
 1073 05ba 1A70     		strb	r2, [r3]
 501:ble_process.c **** 								potential_node_bdAddr[2] = 0x00;
 1074              		.loc 1 501 0
 1075 05bc 824B     		ldr	r3, .L63+28
 1076 05be 0022     		movs	r2, #0
 1077 05c0 5A70     		strb	r2, [r3, #1]
 502:ble_process.c **** 								potential_node_bdAddr[3] = 0x00;
 1078              		.loc 1 502 0
 1079 05c2 814B     		ldr	r3, .L63+28
 1080 05c4 0022     		movs	r2, #0
 1081 05c6 9A70     		strb	r2, [r3, #2]
 503:ble_process.c **** 								potential_node_bdAddr[4] = 0x00;
 1082              		.loc 1 503 0
 1083 05c8 7F4B     		ldr	r3, .L63+28
 1084 05ca 0022     		movs	r2, #0
 1085 05cc DA70     		strb	r2, [r3, #3]
 504:ble_process.c **** 								potential_node_bdAddr[5] = 0x00;
 1086              		.loc 1 504 0
 1087 05ce 7E4B     		ldr	r3, .L63+28
 1088 05d0 0022     		movs	r2, #0
 1089 05d2 1A71     		strb	r2, [r3, #4]
 505:ble_process.c **** 							}
 1090              		.loc 1 505 0
 1091 05d4 7C4B     		ldr	r3, .L63+28
 1092 05d6 0022     		movs	r2, #0
 1093 05d8 5A71     		strb	r2, [r3, #5]
 1094 05da 2DE2     		b	.L38
 1095              	.L39:
 1096              	.LBB2:
 511:ble_process.c ****                     uint8 bt_addr[6] = {0x04,0x27,0xA8,0x1B,0x00,0xC4};
 1097              		.loc 1 511 0
 1098 05dc 0023     		movs	r3, #0
 1099 05de FC22     		movs	r2, #252
 1100 05e0 BA18     		adds	r2, r7, r2
 1101 05e2 1360     		str	r3, [r2]
 512:ble_process.c ****                     
 1102              		.loc 1 512 0
 1103 05e4 6823     		movs	r3, #104
 1104 05e6 FA18     		adds	r2, r7, r3
 1105 05e8 7A4B     		ldr	r3, .L63+40
 1106 05ea 1000     		movs	r0, r2
 1107 05ec 1900     		movs	r1, r3
 1108 05ee 0623     		movs	r3, #6
 1109 05f0 1A00     		movs	r2, r3
 1110 05f2 FFF7FEFF 		bl	memcpy
 1111              	.LBB3:
 514:ble_process.c ****                         if(scan_report.peerBdAddr[i] == bt_addr[i]){
 1112              		.loc 1 514 0
 1113 05f6 FB23     		movs	r3, #251
 1114 05f8 FB18     		adds	r3, r7, r3
 1115 05fa 0022     		movs	r2, #0
ARM GAS  C:\Users\run1009\AppData\Local\Temp\cch0f4sO.s 			page 40


 1116 05fc 1A70     		strb	r2, [r3]
 1117 05fe 1DE0     		b	.L43
 1118              	.L45:
 515:ble_process.c ****                             check++;   
 1119              		.loc 1 515 0
 1120 0600 9823     		movs	r3, #152
 1121 0602 FB18     		adds	r3, r7, r3
 1122 0604 5A68     		ldr	r2, [r3, #4]
 1123 0606 FB23     		movs	r3, #251
 1124 0608 FB18     		adds	r3, r7, r3
 1125 060a 1B78     		ldrb	r3, [r3]
 1126 060c D318     		adds	r3, r2, r3
 1127 060e 1A78     		ldrb	r2, [r3]
 1128 0610 FB23     		movs	r3, #251
 1129 0612 FB18     		adds	r3, r7, r3
 1130 0614 1B78     		ldrb	r3, [r3]
 1131 0616 6821     		movs	r1, #104
 1132 0618 7918     		adds	r1, r7, r1
 1133 061a CB5C     		ldrb	r3, [r1, r3]
 1134 061c 9A42     		cmp	r2, r3
 1135 061e 06D1     		bne	.L44
 516:ble_process.c ****                         }
 1136              		.loc 1 516 0
 1137 0620 FC23     		movs	r3, #252
 1138 0622 FB18     		adds	r3, r7, r3
 1139 0624 1B68     		ldr	r3, [r3]
 1140 0626 0133     		adds	r3, r3, #1
 1141 0628 FC22     		movs	r2, #252
 1142 062a BA18     		adds	r2, r7, r2
 1143 062c 1360     		str	r3, [r2]
 1144              	.L44:
 514:ble_process.c ****                         if(scan_report.peerBdAddr[i] == bt_addr[i]){
 1145              		.loc 1 514 0 discriminator 2
 1146 062e FB23     		movs	r3, #251
 1147 0630 FB18     		adds	r3, r7, r3
 1148 0632 1A78     		ldrb	r2, [r3]
 1149 0634 FB23     		movs	r3, #251
 1150 0636 FB18     		adds	r3, r7, r3
 1151 0638 0132     		adds	r2, r2, #1
 1152 063a 1A70     		strb	r2, [r3]
 1153              	.L43:
 514:ble_process.c ****                         if(scan_report.peerBdAddr[i] == bt_addr[i]){
 1154              		.loc 1 514 0 is_stmt 0 discriminator 1
 1155 063c FB23     		movs	r3, #251
 1156 063e FB18     		adds	r3, r7, r3
 1157 0640 1B78     		ldrb	r3, [r3]
 1158 0642 052B     		cmp	r3, #5
 1159 0644 DCD9     		bls	.L45
 1160              	.LBE3:
 520:ble_process.c ****                         /* Stop existing scan */
 1161              		.loc 1 520 0 is_stmt 1
 1162 0646 FC23     		movs	r3, #252
 1163 0648 FB18     		adds	r3, r7, r3
 1164 064a 1B68     		ldr	r3, [r3]
 1165 064c 062B     		cmp	r3, #6
 1166 064e 00D0     		beq	.LCB776
 1167 0650 F2E1     		b	.L38	@long jump
ARM GAS  C:\Users\run1009\AppData\Local\Temp\cch0f4sO.s 			page 41


 1168              	.LCB776:
 1169              	.LBB4:
 522:ble_process.c ****     					
 1170              		.loc 1 522 0
 1171 0652 FFF7FEFF 		bl	CyBle_GapcStopScan
 525:ble_process.c ****     					UART_UartPutCRLF(' ');
 1172              		.loc 1 525 0
 1173 0656 604B     		ldr	r3, .L63+44
 1174 0658 1800     		movs	r0, r3
 1175 065a FFF7FEFF 		bl	UART_UartPutString
 526:ble_process.c ****                         UART_UartPutCRLF(' ');
 1176              		.loc 1 526 0
 1177 065e 2020     		movs	r0, #32
 1178 0660 FFF7FEFF 		bl	UART_UartPutCRLF
 527:ble_process.c ****                
 1179              		.loc 1 527 0
 1180 0664 2020     		movs	r0, #32
 1181 0666 FFF7FEFF 		bl	UART_UartPutCRLF
 529:ble_process.c ****                         char eventType[1];
 1182              		.loc 1 529 0
 1183 066a 5C4B     		ldr	r3, .L63+48
 1184 066c 1800     		movs	r0, r3
 1185 066e FFF7FEFF 		bl	UART_UartPutString
 531:ble_process.c ****                         UART_UartPutString(eventType);
 1186              		.loc 1 531 0
 1187 0672 9823     		movs	r3, #152
 1188 0674 FB18     		adds	r3, r7, r3
 1189 0676 1B78     		ldrb	r3, [r3]
 1190 0678 1A00     		movs	r2, r3
 1191 067a 5949     		ldr	r1, .L63+52
 1192 067c 6423     		movs	r3, #100
 1193 067e FB18     		adds	r3, r7, r3
 1194 0680 1800     		movs	r0, r3
 1195 0682 FFF7FEFF 		bl	sprintf
 532:ble_process.c ****                         UART_UartPutString("\r\n");
 1196              		.loc 1 532 0
 1197 0686 6423     		movs	r3, #100
 1198 0688 FB18     		adds	r3, r7, r3
 1199 068a 1800     		movs	r0, r3
 1200 068c FFF7FEFF 		bl	UART_UartPutString
 533:ble_process.c ****                         UART_UartPutString("RSSI: ");
 1201              		.loc 1 533 0
 1202 0690 544B     		ldr	r3, .L63+56
 1203 0692 1800     		movs	r0, r3
 1204 0694 FFF7FEFF 		bl	UART_UartPutString
 534:ble_process.c ****                         char rssi[12];
 1205              		.loc 1 534 0
 1206 0698 534B     		ldr	r3, .L63+60
 1207 069a 1800     		movs	r0, r3
 1208 069c FFF7FEFF 		bl	UART_UartPutString
 536:ble_process.c ****                         UART_UartPutString(rssi);
 1209              		.loc 1 536 0
 1210 06a0 9823     		movs	r3, #152
 1211 06a2 FB18     		adds	r3, r7, r3
 1212 06a4 1B7C     		ldrb	r3, [r3, #16]
 1213 06a6 5BB2     		sxtb	r3, r3
 1214 06a8 1A00     		movs	r2, r3
ARM GAS  C:\Users\run1009\AppData\Local\Temp\cch0f4sO.s 			page 42


 1215 06aa 4D49     		ldr	r1, .L63+52
 1216 06ac 5823     		movs	r3, #88
 1217 06ae FB18     		adds	r3, r7, r3
 1218 06b0 1800     		movs	r0, r3
 1219 06b2 FFF7FEFF 		bl	sprintf
 537:ble_process.c ****                         UART_UartPutString("\r\n");
 1220              		.loc 1 537 0
 1221 06b6 5823     		movs	r3, #88
 1222 06b8 FB18     		adds	r3, r7, r3
 1223 06ba 1800     		movs	r0, r3
 1224 06bc FFF7FEFF 		bl	UART_UartPutString
 538:ble_process.c ****                         UART_UartPutString("BLE Address: 0x");
 1225              		.loc 1 538 0
 1226 06c0 484B     		ldr	r3, .L63+56
 1227 06c2 1800     		movs	r0, r3
 1228 06c4 FFF7FEFF 		bl	UART_UartPutString
 539:ble_process.c **** 
 1229              		.loc 1 539 0
 1230 06c8 484B     		ldr	r3, .L63+64
 1231 06ca 1800     		movs	r0, r3
 1232 06cc FFF7FEFF 		bl	UART_UartPutString
 541:ble_process.c ****     				    PrintHex(scan_report.peerBdAddr[4u]);
 1233              		.loc 1 541 0
 1234 06d0 9823     		movs	r3, #152
 1235 06d2 FB18     		adds	r3, r7, r3
 1236 06d4 5B68     		ldr	r3, [r3, #4]
 1237 06d6 0533     		adds	r3, r3, #5
 1238 06d8 1B78     		ldrb	r3, [r3]
 1239 06da 1800     		movs	r0, r3
 1240 06dc FFF7FEFF 		bl	PrintHex
 542:ble_process.c ****     				    PrintHex(scan_report.peerBdAddr[3u]);
 1241              		.loc 1 542 0
 1242 06e0 9823     		movs	r3, #152
 1243 06e2 FB18     		adds	r3, r7, r3
 1244 06e4 5B68     		ldr	r3, [r3, #4]
 1245 06e6 0433     		adds	r3, r3, #4
 1246 06e8 1B78     		ldrb	r3, [r3]
 1247 06ea 1800     		movs	r0, r3
 1248 06ec FFF7FEFF 		bl	PrintHex
 543:ble_process.c ****                         PrintHex(scan_report.peerBdAddr[2u]);
 1249              		.loc 1 543 0
 1250 06f0 9823     		movs	r3, #152
 1251 06f2 FB18     		adds	r3, r7, r3
 1252 06f4 5B68     		ldr	r3, [r3, #4]
 1253 06f6 0333     		adds	r3, r3, #3
 1254 06f8 1B78     		ldrb	r3, [r3]
 1255 06fa 1800     		movs	r0, r3
 1256 06fc FFF7FEFF 		bl	PrintHex
 544:ble_process.c ****                         PrintHex(scan_report.peerBdAddr[1u]);
 1257              		.loc 1 544 0
 1258 0700 9823     		movs	r3, #152
 1259 0702 FB18     		adds	r3, r7, r3
 1260 0704 5B68     		ldr	r3, [r3, #4]
 1261 0706 0233     		adds	r3, r3, #2
 1262 0708 1B78     		ldrb	r3, [r3]
 1263 070a 1800     		movs	r0, r3
 1264 070c FFF7FEFF 		bl	PrintHex
ARM GAS  C:\Users\run1009\AppData\Local\Temp\cch0f4sO.s 			page 43


 545:ble_process.c ****                         PrintHex(scan_report.peerBdAddr[0u]);
 1265              		.loc 1 545 0
 1266 0710 9823     		movs	r3, #152
 1267 0712 FB18     		adds	r3, r7, r3
 1268 0714 5B68     		ldr	r3, [r3, #4]
 1269 0716 0133     		adds	r3, r3, #1
 1270 0718 1B78     		ldrb	r3, [r3]
 1271 071a 1800     		movs	r0, r3
 1272 071c FFF7FEFF 		bl	PrintHex
 546:ble_process.c ****                         
 1273              		.loc 1 546 0
 1274 0720 9823     		movs	r3, #152
 1275 0722 FB18     		adds	r3, r7, r3
 1276 0724 5B68     		ldr	r3, [r3, #4]
 1277 0726 1B78     		ldrb	r3, [r3]
 1278 0728 1800     		movs	r0, r3
 1279 072a FFF7FEFF 		bl	PrintHex
 548:ble_process.c ****                         UART_UartPutCRLF(' ');
 1280              		.loc 1 548 0
 1281 072e 2020     		movs	r0, #32
 1282 0730 FFF7FEFF 		bl	UART_UartPutCRLF
 549:ble_process.c ****     					
 1283              		.loc 1 549 0
 1284 0734 2020     		movs	r0, #32
 1285 0736 FFF7FEFF 		bl	UART_UartPutCRLF
 551:ble_process.c ****                         peripAddr.type = scan_report.peerAddrType;
 1286              		.loc 1 551 0
 1287 073a 2D4B     		ldr	r3, .L63+68
 1288 073c 1800     		movs	r0, r3
 1289 073e FFF7FEFF 		bl	UART_UartPutString
 552:ble_process.c **** 						peripAddr.bdAddr[0] = scan_report.peerBdAddr[0];
 1290              		.loc 1 552 0
 1291 0742 9823     		movs	r3, #152
 1292 0744 FB18     		adds	r3, r7, r3
 1293 0746 5A78     		ldrb	r2, [r3, #1]
 1294 0748 2A4B     		ldr	r3, .L63+72
 1295 074a 9A71     		strb	r2, [r3, #6]
 553:ble_process.c **** 						peripAddr.bdAddr[1] = scan_report.peerBdAddr[1];
 1296              		.loc 1 553 0
 1297 074c 9823     		movs	r3, #152
 1298 074e FB18     		adds	r3, r7, r3
 1299 0750 5B68     		ldr	r3, [r3, #4]
 1300 0752 1A78     		ldrb	r2, [r3]
 1301 0754 274B     		ldr	r3, .L63+72
 1302 0756 1A70     		strb	r2, [r3]
 554:ble_process.c **** 						peripAddr.bdAddr[2] = scan_report.peerBdAddr[2];
 1303              		.loc 1 554 0
 1304 0758 9823     		movs	r3, #152
 1305 075a FB18     		adds	r3, r7, r3
 1306 075c 5B68     		ldr	r3, [r3, #4]
 1307 075e 5A78     		ldrb	r2, [r3, #1]
 1308 0760 244B     		ldr	r3, .L63+72
 1309 0762 5A70     		strb	r2, [r3, #1]
 555:ble_process.c **** 						peripAddr.bdAddr[3] = scan_report.peerBdAddr[3];
 1310              		.loc 1 555 0
 1311 0764 9823     		movs	r3, #152
 1312 0766 FB18     		adds	r3, r7, r3
ARM GAS  C:\Users\run1009\AppData\Local\Temp\cch0f4sO.s 			page 44


 1313 0768 5B68     		ldr	r3, [r3, #4]
 1314 076a 9A78     		ldrb	r2, [r3, #2]
 1315 076c 214B     		ldr	r3, .L63+72
 1316 076e 9A70     		strb	r2, [r3, #2]
 556:ble_process.c **** 						peripAddr.bdAddr[4] = scan_report.peerBdAddr[4];
 1317              		.loc 1 556 0
 1318 0770 9823     		movs	r3, #152
 1319 0772 FB18     		adds	r3, r7, r3
 1320 0774 5B68     		ldr	r3, [r3, #4]
 1321 0776 DA78     		ldrb	r2, [r3, #3]
 1322 0778 1E4B     		ldr	r3, .L63+72
 1323 077a DA70     		strb	r2, [r3, #3]
 557:ble_process.c **** 						peripAddr.bdAddr[5] = scan_report.peerBdAddr[5];
 1324              		.loc 1 557 0
 1325 077c 9823     		movs	r3, #152
 1326 077e FB18     		adds	r3, r7, r3
 1327 0780 5B68     		ldr	r3, [r3, #4]
 1328 0782 1A79     		ldrb	r2, [r3, #4]
 1329 0784 1B4B     		ldr	r3, .L63+72
 1330 0786 1A71     		strb	r2, [r3, #4]
 558:ble_process.c ****                         
 1331              		.loc 1 558 0
 1332 0788 9823     		movs	r3, #152
 1333 078a FB18     		adds	r3, r7, r3
 1334 078c 5B68     		ldr	r3, [r3, #4]
 1335 078e 5A79     		ldrb	r2, [r3, #5]
 1336 0790 184B     		ldr	r3, .L63+72
 1337 0792 5A71     		strb	r2, [r3, #5]
 562:ble_process.c ****                         
 1338              		.loc 1 562 0
 1339 0794 184B     		ldr	r3, .L63+76
 1340 0796 0122     		movs	r2, #1
 1341 0798 1A70     		strb	r2, [r3]
 565:ble_process.c ****                         //UART_UartPutString("writeReqData: ");
 1342              		.loc 1 565 0
 1343 079a 0023     		movs	r3, #0
 1344 079c EC22     		movs	r2, #236
 1345 079e BA18     		adds	r2, r7, r2
 1346 07a0 1360     		str	r3, [r2]
 1347              	.LBB5:
 568:ble_process.c ****                             val[i] = (uint8_t) scan_report.data[i];
 1348              		.loc 1 568 0
 1349 07a2 0023     		movs	r3, #0
 1350 07a4 F422     		movs	r2, #244
 1351 07a6 BA18     		adds	r2, r7, r2
 1352 07a8 1360     		str	r3, [r2]
 1353 07aa 3DE0     		b	.L47
 1354              	.L64:
 1355              		.align	2
 1356              	.L63:
 1357 07ac 00000000 		.word	cyBle_connHandle
 1358 07b0 00000000 		.word	node_address
 1359 07b4 00000000 		.word	dataADVCounter
 1360 07b8 70010000 		.word	.LC40
 1361 07bc 00000000 		.word	cyBle_state
 1362 07c0 00000000 		.word	new_advData
 1363 07c4 00000000 		.word	potential_node_found
ARM GAS  C:\Users\run1009\AppData\Local\Temp\cch0f4sO.s 			page 45


 1364 07c8 00000000 		.word	potential_node_bdAddr
 1365 07cc 00000000 		.word	potential_node_bdAddrType
 1366 07d0 A8010000 		.word	.LC45
 1367 07d4 90030000 		.word	.LC0
 1368 07d8 C0010000 		.word	.LC48
 1369 07dc D4010000 		.word	.LC50
 1370 07e0 E0010000 		.word	.LC52
 1371 07e4 E4010000 		.word	.LC54
 1372 07e8 E8010000 		.word	.LC56
 1373 07ec F0010000 		.word	.LC58
 1374 07f0 00020000 		.word	.LC60
 1375 07f4 00000000 		.word	peripAddr
 1376 07f8 00000000 		.word	clientConnectToDevice
 1377              	.L48:
 569:ble_process.c ****                         }
 1378              		.loc 1 569 0 discriminator 3
 1379 07fc 9823     		movs	r3, #152
 1380 07fe FB18     		adds	r3, r7, r3
 1381 0800 DA68     		ldr	r2, [r3, #12]
 1382 0802 F423     		movs	r3, #244
 1383 0804 FB18     		adds	r3, r7, r3
 1384 0806 1B68     		ldr	r3, [r3]
 1385 0808 D318     		adds	r3, r2, r3
 1386 080a 1978     		ldrb	r1, [r3]
 1387 080c E44A     		ldr	r2, .L65
 1388 080e F423     		movs	r3, #244
 1389 0810 FB18     		adds	r3, r7, r3
 1390 0812 1B68     		ldr	r3, [r3]
 1391 0814 D318     		adds	r3, r2, r3
 1392 0816 0A1C     		adds	r2, r1, #0
 1393 0818 1A70     		strb	r2, [r3]
 568:ble_process.c ****                             val[i] = (uint8_t) scan_report.data[i];
 1394              		.loc 1 568 0 discriminator 3
 1395 081a F423     		movs	r3, #244
 1396 081c FB18     		adds	r3, r7, r3
 1397 081e 1B68     		ldr	r3, [r3]
 1398 0820 0133     		adds	r3, r3, #1
 1399 0822 F422     		movs	r2, #244
 1400 0824 BA18     		adds	r2, r7, r2
 1401 0826 1360     		str	r3, [r2]
 1402              	.L47:
 568:ble_process.c ****                             val[i] = (uint8_t) scan_report.data[i];
 1403              		.loc 1 568 0 is_stmt 0 discriminator 1
 1404 0828 9823     		movs	r3, #152
 1405 082a FB18     		adds	r3, r7, r3
 1406 082c 1B7A     		ldrb	r3, [r3, #8]
 1407 082e 1A00     		movs	r2, r3
 1408 0830 F423     		movs	r3, #244
 1409 0832 FB18     		adds	r3, r7, r3
 1410 0834 1B68     		ldr	r3, [r3]
 1411 0836 9A42     		cmp	r2, r3
 1412 0838 E0DC     		bgt	.L48
 1413              	.LBE5:
 574:ble_process.c ****                         EnvSensorProcess(scan_report.rssi,scan_report.data);
 1414              		.loc 1 574 0 is_stmt 1
 1415 083a 2020     		movs	r0, #32
 1416 083c FFF7FEFF 		bl	UART_UartPutCRLF
ARM GAS  C:\Users\run1009\AppData\Local\Temp\cch0f4sO.s 			page 46


 575:ble_process.c ****                         ENV_SENSOR_T result = GetSensorData();
 1417              		.loc 1 575 0
 1418 0840 9823     		movs	r3, #152
 1419 0842 FB18     		adds	r3, r7, r3
 1420 0844 1022     		movs	r2, #16
 1421 0846 9A56     		ldrsb	r2, [r3, r2]
 1422 0848 9823     		movs	r3, #152
 1423 084a FB18     		adds	r3, r7, r3
 1424 084c DB68     		ldr	r3, [r3, #12]
 1425 084e 1900     		movs	r1, r3
 1426 0850 1000     		movs	r0, r2
 1427 0852 FFF7FEFF 		bl	EnvSensorProcess
 576:ble_process.c ****                         char* temp = ftoa(result.temp);
 1428              		.loc 1 576 0
 1429 0856 0823     		movs	r3, #8
 1430 0858 FB18     		adds	r3, r7, r3
 1431 085a 1800     		movs	r0, r3
 1432 085c FFF7FEFF 		bl	GetSensorData
 577:ble_process.c ****                         UART_UartPutString("temperature: ");
 1433              		.loc 1 577 0
 1434 0860 0823     		movs	r3, #8
 1435 0862 FB18     		adds	r3, r7, r3
 1436 0864 9B68     		ldr	r3, [r3, #8]
 1437 0866 181C     		adds	r0, r3, #0
 1438 0868 FFF7FEFF 		bl	ftoa
 1439 086c 0300     		movs	r3, r0
 1440 086e E822     		movs	r2, #232
 1441 0870 BA18     		adds	r2, r7, r2
 1442 0872 1360     		str	r3, [r2]
 578:ble_process.c ****                         UART_UartPutString(temp);
 1443              		.loc 1 578 0
 1444 0874 CB4B     		ldr	r3, .L65+4
 1445 0876 1800     		movs	r0, r3
 1446 0878 FFF7FEFF 		bl	UART_UartPutString
 579:ble_process.c ****                         UART_UartPutCRLF(' ');
 1447              		.loc 1 579 0
 1448 087c E823     		movs	r3, #232
 1449 087e FB18     		adds	r3, r7, r3
 1450 0880 1B68     		ldr	r3, [r3]
 1451 0882 1800     		movs	r0, r3
 1452 0884 FFF7FEFF 		bl	UART_UartPutString
 580:ble_process.c ****                         char li[1];
 1453              		.loc 1 580 0
 1454 0888 2020     		movs	r0, #32
 1455 088a FFF7FEFF 		bl	UART_UartPutCRLF
 582:ble_process.c ****                         UART_UartPutString("light: ");
 1456              		.loc 1 582 0
 1457 088e 0823     		movs	r3, #8
 1458 0890 FB18     		adds	r3, r7, r3
 1459 0892 1022     		movs	r2, #16
 1460 0894 9B5E     		ldrsh	r3, [r3, r2]
 1461 0896 1A00     		movs	r2, r3
 1462 0898 C349     		ldr	r1, .L65+8
 1463 089a 5423     		movs	r3, #84
 1464 089c FB18     		adds	r3, r7, r3
 1465 089e 1800     		movs	r0, r3
 1466 08a0 FFF7FEFF 		bl	sprintf
ARM GAS  C:\Users\run1009\AppData\Local\Temp\cch0f4sO.s 			page 47


 583:ble_process.c ****                         //UART_UartPutChar(li);
 1467              		.loc 1 583 0
 1468 08a4 C14B     		ldr	r3, .L65+12
 1469 08a6 1800     		movs	r0, r3
 1470 08a8 FFF7FEFF 		bl	UART_UartPutString
 585:ble_process.c ****                         UART_UartPutCRLF(' ');
 1471              		.loc 1 585 0
 1472 08ac 0823     		movs	r3, #8
 1473 08ae FB18     		adds	r3, r7, r3
 1474 08b0 1022     		movs	r2, #16
 1475 08b2 9B5E     		ldrsh	r3, [r3, r2]
 1476 08b4 DBB2     		uxtb	r3, r3
 1477 08b6 1800     		movs	r0, r3
 1478 08b8 FFF7FEFF 		bl	PrintNum
 586:ble_process.c ****                         char* noise = ftoa(result.noise);
 1479              		.loc 1 586 0
 1480 08bc 2020     		movs	r0, #32
 1481 08be FFF7FEFF 		bl	UART_UartPutCRLF
 587:ble_process.c ****                         UART_UartPutString("noise: ");
 1482              		.loc 1 587 0
 1483 08c2 0823     		movs	r3, #8
 1484 08c4 FB18     		adds	r3, r7, r3
 1485 08c6 DB69     		ldr	r3, [r3, #28]
 1486 08c8 181C     		adds	r0, r3, #0
 1487 08ca FFF7FEFF 		bl	ftoa
 1488 08ce 0300     		movs	r3, r0
 1489 08d0 E422     		movs	r2, #228
 1490 08d2 BA18     		adds	r2, r7, r2
 1491 08d4 1360     		str	r3, [r2]
 588:ble_process.c ****                         UART_UartPutString(noise);
 1492              		.loc 1 588 0
 1493 08d6 B64B     		ldr	r3, .L65+16
 1494 08d8 1800     		movs	r0, r3
 1495 08da FFF7FEFF 		bl	UART_UartPutString
 589:ble_process.c ****                         UART_UartPutCRLF(' ');
 1496              		.loc 1 589 0
 1497 08de E423     		movs	r3, #228
 1498 08e0 FB18     		adds	r3, r7, r3
 1499 08e2 1B68     		ldr	r3, [r3]
 1500 08e4 1800     		movs	r0, r3
 1501 08e6 FFF7FEFF 		bl	UART_UartPutString
 590:ble_process.c ****                         char* humi = ftoa(result.humi);
 1502              		.loc 1 590 0
 1503 08ea 2020     		movs	r0, #32
 1504 08ec FFF7FEFF 		bl	UART_UartPutCRLF
 591:ble_process.c ****                         UART_UartPutString("humidity: ");
 1505              		.loc 1 591 0
 1506 08f0 0823     		movs	r3, #8
 1507 08f2 FB18     		adds	r3, r7, r3
 1508 08f4 DB68     		ldr	r3, [r3, #12]
 1509 08f6 181C     		adds	r0, r3, #0
 1510 08f8 FFF7FEFF 		bl	ftoa
 1511 08fc 0300     		movs	r3, r0
 1512 08fe E022     		movs	r2, #224
 1513 0900 BA18     		adds	r2, r7, r2
 1514 0902 1360     		str	r3, [r2]
 592:ble_process.c ****                         UART_UartPutString(humi);
ARM GAS  C:\Users\run1009\AppData\Local\Temp\cch0f4sO.s 			page 48


 1515              		.loc 1 592 0
 1516 0904 AB4B     		ldr	r3, .L65+20
 1517 0906 1800     		movs	r0, r3
 1518 0908 FFF7FEFF 		bl	UART_UartPutString
 593:ble_process.c ****                         UART_UartPutCRLF(' ');
 1519              		.loc 1 593 0
 1520 090c E023     		movs	r3, #224
 1521 090e FB18     		adds	r3, r7, r3
 1522 0910 1B68     		ldr	r3, [r3]
 1523 0912 1800     		movs	r0, r3
 1524 0914 FFF7FEFF 		bl	UART_UartPutString
 594:ble_process.c ****                         char* uv = ftoa(result.uv);
 1525              		.loc 1 594 0
 1526 0918 2020     		movs	r0, #32
 1527 091a FFF7FEFF 		bl	UART_UartPutCRLF
 595:ble_process.c ****                         UART_UartPutString("uv: ");
 1528              		.loc 1 595 0
 1529 091e 0823     		movs	r3, #8
 1530 0920 FB18     		adds	r3, r7, r3
 1531 0922 5B69     		ldr	r3, [r3, #20]
 1532 0924 181C     		adds	r0, r3, #0
 1533 0926 FFF7FEFF 		bl	ftoa
 1534 092a 0300     		movs	r3, r0
 1535 092c DC22     		movs	r2, #220
 1536 092e BA18     		adds	r2, r7, r2
 1537 0930 1360     		str	r3, [r2]
 596:ble_process.c ****                         UART_UartPutString(uv);
 1538              		.loc 1 596 0
 1539 0932 A14B     		ldr	r3, .L65+24
 1540 0934 1800     		movs	r0, r3
 1541 0936 FFF7FEFF 		bl	UART_UartPutString
 597:ble_process.c ****                         UART_UartPutCRLF(' ');
 1542              		.loc 1 597 0
 1543 093a DC23     		movs	r3, #220
 1544 093c FB18     		adds	r3, r7, r3
 1545 093e 1B68     		ldr	r3, [r3]
 1546 0940 1800     		movs	r0, r3
 1547 0942 FFF7FEFF 		bl	UART_UartPutString
 598:ble_process.c ****                         char* press = ftoa(result.pressure);
 1548              		.loc 1 598 0
 1549 0946 2020     		movs	r0, #32
 1550 0948 FFF7FEFF 		bl	UART_UartPutCRLF
 599:ble_process.c ****                         UART_UartPutString("pressure: ");
 1551              		.loc 1 599 0
 1552 094c 0823     		movs	r3, #8
 1553 094e FB18     		adds	r3, r7, r3
 1554 0950 9B69     		ldr	r3, [r3, #24]
 1555 0952 181C     		adds	r0, r3, #0
 1556 0954 FFF7FEFF 		bl	ftoa
 1557 0958 0300     		movs	r3, r0
 1558 095a D822     		movs	r2, #216
 1559 095c BA18     		adds	r2, r7, r2
 1560 095e 1360     		str	r3, [r2]
 600:ble_process.c ****                         UART_UartPutString(press);
 1561              		.loc 1 600 0
 1562 0960 964B     		ldr	r3, .L65+28
 1563 0962 1800     		movs	r0, r3
ARM GAS  C:\Users\run1009\AppData\Local\Temp\cch0f4sO.s 			page 49


 1564 0964 FFF7FEFF 		bl	UART_UartPutString
 601:ble_process.c ****                         UART_UartPutCRLF(' ');
 1565              		.loc 1 601 0
 1566 0968 D823     		movs	r3, #216
 1567 096a FB18     		adds	r3, r7, r3
 1568 096c 1B68     		ldr	r3, [r3]
 1569 096e 1800     		movs	r0, r3
 1570 0970 FFF7FEFF 		bl	UART_UartPutString
 602:ble_process.c ****                         char* di = ftoa(result.di);
 1571              		.loc 1 602 0
 1572 0974 2020     		movs	r0, #32
 1573 0976 FFF7FEFF 		bl	UART_UartPutCRLF
 603:ble_process.c ****                         UART_UartPutString("dimention: ");
 1574              		.loc 1 603 0
 1575 097a 0823     		movs	r3, #8
 1576 097c FB18     		adds	r3, r7, r3
 1577 097e 1B6A     		ldr	r3, [r3, #32]
 1578 0980 181C     		adds	r0, r3, #0
 1579 0982 FFF7FEFF 		bl	ftoa
 1580 0986 0300     		movs	r3, r0
 1581 0988 D422     		movs	r2, #212
 1582 098a BA18     		adds	r2, r7, r2
 1583 098c 1360     		str	r3, [r2]
 604:ble_process.c ****                         UART_UartPutString(di);
 1584              		.loc 1 604 0
 1585 098e 8C4B     		ldr	r3, .L65+32
 1586 0990 1800     		movs	r0, r3
 1587 0992 FFF7FEFF 		bl	UART_UartPutString
 605:ble_process.c ****                         UART_UartPutCRLF(' ');
 1588              		.loc 1 605 0
 1589 0996 D423     		movs	r3, #212
 1590 0998 FB18     		adds	r3, r7, r3
 1591 099a 1B68     		ldr	r3, [r3]
 1592 099c 1800     		movs	r0, r3
 1593 099e FFF7FEFF 		bl	UART_UartPutString
 606:ble_process.c ****                         char* heat = ftoa(result.heat);
 1594              		.loc 1 606 0
 1595 09a2 2020     		movs	r0, #32
 1596 09a4 FFF7FEFF 		bl	UART_UartPutCRLF
 607:ble_process.c ****                         UART_UartPutString("heat: ");
 1597              		.loc 1 607 0
 1598 09a8 0823     		movs	r3, #8
 1599 09aa FB18     		adds	r3, r7, r3
 1600 09ac 5B6A     		ldr	r3, [r3, #36]
 1601 09ae 181C     		adds	r0, r3, #0
 1602 09b0 FFF7FEFF 		bl	ftoa
 1603 09b4 0300     		movs	r3, r0
 1604 09b6 D022     		movs	r2, #208
 1605 09b8 BA18     		adds	r2, r7, r2
 1606 09ba 1360     		str	r3, [r2]
 608:ble_process.c ****                         UART_UartPutString(heat);
 1607              		.loc 1 608 0
 1608 09bc 814B     		ldr	r3, .L65+36
 1609 09be 1800     		movs	r0, r3
 1610 09c0 FFF7FEFF 		bl	UART_UartPutString
 609:ble_process.c ****                         UART_UartPutCRLF(' ');
 1611              		.loc 1 609 0
ARM GAS  C:\Users\run1009\AppData\Local\Temp\cch0f4sO.s 			page 50


 1612 09c4 D023     		movs	r3, #208
 1613 09c6 FB18     		adds	r3, r7, r3
 1614 09c8 1B68     		ldr	r3, [r3]
 1615 09ca 1800     		movs	r0, r3
 1616 09cc FFF7FEFF 		bl	UART_UartPutString
 610:ble_process.c ****                         char* battery = ftoa(result.battery);
 1617              		.loc 1 610 0
 1618 09d0 2020     		movs	r0, #32
 1619 09d2 FFF7FEFF 		bl	UART_UartPutCRLF
 611:ble_process.c ****                         UART_UartPutString("battery: ");
 1620              		.loc 1 611 0
 1621 09d6 0823     		movs	r3, #8
 1622 09d8 FB18     		adds	r3, r7, r3
 1623 09da 5B6B     		ldr	r3, [r3, #52]
 1624 09dc 181C     		adds	r0, r3, #0
 1625 09de FFF7FEFF 		bl	ftoa
 1626 09e2 0300     		movs	r3, r0
 1627 09e4 CC22     		movs	r2, #204
 1628 09e6 BA18     		adds	r2, r7, r2
 1629 09e8 1360     		str	r3, [r2]
 612:ble_process.c ****                         UART_UartPutString(battery);
 1630              		.loc 1 612 0
 1631 09ea 774B     		ldr	r3, .L65+40
 1632 09ec 1800     		movs	r0, r3
 1633 09ee FFF7FEFF 		bl	UART_UartPutString
 613:ble_process.c ****                         UART_UartPutCRLF(' ');
 1634              		.loc 1 613 0
 1635 09f2 CC23     		movs	r3, #204
 1636 09f4 FB18     		adds	r3, r7, r3
 1637 09f6 1B68     		ldr	r3, [r3]
 1638 09f8 1800     		movs	r0, r3
 1639 09fa FFF7FEFF 		bl	UART_UartPutString
 614:ble_process.c ****                         char* distance = ftoa(result.distance);
 1640              		.loc 1 614 0
 1641 09fe 2020     		movs	r0, #32
 1642 0a00 FFF7FEFF 		bl	UART_UartPutCRLF
 615:ble_process.c ****                         UART_UartPutString("distance: ");
 1643              		.loc 1 615 0
 1644 0a04 0823     		movs	r3, #8
 1645 0a06 FB18     		adds	r3, r7, r3
 1646 0a08 DB6B     		ldr	r3, [r3, #60]
 1647 0a0a 181C     		adds	r0, r3, #0
 1648 0a0c FFF7FEFF 		bl	ftoa
 1649 0a10 0300     		movs	r3, r0
 1650 0a12 C822     		movs	r2, #200
 1651 0a14 BA18     		adds	r2, r7, r2
 1652 0a16 1360     		str	r3, [r2]
 616:ble_process.c ****                         UART_UartPutString(distance);
 1653              		.loc 1 616 0
 1654 0a18 6C4B     		ldr	r3, .L65+44
 1655 0a1a 1800     		movs	r0, r3
 1656 0a1c FFF7FEFF 		bl	UART_UartPutString
 617:ble_process.c ****                         UART_UartPutCRLF(' ');
 1657              		.loc 1 617 0
 1658 0a20 C823     		movs	r3, #200
 1659 0a22 FB18     		adds	r3, r7, r3
 1660 0a24 1B68     		ldr	r3, [r3]
ARM GAS  C:\Users\run1009\AppData\Local\Temp\cch0f4sO.s 			page 51


 1661 0a26 1800     		movs	r0, r3
 1662 0a28 FFF7FEFF 		bl	UART_UartPutString
 618:ble_process.c ****                         UART_UartPutCRLF(' ');
 1663              		.loc 1 618 0
 1664 0a2c 2020     		movs	r0, #32
 1665 0a2e FFF7FEFF 		bl	UART_UartPutCRLF
 619:ble_process.c ****                         #endif
 1666              		.loc 1 619 0
 1667 0a32 2020     		movs	r0, #32
 1668 0a34 FFF7FEFF 		bl	UART_UartPutCRLF
 1669              	.L38:
 1670              	.LBE4:
 1671              	.LBE2:
 627:ble_process.c **** 				{
 1672              		.loc 1 627 0
 1673 0a38 9823     		movs	r3, #152
 1674 0a3a FB18     		adds	r3, r7, r3
 1675 0a3c 1B78     		ldrb	r3, [r3]
 1676 0a3e 042B     		cmp	r3, #4
 1677 0a40 00D0     		beq	.LCB1209
 1678 0a42 B1E1     		b	.L57	@long jump
 1679              	.LCB1209:
 631:ble_process.c **** 					{
 1680              		.loc 1 631 0
 1681 0a44 9823     		movs	r3, #152
 1682 0a46 FB18     		adds	r3, r7, r3
 1683 0a48 1B7A     		ldrb	r3, [r3, #8]
 1684 0a4a 142B     		cmp	r3, #20
 1685 0a4c 00D0     		beq	.LCB1214
 1686 0a4e ABE1     		b	.L57	@long jump
 1687              	.LCB1214:
 637:ble_process.c **** 						{
 1688              		.loc 1 637 0
 1689 0a50 5F4B     		ldr	r3, .L65+48
 1690 0a52 1B78     		ldrb	r3, [r3]
 1691 0a54 002B     		cmp	r3, #0
 1692 0a56 00D1     		bne	.LCB1218
 1693 0a58 A6E1     		b	.L57	@long jump
 1694              	.LCB1218:
 640:ble_process.c **** 								&& (potential_node_bdAddrType == scan_report.peerAddrType))
 1695              		.loc 1 640 0
 1696 0a5a 9823     		movs	r3, #152
 1697 0a5c FB18     		adds	r3, r7, r3
 1698 0a5e 5B68     		ldr	r3, [r3, #4]
 1699 0a60 5C49     		ldr	r1, .L65+52
 1700 0a62 0622     		movs	r2, #6
 1701 0a64 1800     		movs	r0, r3
 1702 0a66 FFF7FEFF 		bl	memcmp
 1703 0a6a 031E     		subs	r3, r0, #0
 1704 0a6c 00D0     		beq	.LCB1228
 1705 0a6e 9BE1     		b	.L57	@long jump
 1706              	.LCB1228:
 641:ble_process.c **** 							{
 1707              		.loc 1 641 0
 1708 0a70 9823     		movs	r3, #152
 1709 0a72 FB18     		adds	r3, r7, r3
 1710 0a74 5A78     		ldrb	r2, [r3, #1]
ARM GAS  C:\Users\run1009\AppData\Local\Temp\cch0f4sO.s 			page 52


 1711 0a76 584B     		ldr	r3, .L65+56
 1712 0a78 1B78     		ldrb	r3, [r3]
 1713 0a7a 9A42     		cmp	r2, r3
 1714 0a7c 00D0     		beq	.LCB1235
 1715 0a7e 93E1     		b	.L57	@long jump
 1716              	.LCB1235:
 646:ble_process.c **** 								{
 1717              		.loc 1 646 0
 1718 0a80 9823     		movs	r3, #152
 1719 0a82 FB18     		adds	r3, r7, r3
 1720 0a84 D868     		ldr	r0, [r3, #12]
 1721 0a86 9823     		movs	r3, #152
 1722 0a88 FB18     		adds	r3, r7, r3
 1723 0a8a 1B7A     		ldrb	r3, [r3, #8]
 1724 0a8c 1A00     		movs	r2, r3
 1725 0a8e 534B     		ldr	r3, .L65+60
 1726 0a90 1900     		movs	r1, r3
 1727 0a92 FFF7FEFF 		bl	memcmp
 1728 0a96 031E     		subs	r3, r0, #0
 1729 0a98 00D0     		beq	.LCB1248
 1730 0a9a 85E1     		b	.L57	@long jump
 1731              	.LCB1248:
 649:ble_process.c **** 									UART_UartPutCRLF(' ');
 1732              		.loc 1 649 0
 1733 0a9c 504B     		ldr	r3, .L65+64
 1734 0a9e 1800     		movs	r0, r3
 1735 0aa0 FFF7FEFF 		bl	UART_UartPutString
 650:ble_process.c **** 									#endif
 1736              		.loc 1 650 0
 1737 0aa4 2020     		movs	r0, #32
 1738 0aa6 FFF7FEFF 		bl	UART_UartPutCRLF
 653:ble_process.c **** 									
 1739              		.loc 1 653 0
 1740 0aaa FFF7FEFF 		bl	CyBle_GapcStopScan
 656:ble_process.c **** 									UART_UartPutCRLF(' ');
 1741              		.loc 1 656 0
 1742 0aae 4D4B     		ldr	r3, .L65+68
 1743 0ab0 1800     		movs	r0, r3
 1744 0ab2 FFF7FEFF 		bl	UART_UartPutString
 657:ble_process.c **** 									#endif
 1745              		.loc 1 657 0
 1746 0ab6 2020     		movs	r0, #32
 1747 0ab8 FFF7FEFF 		bl	UART_UartPutCRLF
 661:ble_process.c **** 									peripAddr.bdAddr[0] = scan_report.peerBdAddr[0];
 1748              		.loc 1 661 0
 1749 0abc 9823     		movs	r3, #152
 1750 0abe FB18     		adds	r3, r7, r3
 1751 0ac0 5A78     		ldrb	r2, [r3, #1]
 1752 0ac2 494B     		ldr	r3, .L65+72
 1753 0ac4 9A71     		strb	r2, [r3, #6]
 662:ble_process.c **** 									peripAddr.bdAddr[1] = scan_report.peerBdAddr[1];
 1754              		.loc 1 662 0
 1755 0ac6 9823     		movs	r3, #152
 1756 0ac8 FB18     		adds	r3, r7, r3
 1757 0aca 5B68     		ldr	r3, [r3, #4]
 1758 0acc 1A78     		ldrb	r2, [r3]
 1759 0ace 464B     		ldr	r3, .L65+72
ARM GAS  C:\Users\run1009\AppData\Local\Temp\cch0f4sO.s 			page 53


 1760 0ad0 1A70     		strb	r2, [r3]
 663:ble_process.c **** 									peripAddr.bdAddr[2] = scan_report.peerBdAddr[2];
 1761              		.loc 1 663 0
 1762 0ad2 9823     		movs	r3, #152
 1763 0ad4 FB18     		adds	r3, r7, r3
 1764 0ad6 5B68     		ldr	r3, [r3, #4]
 1765 0ad8 5A78     		ldrb	r2, [r3, #1]
 1766 0ada 434B     		ldr	r3, .L65+72
 1767 0adc 5A70     		strb	r2, [r3, #1]
 664:ble_process.c **** 									peripAddr.bdAddr[3] = scan_report.peerBdAddr[3];
 1768              		.loc 1 664 0
 1769 0ade 9823     		movs	r3, #152
 1770 0ae0 FB18     		adds	r3, r7, r3
 1771 0ae2 5B68     		ldr	r3, [r3, #4]
 1772 0ae4 9A78     		ldrb	r2, [r3, #2]
 1773 0ae6 404B     		ldr	r3, .L65+72
 1774 0ae8 9A70     		strb	r2, [r3, #2]
 665:ble_process.c **** 									peripAddr.bdAddr[4] = scan_report.peerBdAddr[4];
 1775              		.loc 1 665 0
 1776 0aea 9823     		movs	r3, #152
 1777 0aec FB18     		adds	r3, r7, r3
 1778 0aee 5B68     		ldr	r3, [r3, #4]
 1779 0af0 DA78     		ldrb	r2, [r3, #3]
 1780 0af2 3D4B     		ldr	r3, .L65+72
 1781 0af4 DA70     		strb	r2, [r3, #3]
 666:ble_process.c **** 									peripAddr.bdAddr[5] = scan_report.peerBdAddr[5];
 1782              		.loc 1 666 0
 1783 0af6 9823     		movs	r3, #152
 1784 0af8 FB18     		adds	r3, r7, r3
 1785 0afa 5B68     		ldr	r3, [r3, #4]
 1786 0afc 1A79     		ldrb	r2, [r3, #4]
 1787 0afe 3A4B     		ldr	r3, .L65+72
 1788 0b00 1A71     		strb	r2, [r3, #4]
 667:ble_process.c **** 									
 1789              		.loc 1 667 0
 1790 0b02 9823     		movs	r3, #152
 1791 0b04 FB18     		adds	r3, r7, r3
 1792 0b06 5B68     		ldr	r3, [r3, #4]
 1793 0b08 5A79     		ldrb	r2, [r3, #5]
 1794 0b0a 374B     		ldr	r3, .L65+72
 1795 0b0c 5A71     		strb	r2, [r3, #5]
 671:ble_process.c **** 									
 1796              		.loc 1 671 0
 1797 0b0e 374B     		ldr	r3, .L65+76
 1798 0b10 0122     		movs	r2, #1
 1799 0b12 1A70     		strb	r2, [r3]
 675:ble_process.c **** 									#endif
 1800              		.loc 1 675 0
 1801 0b14 2E4B     		ldr	r3, .L65+48
 1802 0b16 0022     		movs	r2, #0
 1803 0b18 1A70     		strb	r2, [r3]
 687:ble_process.c **** 			
 1804              		.loc 1 687 0
 1805 0b1a 45E1     		b	.L57
 1806              	.L10:
 692:ble_process.c **** 				CyBle_GapGetPeerBdAddr(cyBle_connHandle.bdHandle, &gap_bdaddr);
 1807              		.loc 1 692 0
ARM GAS  C:\Users\run1009\AppData\Local\Temp\cch0f4sO.s 			page 54


 1808 0b1c 344B     		ldr	r3, .L65+80
 1809 0b1e 1800     		movs	r0, r3
 1810 0b20 FFF7FEFF 		bl	UART_UartPutString
 693:ble_process.c **** 				PrintHex(gap_bdaddr.bdAddr[0]);
 1811              		.loc 1 693 0
 1812 0b24 334B     		ldr	r3, .L65+84
 1813 0b26 1B78     		ldrb	r3, [r3]
 1814 0b28 7022     		movs	r2, #112
 1815 0b2a BA18     		adds	r2, r7, r2
 1816 0b2c 1100     		movs	r1, r2
 1817 0b2e 1800     		movs	r0, r3
 1818 0b30 FFF7FEFF 		bl	CyBle_GapGetPeerBdAddr
 694:ble_process.c **** 				PrintHex(gap_bdaddr.bdAddr[1]);
 1819              		.loc 1 694 0
 1820 0b34 7023     		movs	r3, #112
 1821 0b36 FB18     		adds	r3, r7, r3
 1822 0b38 1B78     		ldrb	r3, [r3]
 1823 0b3a 1800     		movs	r0, r3
 1824 0b3c FFF7FEFF 		bl	PrintHex
 695:ble_process.c **** 				PrintHex(gap_bdaddr.bdAddr[2]);
 1825              		.loc 1 695 0
 1826 0b40 7023     		movs	r3, #112
 1827 0b42 FB18     		adds	r3, r7, r3
 1828 0b44 5B78     		ldrb	r3, [r3, #1]
 1829 0b46 1800     		movs	r0, r3
 1830 0b48 FFF7FEFF 		bl	PrintHex
 696:ble_process.c **** 				UART_UartPutCRLF(' ');
 1831              		.loc 1 696 0
 1832 0b4c 7023     		movs	r3, #112
 1833 0b4e FB18     		adds	r3, r7, r3
 1834 0b50 9B78     		ldrb	r3, [r3, #2]
 1835 0b52 1800     		movs	r0, r3
 1836 0b54 FFF7FEFF 		bl	PrintHex
 697:ble_process.c **** 			#endif
 1837              		.loc 1 697 0
 1838 0b58 2020     		movs	r0, #32
 1839 0b5a FFF7FEFF 		bl	UART_UartPutCRLF
 700:ble_process.c **** 			{
 1840              		.loc 1 700 0
 1841 0b5e 264B     		ldr	r3, .L65+88
 1842 0b60 1B78     		ldrb	r3, [r3]
 1843 0b62 022B     		cmp	r3, #2
 1844 0b64 00D0     		beq	.LCB1341
 1845 0b66 21E1     		b	.L58	@long jump
 1846              	.LCB1341:
 1847              	.LBB6:
 706:ble_process.c **** 					#if (DEBUG_ENABLED == 1)
 1848              		.loc 1 706 0
 1849 0b68 224B     		ldr	r3, .L65+84
 1850 0b6a 1A78     		ldrb	r2, [r3]
 1851 0b6c 5B78     		ldrb	r3, [r3, #1]
 1852 0b6e 1B02     		lsls	r3, r3, #8
 1853 0b70 1A43     		orrs	r2, r3
 1854 0b72 0023     		movs	r3, #0
 1855 0b74 1204     		lsls	r2, r2, #16
 1856 0b76 120C     		lsrs	r2, r2, #16
 1857 0b78 1B0C     		lsrs	r3, r3, #16
ARM GAS  C:\Users\run1009\AppData\Local\Temp\cch0f4sO.s 			page 55


 1858 0b7a 1B04     		lsls	r3, r3, #16
 1859 0b7c 1343     		orrs	r3, r2
 1860 0b7e 1800     		movs	r0, r3
 1861 0b80 FFF7FEFF 		bl	CyBle_GattcStartDiscovery
 708:ble_process.c **** 						SendBLEStatetoUART(CyBle_GetState());
 1862              		.loc 1 708 0
 1863 0b84 1D4B     		ldr	r3, .L65+92
 1864 0b86 1800     		movs	r0, r3
 1865 0b88 FFF7FEFF 		bl	UART_UartPutString
 709:ble_process.c **** 						UART_UartPutCRLF(' ');
 1866              		.loc 1 709 0
 1867 0b8c 1C4B     		ldr	r3, .L65+96
 1868 0b8e 1B78     		ldrb	r3, [r3]
 1869 0b90 1800     		movs	r0, r3
 1870 0b92 FFF7FEFF 		bl	SendBLEStatetoUART
 710:ble_process.c ****                         
 1871              		.loc 1 710 0
 1872 0b96 2020     		movs	r0, #32
 1873 0b98 FFF7FEFF 		bl	UART_UartPutCRLF
 1874              	.LBE6:
 749:ble_process.c **** 			
 1875              		.loc 1 749 0
 1876 0b9c 06E1     		b	.L58
 1877              	.L66:
 1878 0b9e C046     		.align	2
 1879              	.L65:
 1880 0ba0 00000000 		.word	val
 1881 0ba4 30020000 		.word	.LC65
 1882 0ba8 40020000 		.word	.LC67
 1883 0bac 44020000 		.word	.LC69
 1884 0bb0 4C020000 		.word	.LC71
 1885 0bb4 54020000 		.word	.LC73
 1886 0bb8 60020000 		.word	.LC75
 1887 0bbc 68020000 		.word	.LC77
 1888 0bc0 74020000 		.word	.LC79
 1889 0bc4 80020000 		.word	.LC81
 1890 0bc8 88020000 		.word	.LC83
 1891 0bcc 94020000 		.word	.LC85
 1892 0bd0 00000000 		.word	potential_node_found
 1893 0bd4 00000000 		.word	potential_node_bdAddr
 1894 0bd8 00000000 		.word	potential_node_bdAddrType
 1895 0bdc 00000000 		.word	scan_tag
 1896 0be0 A0020000 		.word	.LC88
 1897 0be4 C0010000 		.word	.LC48
 1898 0be8 00000000 		.word	peripAddr
 1899 0bec 00000000 		.word	clientConnectToDevice
 1900 0bf0 B0020000 		.word	.LC90
 1901 0bf4 00000000 		.word	cyBle_connHandle
 1902 0bf8 00000000 		.word	ble_gap_state
 1903 0bfc D4020000 		.word	.LC92
 1904 0c00 00000000 		.word	cyBle_state
 1905              	.L18:
 755:ble_process.c **** 			#if (DEBUG_ENABLED == 1)
 1906              		.loc 1 755 0
 1907 0c04 6D4B     		ldr	r3, .L67
 1908 0c06 0122     		movs	r2, #1
 1909 0c08 1A70     		strb	r2, [r3]
ARM GAS  C:\Users\run1009\AppData\Local\Temp\cch0f4sO.s 			page 56


 757:ble_process.c **** 				SendBLEStatetoUART(CyBle_GetState());
 1910              		.loc 1 757 0
 1911 0c0a 6D4B     		ldr	r3, .L67+4
 1912 0c0c 1800     		movs	r0, r3
 1913 0c0e FFF7FEFF 		bl	UART_UartPutString
 758:ble_process.c **** 				UART_UartPutCRLF(' ');
 1914              		.loc 1 758 0
 1915 0c12 6C4B     		ldr	r3, .L67+8
 1916 0c14 1B78     		ldrb	r3, [r3]
 1917 0c16 1800     		movs	r0, r3
 1918 0c18 FFF7FEFF 		bl	SendBLEStatetoUART
 759:ble_process.c **** 
 1919              		.loc 1 759 0
 1920 0c1c 2020     		movs	r0, #32
 1921 0c1e FFF7FEFF 		bl	UART_UartPutCRLF
 761:ble_process.c ****                 readBlobdata.offset = 
 1922              		.loc 1 761 0
 1923 0c22 7823     		movs	r3, #120
 1924 0c24 FB18     		adds	r3, r7, r3
 1925 0c26 0122     		movs	r2, #1
 1926 0c28 1A80     		strh	r2, [r3]
 763:ble_process.c **** 			#endif
 1927              		.loc 1 763 0
 1928 0c2a 7823     		movs	r3, #120
 1929 0c2c F918     		adds	r1, r7, r3
 1930 0c2e 664B     		ldr	r3, .L67+12
 1931 0c30 1A78     		ldrb	r2, [r3]
 1932 0c32 5B78     		ldrb	r3, [r3, #1]
 1933 0c34 1B02     		lsls	r3, r3, #8
 1934 0c36 1A43     		orrs	r2, r3
 1935 0c38 0023     		movs	r3, #0
 1936 0c3a 1204     		lsls	r2, r2, #16
 1937 0c3c 120C     		lsrs	r2, r2, #16
 1938 0c3e 1B0C     		lsrs	r3, r3, #16
 1939 0c40 1B04     		lsls	r3, r3, #16
 1940 0c42 1343     		orrs	r3, r2
 1941 0c44 1800     		movs	r0, r3
 1942 0c46 FFF7FEFF 		bl	CyBle_GattcReadLongCharacteristicDescriptors
 1943 0c4a 0300     		movs	r3, r0
 1944 0c4c 1A00     		movs	r2, r3
 762:ble_process.c ****                CyBle_GattcReadLongCharacteristicDescriptors(cyBle_connHandle, &readBlobdata);
 1945              		.loc 1 762 0
 1946 0c4e 7823     		movs	r3, #120
 1947 0c50 FB18     		adds	r3, r7, r3
 1948 0c52 5A80     		strh	r2, [r3, #2]
 767:ble_process.c **** 			writeADVcounterdata.value.val = &dataADVCounter;
 1949              		.loc 1 767 0
 1950 0c54 AC23     		movs	r3, #172
 1951 0c56 FB18     		adds	r3, r7, r3
 1952 0c58 1122     		movs	r2, #17
 1953 0c5a 1A81     		strh	r2, [r3, #8]
 768:ble_process.c **** 			writeADVcounterdata.value.len = 1;
 1954              		.loc 1 768 0
 1955 0c5c AC23     		movs	r3, #172
 1956 0c5e FB18     		adds	r3, r7, r3
 1957 0c60 5A4A     		ldr	r2, .L67+16
 1958 0c62 1A60     		str	r2, [r3]
ARM GAS  C:\Users\run1009\AppData\Local\Temp\cch0f4sO.s 			page 57


 769:ble_process.c **** 			CyBle_GattcWriteWithoutResponse(cyBle_connHandle, &writeADVcounterdata);
 1959              		.loc 1 769 0
 1960 0c64 AC23     		movs	r3, #172
 1961 0c66 FB18     		adds	r3, r7, r3
 1962 0c68 0122     		movs	r2, #1
 1963 0c6a 9A80     		strh	r2, [r3, #4]
 770:ble_process.c **** 		
 1964              		.loc 1 770 0
 1965 0c6c AC23     		movs	r3, #172
 1966 0c6e F918     		adds	r1, r7, r3
 1967 0c70 554B     		ldr	r3, .L67+12
 1968 0c72 1A78     		ldrb	r2, [r3]
 1969 0c74 5B78     		ldrb	r3, [r3, #1]
 1970 0c76 1B02     		lsls	r3, r3, #8
 1971 0c78 1A43     		orrs	r2, r3
 1972 0c7a 0023     		movs	r3, #0
 1973 0c7c 1204     		lsls	r2, r2, #16
 1974 0c7e 120C     		lsrs	r2, r2, #16
 1975 0c80 1B0C     		lsrs	r3, r3, #16
 1976 0c82 1B04     		lsls	r3, r3, #16
 1977 0c84 1343     		orrs	r3, r2
 1978 0c86 1800     		movs	r0, r3
 1979 0c88 FFF7FEFF 		bl	CyBle_GattcWriteWithoutResponse
 773:ble_process.c **** 			writeRGBdata.value.val = RGBData;
 1980              		.loc 1 773 0
 1981 0c8c 7C23     		movs	r3, #124
 1982 0c8e FB18     		adds	r3, r7, r3
 1983 0c90 0E22     		movs	r2, #14
 1984 0c92 1A81     		strh	r2, [r3, #8]
 774:ble_process.c **** 			writeRGBdata.value.len = RGB_LED_DATA_LEN;
 1985              		.loc 1 774 0
 1986 0c94 7C23     		movs	r3, #124
 1987 0c96 FB18     		adds	r3, r7, r3
 1988 0c98 4D4A     		ldr	r2, .L67+20
 1989 0c9a 1A60     		str	r2, [r3]
 775:ble_process.c **** 			CyBle_GattcWriteCharacteristicValue(cyBle_connHandle, &writeRGBdata);
 1990              		.loc 1 775 0
 1991 0c9c 7C23     		movs	r3, #124
 1992 0c9e FB18     		adds	r3, r7, r3
 1993 0ca0 0822     		movs	r2, #8
 1994 0ca2 9A80     		strh	r2, [r3, #4]
 776:ble_process.c **** 			#endif
 1995              		.loc 1 776 0
 1996 0ca4 7C23     		movs	r3, #124
 1997 0ca6 F918     		adds	r1, r7, r3
 1998 0ca8 474B     		ldr	r3, .L67+12
 1999 0caa 1A78     		ldrb	r2, [r3]
 2000 0cac 5B78     		ldrb	r3, [r3, #1]
 2001 0cae 1B02     		lsls	r3, r3, #8
 2002 0cb0 1A43     		orrs	r2, r3
 2003 0cb2 0023     		movs	r3, #0
 2004 0cb4 1204     		lsls	r2, r2, #16
 2005 0cb6 120C     		lsrs	r2, r2, #16
 2006 0cb8 1B0C     		lsrs	r3, r3, #16
 2007 0cba 1B04     		lsls	r3, r3, #16
 2008 0cbc 1343     		orrs	r3, r2
 2009 0cbe 1800     		movs	r0, r3
ARM GAS  C:\Users\run1009\AppData\Local\Temp\cch0f4sO.s 			page 58


 2010 0cc0 FFF7FEFF 		bl	CyBle_GattcWriteCharacteristicValue
 779:ble_process.c **** 			
 2011              		.loc 1 779 0
 2012 0cc4 77E0     		b	.L1
 2013              	.L17:
 786:ble_process.c **** 				SendBLEStatetoUART(CyBle_GetState());
 2014              		.loc 1 786 0
 2015 0cc6 434B     		ldr	r3, .L67+24
 2016 0cc8 1800     		movs	r0, r3
 2017 0cca FFF7FEFF 		bl	UART_UartPutString
 787:ble_process.c **** 				UART_UartPutCRLF(' ');
 2018              		.loc 1 787 0
 2019 0cce 3D4B     		ldr	r3, .L67+8
 2020 0cd0 1B78     		ldrb	r3, [r3]
 2021 0cd2 1800     		movs	r0, r3
 2022 0cd4 FFF7FEFF 		bl	SendBLEStatetoUART
 788:ble_process.c **** 			#endif
 2023              		.loc 1 788 0
 2024 0cd8 2020     		movs	r0, #32
 2025 0cda FFF7FEFF 		bl	UART_UartPutCRLF
 792:ble_process.c **** 			{
 2026              		.loc 1 792 0
 2027 0cde 3A4B     		ldr	r3, .L67+12
 2028 0ce0 1B78     		ldrb	r3, [r3]
 2029 0ce2 002B     		cmp	r3, #0
 2030 0ce4 64D0     		beq	.L59
 794:ble_process.c **** 				
 2031              		.loc 1 794 0
 2032 0ce6 384B     		ldr	r3, .L67+12
 2033 0ce8 1B78     		ldrb	r3, [r3]
 2034 0cea 1800     		movs	r0, r3
 2035 0cec FFF7FEFF 		bl	CyBle_GapDisconnect
 796:ble_process.c **** 				
 2036              		.loc 1 796 0
 2037 0cf0 394B     		ldr	r3, .L67+28
 2038 0cf2 0122     		movs	r2, #1
 2039 0cf4 1A70     		strb	r2, [r3]
 799:ble_process.c **** 				SendBLEStatetoUART(CyBle_GetState());
 2040              		.loc 1 799 0
 2041 0cf6 394B     		ldr	r3, .L67+32
 2042 0cf8 1800     		movs	r0, r3
 2043 0cfa FFF7FEFF 		bl	UART_UartPutString
 800:ble_process.c **** 				UART_UartPutCRLF(' ');
 2044              		.loc 1 800 0
 2045 0cfe 314B     		ldr	r3, .L67+8
 2046 0d00 1B78     		ldrb	r3, [r3]
 2047 0d02 1800     		movs	r0, r3
 2048 0d04 FFF7FEFF 		bl	SendBLEStatetoUART
 801:ble_process.c **** 				#endif
 2049              		.loc 1 801 0
 2050 0d08 2020     		movs	r0, #32
 2051 0d0a FFF7FEFF 		bl	UART_UartPutCRLF
 804:ble_process.c **** 			
 2052              		.loc 1 804 0
 2053 0d0e 4FE0     		b	.L59
 2054              	.L9:
 809:ble_process.c **** 			
ARM GAS  C:\Users\run1009\AppData\Local\Temp\cch0f4sO.s 			page 59


 2055              		.loc 1 809 0
 2056 0d10 2A4B     		ldr	r3, .L67
 2057 0d12 0022     		movs	r2, #0
 2058 0d14 1A70     		strb	r2, [r3]
 812:ble_process.c **** 				SendBLEStatetoUART(CyBle_GetState());
 2059              		.loc 1 812 0
 2060 0d16 324B     		ldr	r3, .L67+36
 2061 0d18 1800     		movs	r0, r3
 2062 0d1a FFF7FEFF 		bl	UART_UartPutString
 813:ble_process.c **** 				UART_UartPutCRLF(' ');
 2063              		.loc 1 813 0
 2064 0d1e 294B     		ldr	r3, .L67+8
 2065 0d20 1B78     		ldrb	r3, [r3]
 2066 0d22 1800     		movs	r0, r3
 2067 0d24 FFF7FEFF 		bl	SendBLEStatetoUART
 814:ble_process.c **** 			#endif
 2068              		.loc 1 814 0
 2069 0d28 2020     		movs	r0, #32
 2070 0d2a FFF7FEFF 		bl	UART_UartPutCRLF
 817:ble_process.c **** 			{
 2071              		.loc 1 817 0
 2072 0d2e 2D4B     		ldr	r3, .L67+40
 2073 0d30 1B78     		ldrb	r3, [r3]
 2074 0d32 012B     		cmp	r3, #1
 2075 0d34 17D1     		bne	.L51
 817:ble_process.c **** 			{
 2076              		.loc 1 817 0 is_stmt 0 discriminator 1
 2077 0d36 2C4B     		ldr	r3, .L67+44
 2078 0d38 1B78     		ldrb	r3, [r3]
 2079 0d3a 012B     		cmp	r3, #1
 2080 0d3c 13D0     		beq	.L51
 821:ble_process.c **** 				{
 2081              		.loc 1 821 0 is_stmt 1
 2082 0d3e 214B     		ldr	r3, .L67+8
 2083 0d40 1B78     		ldrb	r3, [r3]
 2084 0d42 062B     		cmp	r3, #6
 2085 0d44 2BD1     		bne	.L53
 823:ble_process.c **** 					#if (DEBUG_ENABLED == 1)
 2086              		.loc 1 823 0
 2087 0d46 0020     		movs	r0, #0
 2088 0d48 FFF7FEFF 		bl	CyBle_GappStartAdvertisement
 825:ble_process.c **** 					SendBLEStatetoUART(CyBle_GetState());
 2089              		.loc 1 825 0
 2090 0d4c 274B     		ldr	r3, .L67+48
 2091 0d4e 1800     		movs	r0, r3
 2092 0d50 FFF7FEFF 		bl	UART_UartPutString
 826:ble_process.c **** 					UART_UartPutCRLF(' ');
 2093              		.loc 1 826 0
 2094 0d54 1B4B     		ldr	r3, .L67+8
 2095 0d56 1B78     		ldrb	r3, [r3]
 2096 0d58 1800     		movs	r0, r3
 2097 0d5a FFF7FEFF 		bl	SendBLEStatetoUART
 827:ble_process.c **** 					#endif
 2098              		.loc 1 827 0
 2099 0d5e 2020     		movs	r0, #32
 2100 0d60 FFF7FEFF 		bl	UART_UartPutCRLF
 821:ble_process.c **** 				{
ARM GAS  C:\Users\run1009\AppData\Local\Temp\cch0f4sO.s 			page 60


 2101              		.loc 1 821 0
 2102 0d64 1BE0     		b	.L53
 2103              	.L51:
 831:ble_process.c **** 			{
 2104              		.loc 1 831 0
 2105 0d66 1F4B     		ldr	r3, .L67+40
 2106 0d68 1B78     		ldrb	r3, [r3]
 2107 0d6a 022B     		cmp	r3, #2
 2108 0d6c 22D1     		bne	.L60
 831:ble_process.c **** 			{
 2109              		.loc 1 831 0 is_stmt 0 discriminator 1
 2110 0d6e 1E4B     		ldr	r3, .L67+44
 2111 0d70 1B78     		ldrb	r3, [r3]
 2112 0d72 012B     		cmp	r3, #1
 2113 0d74 1ED0     		beq	.L60
 835:ble_process.c **** 				{
 2114              		.loc 1 835 0 is_stmt 1
 2115 0d76 134B     		ldr	r3, .L67+8
 2116 0d78 1B78     		ldrb	r3, [r3]
 2117 0d7a 062B     		cmp	r3, #6
 2118 0d7c 1AD1     		bne	.L60
 837:ble_process.c **** 					#if (DEBUG_ENABLED == 1)
 2119              		.loc 1 837 0
 2120 0d7e 0020     		movs	r0, #0
 2121 0d80 FFF7FEFF 		bl	CyBle_GapcStartScan
 839:ble_process.c **** 					SendBLEStatetoUART(CyBle_GetState());
 2122              		.loc 1 839 0
 2123 0d84 1A4B     		ldr	r3, .L67+52
 2124 0d86 1800     		movs	r0, r3
 2125 0d88 FFF7FEFF 		bl	UART_UartPutString
 840:ble_process.c **** 					UART_UartPutCRLF(' ');
 2126              		.loc 1 840 0
 2127 0d8c 0D4B     		ldr	r3, .L67+8
 2128 0d8e 1B78     		ldrb	r3, [r3]
 2129 0d90 1800     		movs	r0, r3
 2130 0d92 FFF7FEFF 		bl	SendBLEStatetoUART
 841:ble_process.c **** 					#endif
 2131              		.loc 1 841 0
 2132 0d96 2020     		movs	r0, #32
 2133 0d98 FFF7FEFF 		bl	UART_UartPutCRLF
 845:ble_process.c **** 			
 2134              		.loc 1 845 0
 2135 0d9c 0AE0     		b	.L60
 2136              	.L53:
 845:ble_process.c **** 			
 2137              		.loc 1 845 0 is_stmt 0 discriminator 8
 2138 0d9e 09E0     		b	.L60
 2139              	.L55:
 157:ble_process.c ****             
 2140              		.loc 1 157 0 is_stmt 1
 2141 0da0 C046     		nop
 2142 0da2 08E0     		b	.L1
 2143              	.L56:
 438:ble_process.c **** 		
 2144              		.loc 1 438 0
 2145 0da4 C046     		nop
 2146 0da6 06E0     		b	.L1
ARM GAS  C:\Users\run1009\AppData\Local\Temp\cch0f4sO.s 			page 61


 2147              	.L57:
 687:ble_process.c **** 			
 2148              		.loc 1 687 0
 2149 0da8 C046     		nop
 2150 0daa 04E0     		b	.L1
 2151              	.L58:
 749:ble_process.c **** 			
 2152              		.loc 1 749 0
 2153 0dac C046     		nop
 2154 0dae 02E0     		b	.L1
 2155              	.L59:
 804:ble_process.c **** 			
 2156              		.loc 1 804 0
 2157 0db0 C046     		nop
 2158 0db2 00E0     		b	.L1
 2159              	.L60:
 845:ble_process.c **** 			
 2160              		.loc 1 845 0
 2161 0db4 C046     		nop
 2162              	.L1:
 850:ble_process.c **** 	}
 851:ble_process.c **** }
 2163              		.loc 1 851 0
 2164 0db6 BD46     		mov	sp, r7
 2165 0db8 41B0     		add	sp, sp, #260
 2166              		@ sp needed
 2167 0dba 90BD     		pop	{r4, r7, pc}
 2168              	.L68:
 2169              		.align	2
 2170              	.L67:
 2171 0dbc 00000000 		.word	deviceConnected
 2172 0dc0 F4020000 		.word	.LC95
 2173 0dc4 00000000 		.word	cyBle_state
 2174 0dc8 00000000 		.word	cyBle_connHandle
 2175 0dcc 00000000 		.word	dataADVCounter
 2176 0dd0 00000000 		.word	RGBData
 2177 0dd4 18030000 		.word	.LC97
 2178 0dd8 00000000 		.word	restartScanning
 2179 0ddc 34030000 		.word	.LC100
 2180 0de0 58030000 		.word	.LC102
 2181 0de4 00000000 		.word	ble_gap_state
 2182 0de8 00000000 		.word	switch_Role
 2183 0dec 34000000 		.word	.LC11
 2184 0df0 7C030000 		.word	.LC104
 2185              		.cfi_endproc
 2186              	.LFE36:
 2187              		.size	GenericEventHandler, .-GenericEventHandler
 2188              		.section	.rodata
 2189 0396 0000     		.align	2
 2190              	.LC107:
 2191 0398 73776974 		.ascii	"switch_Role\000"
 2191      63685F52 
 2191      6F6C6500 
 2192              		.align	2
 2193              	.LC110:
 2194 03a4 50657269 		.ascii	"Peripheral closed connection \000"
 2194      70686572 
ARM GAS  C:\Users\run1009\AppData\Local\Temp\cch0f4sO.s 			page 62


 2194      616C2063 
 2194      6C6F7365 
 2194      6420636F 
 2195 03c2 0000     		.align	2
 2196              	.LC114:
 2197 03c4 50657269 		.ascii	"Peripheral Advertisment Stopped \000"
 2197      70686572 
 2197      616C2041 
 2197      64766572 
 2197      7469736D 
 2198 03e5 000000   		.align	2
 2199              	.LC116:
 2200 03e8 53746172 		.ascii	"Start Scan API called \000"
 2200      74205363 
 2200      616E2041 
 2200      50492063 
 2200      616C6C65 
 2201 03ff 00       		.align	2
 2202              	.LC120:
 2203 0400 53746172 		.ascii	"Start Scan API failed \000"
 2203      74205363 
 2203      616E2041 
 2203      50492066 
 2203      61696C65 
 2204 0417 00       		.align	2
 2205              	.LC122:
 2206 0418 43656E74 		.ascii	"Central Scan stopped \000"
 2206      72616C20 
 2206      5363616E 
 2206      2073746F 
 2206      70706564 
 2207 042e 0000     		.align	2
 2208              	.LC127:
 2209 0430 55706461 		.ascii	"Updated ADV data = \000"
 2209      74656420 
 2209      41445620 
 2209      64617461 
 2209      203D2000 
 2210              		.align	2
 2211              	.LC130:
 2212 0444 50657269 		.ascii	"Peripheral Advertisment called \000"
 2212      70686572 
 2212      616C2041 
 2212      64766572 
 2212      7469736D 
 2213              		.align	2
 2214              	.LC132:
 2215 0464 53746172 		.ascii	"Start Peripheral Advertisment Failed \000"
 2215      74205065 
 2215      72697068 
 2215      6572616C 
 2215      20416476 
 2216              		.section	.text.SwitchRole,"ax",%progbits
 2217              		.align	2
 2218              		.global	SwitchRole
 2219              		.code	16
 2220              		.thumb_func
ARM GAS  C:\Users\run1009\AppData\Local\Temp\cch0f4sO.s 			page 63


 2221              		.type	SwitchRole, %function
 2222              	SwitchRole:
 2223              	.LFB37:
 852:ble_process.c **** 
 853:ble_process.c **** /*******************************************************************************
 854:ble_process.c **** * Function Name: SwitchRole
 855:ble_process.c **** ********************************************************************************
 856:ble_process.c **** * Summary:
 857:ble_process.c **** *        This function switches the role between Central and Peripheral. If device 
 858:ble_process.c **** * is connected while switching role, then it is first disconnected.
 859:ble_process.c **** *
 860:ble_process.c **** * Parameters:
 861:ble_process.c **** *  void
 862:ble_process.c **** *
 863:ble_process.c **** * Return:
 864:ble_process.c **** *  void
 865:ble_process.c **** *
 866:ble_process.c **** *******************************************************************************/
 867:ble_process.c **** void SwitchRole(void)
 868:ble_process.c **** {
 2224              		.loc 1 868 0
 2225              		.cfi_startproc
 2226              		@ args = 0, pretend = 0, frame = 8
 2227              		@ frame_needed = 1, uses_anonymous_args = 0
 2228 0000 90B5     		push	{r4, r7, lr}
 2229              		.cfi_def_cfa_offset 12
 2230              		.cfi_offset 4, -12
 2231              		.cfi_offset 7, -8
 2232              		.cfi_offset 14, -4
 2233 0002 83B0     		sub	sp, sp, #12
 2234              		.cfi_def_cfa_offset 24
 2235 0004 00AF     		add	r7, sp, #0
 2236              		.cfi_def_cfa_register 7
 869:ble_process.c **** 	CYBLE_API_RESULT_T  apiResult;
 870:ble_process.c **** 	
 871:ble_process.c **** 	/* if the switch role flag is set... */
 872:ble_process.c **** 	if(switch_Role == TRUE)
 2237              		.loc 1 872 0
 2238 0006 6A4B     		ldr	r3, .L82
 2239 0008 1B78     		ldrb	r3, [r3]
 2240 000a 012B     		cmp	r3, #1
 2241 000c 00D0     		beq	.LCB1670
 2242 000e CAE0     		b	.L81	@long jump
 2243              	.LCB1670:
 873:ble_process.c **** 	{	
 874:ble_process.c ****         UART_UartPutString("switch_Role");
 2244              		.loc 1 874 0
 2245 0010 684B     		ldr	r3, .L82+4
 2246 0012 1800     		movs	r0, r3
 2247 0014 FFF7FEFF 		bl	UART_UartPutString
 875:ble_process.c **** 		
 876:ble_process.c **** 		/* Process pending BLE events */
 877:ble_process.c **** 		CyBle_ProcessEvents();
 2248              		.loc 1 877 0
 2249 0018 FFF7FEFF 		bl	CyBle_ProcessEvents
 878:ble_process.c **** 		
 879:ble_process.c **** 		/* If there is an existing connection, then disconnect before switching
ARM GAS  C:\Users\run1009\AppData\Local\Temp\cch0f4sO.s 			page 64


 880:ble_process.c **** 		* role. */
 881:ble_process.c **** 		if((cyBle_connHandle.bdHandle != 0))
 2250              		.loc 1 881 0
 2251 001c 664B     		ldr	r3, .L82+8
 2252 001e 1B78     		ldrb	r3, [r3]
 2253 0020 002B     		cmp	r3, #0
 2254 0022 12D0     		beq	.L71
 882:ble_process.c **** 		{
 883:ble_process.c **** 			/* Disconnect the device and process the event */
 884:ble_process.c **** 			CyBle_GapDisconnect(cyBle_connHandle.bdHandle);
 2255              		.loc 1 884 0
 2256 0024 644B     		ldr	r3, .L82+8
 2257 0026 1B78     		ldrb	r3, [r3]
 2258 0028 1800     		movs	r0, r3
 2259 002a FFF7FEFF 		bl	CyBle_GapDisconnect
 885:ble_process.c **** 			CyBle_ProcessEvents();
 2260              		.loc 1 885 0
 2261 002e FFF7FEFF 		bl	CyBle_ProcessEvents
 886:ble_process.c **** 			#if (DEBUG_ENABLED == 1)
 887:ble_process.c **** 			UART_UartPutString("Peripheral closed connection ");
 2262              		.loc 1 887 0
 2263 0032 624B     		ldr	r3, .L82+12
 2264 0034 1800     		movs	r0, r3
 2265 0036 FFF7FEFF 		bl	UART_UartPutString
 888:ble_process.c **** 			SendBLEStatetoUART(CyBle_GetState());
 2266              		.loc 1 888 0
 2267 003a 614B     		ldr	r3, .L82+16
 2268 003c 1B78     		ldrb	r3, [r3]
 2269 003e 1800     		movs	r0, r3
 2270 0040 FFF7FEFF 		bl	SendBLEStatetoUART
 889:ble_process.c **** 			UART_UartPutCRLF(' ');
 2271              		.loc 1 889 0
 2272 0044 2020     		movs	r0, #32
 2273 0046 FFF7FEFF 		bl	UART_UartPutCRLF
 2274              	.L71:
 890:ble_process.c **** 			#endif
 891:ble_process.c **** 		}		
 892:ble_process.c **** 		
 893:ble_process.c **** 		switch(ble_gap_state)
 2275              		.loc 1 893 0
 2276 004a 5E4B     		ldr	r3, .L82+20
 2277 004c 1B78     		ldrb	r3, [r3]
 2278 004e 012B     		cmp	r3, #1
 2279 0050 02D0     		beq	.L73
 2280 0052 022B     		cmp	r3, #2
 2281 0054 4CD0     		beq	.L74
 894:ble_process.c **** 		{
 895:ble_process.c ****             
 896:ble_process.c **** 			case BLE_PERIPHERAL:
 897:ble_process.c **** 				/* If the current role is Peripheral and system is advertising,
 898:ble_process.c **** 				* then stop advertisement before switching role */
 899:ble_process.c **** 				if(CyBle_GetState() == CYBLE_STATE_ADVERTISING)
 900:ble_process.c **** 				{		
 901:ble_process.c **** 					CyBle_GappStopAdvertisement();
 902:ble_process.c **** 					CyBle_ProcessEvents();
 903:ble_process.c **** 
 904:ble_process.c **** 					#if (DEBUG_ENABLED == 1)
ARM GAS  C:\Users\run1009\AppData\Local\Temp\cch0f4sO.s 			page 65


 905:ble_process.c **** 						UART_UartPutString("Peripheral Advertisment Stopped ");
 906:ble_process.c **** 						SendBLEStatetoUART(CyBle_GetState());
 907:ble_process.c **** 						UART_UartPutCRLF(' ');
 908:ble_process.c **** 					#endif
 909:ble_process.c **** 				}
 910:ble_process.c **** 				
 911:ble_process.c **** 				if(CyBle_GetState() == CYBLE_STATE_DISCONNECTED)
 912:ble_process.c **** 				{
 913:ble_process.c **** 					/* Switch BLE role by starting scan. This way, the system is set
 914:ble_process.c **** 					* to Central role */
 915:ble_process.c **** 					apiResult = CyBle_GapcStartScan(CYBLE_SCANNING_FAST);
 916:ble_process.c **** 					
 917:ble_process.c **** 					if(CYBLE_ERROR_OK == apiResult)
 918:ble_process.c **** 					{
 919:ble_process.c **** 						#if (DEBUG_ENABLED == 1)
 920:ble_process.c **** 						UART_UartPutString("Start Scan API called ");
 921:ble_process.c **** 						SendBLEStatetoUART(CyBle_GetState());
 922:ble_process.c **** 						UART_UartPutCRLF(' ');
 923:ble_process.c **** 						#endif
 924:ble_process.c **** 						
 925:ble_process.c **** 						/* Record the time at which Central role was started. This will be 
 926:ble_process.c **** 						* used for timeout and switching to Peripheral operation*/
 927:ble_process.c **** 						centralStartedTime = WatchDog_CurrentCount();
 928:ble_process.c **** 						
 929:ble_process.c **** 						/* Update the current BLE role to Central */
 930:ble_process.c **** 						ble_gap_state = BLE_CENTRAL;
 931:ble_process.c **** 						
 932:ble_process.c **** 						/* Reset the switch role flag*/
 933:ble_process.c **** 						switch_Role = FALSE;
 934:ble_process.c **** 					}
 935:ble_process.c **** 					else
 936:ble_process.c **** 					{
 937:ble_process.c **** 						/* If scanning did not start, maintain the current role and retry later */
 938:ble_process.c **** 						ble_gap_state = BLE_PERIPHERAL;
 939:ble_process.c **** 						
 940:ble_process.c **** 						#if (DEBUG_ENABLED == 1)
 941:ble_process.c **** 						UART_UartPutString("Start Scan API failed ");
 942:ble_process.c **** 						SendBLEStatetoUART(CyBle_GetState());
 943:ble_process.c **** 						UART_UartPutCRLF(' ');
 944:ble_process.c **** 						#endif
 945:ble_process.c **** 					}
 946:ble_process.c **** 				}
 947:ble_process.c **** 				
 948:ble_process.c **** 				/* Process Pending BLE Events */
 949:ble_process.c **** 				CyBle_ProcessEvents();
 950:ble_process.c **** 				
 951:ble_process.c **** 			break;
 952:ble_process.c **** 			
 953:ble_process.c **** 			case BLE_CENTRAL:
 954:ble_process.c **** 				/* If the current role is Central and system is scanning,
 955:ble_process.c **** 				* then stop scanning before switching role */
 956:ble_process.c **** 				if(CyBle_GetState() == CYBLE_STATE_SCANNING)
 957:ble_process.c **** 				{
 958:ble_process.c **** 					CyBle_GapcStopScan();
 959:ble_process.c **** 					CyBle_ProcessEvents();
 960:ble_process.c **** 					
 961:ble_process.c **** 					#if (DEBUG_ENABLED == 1)
ARM GAS  C:\Users\run1009\AppData\Local\Temp\cch0f4sO.s 			page 66


 962:ble_process.c **** 						UART_UartPutString("Central Scan stopped ");
 963:ble_process.c **** 						UART_UartPutCRLF(' ');
 964:ble_process.c **** 					#endif
 965:ble_process.c **** 				}
 966:ble_process.c **** 				
 967:ble_process.c **** 				if(CyBle_GetState() == CYBLE_STATE_DISCONNECTED)
 968:ble_process.c **** 				{
 969:ble_process.c **** 					#ifdef ENABLE_ADV_DATA_COUNTER
 970:ble_process.c **** 					/* Increment data counter */
 971:ble_process.c **** 					new_advData.advData[new_advData.advDataLen - 1] = dataADVCounter;
 972:ble_process.c **** 					
 973:ble_process.c **** 					cyBle_discoveryModeInfo.advData = &new_advData;
 974:ble_process.c **** 					
 975:ble_process.c **** 					#if (DEBUG_ENABLED == 1)
 976:ble_process.c **** 						UART_UartPutString("Updated ADV data = ");
 977:ble_process.c **** 						PrintNum(dataADVCounter);
 978:ble_process.c **** 						UART_UartPutCRLF(' ');
 979:ble_process.c **** 					#endif
 980:ble_process.c **** 					#endif
 981:ble_process.c **** 					
 982:ble_process.c **** 					/* Switch BLE role by starting advertisement. This way, the system is 
 983:ble_process.c **** 					* set to Peripheral role */
 984:ble_process.c **** 					apiResult = CyBle_GappStartAdvertisement(CYBLE_ADVERTISING_FAST);
 985:ble_process.c **** 					
 986:ble_process.c **** 					if(apiResult == CYBLE_ERROR_OK)
 987:ble_process.c **** 					{
 988:ble_process.c **** 						/* If advertisement started successfully, set the BLE state and
 989:ble_process.c **** 						* reset the switch role flag*/
 990:ble_process.c **** 						ble_gap_state = BLE_PERIPHERAL;
 991:ble_process.c **** 						clientConnectToDevice = FALSE;	
 992:ble_process.c **** 						switch_Role = FALSE;
 993:ble_process.c **** 						
 994:ble_process.c **** 						#if (DEBUG_ENABLED == 1)
 995:ble_process.c **** 						UART_UartPutString("Peripheral Advertisment called ");
 996:ble_process.c **** 						SendBLEStatetoUART(CyBle_GetState());
 997:ble_process.c **** 						UART_UartPutCRLF(' ');
 998:ble_process.c **** 						#endif
 999:ble_process.c **** 					}
1000:ble_process.c **** 					else
1001:ble_process.c **** 					{
1002:ble_process.c **** 						/* If advertisement did not start, maintain the current role and retry later */
1003:ble_process.c **** 						ble_gap_state = BLE_CENTRAL;
1004:ble_process.c **** 						
1005:ble_process.c **** 						#if (DEBUG_ENABLED == 1)
1006:ble_process.c **** 						UART_UartPutString("Start Peripheral Advertisment Failed ");
1007:ble_process.c **** 						SendBLEStatetoUART(CyBle_GetState());
1008:ble_process.c **** 						UART_UartPutCRLF(' ');
1009:ble_process.c **** 						#endif					
1010:ble_process.c **** 					}
1011:ble_process.c **** 				}
1012:ble_process.c **** 				
1013:ble_process.c **** 				/* Process Pending BLE Events */
1014:ble_process.c **** 				CyBle_ProcessEvents();
1015:ble_process.c **** 			break;
1016:ble_process.c **** 			
1017:ble_process.c **** 			default:
1018:ble_process.c **** 			
ARM GAS  C:\Users\run1009\AppData\Local\Temp\cch0f4sO.s 			page 67


1019:ble_process.c **** 			break;
 2282              		.loc 1 1019 0
 2283 0056 A6E0     		b	.L70
 2284              	.L73:
 899:ble_process.c **** 				{		
 2285              		.loc 1 899 0
 2286 0058 594B     		ldr	r3, .L82+16
 2287 005a 1B78     		ldrb	r3, [r3]
 2288 005c 032B     		cmp	r3, #3
 2289 005e 0FD1     		bne	.L75
 901:ble_process.c **** 					CyBle_ProcessEvents();
 2290              		.loc 1 901 0
 2291 0060 FFF7FEFF 		bl	CyBle_GappStopAdvertisement
 902:ble_process.c **** 
 2292              		.loc 1 902 0
 2293 0064 FFF7FEFF 		bl	CyBle_ProcessEvents
 905:ble_process.c **** 						SendBLEStatetoUART(CyBle_GetState());
 2294              		.loc 1 905 0
 2295 0068 574B     		ldr	r3, .L82+24
 2296 006a 1800     		movs	r0, r3
 2297 006c FFF7FEFF 		bl	UART_UartPutString
 906:ble_process.c **** 						UART_UartPutCRLF(' ');
 2298              		.loc 1 906 0
 2299 0070 534B     		ldr	r3, .L82+16
 2300 0072 1B78     		ldrb	r3, [r3]
 2301 0074 1800     		movs	r0, r3
 2302 0076 FFF7FEFF 		bl	SendBLEStatetoUART
 907:ble_process.c **** 					#endif
 2303              		.loc 1 907 0
 2304 007a 2020     		movs	r0, #32
 2305 007c FFF7FEFF 		bl	UART_UartPutCRLF
 2306              	.L75:
 911:ble_process.c **** 				{
 2307              		.loc 1 911 0
 2308 0080 4F4B     		ldr	r3, .L82+16
 2309 0082 1B78     		ldrb	r3, [r3]
 2310 0084 062B     		cmp	r3, #6
 2311 0086 30D1     		bne	.L76
 915:ble_process.c **** 					
 2312              		.loc 1 915 0
 2313 0088 BC1D     		adds	r4, r7, #6
 2314 008a 0020     		movs	r0, #0
 2315 008c FFF7FEFF 		bl	CyBle_GapcStartScan
 2316 0090 0300     		movs	r3, r0
 2317 0092 2380     		strh	r3, [r4]
 917:ble_process.c **** 					{
 2318              		.loc 1 917 0
 2319 0094 BB1D     		adds	r3, r7, #6
 2320 0096 1B88     		ldrh	r3, [r3]
 2321 0098 002B     		cmp	r3, #0
 2322 009a 17D1     		bne	.L77
 920:ble_process.c **** 						SendBLEStatetoUART(CyBle_GetState());
 2323              		.loc 1 920 0
 2324 009c 4B4B     		ldr	r3, .L82+28
 2325 009e 1800     		movs	r0, r3
 2326 00a0 FFF7FEFF 		bl	UART_UartPutString
 921:ble_process.c **** 						UART_UartPutCRLF(' ');
ARM GAS  C:\Users\run1009\AppData\Local\Temp\cch0f4sO.s 			page 68


 2327              		.loc 1 921 0
 2328 00a4 464B     		ldr	r3, .L82+16
 2329 00a6 1B78     		ldrb	r3, [r3]
 2330 00a8 1800     		movs	r0, r3
 2331 00aa FFF7FEFF 		bl	SendBLEStatetoUART
 922:ble_process.c **** 						#endif
 2332              		.loc 1 922 0
 2333 00ae 2020     		movs	r0, #32
 2334 00b0 FFF7FEFF 		bl	UART_UartPutCRLF
 927:ble_process.c **** 						
 2335              		.loc 1 927 0
 2336 00b4 464B     		ldr	r3, .L82+32
 2337 00b6 1B88     		ldrh	r3, [r3]
 2338 00b8 9AB2     		uxth	r2, r3
 2339 00ba 464B     		ldr	r3, .L82+36
 2340 00bc 1A80     		strh	r2, [r3]
 930:ble_process.c **** 						
 2341              		.loc 1 930 0
 2342 00be 414B     		ldr	r3, .L82+20
 2343 00c0 0222     		movs	r2, #2
 2344 00c2 1A70     		strb	r2, [r3]
 933:ble_process.c **** 					}
 2345              		.loc 1 933 0
 2346 00c4 3A4B     		ldr	r3, .L82
 2347 00c6 0022     		movs	r2, #0
 2348 00c8 1A70     		strb	r2, [r3]
 2349 00ca 0EE0     		b	.L76
 2350              	.L77:
 938:ble_process.c **** 						
 2351              		.loc 1 938 0
 2352 00cc 3D4B     		ldr	r3, .L82+20
 2353 00ce 0122     		movs	r2, #1
 2354 00d0 1A70     		strb	r2, [r3]
 941:ble_process.c **** 						SendBLEStatetoUART(CyBle_GetState());
 2355              		.loc 1 941 0
 2356 00d2 414B     		ldr	r3, .L82+40
 2357 00d4 1800     		movs	r0, r3
 2358 00d6 FFF7FEFF 		bl	UART_UartPutString
 942:ble_process.c **** 						UART_UartPutCRLF(' ');
 2359              		.loc 1 942 0
 2360 00da 394B     		ldr	r3, .L82+16
 2361 00dc 1B78     		ldrb	r3, [r3]
 2362 00de 1800     		movs	r0, r3
 2363 00e0 FFF7FEFF 		bl	SendBLEStatetoUART
 943:ble_process.c **** 						#endif
 2364              		.loc 1 943 0
 2365 00e4 2020     		movs	r0, #32
 2366 00e6 FFF7FEFF 		bl	UART_UartPutCRLF
 2367              	.L76:
 949:ble_process.c **** 				
 2368              		.loc 1 949 0
 2369 00ea FFF7FEFF 		bl	CyBle_ProcessEvents
 951:ble_process.c **** 			
 2370              		.loc 1 951 0
 2371 00ee 5AE0     		b	.L70
 2372              	.L74:
 956:ble_process.c **** 				{
ARM GAS  C:\Users\run1009\AppData\Local\Temp\cch0f4sO.s 			page 69


 2373              		.loc 1 956 0
 2374 00f0 334B     		ldr	r3, .L82+16
 2375 00f2 1B78     		ldrb	r3, [r3]
 2376 00f4 042B     		cmp	r3, #4
 2377 00f6 0AD1     		bne	.L78
 958:ble_process.c **** 					CyBle_ProcessEvents();
 2378              		.loc 1 958 0
 2379 00f8 FFF7FEFF 		bl	CyBle_GapcStopScan
 959:ble_process.c **** 					
 2380              		.loc 1 959 0
 2381 00fc FFF7FEFF 		bl	CyBle_ProcessEvents
 962:ble_process.c **** 						UART_UartPutCRLF(' ');
 2382              		.loc 1 962 0
 2383 0100 364B     		ldr	r3, .L82+44
 2384 0102 1800     		movs	r0, r3
 2385 0104 FFF7FEFF 		bl	UART_UartPutString
 963:ble_process.c **** 					#endif
 2386              		.loc 1 963 0
 2387 0108 2020     		movs	r0, #32
 2388 010a FFF7FEFF 		bl	UART_UartPutCRLF
 2389              	.L78:
 967:ble_process.c **** 				{
 2390              		.loc 1 967 0
 2391 010e 2C4B     		ldr	r3, .L82+16
 2392 0110 1B78     		ldrb	r3, [r3]
 2393 0112 062B     		cmp	r3, #6
 2394 0114 44D1     		bne	.L79
 971:ble_process.c **** 					
 2395              		.loc 1 971 0
 2396 0116 324B     		ldr	r3, .L82+48
 2397 0118 DB7F     		ldrb	r3, [r3, #31]
 2398 011a 013B     		subs	r3, r3, #1
 2399 011c 314A     		ldr	r2, .L82+52
 2400 011e 1178     		ldrb	r1, [r2]
 2401 0120 2F4A     		ldr	r2, .L82+48
 2402 0122 D154     		strb	r1, [r2, r3]
 973:ble_process.c **** 					
 2403              		.loc 1 973 0
 2404 0124 304B     		ldr	r3, .L82+56
 2405 0126 2E4A     		ldr	r2, .L82+48
 2406 0128 9A60     		str	r2, [r3, #8]
 976:ble_process.c **** 						PrintNum(dataADVCounter);
 2407              		.loc 1 976 0
 2408 012a 304B     		ldr	r3, .L82+60
 2409 012c 1800     		movs	r0, r3
 2410 012e FFF7FEFF 		bl	UART_UartPutString
 977:ble_process.c **** 						UART_UartPutCRLF(' ');
 2411              		.loc 1 977 0
 2412 0132 2C4B     		ldr	r3, .L82+52
 2413 0134 1B78     		ldrb	r3, [r3]
 2414 0136 1800     		movs	r0, r3
 2415 0138 FFF7FEFF 		bl	PrintNum
 978:ble_process.c **** 					#endif
 2416              		.loc 1 978 0
 2417 013c 2020     		movs	r0, #32
 2418 013e FFF7FEFF 		bl	UART_UartPutCRLF
 984:ble_process.c **** 					
ARM GAS  C:\Users\run1009\AppData\Local\Temp\cch0f4sO.s 			page 70


 2419              		.loc 1 984 0
 2420 0142 BC1D     		adds	r4, r7, #6
 2421 0144 0020     		movs	r0, #0
 2422 0146 FFF7FEFF 		bl	CyBle_GappStartAdvertisement
 2423 014a 0300     		movs	r3, r0
 2424 014c 2380     		strh	r3, [r4]
 986:ble_process.c **** 					{
 2425              		.loc 1 986 0
 2426 014e BB1D     		adds	r3, r7, #6
 2427 0150 1B88     		ldrh	r3, [r3]
 2428 0152 002B     		cmp	r3, #0
 2429 0154 15D1     		bne	.L80
 990:ble_process.c **** 						clientConnectToDevice = FALSE;	
 2430              		.loc 1 990 0
 2431 0156 1B4B     		ldr	r3, .L82+20
 2432 0158 0122     		movs	r2, #1
 2433 015a 1A70     		strb	r2, [r3]
 991:ble_process.c **** 						switch_Role = FALSE;
 2434              		.loc 1 991 0
 2435 015c 244B     		ldr	r3, .L82+64
 2436 015e 0022     		movs	r2, #0
 2437 0160 1A70     		strb	r2, [r3]
 992:ble_process.c **** 						
 2438              		.loc 1 992 0
 2439 0162 134B     		ldr	r3, .L82
 2440 0164 0022     		movs	r2, #0
 2441 0166 1A70     		strb	r2, [r3]
 995:ble_process.c **** 						SendBLEStatetoUART(CyBle_GetState());
 2442              		.loc 1 995 0
 2443 0168 224B     		ldr	r3, .L82+68
 2444 016a 1800     		movs	r0, r3
 2445 016c FFF7FEFF 		bl	UART_UartPutString
 996:ble_process.c **** 						UART_UartPutCRLF(' ');
 2446              		.loc 1 996 0
 2447 0170 134B     		ldr	r3, .L82+16
 2448 0172 1B78     		ldrb	r3, [r3]
 2449 0174 1800     		movs	r0, r3
 2450 0176 FFF7FEFF 		bl	SendBLEStatetoUART
 997:ble_process.c **** 						#endif
 2451              		.loc 1 997 0
 2452 017a 2020     		movs	r0, #32
 2453 017c FFF7FEFF 		bl	UART_UartPutCRLF
 2454 0180 0EE0     		b	.L79
 2455              	.L80:
1003:ble_process.c **** 						
 2456              		.loc 1 1003 0
 2457 0182 104B     		ldr	r3, .L82+20
 2458 0184 0222     		movs	r2, #2
 2459 0186 1A70     		strb	r2, [r3]
1006:ble_process.c **** 						SendBLEStatetoUART(CyBle_GetState());
 2460              		.loc 1 1006 0
 2461 0188 1B4B     		ldr	r3, .L82+72
 2462 018a 1800     		movs	r0, r3
 2463 018c FFF7FEFF 		bl	UART_UartPutString
1007:ble_process.c **** 						UART_UartPutCRLF(' ');
 2464              		.loc 1 1007 0
 2465 0190 0B4B     		ldr	r3, .L82+16
ARM GAS  C:\Users\run1009\AppData\Local\Temp\cch0f4sO.s 			page 71


 2466 0192 1B78     		ldrb	r3, [r3]
 2467 0194 1800     		movs	r0, r3
 2468 0196 FFF7FEFF 		bl	SendBLEStatetoUART
1008:ble_process.c **** 						#endif					
 2469              		.loc 1 1008 0
 2470 019a 2020     		movs	r0, #32
 2471 019c FFF7FEFF 		bl	UART_UartPutCRLF
 2472              	.L79:
1014:ble_process.c **** 			break;
 2473              		.loc 1 1014 0
 2474 01a0 FFF7FEFF 		bl	CyBle_ProcessEvents
1015:ble_process.c **** 			
 2475              		.loc 1 1015 0
 2476 01a4 C046     		nop
 2477              	.L70:
 2478              	.L81:
1020:ble_process.c **** 			
1021:ble_process.c **** 		}
1022:ble_process.c **** 	}
1023:ble_process.c **** }
 2479              		.loc 1 1023 0
 2480 01a6 C046     		nop
 2481 01a8 BD46     		mov	sp, r7
 2482 01aa 03B0     		add	sp, sp, #12
 2483              		@ sp needed
 2484 01ac 90BD     		pop	{r4, r7, pc}
 2485              	.L83:
 2486 01ae C046     		.align	2
 2487              	.L82:
 2488 01b0 00000000 		.word	switch_Role
 2489 01b4 98030000 		.word	.LC107
 2490 01b8 00000000 		.word	cyBle_connHandle
 2491 01bc A4030000 		.word	.LC110
 2492 01c0 00000000 		.word	cyBle_state
 2493 01c4 00000000 		.word	ble_gap_state
 2494 01c8 C4030000 		.word	.LC114
 2495 01cc E8030000 		.word	.LC116
 2496 01d0 00000000 		.word	current_watchdog_counter
 2497 01d4 00000000 		.word	centralStartedTime
 2498 01d8 00040000 		.word	.LC120
 2499 01dc 18040000 		.word	.LC122
 2500 01e0 00000000 		.word	new_advData
 2501 01e4 00000000 		.word	dataADVCounter
 2502 01e8 00000000 		.word	cyBle_discoveryModeInfo
 2503 01ec 30040000 		.word	.LC127
 2504 01f0 00000000 		.word	clientConnectToDevice
 2505 01f4 44040000 		.word	.LC130
 2506 01f8 64040000 		.word	.LC132
 2507              		.cfi_endproc
 2508              	.LFE37:
 2509              		.size	SwitchRole, .-SwitchRole
 2510              		.section	.rodata
 2511 048a 0000     		.align	2
 2512              	.LC137:
 2513 048c 436F6E6E 		.ascii	"Connect Request failed \000"
 2513      65637420 
 2513      52657175 
ARM GAS  C:\Users\run1009\AppData\Local\Temp\cch0f4sO.s 			page 72


 2513      65737420 
 2513      6661696C 
 2514              		.align	2
 2515              	.LC139:
 2516 04a4 436F6E6E 		.ascii	"Connect Request Sent: \000"
 2516      65637420 
 2516      52657175 
 2516      65737420 
 2516      53656E74 
 2517              		.section	.text.ConnectToPeripheralDevice,"ax",%progbits
 2518              		.align	2
 2519              		.global	ConnectToPeripheralDevice
 2520              		.code	16
 2521              		.thumb_func
 2522              		.type	ConnectToPeripheralDevice, %function
 2523              	ConnectToPeripheralDevice:
 2524              	.LFB38:
1024:ble_process.c **** 
1025:ble_process.c **** /*******************************************************************************
1026:ble_process.c **** * Function Name: ConnectToPeripheralDevice
1027:ble_process.c **** ********************************************************************************
1028:ble_process.c **** * Summary:
1029:ble_process.c **** *        Connects to Peripheral device with given BD Address.
1030:ble_process.c **** *
1031:ble_process.c **** * Parameters:
1032:ble_process.c **** *  void
1033:ble_process.c **** *
1034:ble_process.c **** * Return:
1035:ble_process.c **** *  void
1036:ble_process.c **** *
1037:ble_process.c **** *******************************************************************************/
1038:ble_process.c **** void ConnectToPeripheralDevice(void)
1039:ble_process.c **** {
 2525              		.loc 1 1039 0
 2526              		.cfi_startproc
 2527              		@ args = 0, pretend = 0, frame = 8
 2528              		@ frame_needed = 1, uses_anonymous_args = 0
 2529 0000 90B5     		push	{r4, r7, lr}
 2530              		.cfi_def_cfa_offset 12
 2531              		.cfi_offset 4, -12
 2532              		.cfi_offset 7, -8
 2533              		.cfi_offset 14, -4
 2534 0002 83B0     		sub	sp, sp, #12
 2535              		.cfi_def_cfa_offset 24
 2536 0004 00AF     		add	r7, sp, #0
 2537              		.cfi_def_cfa_register 7
1040:ble_process.c **** 	CYBLE_API_RESULT_T  apiResult;
1041:ble_process.c **** 	
1042:ble_process.c **** 	/* If flag has been set to connect to a device... */
1043:ble_process.c **** 	if(clientConnectToDevice)
 2538              		.loc 1 1043 0
 2539 0006 234B     		ldr	r3, .L89
 2540 0008 1B78     		ldrb	r3, [r3]
 2541 000a DBB2     		uxtb	r3, r3
 2542 000c 002B     		cmp	r3, #0
 2543 000e 3DD0     		beq	.L88
1044:ble_process.c **** 	{
ARM GAS  C:\Users\run1009\AppData\Local\Temp\cch0f4sO.s 			page 73


1045:ble_process.c **** 		/* Process pending BLE events */
1046:ble_process.c **** 		CyBle_ProcessEvents();
 2544              		.loc 1 1046 0
 2545 0010 FFF7FEFF 		bl	CyBle_ProcessEvents
1047:ble_process.c **** 
1048:ble_process.c **** 		if(CYBLE_STATE_DISCONNECTED == CyBle_GetState())
 2546              		.loc 1 1048 0
 2547 0014 204B     		ldr	r3, .L89+4
 2548 0016 1B78     		ldrb	r3, [r3]
 2549 0018 062B     		cmp	r3, #6
 2550 001a 37D1     		bne	.L88
1049:ble_process.c **** 		{
1050:ble_process.c **** 			/* Reset the flag to connect to a device*/
1051:ble_process.c **** 			clientConnectToDevice = FALSE;
 2551              		.loc 1 1051 0
 2552 001c 1D4B     		ldr	r3, .L89
 2553 001e 0022     		movs	r2, #0
 2554 0020 1A70     		strb	r2, [r3]
1052:ble_process.c **** 			
1053:ble_process.c **** 			/* Connect to the device whose address has been saved as part of 
1054:ble_process.c **** 			* potential node search */
1055:ble_process.c **** 			apiResult = CyBle_GapcConnectDevice(&peripAddr);
 2555              		.loc 1 1055 0
 2556 0022 BC1D     		adds	r4, r7, #6
 2557 0024 1D4B     		ldr	r3, .L89+8
 2558 0026 1800     		movs	r0, r3
 2559 0028 FFF7FEFF 		bl	CyBle_GapcConnectDevice
 2560 002c 0300     		movs	r3, r0
 2561 002e 2380     		strh	r3, [r4]
1056:ble_process.c **** 			
1057:ble_process.c **** 			if(apiResult != CYBLE_ERROR_OK)
 2562              		.loc 1 1057 0
 2563 0030 BB1D     		adds	r3, r7, #6
 2564 0032 1B88     		ldrh	r3, [r3]
 2565 0034 002B     		cmp	r3, #0
 2566 0036 0CD0     		beq	.L86
1058:ble_process.c **** 			{
1059:ble_process.c **** 				#if (DEBUG_ENABLED == 1)
1060:ble_process.c **** 					UART_UartPutString("Connect Request failed ");
 2567              		.loc 1 1060 0
 2568 0038 194B     		ldr	r3, .L89+12
 2569 003a 1800     		movs	r0, r3
 2570 003c FFF7FEFF 		bl	UART_UartPutString
1061:ble_process.c **** 					SendBLEStatetoUART(CyBle_GetState());
 2571              		.loc 1 1061 0
 2572 0040 154B     		ldr	r3, .L89+4
 2573 0042 1B78     		ldrb	r3, [r3]
 2574 0044 1800     		movs	r0, r3
 2575 0046 FFF7FEFF 		bl	SendBLEStatetoUART
1062:ble_process.c **** 					UART_UartPutCRLF(' ');
 2576              		.loc 1 1062 0
 2577 004a 2020     		movs	r0, #32
 2578 004c FFF7FEFF 		bl	UART_UartPutCRLF
 2579 0050 1AE0     		b	.L87
 2580              	.L86:
1063:ble_process.c **** 				#endif
1064:ble_process.c **** 			}
ARM GAS  C:\Users\run1009\AppData\Local\Temp\cch0f4sO.s 			page 74


1065:ble_process.c **** 			else
1066:ble_process.c **** 			{
1067:ble_process.c **** 				#if (DEBUG_ENABLED == 1)
1068:ble_process.c **** 					UART_UartPutString("Connect Request Sent: ");
 2581              		.loc 1 1068 0
 2582 0052 144B     		ldr	r3, .L89+16
 2583 0054 1800     		movs	r0, r3
 2584 0056 FFF7FEFF 		bl	UART_UartPutString
1069:ble_process.c **** 					PrintHex(peripAddr.bdAddr[0]);
 2585              		.loc 1 1069 0
 2586 005a 104B     		ldr	r3, .L89+8
 2587 005c 1B78     		ldrb	r3, [r3]
 2588 005e 1800     		movs	r0, r3
 2589 0060 FFF7FEFF 		bl	PrintHex
1070:ble_process.c **** 					PrintHex(peripAddr.bdAddr[1]);
 2590              		.loc 1 1070 0
 2591 0064 0D4B     		ldr	r3, .L89+8
 2592 0066 5B78     		ldrb	r3, [r3, #1]
 2593 0068 1800     		movs	r0, r3
 2594 006a FFF7FEFF 		bl	PrintHex
1071:ble_process.c **** 					PrintHex(peripAddr.bdAddr[2]);
 2595              		.loc 1 1071 0
 2596 006e 0B4B     		ldr	r3, .L89+8
 2597 0070 9B78     		ldrb	r3, [r3, #2]
 2598 0072 1800     		movs	r0, r3
 2599 0074 FFF7FEFF 		bl	PrintHex
1072:ble_process.c **** 					SendBLEStatetoUART(CyBle_GetState());
 2600              		.loc 1 1072 0
 2601 0078 074B     		ldr	r3, .L89+4
 2602 007a 1B78     		ldrb	r3, [r3]
 2603 007c 1800     		movs	r0, r3
 2604 007e FFF7FEFF 		bl	SendBLEStatetoUART
1073:ble_process.c **** 					UART_UartPutCRLF(' ');
 2605              		.loc 1 1073 0
 2606 0082 2020     		movs	r0, #32
 2607 0084 FFF7FEFF 		bl	UART_UartPutCRLF
 2608              	.L87:
1074:ble_process.c **** 				#endif	
1075:ble_process.c **** 			}
1076:ble_process.c **** 			
1077:ble_process.c **** 			/* Process pending BLE events */
1078:ble_process.c **** 			CyBle_ProcessEvents();
 2609              		.loc 1 1078 0
 2610 0088 FFF7FEFF 		bl	CyBle_ProcessEvents
 2611              	.L88:
1079:ble_process.c **** 		}
1080:ble_process.c **** 	}
1081:ble_process.c **** }
 2612              		.loc 1 1081 0
 2613 008c C046     		nop
 2614 008e BD46     		mov	sp, r7
 2615 0090 03B0     		add	sp, sp, #12
 2616              		@ sp needed
 2617 0092 90BD     		pop	{r4, r7, pc}
 2618              	.L90:
 2619              		.align	2
 2620              	.L89:
ARM GAS  C:\Users\run1009\AppData\Local\Temp\cch0f4sO.s 			page 75


 2621 0094 00000000 		.word	clientConnectToDevice
 2622 0098 00000000 		.word	cyBle_state
 2623 009c 00000000 		.word	peripAddr
 2624 00a0 8C040000 		.word	.LC137
 2625 00a4 A4040000 		.word	.LC139
 2626              		.cfi_endproc
 2627              	.LFE38:
 2628              		.size	ConnectToPeripheralDevice, .-ConnectToPeripheralDevice
 2629              		.section	.rodata
 2630 04bb 00       		.align	2
 2631              	.LC146:
 2632 04bc 73776974 		.ascii	"switchRole from restart Scanning loop \000"
 2632      6368526F 
 2632      6C652066 
 2632      726F6D20 
 2632      72657374 
 2633 04e3 00       		.align	2
 2634              	.LC149:
 2635 04e4 53746172 		.ascii	"Start Scan from restart Scanning loop \000"
 2635      74205363 
 2635      616E2066 
 2635      726F6D20 
 2635      72657374 
 2636              		.section	.text.RestartCentralScanning,"ax",%progbits
 2637              		.align	2
 2638              		.global	RestartCentralScanning
 2639              		.code	16
 2640              		.thumb_func
 2641              		.type	RestartCentralScanning, %function
 2642              	RestartCentralScanning:
 2643              	.LFB39:
1082:ble_process.c **** 
1083:ble_process.c **** /*******************************************************************************
1084:ble_process.c **** * Function Name: RestartCentralScanning
1085:ble_process.c **** ********************************************************************************
1086:ble_process.c **** * Summary:
1087:ble_process.c **** *        Restarts Central scanning. Also, if the time that the device has remained
1088:ble_process.c **** * in Central role exceeds pre-determined value, then the switch role flag is set.
1089:ble_process.c **** *
1090:ble_process.c **** * Parameters:
1091:ble_process.c **** *  void
1092:ble_process.c **** *
1093:ble_process.c **** * Return:
1094:ble_process.c **** *  void
1095:ble_process.c **** *
1096:ble_process.c **** *******************************************************************************/
1097:ble_process.c **** void RestartCentralScanning(void)
1098:ble_process.c **** {
 2644              		.loc 1 1098 0
 2645              		.cfi_startproc
 2646              		@ args = 0, pretend = 0, frame = 0
 2647              		@ frame_needed = 1, uses_anonymous_args = 0
 2648 0000 80B5     		push	{r7, lr}
 2649              		.cfi_def_cfa_offset 8
 2650              		.cfi_offset 7, -8
 2651              		.cfi_offset 14, -4
 2652 0002 00AF     		add	r7, sp, #0
ARM GAS  C:\Users\run1009\AppData\Local\Temp\cch0f4sO.s 			page 76


 2653              		.cfi_def_cfa_register 7
1099:ble_process.c **** 	/* If the current role is Central and the Central time has exceeded the preset time,
1100:ble_process.c **** 	* then set the flag to switch role to Peripheral */
1101:ble_process.c **** 	if((BLE_CENTRAL == ble_gap_state) 
 2654              		.loc 1 1101 0
 2655 0004 224B     		ldr	r3, .L97
 2656 0006 1B78     		ldrb	r3, [r3]
 2657 0008 022B     		cmp	r3, #2
 2658 000a 1CD1     		bne	.L92
1102:ble_process.c **** 		&& (WatchDog_CurrentCount() - centralStartedTime > CENTRAL_STATE_SPAN) 
 2659              		.loc 1 1102 0
 2660 000c 214B     		ldr	r3, .L97+4
 2661 000e 1B88     		ldrh	r3, [r3]
 2662 0010 9BB2     		uxth	r3, r3
 2663 0012 1A00     		movs	r2, r3
 2664 0014 204B     		ldr	r3, .L97+8
 2665 0016 1B88     		ldrh	r3, [r3]
 2666 0018 9BB2     		uxth	r3, r3
 2667 001a D31A     		subs	r3, r2, r3
 2668 001c 1E2B     		cmp	r3, #30
 2669 001e 12DD     		ble	.L92
1103:ble_process.c **** 		&& ((CYBLE_STATE_DISCONNECTED == CyBle_GetState()) || (CYBLE_STATE_SCANNING == CyBle_GetState()))
 2670              		.loc 1 1103 0
 2671 0020 1E4B     		ldr	r3, .L97+12
 2672 0022 1B78     		ldrb	r3, [r3]
 2673 0024 062B     		cmp	r3, #6
 2674 0026 03D0     		beq	.L93
 2675              		.loc 1 1103 0 is_stmt 0 discriminator 1
 2676 0028 1C4B     		ldr	r3, .L97+12
 2677 002a 1B78     		ldrb	r3, [r3]
 2678 002c 042B     		cmp	r3, #4
 2679 002e 0AD1     		bne	.L92
 2680              	.L93:
1104:ble_process.c **** 	{
1105:ble_process.c **** 		/* Switch role flag set */
1106:ble_process.c **** 		switch_Role = TRUE;
 2681              		.loc 1 1106 0 is_stmt 1
 2682 0030 1B4B     		ldr	r3, .L97+16
 2683 0032 0122     		movs	r2, #1
 2684 0034 1A70     		strb	r2, [r3]
1107:ble_process.c **** 		#if (DEBUG_ENABLED == 1)
1108:ble_process.c **** 		UART_UartPutString("switchRole from restart Scanning loop ");
 2685              		.loc 1 1108 0
 2686 0036 1B4B     		ldr	r3, .L97+20
 2687 0038 1800     		movs	r0, r3
 2688 003a FFF7FEFF 		bl	UART_UartPutString
1109:ble_process.c **** 		UART_UartPutCRLF(' ');
 2689              		.loc 1 1109 0
 2690 003e 2020     		movs	r0, #32
 2691 0040 FFF7FEFF 		bl	UART_UartPutCRLF
1110:ble_process.c **** 		#endif
1111:ble_process.c **** 		
1112:ble_process.c **** 		return;
 2692              		.loc 1 1112 0
 2693 0044 22E0     		b	.L91
 2694              	.L92:
1113:ble_process.c **** 	}
ARM GAS  C:\Users\run1009\AppData\Local\Temp\cch0f4sO.s 			page 77


1114:ble_process.c **** 	
1115:ble_process.c **** 	/* If restart scanning flag is set, then restart the Central scanning */
1116:ble_process.c **** 	if(restartScanning)
 2695              		.loc 1 1116 0
 2696 0046 184B     		ldr	r3, .L97+24
 2697 0048 1B78     		ldrb	r3, [r3]
 2698 004a 002B     		cmp	r3, #0
 2699 004c 1ED0     		beq	.L91
1117:ble_process.c **** 	{
1118:ble_process.c **** 		/* Process pending BLE events */
1119:ble_process.c **** 		CyBle_ProcessEvents();
 2700              		.loc 1 1119 0
 2701 004e FFF7FEFF 		bl	CyBle_ProcessEvents
1120:ble_process.c **** 		
1121:ble_process.c **** 		/* Restart scanning only if role switch flag is not set, else reset the flag*/
1122:ble_process.c **** 		if(switch_Role !=  TRUE)		
 2702              		.loc 1 1122 0
 2703 0052 134B     		ldr	r3, .L97+16
 2704 0054 1B78     		ldrb	r3, [r3]
 2705 0056 012B     		cmp	r3, #1
 2706 0058 15D0     		beq	.L95
1123:ble_process.c **** 		{
1124:ble_process.c **** 			if(CYBLE_STATE_DISCONNECTED == CyBle_GetState())
 2707              		.loc 1 1124 0
 2708 005a 104B     		ldr	r3, .L97+12
 2709 005c 1B78     		ldrb	r3, [r3]
 2710 005e 062B     		cmp	r3, #6
 2711 0060 14D1     		bne	.L91
1125:ble_process.c **** 			{
1126:ble_process.c **** 				/* Reset the restart scanning flag */
1127:ble_process.c **** 				restartScanning = FALSE;
 2712              		.loc 1 1127 0
 2713 0062 114B     		ldr	r3, .L97+24
 2714 0064 0022     		movs	r2, #0
 2715 0066 1A70     		strb	r2, [r3]
1128:ble_process.c **** 
1129:ble_process.c **** 				/* Start Central scan and process the event */
1130:ble_process.c **** 				CyBle_ProcessEvents();
 2716              		.loc 1 1130 0
 2717 0068 FFF7FEFF 		bl	CyBle_ProcessEvents
1131:ble_process.c **** 				
1132:ble_process.c **** 				#if (DEBUG_ENABLED == 1)
1133:ble_process.c **** 				UART_UartPutString("Start Scan from restart Scanning loop ");
 2718              		.loc 1 1133 0
 2719 006c 0F4B     		ldr	r3, .L97+28
 2720 006e 1800     		movs	r0, r3
 2721 0070 FFF7FEFF 		bl	UART_UartPutString
1134:ble_process.c **** 				UART_UartPutCRLF(' ');
 2722              		.loc 1 1134 0
 2723 0074 2020     		movs	r0, #32
 2724 0076 FFF7FEFF 		bl	UART_UartPutCRLF
1135:ble_process.c **** 				#endif
1136:ble_process.c **** 							
1137:ble_process.c **** 				CyBle_GapcStartScan(CYBLE_SCANNING_FAST);
 2725              		.loc 1 1137 0
 2726 007a 0020     		movs	r0, #0
 2727 007c FFF7FEFF 		bl	CyBle_GapcStartScan
ARM GAS  C:\Users\run1009\AppData\Local\Temp\cch0f4sO.s 			page 78


1138:ble_process.c **** 				CyBle_ProcessEvents();
 2728              		.loc 1 1138 0
 2729 0080 FFF7FEFF 		bl	CyBle_ProcessEvents
 2730 0084 02E0     		b	.L91
 2731              	.L95:
1139:ble_process.c **** 			}
1140:ble_process.c **** 		}
1141:ble_process.c **** 		else
1142:ble_process.c **** 		{
1143:ble_process.c **** 			/* Reset the restart scanning flag */
1144:ble_process.c **** 			restartScanning = FALSE;
 2732              		.loc 1 1144 0
 2733 0086 084B     		ldr	r3, .L97+24
 2734 0088 0022     		movs	r2, #0
 2735 008a 1A70     		strb	r2, [r3]
 2736              	.L91:
1145:ble_process.c **** 		}
1146:ble_process.c **** 	}
1147:ble_process.c **** }	
 2737              		.loc 1 1147 0
 2738 008c BD46     		mov	sp, r7
 2739              		@ sp needed
 2740 008e 80BD     		pop	{r7, pc}
 2741              	.L98:
 2742              		.align	2
 2743              	.L97:
 2744 0090 00000000 		.word	ble_gap_state
 2745 0094 00000000 		.word	current_watchdog_counter
 2746 0098 00000000 		.word	centralStartedTime
 2747 009c 00000000 		.word	cyBle_state
 2748 00a0 00000000 		.word	switch_Role
 2749 00a4 BC040000 		.word	.LC146
 2750 00a8 00000000 		.word	restartScanning
 2751 00ac E4040000 		.word	.LC149
 2752              		.cfi_endproc
 2753              	.LFE39:
 2754              		.size	RestartCentralScanning, .-RestartCentralScanning
 2755              		.section	.text.SendErrorCode,"ax",%progbits
 2756              		.align	2
 2757              		.global	SendErrorCode
 2758              		.code	16
 2759              		.thumb_func
 2760              		.type	SendErrorCode, %function
 2761              	SendErrorCode:
 2762              	.LFB40:
1148:ble_process.c **** 
1149:ble_process.c **** /*******************************************************************************
1150:ble_process.c **** * Function Name: SendErrorCode
1151:ble_process.c **** ********************************************************************************
1152:ble_process.c **** * Summary:
1153:ble_process.c **** *        Send Error code at GATT Layer
1154:ble_process.c **** *
1155:ble_process.c **** * Parameters:
1156:ble_process.c **** *  uint8 opCode, 
1157:ble_process.c **** *  CYBLE_GATT_DB_ATTR_HANDLE_T  attrHandle, 
1158:ble_process.c **** *  CYBLE_GATT_ERR_CODE_T errorCode
1159:ble_process.c **** *
ARM GAS  C:\Users\run1009\AppData\Local\Temp\cch0f4sO.s 			page 79


1160:ble_process.c **** * Return:
1161:ble_process.c **** *  void
1162:ble_process.c **** *
1163:ble_process.c **** *******************************************************************************/
1164:ble_process.c **** void SendErrorCode(uint8 opCode, CYBLE_GATT_DB_ATTR_HANDLE_T  attrHandle, CYBLE_GATT_ERR_CODE_T err
1165:ble_process.c **** {
 2763              		.loc 1 1165 0
 2764              		.cfi_startproc
 2765              		@ args = 0, pretend = 0, frame = 16
 2766              		@ frame_needed = 1, uses_anonymous_args = 0
 2767 0000 90B5     		push	{r4, r7, lr}
 2768              		.cfi_def_cfa_offset 12
 2769              		.cfi_offset 4, -12
 2770              		.cfi_offset 7, -8
 2771              		.cfi_offset 14, -4
 2772 0002 85B0     		sub	sp, sp, #20
 2773              		.cfi_def_cfa_offset 32
 2774 0004 00AF     		add	r7, sp, #0
 2775              		.cfi_def_cfa_register 7
 2776 0006 0400     		movs	r4, r0
 2777 0008 0800     		movs	r0, r1
 2778 000a 1100     		movs	r1, r2
 2779 000c FB1D     		adds	r3, r7, #7
 2780 000e 221C     		adds	r2, r4, #0
 2781 0010 1A70     		strb	r2, [r3]
 2782 0012 3B1D     		adds	r3, r7, #4
 2783 0014 021C     		adds	r2, r0, #0
 2784 0016 1A80     		strh	r2, [r3]
 2785 0018 BB1D     		adds	r3, r7, #6
 2786 001a 0A1C     		adds	r2, r1, #0
 2787 001c 1A70     		strb	r2, [r3]
1166:ble_process.c **** 	CYBLE_GATTS_ERR_PARAM_T err_param;
1167:ble_process.c **** 		            
1168:ble_process.c ****     err_param.opcode = opCode;
 2788              		.loc 1 1168 0
 2789 001e 0C23     		movs	r3, #12
 2790 0020 FB18     		adds	r3, r7, r3
 2791 0022 FA1D     		adds	r2, r7, #7
 2792 0024 1278     		ldrb	r2, [r2]
 2793 0026 9A70     		strb	r2, [r3, #2]
1169:ble_process.c ****     err_param.attrHandle = attrHandle;
 2794              		.loc 1 1169 0
 2795 0028 0C23     		movs	r3, #12
 2796 002a FB18     		adds	r3, r7, r3
 2797 002c 3A1D     		adds	r2, r7, #4
 2798 002e 1288     		ldrh	r2, [r2]
 2799 0030 1A80     		strh	r2, [r3]
1170:ble_process.c ****     err_param.errorCode = errorCode;
 2800              		.loc 1 1170 0
 2801 0032 0C23     		movs	r3, #12
 2802 0034 FB18     		adds	r3, r7, r3
 2803 0036 BA1D     		adds	r2, r7, #6
 2804 0038 1278     		ldrb	r2, [r2]
 2805 003a DA70     		strb	r2, [r3, #3]
1171:ble_process.c **** 
1172:ble_process.c ****     /* Send Error Response */
1173:ble_process.c ****     (void)CyBle_GattsErrorRsp(cyBle_connHandle, &err_param);
ARM GAS  C:\Users\run1009\AppData\Local\Temp\cch0f4sO.s 			page 80


 2806              		.loc 1 1173 0
 2807 003c 0C23     		movs	r3, #12
 2808 003e F918     		adds	r1, r7, r3
 2809 0040 084B     		ldr	r3, .L100
 2810 0042 1A78     		ldrb	r2, [r3]
 2811 0044 5B78     		ldrb	r3, [r3, #1]
 2812 0046 1B02     		lsls	r3, r3, #8
 2813 0048 1A43     		orrs	r2, r3
 2814 004a 0023     		movs	r3, #0
 2815 004c 1204     		lsls	r2, r2, #16
 2816 004e 120C     		lsrs	r2, r2, #16
 2817 0050 1B0C     		lsrs	r3, r3, #16
 2818 0052 1B04     		lsls	r3, r3, #16
 2819 0054 1343     		orrs	r3, r2
 2820 0056 1800     		movs	r0, r3
 2821 0058 FFF7FEFF 		bl	CyBle_GattsErrorRsp
1174:ble_process.c **** }
 2822              		.loc 1 1174 0
 2823 005c C046     		nop
 2824 005e BD46     		mov	sp, r7
 2825 0060 05B0     		add	sp, sp, #20
 2826              		@ sp needed
 2827 0062 90BD     		pop	{r4, r7, pc}
 2828              	.L101:
 2829              		.align	2
 2830              	.L100:
 2831 0064 00000000 		.word	cyBle_connHandle
 2832              		.cfi_endproc
 2833              	.LFE40:
 2834              		.size	SendErrorCode, .-SendErrorCode
 2835              		.bss
 2836              	received_node_addr_type.8806:
 2837 000c 00       		.space	1
 2838 000d 00       		.align	1
 2839              	received_node_addr.8805:
 2840 000e 0000     		.space	2
 2841              		.text
 2842              	.Letext0:
 2843              		.file 2 "c:\\program files (x86)\\cypress\\psoc creator\\4.2\\psoc creator\\import\\gnu\\arm\\5.4.
 2844              		.file 3 "c:\\program files (x86)\\cypress\\psoc creator\\4.2\\psoc creator\\import\\gnu\\arm\\5.4.
 2845              		.file 4 "Generated_Source\\PSoC4/cytypes.h"
 2846              		.file 5 "Generated_Source\\PSoC4/BLE_Stack.h"
 2847              		.file 6 "Generated_Source\\PSoC4/BLE_StackGap.h"
 2848              		.file 7 "Generated_Source\\PSoC4/BLE_StackGatt.h"
 2849              		.file 8 "Generated_Source\\PSoC4/BLE_StackGattServer.h"
 2850              		.file 9 "Generated_Source\\PSoC4/BLE_StackGattClient.h"
 2851              		.file 10 "Generated_Source\\PSoC4/BLE_eventHandler.h"
 2852              		.file 11 "./envsensor_process.h"
 2853              		.file 12 "Generated_Source\\PSoC4/BLE.h"
 2854              		.file 13 "./main.h"