ARM GAS  C:\Users\run1009\AppData\Local\Temp\ccSZtXoF.s 			page 1


   1              		.syntax unified
   2              		.cpu cortex-m0
   3              		.fpu softvfp
   4              		.eabi_attribute 20, 1
   5              		.eabi_attribute 21, 1
   6              		.eabi_attribute 23, 3
   7              		.eabi_attribute 24, 1
   8              		.eabi_attribute 25, 1
   9              		.eabi_attribute 26, 1
  10              		.eabi_attribute 30, 6
  11              		.eabi_attribute 34, 0
  12              		.eabi_attribute 18, 4
  13              		.thumb
  14              		.syntax unified
  15              		.file	"BLE_eventHandler.c"
  16              		.text
  17              	.Ltext0:
  18              		.cfi_sections	.debug_frame
  19              		.comm	cyBle_connHandle,2,4
  20              		.comm	cyBle_eventHandlerFlag,1,1
  21              		.comm	cyBle_busyStatus,1,1
  22              		.global	cyBle_gaps
  23              		.section	.rodata
  24              		.align	2
  25              		.type	cyBle_gaps, %object
  26              		.size	cyBle_gaps, 12
  27              	cyBle_gaps:
  28 0000 0100     		.short	1
  29 0002 0300     		.short	3
  30 0004 0500     		.short	5
  31 0006 0700     		.short	7
  32 0008 0000     		.short	0
  33 000a 0000     		.short	0
  34              		.comm	cyBle_advertisingIntervalType,1,1
  35              		.comm	cyBle_scanningIntervalType,1,1
  36              		.comm	cyBle_disCount,1,1
  37              		.bss
  38              		.align	2
  39              	cyBle_discInclInfo:
  40 0000 00000000 		.space	24
  40      00000000 
  40      00000000 
  40      00000000 
  40      00000000 
  41              		.global	cyBle_serverInfo
  42              		.data
  43              		.align	2
  44              		.type	cyBle_serverInfo, %object
  45              		.size	cyBle_serverInfo, 24
  46              	cyBle_serverInfo:
  47 0000 0000     		.short	0
  48 0002 0000     		.short	0
  49 0004 0018     		.short	6144
  50 0006 0000     		.short	0
  51 0008 0000     		.short	0
  52 000a 0118     		.short	6145
  53 000c 0000     		.short	0
ARM GAS  C:\Users\run1009\AppData\Local\Temp\ccSZtXoF.s 			page 2


  54 000e 0000     		.short	0
  55 0010 0000     		.short	0
  56 0012 0000     		.short	0
  57 0014 0000     		.short	0
  58 0016 0000     		.short	0
  59              		.comm	cyBle_gapc,14,4
  60              		.global	cyBle_authInfo
  61              		.align	2
  62              		.type	cyBle_authInfo, %object
  63              		.size	cyBle_authInfo, 5
  64              	cyBle_authInfo:
  65 0018 10       		.byte	16
  66 0019 00       		.byte	0
  67 001a 10       		.byte	16
  68 001b 00       		.byte	0
  69 001c 00       		.byte	0
  70              		.section	.text.CyBle_WriteReqHandler,"ax",%progbits
  71              		.align	2
  72              		.code	16
  73              		.thumb_func
  74              		.type	CyBle_WriteReqHandler, %function
  75              	CyBle_WriteReqHandler:
  76              	.LFB2:
  77              		.file 1 "Generated_Source\\PSoC4\\BLE_eventHandler.c"
   1:Generated_Source\PSoC4/BLE_eventHandler.c **** /***************************************************************************//**
   2:Generated_Source\PSoC4/BLE_eventHandler.c **** * \file CYBLE_eventHandler.c
   3:Generated_Source\PSoC4/BLE_eventHandler.c **** * \version 3.53
   4:Generated_Source\PSoC4/BLE_eventHandler.c **** * 
   5:Generated_Source\PSoC4/BLE_eventHandler.c **** * \brief
   6:Generated_Source\PSoC4/BLE_eventHandler.c **** *  This file contains the source code for the Event Handler State Machine
   7:Generated_Source\PSoC4/BLE_eventHandler.c **** *  of the BLE Component.
   8:Generated_Source\PSoC4/BLE_eventHandler.c **** * 
   9:Generated_Source\PSoC4/BLE_eventHandler.c **** ********************************************************************************
  10:Generated_Source\PSoC4/BLE_eventHandler.c **** * \copyright
  11:Generated_Source\PSoC4/BLE_eventHandler.c **** * Copyright 2014-2018, Cypress Semiconductor Corporation.  All rights reserved.
  12:Generated_Source\PSoC4/BLE_eventHandler.c **** * You may use this file only in accordance with the license, terms, conditions,
  13:Generated_Source\PSoC4/BLE_eventHandler.c **** * disclaimers, and limitations in the end user license agreement accompanying
  14:Generated_Source\PSoC4/BLE_eventHandler.c **** * the software package with which this file was provided.
  15:Generated_Source\PSoC4/BLE_eventHandler.c **** *******************************************************************************/
  16:Generated_Source\PSoC4/BLE_eventHandler.c **** 
  17:Generated_Source\PSoC4/BLE_eventHandler.c **** #include "BLE_eventHandler.h"
  18:Generated_Source\PSoC4/BLE_eventHandler.c **** 
  19:Generated_Source\PSoC4/BLE_eventHandler.c **** 
  20:Generated_Source\PSoC4/BLE_eventHandler.c **** /***************************************
  21:Generated_Source\PSoC4/BLE_eventHandler.c **** * Private Function Prototypes
  22:Generated_Source\PSoC4/BLE_eventHandler.c **** ***************************************/
  23:Generated_Source\PSoC4/BLE_eventHandler.c **** 
  24:Generated_Source\PSoC4/BLE_eventHandler.c **** static void CyBle_GattDisconnectEventHandler(void);
  25:Generated_Source\PSoC4/BLE_eventHandler.c **** static void CyBle_TimeOutEventHandler(const CYBLE_TO_REASON_CODE_T *eventParam);
  26:Generated_Source\PSoC4/BLE_eventHandler.c **** static void CyBle_GattConnectReqHandler(void);
  27:Generated_Source\PSoC4/BLE_eventHandler.c **** static void CyBle_L2Cap_ConnParamUpdateRspEventHandler(uint16 response);
  28:Generated_Source\PSoC4/BLE_eventHandler.c **** static void CyBle_GapConnUpdateCompleteEventHandler(const CYBLE_GAP_CONN_PARAM_UPDATED_IN_CONTROLLE
  29:Generated_Source\PSoC4/BLE_eventHandler.c **** 
  30:Generated_Source\PSoC4/BLE_eventHandler.c **** 
  31:Generated_Source\PSoC4/BLE_eventHandler.c **** #if (CYBLE_GATT_ROLE_SERVER)
  32:Generated_Source\PSoC4/BLE_eventHandler.c **** 
  33:Generated_Source\PSoC4/BLE_eventHandler.c **** static void CyBle_WriteReqHandler(CYBLE_GATTS_WRITE_REQ_PARAM_T *eventParam);
ARM GAS  C:\Users\run1009\AppData\Local\Temp\ccSZtXoF.s 			page 3


  34:Generated_Source\PSoC4/BLE_eventHandler.c **** static void CyBle_ValueConfirmation(const CYBLE_CONN_HANDLE_T *eventParam);
  35:Generated_Source\PSoC4/BLE_eventHandler.c **** 
  36:Generated_Source\PSoC4/BLE_eventHandler.c **** #endif /* CYBLE_GATT_ROLE_SERVER */
  37:Generated_Source\PSoC4/BLE_eventHandler.c **** 
  38:Generated_Source\PSoC4/BLE_eventHandler.c **** #if (CYBLE_GATT_ROLE_CLIENT)
  39:Generated_Source\PSoC4/BLE_eventHandler.c **** 
  40:Generated_Source\PSoC4/BLE_eventHandler.c **** static void CyBle_GapcDiscoverCharacteristicsEventHandler(CYBLE_DISC_CHAR_INFO_T *discCharInfo);
  41:Generated_Source\PSoC4/BLE_eventHandler.c **** static CYBLE_GATT_ATTR_HANDLE_RANGE_T CyBle_GetCharRange(void);
  42:Generated_Source\PSoC4/BLE_eventHandler.c **** static void CyBle_GattcWriteResponseEventHandler(const CYBLE_CONN_HANDLE_T *eventParam);
  43:Generated_Source\PSoC4/BLE_eventHandler.c **** static void CyBle_NotificationEventHandler(CYBLE_GATTC_HANDLE_VALUE_NTF_PARAM_T *eventParam);
  44:Generated_Source\PSoC4/BLE_eventHandler.c **** static void CyBle_IndicationEventHandler(CYBLE_GATTC_HANDLE_VALUE_IND_PARAM_T *eventParam);
  45:Generated_Source\PSoC4/BLE_eventHandler.c **** static void CyBle_ReadResponseEventHandler(CYBLE_GATTC_READ_RSP_PARAM_T *eventParam);
  46:Generated_Source\PSoC4/BLE_eventHandler.c **** static void CyBle_ReadMultipleResponseEventHandler(CYBLE_GATTC_READ_RSP_PARAM_T *eventParam);
  47:Generated_Source\PSoC4/BLE_eventHandler.c **** 
  48:Generated_Source\PSoC4/BLE_eventHandler.c **** #endif /* CYBLE_GATT_ROLE_CLIENT */
  49:Generated_Source\PSoC4/BLE_eventHandler.c **** 
  50:Generated_Source\PSoC4/BLE_eventHandler.c **** 
  51:Generated_Source\PSoC4/BLE_eventHandler.c **** /***************************************
  52:Generated_Source\PSoC4/BLE_eventHandler.c **** * Global Variables
  53:Generated_Source\PSoC4/BLE_eventHandler.c **** ***************************************/
  54:Generated_Source\PSoC4/BLE_eventHandler.c **** 
  55:Generated_Source\PSoC4/BLE_eventHandler.c **** /* This global variable is initialized after connection with peer device, 
  56:Generated_Source\PSoC4/BLE_eventHandler.c ****    after CYBLE_EVT_GATT_CONNECT_IND event, and could be used by application code
  57:Generated_Source\PSoC4/BLE_eventHandler.c ****    to send data to peer device. 
  58:Generated_Source\PSoC4/BLE_eventHandler.c **** */
  59:Generated_Source\PSoC4/BLE_eventHandler.c **** CYBLE_CONN_HANDLE_T cyBle_connHandle;
  60:Generated_Source\PSoC4/BLE_eventHandler.c **** 
  61:Generated_Source\PSoC4/BLE_eventHandler.c **** volatile uint8 cyBle_eventHandlerFlag;
  62:Generated_Source\PSoC4/BLE_eventHandler.c **** volatile uint8 cyBle_busyStatus;
  63:Generated_Source\PSoC4/BLE_eventHandler.c **** 
  64:Generated_Source\PSoC4/BLE_eventHandler.c **** const CYBLE_GAPS_T cyBle_gaps =
  65:Generated_Source\PSoC4/BLE_eventHandler.c **** {
  66:Generated_Source\PSoC4/BLE_eventHandler.c ****     0x0001u,    /* Handle of the GAP service */
  67:Generated_Source\PSoC4/BLE_eventHandler.c ****     0x0003u,    /* Handle of the Device Name characteristic */
  68:Generated_Source\PSoC4/BLE_eventHandler.c ****     0x0005u,    /* Handle of the Appearance characteristic */
  69:Generated_Source\PSoC4/BLE_eventHandler.c ****     0x0007u,    /* Handle of the Peripheral Preferred Connection Parameters characteristic */
  70:Generated_Source\PSoC4/BLE_eventHandler.c ****     CYBLE_GATT_INVALID_ATTR_HANDLE_VALUE, /* Handle of the Central Address Resolution characteristi
  71:Generated_Source\PSoC4/BLE_eventHandler.c ****     CYBLE_GATT_INVALID_ATTR_HANDLE_VALUE, /* Handle of the Resolvable Private Address Only characte
  72:Generated_Source\PSoC4/BLE_eventHandler.c **** };
  73:Generated_Source\PSoC4/BLE_eventHandler.c **** 
  74:Generated_Source\PSoC4/BLE_eventHandler.c **** 
  75:Generated_Source\PSoC4/BLE_eventHandler.c **** #if(CYBLE_GAP_ROLE_PERIPHERAL || CYBLE_GAP_ROLE_BROADCASTER) 
  76:Generated_Source\PSoC4/BLE_eventHandler.c ****     uint8 cyBle_advertisingIntervalType;
  77:Generated_Source\PSoC4/BLE_eventHandler.c **** #endif /* CYBLE_GAP_ROLE_PERIPHERAL || CYBLE_GAP_ROLE_BROADCASTER) */
  78:Generated_Source\PSoC4/BLE_eventHandler.c **** 
  79:Generated_Source\PSoC4/BLE_eventHandler.c **** #if(CYBLE_GAP_ROLE_CENTRAL || CYBLE_GAP_ROLE_OBSERVER) 
  80:Generated_Source\PSoC4/BLE_eventHandler.c ****     uint8 cyBle_scanningIntervalType;
  81:Generated_Source\PSoC4/BLE_eventHandler.c **** #endif /* CYBLE_GAP_ROLE_CENTRAL || CYBLE_GAP_ROLE_OBSERVER */
  82:Generated_Source\PSoC4/BLE_eventHandler.c **** 
  83:Generated_Source\PSoC4/BLE_eventHandler.c **** #if(CYBLE_GATT_ROLE_SERVER)
  84:Generated_Source\PSoC4/BLE_eventHandler.c **** #if defined CYBLE_CTS_SERVER || defined CYBLE_ESS_SERVER
  85:Generated_Source\PSoC4/BLE_eventHandler.c **** CYBLE_GATT_ERR_CODE_T cyBle_gattError;
  86:Generated_Source\PSoC4/BLE_eventHandler.c **** #endif /* defined CYBLE_CTS_SERVER || defined CYBLE_ESS_SERVER */
  87:Generated_Source\PSoC4/BLE_eventHandler.c **** #endif /* CYBLE_GATT_ROLE_SERVER */
  88:Generated_Source\PSoC4/BLE_eventHandler.c **** 
  89:Generated_Source\PSoC4/BLE_eventHandler.c **** #if(CYBLE_GATT_ROLE_CLIENT)
  90:Generated_Source\PSoC4/BLE_eventHandler.c **** uint8 cyBle_disCount; /* Counter for discovery procedures */
ARM GAS  C:\Users\run1009\AppData\Local\Temp\ccSZtXoF.s 			page 4


  91:Generated_Source\PSoC4/BLE_eventHandler.c **** 
  92:Generated_Source\PSoC4/BLE_eventHandler.c **** #ifdef CYBLE_CUSTOM_CLIENT
  93:Generated_Source\PSoC4/BLE_eventHandler.c **** /* Discovery included service information, used for 128-bit UUID read response handle 
  94:Generated_Source\PSoC4/BLE_eventHandler.c ****    and for continue discovery. 
  95:Generated_Source\PSoC4/BLE_eventHandler.c **** */
  96:Generated_Source\PSoC4/BLE_eventHandler.c **** static CYBLE_DISC_INCL_INFO_T cyBle_discInclInfo;
  97:Generated_Source\PSoC4/BLE_eventHandler.c **** #endif /* CYBLE_CUSTOM_CLIENT */
  98:Generated_Source\PSoC4/BLE_eventHandler.c **** 
  99:Generated_Source\PSoC4/BLE_eventHandler.c **** #ifdef CYBLE_HIDS_CLIENT
 100:Generated_Source\PSoC4/BLE_eventHandler.c ****     static uint8 disServiceIndex;      /* To discovery descriptors for multiple HID service instanc
 101:Generated_Source\PSoC4/BLE_eventHandler.c **** #endif /* CYBLE_HIDS_CLIENT */
 102:Generated_Source\PSoC4/BLE_eventHandler.c **** 
 103:Generated_Source\PSoC4/BLE_eventHandler.c **** CYBLE_DISC_SRVC_INFO_T cyBle_serverInfo[CYBLE_SRVI_COUNT] = /*8*/
 104:Generated_Source\PSoC4/BLE_eventHandler.c **** {
 105:Generated_Source\PSoC4/BLE_eventHandler.c ****     {{CYBLE_GATT_INVALID_ATTR_HANDLE_VALUE, CYBLE_GATT_INVALID_ATTR_HANDLE_VALUE}, CYBLE_UUID_GAP_S
 106:Generated_Source\PSoC4/BLE_eventHandler.c ****     {{CYBLE_GATT_INVALID_ATTR_HANDLE_VALUE, CYBLE_GATT_INVALID_ATTR_HANDLE_VALUE}, CYBLE_UUID_GATT_
 107:Generated_Source\PSoC4/BLE_eventHandler.c **** #ifdef CYBLE_AIOS_CLIENT
 108:Generated_Source\PSoC4/BLE_eventHandler.c ****     {{CYBLE_GATT_INVALID_ATTR_HANDLE_VALUE, CYBLE_GATT_INVALID_ATTR_HANDLE_VALUE}, CYBLE_UUID_AUTOM
 109:Generated_Source\PSoC4/BLE_eventHandler.c **** #endif /* CYBLE_BCS_CLIENT */
 110:Generated_Source\PSoC4/BLE_eventHandler.c **** #ifdef CYBLE_ANCS_CLIENT
 111:Generated_Source\PSoC4/BLE_eventHandler.c ****     {{CYBLE_GATT_INVALID_ATTR_HANDLE_VALUE, CYBLE_GATT_INVALID_ATTR_HANDLE_VALUE}, 0x0000u},
 112:Generated_Source\PSoC4/BLE_eventHandler.c **** #endif /* CYBLE_ANCS_CLIENT */
 113:Generated_Source\PSoC4/BLE_eventHandler.c **** #ifdef CYBLE_ANS_CLIENT
 114:Generated_Source\PSoC4/BLE_eventHandler.c ****     {{CYBLE_GATT_INVALID_ATTR_HANDLE_VALUE, CYBLE_GATT_INVALID_ATTR_HANDLE_VALUE}, 
 115:Generated_Source\PSoC4/BLE_eventHandler.c ****         CYBLE_UUID_ALERT_NOTIFICATION_SERVICE},
 116:Generated_Source\PSoC4/BLE_eventHandler.c **** #endif /* CYBLE_ANS_CLIENT */
 117:Generated_Source\PSoC4/BLE_eventHandler.c **** #ifdef CYBLE_BAS_CLIENT
 118:Generated_Source\PSoC4/BLE_eventHandler.c ****     {{CYBLE_GATT_INVALID_ATTR_HANDLE_VALUE, CYBLE_GATT_INVALID_ATTR_HANDLE_VALUE}, CYBLE_UUID_BAS_S
 119:Generated_Source\PSoC4/BLE_eventHandler.c ****     #if(CYBLE_BASC_SERVICE_COUNT > 1u) /* Generate it by GUI */
 120:Generated_Source\PSoC4/BLE_eventHandler.c ****         
 121:Generated_Source\PSoC4/BLE_eventHandler.c ****     #endif /* CYBLE_BASC_SERVICE_COUNT > 1u */
 122:Generated_Source\PSoC4/BLE_eventHandler.c **** #endif /* CYBLE_BAS_CLIENT */
 123:Generated_Source\PSoC4/BLE_eventHandler.c **** #ifdef CYBLE_BCS_CLIENT
 124:Generated_Source\PSoC4/BLE_eventHandler.c ****     {{CYBLE_GATT_INVALID_ATTR_HANDLE_VALUE, CYBLE_GATT_INVALID_ATTR_HANDLE_VALUE}, CYBLE_UUID_BODY_
 125:Generated_Source\PSoC4/BLE_eventHandler.c **** #endif /* CYBLE_BCS_CLIENT */
 126:Generated_Source\PSoC4/BLE_eventHandler.c **** #ifdef CYBLE_BLS_CLIENT
 127:Generated_Source\PSoC4/BLE_eventHandler.c ****     {{CYBLE_GATT_INVALID_ATTR_HANDLE_VALUE, CYBLE_GATT_INVALID_ATTR_HANDLE_VALUE}, CYBLE_UUID_BLOOD
 128:Generated_Source\PSoC4/BLE_eventHandler.c **** #endif /* CYBLE_BLS_CLIENT */
 129:Generated_Source\PSoC4/BLE_eventHandler.c **** #ifdef CYBLE_BMS_CLIENT
 130:Generated_Source\PSoC4/BLE_eventHandler.c ****     {{CYBLE_GATT_INVALID_ATTR_HANDLE_VALUE, CYBLE_GATT_INVALID_ATTR_HANDLE_VALUE}, CYBLE_UUID_BOND_
 131:Generated_Source\PSoC4/BLE_eventHandler.c **** #endif /* CYBLE_BMS_CLIENT */
 132:Generated_Source\PSoC4/BLE_eventHandler.c **** #ifdef CYBLE_CGMS_CLIENT
 133:Generated_Source\PSoC4/BLE_eventHandler.c ****     {{CYBLE_GATT_INVALID_ATTR_HANDLE_VALUE, CYBLE_GATT_INVALID_ATTR_HANDLE_VALUE}, CYBLE_UUID_CGM_S
 134:Generated_Source\PSoC4/BLE_eventHandler.c **** #endif /* CYBLE_CGMS_CLIENT */
 135:Generated_Source\PSoC4/BLE_eventHandler.c **** #ifdef CYBLE_CPS_CLIENT
 136:Generated_Source\PSoC4/BLE_eventHandler.c ****     {{CYBLE_GATT_INVALID_ATTR_HANDLE_VALUE, CYBLE_GATT_INVALID_ATTR_HANDLE_VALUE}, CYBLE_UUID_CPS_S
 137:Generated_Source\PSoC4/BLE_eventHandler.c **** #endif /* CYBLE_CPS_CLIENT */
 138:Generated_Source\PSoC4/BLE_eventHandler.c **** #ifdef CYBLE_CSCS_CLIENT
 139:Generated_Source\PSoC4/BLE_eventHandler.c ****     {{CYBLE_GATT_INVALID_ATTR_HANDLE_VALUE, CYBLE_GATT_INVALID_ATTR_HANDLE_VALUE}, 
 140:Generated_Source\PSoC4/BLE_eventHandler.c ****         CYBLE_UUID_CYCLING_SPEED_AND_CADENCE_SERVICE},
 141:Generated_Source\PSoC4/BLE_eventHandler.c **** #endif /* CYBLE_CSCS_CLIENT */
 142:Generated_Source\PSoC4/BLE_eventHandler.c **** #ifdef CYBLE_CTS_CLIENT
 143:Generated_Source\PSoC4/BLE_eventHandler.c ****     {{CYBLE_GATT_INVALID_ATTR_HANDLE_VALUE, CYBLE_GATT_INVALID_ATTR_HANDLE_VALUE}, CYBLE_UUID_CURRE
 144:Generated_Source\PSoC4/BLE_eventHandler.c **** #endif /* CYBLE_CTS_CLIENT */
 145:Generated_Source\PSoC4/BLE_eventHandler.c **** #ifdef CYBLE_CUSTOM_CLIENT
 146:Generated_Source\PSoC4/BLE_eventHandler.c ****             {{CYBLE_GATT_INVALID_ATTR_HANDLE_VALUE, CYBLE_GATT_INVALID_ATTR_HANDLE_VALUE}, 0x0000u}
 147:Generated_Source\PSoC4/BLE_eventHandler.c ****         {{CYBLE_GATT_INVALID_ATTR_HANDLE_VALUE, CYBLE_GATT_INVALID_ATTR_HANDLE_VALUE}, 0x0000u},
ARM GAS  C:\Users\run1009\AppData\Local\Temp\ccSZtXoF.s 			page 5


 148:Generated_Source\PSoC4/BLE_eventHandler.c **** 
 149:Generated_Source\PSoC4/BLE_eventHandler.c **** #endif /* CYBLE_CUSTOM_CLIENT */
 150:Generated_Source\PSoC4/BLE_eventHandler.c **** #ifdef CYBLE_DIS_CLIENT
 151:Generated_Source\PSoC4/BLE_eventHandler.c ****     {{CYBLE_GATT_INVALID_ATTR_HANDLE_VALUE, CYBLE_GATT_INVALID_ATTR_HANDLE_VALUE}, CYBLE_UUID_DEVIC
 152:Generated_Source\PSoC4/BLE_eventHandler.c **** #endif /* CYBLE_DIS_CLIENT */
 153:Generated_Source\PSoC4/BLE_eventHandler.c **** #ifdef CYBLE_ESS_CLIENT
 154:Generated_Source\PSoC4/BLE_eventHandler.c ****     {{CYBLE_GATT_INVALID_ATTR_HANDLE_VALUE, CYBLE_GATT_INVALID_ATTR_HANDLE_VALUE}, 
 155:Generated_Source\PSoC4/BLE_eventHandler.c ****         CYBLE_UUID_ENVIRONMENTAL_SENSING_SERVICE},
 156:Generated_Source\PSoC4/BLE_eventHandler.c **** #endif /* CYBLE_ESS_CLIENT */
 157:Generated_Source\PSoC4/BLE_eventHandler.c **** #ifdef CYBLE_GLS_CLIENT
 158:Generated_Source\PSoC4/BLE_eventHandler.c ****     {{CYBLE_GATT_INVALID_ATTR_HANDLE_VALUE, CYBLE_GATT_INVALID_ATTR_HANDLE_VALUE}, CYBLE_UUID_GLUCO
 159:Generated_Source\PSoC4/BLE_eventHandler.c **** #endif /* CYBLE_GLS_CLIENT */
 160:Generated_Source\PSoC4/BLE_eventHandler.c **** #ifdef CYBLE_HIDS_CLIENT
 161:Generated_Source\PSoC4/BLE_eventHandler.c ****     {{CYBLE_GATT_INVALID_ATTR_HANDLE_VALUE, CYBLE_GATT_INVALID_ATTR_HANDLE_VALUE}, CYBLE_UUID_HIDS_
 162:Generated_Source\PSoC4/BLE_eventHandler.c ****     #if(CYBLE_HIDSC_SERVICE_COUNT > 1u) /* Generate it by GUI */
 163:Generated_Source\PSoC4/BLE_eventHandler.c ****         
 164:Generated_Source\PSoC4/BLE_eventHandler.c ****     #endif /* CYBLE_HIDSC_SERVICE_COUNT > 1u */
 165:Generated_Source\PSoC4/BLE_eventHandler.c **** #endif /* CYBLE_HIDS_CLIENT */
 166:Generated_Source\PSoC4/BLE_eventHandler.c **** #ifdef CYBLE_HPS_CLIENT
 167:Generated_Source\PSoC4/BLE_eventHandler.c ****     {{CYBLE_GATT_INVALID_ATTR_HANDLE_VALUE, CYBLE_GATT_INVALID_ATTR_HANDLE_VALUE}, CYBLE_UUID_HTTP_
 168:Generated_Source\PSoC4/BLE_eventHandler.c **** #endif /* CYBLE_HPS_CLIENT */
 169:Generated_Source\PSoC4/BLE_eventHandler.c **** #ifdef CYBLE_HRS_CLIENT
 170:Generated_Source\PSoC4/BLE_eventHandler.c ****     {{CYBLE_GATT_INVALID_ATTR_HANDLE_VALUE, CYBLE_GATT_INVALID_ATTR_HANDLE_VALUE}, CYBLE_UUID_HEART
 171:Generated_Source\PSoC4/BLE_eventHandler.c **** #endif /* CYBLE_HRS_CLIENT */
 172:Generated_Source\PSoC4/BLE_eventHandler.c **** #ifdef CYBLE_HTS_CLIENT
 173:Generated_Source\PSoC4/BLE_eventHandler.c ****     {{CYBLE_GATT_INVALID_ATTR_HANDLE_VALUE, CYBLE_GATT_INVALID_ATTR_HANDLE_VALUE}, CYBLE_UUID_HEALT
 174:Generated_Source\PSoC4/BLE_eventHandler.c **** #endif /* CYBLE_HTS_CLIENT */
 175:Generated_Source\PSoC4/BLE_eventHandler.c **** #ifdef CYBLE_IAS_CLIENT
 176:Generated_Source\PSoC4/BLE_eventHandler.c ****     {{CYBLE_GATT_INVALID_ATTR_HANDLE_VALUE, CYBLE_GATT_INVALID_ATTR_HANDLE_VALUE}, CYBLE_UUID_IMMED
 177:Generated_Source\PSoC4/BLE_eventHandler.c **** #endif /* CYBLE_IAS_CLIENT */
 178:Generated_Source\PSoC4/BLE_eventHandler.c **** #ifdef CYBLE_IPS_CLIENT
 179:Generated_Source\PSoC4/BLE_eventHandler.c ****     {{CYBLE_GATT_INVALID_ATTR_HANDLE_VALUE, CYBLE_GATT_INVALID_ATTR_HANDLE_VALUE}, CYBLE_UUID_IPS_S
 180:Generated_Source\PSoC4/BLE_eventHandler.c **** #endif /* CYBLE_IPS_CLIENT */
 181:Generated_Source\PSoC4/BLE_eventHandler.c **** #ifdef CYBLE_LLS_CLIENT
 182:Generated_Source\PSoC4/BLE_eventHandler.c ****     {{CYBLE_GATT_INVALID_ATTR_HANDLE_VALUE, CYBLE_GATT_INVALID_ATTR_HANDLE_VALUE}, CYBLE_UUID_LINK_
 183:Generated_Source\PSoC4/BLE_eventHandler.c **** #endif /* CYBLE_LLS_CLIENT */
 184:Generated_Source\PSoC4/BLE_eventHandler.c **** #ifdef CYBLE_LNS_CLIENT
 185:Generated_Source\PSoC4/BLE_eventHandler.c ****     {{CYBLE_GATT_INVALID_ATTR_HANDLE_VALUE, CYBLE_GATT_INVALID_ATTR_HANDLE_VALUE}, CYBLE_UUID_LOCAT
 186:Generated_Source\PSoC4/BLE_eventHandler.c **** #endif /* CYBLE_LNS_CLIENT */
 187:Generated_Source\PSoC4/BLE_eventHandler.c **** #ifdef CYBLE_NDCS_CLIENT
 188:Generated_Source\PSoC4/BLE_eventHandler.c ****     {{CYBLE_GATT_INVALID_ATTR_HANDLE_VALUE, CYBLE_GATT_INVALID_ATTR_HANDLE_VALUE}, CYBLE_UUID_NEXT_
 189:Generated_Source\PSoC4/BLE_eventHandler.c **** #endif /* CYBLE_NDCS_CLIENT */
 190:Generated_Source\PSoC4/BLE_eventHandler.c **** #ifdef CYBLE_IPSS_CLIENT
 191:Generated_Source\PSoC4/BLE_eventHandler.c ****     {{CYBLE_GATT_INVALID_ATTR_HANDLE_VALUE, CYBLE_GATT_INVALID_ATTR_HANDLE_VALUE}, CYBLE_UUID_INTER
 192:Generated_Source\PSoC4/BLE_eventHandler.c **** #endif /* CYBLE_IPSS_CLIENT */
 193:Generated_Source\PSoC4/BLE_eventHandler.c **** #ifdef CYBLE_PASS_CLIENT
 194:Generated_Source\PSoC4/BLE_eventHandler.c ****     {{CYBLE_GATT_INVALID_ATTR_HANDLE_VALUE, CYBLE_GATT_INVALID_ATTR_HANDLE_VALUE}, CYBLE_UUID_PHONE
 195:Generated_Source\PSoC4/BLE_eventHandler.c **** #endif /* CYBLE_PASS_CLIENT */
 196:Generated_Source\PSoC4/BLE_eventHandler.c **** #ifdef CYBLE_PLXS_CLIENT
 197:Generated_Source\PSoC4/BLE_eventHandler.c ****     {{CYBLE_GATT_INVALID_ATTR_HANDLE_VALUE, CYBLE_GATT_INVALID_ATTR_HANDLE_VALUE}, CYBLE_UUID_PLX_S
 198:Generated_Source\PSoC4/BLE_eventHandler.c **** #endif /* CYBLE_PLXS_CLIENT */
 199:Generated_Source\PSoC4/BLE_eventHandler.c **** #ifdef CYBLE_RSCS_CLIENT
 200:Generated_Source\PSoC4/BLE_eventHandler.c ****     {{CYBLE_GATT_INVALID_ATTR_HANDLE_VALUE, CYBLE_GATT_INVALID_ATTR_HANDLE_VALUE}, CYBLE_UUID_RUNNI
 201:Generated_Source\PSoC4/BLE_eventHandler.c **** #endif /* CYBLE_RSCS_CLIENT */
 202:Generated_Source\PSoC4/BLE_eventHandler.c **** #ifdef CYBLE_RTUS_CLIENT
 203:Generated_Source\PSoC4/BLE_eventHandler.c ****     {{CYBLE_GATT_INVALID_ATTR_HANDLE_VALUE, CYBLE_GATT_INVALID_ATTR_HANDLE_VALUE}, CYBLE_UUID_REF_T
 204:Generated_Source\PSoC4/BLE_eventHandler.c **** #endif /* CYBLE_RTUS_CLIENT */
ARM GAS  C:\Users\run1009\AppData\Local\Temp\ccSZtXoF.s 			page 6


 205:Generated_Source\PSoC4/BLE_eventHandler.c **** #ifdef CYBLE_SCPS_CLIENT
 206:Generated_Source\PSoC4/BLE_eventHandler.c ****     {{CYBLE_GATT_INVALID_ATTR_HANDLE_VALUE, CYBLE_GATT_INVALID_ATTR_HANDLE_VALUE}, CYBLE_UUID_SCAN_
 207:Generated_Source\PSoC4/BLE_eventHandler.c **** #endif /* CYBLE_SCPS_CLIENT */
 208:Generated_Source\PSoC4/BLE_eventHandler.c **** #ifdef CYBLE_TPS_CLIENT
 209:Generated_Source\PSoC4/BLE_eventHandler.c ****     {{CYBLE_GATT_INVALID_ATTR_HANDLE_VALUE, CYBLE_GATT_INVALID_ATTR_HANDLE_VALUE}, CYBLE_UUID_TX_PO
 210:Generated_Source\PSoC4/BLE_eventHandler.c **** #endif /* CYBLE_TPS_CLIENT */
 211:Generated_Source\PSoC4/BLE_eventHandler.c **** #ifdef CYBLE_UDS_CLIENT
 212:Generated_Source\PSoC4/BLE_eventHandler.c ****     {{CYBLE_GATT_INVALID_ATTR_HANDLE_VALUE, CYBLE_GATT_INVALID_ATTR_HANDLE_VALUE}, CYBLE_UUID_USER_
 213:Generated_Source\PSoC4/BLE_eventHandler.c **** #endif /* CYBLE_UDS_CLIENT */
 214:Generated_Source\PSoC4/BLE_eventHandler.c **** #ifdef CYBLE_WSS_CLIENT
 215:Generated_Source\PSoC4/BLE_eventHandler.c ****     {{CYBLE_GATT_INVALID_ATTR_HANDLE_VALUE, CYBLE_GATT_INVALID_ATTR_HANDLE_VALUE}, CYBLE_UUID_WEIGH
 216:Generated_Source\PSoC4/BLE_eventHandler.c **** #endif /* CYBLE_WSS_CLIENT */
 217:Generated_Source\PSoC4/BLE_eventHandler.c **** #ifdef CYBLE_WPTS_CLIENT
 218:Generated_Source\PSoC4/BLE_eventHandler.c ****     {{CYBLE_GATT_INVALID_ATTR_HANDLE_VALUE, CYBLE_GATT_INVALID_ATTR_HANDLE_VALUE}, CYBLE_UUID_WIREL
 219:Generated_Source\PSoC4/BLE_eventHandler.c **** #endif /* CYBLE_WPTS_CLIENT */
 220:Generated_Source\PSoC4/BLE_eventHandler.c **** };
 221:Generated_Source\PSoC4/BLE_eventHandler.c **** 
 222:Generated_Source\PSoC4/BLE_eventHandler.c **** CYBLE_GAPC_T cyBle_gapc;
 223:Generated_Source\PSoC4/BLE_eventHandler.c **** 
 224:Generated_Source\PSoC4/BLE_eventHandler.c **** #endif /* CYBLE_GATT_ROLE_CLIENT */
 225:Generated_Source\PSoC4/BLE_eventHandler.c **** 
 226:Generated_Source\PSoC4/BLE_eventHandler.c **** /* Default device security */
 227:Generated_Source\PSoC4/BLE_eventHandler.c **** CYBLE_GAP_AUTH_INFO_T cyBle_authInfo =
 228:Generated_Source\PSoC4/BLE_eventHandler.c **** {
 229:Generated_Source\PSoC4/BLE_eventHandler.c ****     (CYBLE_GAP_SEC_MODE_1 | CYBLE_GAP_SEC_LEVEL_1 ), /* uint8 security */
 230:Generated_Source\PSoC4/BLE_eventHandler.c ****     CYBLE_GAP_BONDING_NONE, /* uint8 bonding */
 231:Generated_Source\PSoC4/BLE_eventHandler.c ****     0x10u,      /* uint8 ekeySize */
 232:Generated_Source\PSoC4/BLE_eventHandler.c ****     CYBLE_GAP_AUTH_ERROR_NONE, /* CYBLE_AUTH_FAILED_REASON_T authErr */
 233:Generated_Source\PSoC4/BLE_eventHandler.c ****     0x00u,      /* uint8 pairingProperties */
 234:Generated_Source\PSoC4/BLE_eventHandler.c **** };
 235:Generated_Source\PSoC4/BLE_eventHandler.c **** 
 236:Generated_Source\PSoC4/BLE_eventHandler.c **** #if(CYBLE_GATT_ROLE_SERVER)
 237:Generated_Source\PSoC4/BLE_eventHandler.c **** 
 238:Generated_Source\PSoC4/BLE_eventHandler.c **** 
 239:Generated_Source\PSoC4/BLE_eventHandler.c **** /******************************************************************************    
 240:Generated_Source\PSoC4/BLE_eventHandler.c **** * Function Name: CyBle_WriteReqHandler
 241:Generated_Source\PSoC4/BLE_eventHandler.c **** ***************************************************************************//**
 242:Generated_Source\PSoC4/BLE_eventHandler.c **** * 
 243:Generated_Source\PSoC4/BLE_eventHandler.c **** *  Handles the Write Request event from BLE stack.
 244:Generated_Source\PSoC4/BLE_eventHandler.c **** * 
 245:Generated_Source\PSoC4/BLE_eventHandler.c **** *  CYBLE_GATTS_WRITE_REQ_PARAM_T * eventParam - event parameter
 246:Generated_Source\PSoC4/BLE_eventHandler.c **** * 
 247:Generated_Source\PSoC4/BLE_eventHandler.c **** * \return
 248:Generated_Source\PSoC4/BLE_eventHandler.c **** *  None
 249:Generated_Source\PSoC4/BLE_eventHandler.c **** * 
 250:Generated_Source\PSoC4/BLE_eventHandler.c **** ******************************************************************************/
 251:Generated_Source\PSoC4/BLE_eventHandler.c **** static void CyBle_WriteReqHandler(CYBLE_GATTS_WRITE_REQ_PARAM_T *eventParam)
 252:Generated_Source\PSoC4/BLE_eventHandler.c **** {
  78              		.loc 1 252 0
  79              		.cfi_startproc
  80              		@ args = 0, pretend = 0, frame = 16
  81              		@ frame_needed = 1, uses_anonymous_args = 0
  82 0000 90B5     		push	{r4, r7, lr}
  83              		.cfi_def_cfa_offset 12
  84              		.cfi_offset 4, -12
  85              		.cfi_offset 7, -8
  86              		.cfi_offset 14, -4
ARM GAS  C:\Users\run1009\AppData\Local\Temp\ccSZtXoF.s 			page 7


  87 0002 85B0     		sub	sp, sp, #20
  88              		.cfi_def_cfa_offset 32
  89 0004 00AF     		add	r7, sp, #0
  90              		.cfi_def_cfa_register 7
  91 0006 7860     		str	r0, [r7, #4]
 253:Generated_Source\PSoC4/BLE_eventHandler.c ****     CYBLE_GATT_ERR_CODE_T gattErr;
 254:Generated_Source\PSoC4/BLE_eventHandler.c **** #if defined CYBLE_CTS_SERVER || defined CYBLE_ESS_SERVER
 255:Generated_Source\PSoC4/BLE_eventHandler.c ****     cyBle_gattError = CYBLE_GATT_ERR_NONE;
 256:Generated_Source\PSoC4/BLE_eventHandler.c **** #endif /* defined CYBLE_CTS_SERVER || defined CYBLE_ESS_SERVER */
 257:Generated_Source\PSoC4/BLE_eventHandler.c ****     
 258:Generated_Source\PSoC4/BLE_eventHandler.c ****     gattErr = CyBle_GattsWriteEventHandler(eventParam);
  92              		.loc 1 258 0
  93 0008 0F23     		movs	r3, #15
  94 000a FC18     		adds	r4, r7, r3
  95 000c 7B68     		ldr	r3, [r7, #4]
  96 000e 1800     		movs	r0, r3
  97 0010 FFF7FEFF 		bl	CyBle_GattsWriteEventHandler
  98 0014 0300     		movs	r3, r0
  99 0016 2370     		strb	r3, [r4]
 259:Generated_Source\PSoC4/BLE_eventHandler.c **** #ifdef CYBLE_AIOS_SERVER
 260:Generated_Source\PSoC4/BLE_eventHandler.c ****     if(((cyBle_eventHandlerFlag & CYBLE_CALLBACK) != 0u) && (gattErr == CYBLE_GATT_ERR_NONE))
 261:Generated_Source\PSoC4/BLE_eventHandler.c ****     {
 262:Generated_Source\PSoC4/BLE_eventHandler.c ****         gattErr = CyBle_AiossWriteEventHandler(eventParam);
 263:Generated_Source\PSoC4/BLE_eventHandler.c ****     }
 264:Generated_Source\PSoC4/BLE_eventHandler.c **** #endif /* CYBLE_AIOS_SERVER */
 265:Generated_Source\PSoC4/BLE_eventHandler.c **** #ifdef CYBLE_ANCS_SERVER
 266:Generated_Source\PSoC4/BLE_eventHandler.c ****     if(((cyBle_eventHandlerFlag & CYBLE_CALLBACK) != 0u) && (gattErr == CYBLE_GATT_ERR_NONE))
 267:Generated_Source\PSoC4/BLE_eventHandler.c ****     {
 268:Generated_Source\PSoC4/BLE_eventHandler.c ****         gattErr = CyBle_AncssWriteEventHandler(eventParam);
 269:Generated_Source\PSoC4/BLE_eventHandler.c ****     }
 270:Generated_Source\PSoC4/BLE_eventHandler.c **** #endif /* CYBLE_ANCS_SERVER */
 271:Generated_Source\PSoC4/BLE_eventHandler.c **** #ifdef CYBLE_ANS_SERVER
 272:Generated_Source\PSoC4/BLE_eventHandler.c ****     if(((cyBle_eventHandlerFlag & CYBLE_CALLBACK) != 0u) && (gattErr == CYBLE_GATT_ERR_NONE))
 273:Generated_Source\PSoC4/BLE_eventHandler.c ****     {
 274:Generated_Source\PSoC4/BLE_eventHandler.c ****         gattErr = CyBle_AnssWriteEventHandler(eventParam);
 275:Generated_Source\PSoC4/BLE_eventHandler.c ****     }
 276:Generated_Source\PSoC4/BLE_eventHandler.c **** #endif /* CYBLE_ANS_SERVER */
 277:Generated_Source\PSoC4/BLE_eventHandler.c **** #ifdef CYBLE_BAS_SERVER
 278:Generated_Source\PSoC4/BLE_eventHandler.c ****     if(((cyBle_eventHandlerFlag & CYBLE_CALLBACK) != 0u) && (gattErr == CYBLE_GATT_ERR_NONE))
 279:Generated_Source\PSoC4/BLE_eventHandler.c ****     {
 280:Generated_Source\PSoC4/BLE_eventHandler.c ****         gattErr = CyBle_BassWriteEventHandler(eventParam);
 281:Generated_Source\PSoC4/BLE_eventHandler.c ****     }
 282:Generated_Source\PSoC4/BLE_eventHandler.c **** #endif /* CYBLE_BAS_SERVER */
 283:Generated_Source\PSoC4/BLE_eventHandler.c **** #ifdef CYBLE_BCS_SERVER
 284:Generated_Source\PSoC4/BLE_eventHandler.c ****     if(((cyBle_eventHandlerFlag & CYBLE_CALLBACK) != 0u) && (gattErr == CYBLE_GATT_ERR_NONE))
 285:Generated_Source\PSoC4/BLE_eventHandler.c ****     {
 286:Generated_Source\PSoC4/BLE_eventHandler.c ****         gattErr = CyBle_BcssWriteEventHandler(eventParam);
 287:Generated_Source\PSoC4/BLE_eventHandler.c ****     }
 288:Generated_Source\PSoC4/BLE_eventHandler.c **** #endif /* CYBLE_BCS_SERVER */
 289:Generated_Source\PSoC4/BLE_eventHandler.c **** #ifdef CYBLE_BLS_SERVER
 290:Generated_Source\PSoC4/BLE_eventHandler.c ****     if(((cyBle_eventHandlerFlag & CYBLE_CALLBACK) != 0u) && (gattErr == CYBLE_GATT_ERR_NONE))
 291:Generated_Source\PSoC4/BLE_eventHandler.c ****     {
 292:Generated_Source\PSoC4/BLE_eventHandler.c ****         gattErr = CyBle_BlssWriteEventHandler(eventParam);
 293:Generated_Source\PSoC4/BLE_eventHandler.c ****     }
 294:Generated_Source\PSoC4/BLE_eventHandler.c **** #endif /* CYBLE_BLS_SERVER */
 295:Generated_Source\PSoC4/BLE_eventHandler.c **** #ifdef CYBLE_BMS_SERVER
 296:Generated_Source\PSoC4/BLE_eventHandler.c ****     if(((cyBle_eventHandlerFlag & CYBLE_CALLBACK) != 0u) && (gattErr == CYBLE_GATT_ERR_NONE))
ARM GAS  C:\Users\run1009\AppData\Local\Temp\ccSZtXoF.s 			page 8


 297:Generated_Source\PSoC4/BLE_eventHandler.c ****     {
 298:Generated_Source\PSoC4/BLE_eventHandler.c ****         gattErr = CyBle_BmssWriteEventHandler(eventParam);
 299:Generated_Source\PSoC4/BLE_eventHandler.c ****     }
 300:Generated_Source\PSoC4/BLE_eventHandler.c **** #endif /* CYBLE_BMS_SERVER */
 301:Generated_Source\PSoC4/BLE_eventHandler.c **** #ifdef CYBLE_BTS_SERVER
 302:Generated_Source\PSoC4/BLE_eventHandler.c ****     if((cyBle_eventHandlerFlag & CYBLE_CALLBACK) != 0u)
 303:Generated_Source\PSoC4/BLE_eventHandler.c ****     {
 304:Generated_Source\PSoC4/BLE_eventHandler.c ****         gattErr = CyBle_BtsWriteEventHandler(eventParam);
 305:Generated_Source\PSoC4/BLE_eventHandler.c ****     }
 306:Generated_Source\PSoC4/BLE_eventHandler.c **** #endif /* CYBLE_BTS_SERVER */
 307:Generated_Source\PSoC4/BLE_eventHandler.c **** #ifdef CYBLE_CGMS_SERVER
 308:Generated_Source\PSoC4/BLE_eventHandler.c ****     if(((cyBle_eventHandlerFlag & CYBLE_CALLBACK) != 0u) && (gattErr == CYBLE_GATT_ERR_NONE))
 309:Generated_Source\PSoC4/BLE_eventHandler.c ****     {
 310:Generated_Source\PSoC4/BLE_eventHandler.c ****         gattErr = CyBle_CgmssWriteEventHandler(eventParam);
 311:Generated_Source\PSoC4/BLE_eventHandler.c ****     }
 312:Generated_Source\PSoC4/BLE_eventHandler.c **** #endif /* CYBLE_CGMS_SERVER */
 313:Generated_Source\PSoC4/BLE_eventHandler.c **** #ifdef CYBLE_CPS_SERVER
 314:Generated_Source\PSoC4/BLE_eventHandler.c ****     if(((cyBle_eventHandlerFlag & CYBLE_CALLBACK) != 0u) && (gattErr == CYBLE_GATT_ERR_NONE))
 315:Generated_Source\PSoC4/BLE_eventHandler.c ****     {
 316:Generated_Source\PSoC4/BLE_eventHandler.c ****         gattErr = CyBle_CpssWriteEventHandler(eventParam);
 317:Generated_Source\PSoC4/BLE_eventHandler.c ****     }
 318:Generated_Source\PSoC4/BLE_eventHandler.c **** #endif /* CYBLE_CPS_SERVER */
 319:Generated_Source\PSoC4/BLE_eventHandler.c **** #ifdef CYBLE_CSCS_SERVER
 320:Generated_Source\PSoC4/BLE_eventHandler.c ****     if(((cyBle_eventHandlerFlag & CYBLE_CALLBACK) != 0u) && (gattErr == CYBLE_GATT_ERR_NONE))
 321:Generated_Source\PSoC4/BLE_eventHandler.c ****     {
 322:Generated_Source\PSoC4/BLE_eventHandler.c ****         gattErr = CyBle_CscssWriteEventHandler(eventParam);
 323:Generated_Source\PSoC4/BLE_eventHandler.c ****     }
 324:Generated_Source\PSoC4/BLE_eventHandler.c **** #endif /* CYBLE_CSCS_SERVER */
 325:Generated_Source\PSoC4/BLE_eventHandler.c **** #ifdef CYBLE_CTS_SERVER
 326:Generated_Source\PSoC4/BLE_eventHandler.c ****     if(((cyBle_eventHandlerFlag & CYBLE_CALLBACK) != 0u) && (gattErr == CYBLE_GATT_ERR_NONE))
 327:Generated_Source\PSoC4/BLE_eventHandler.c ****     {
 328:Generated_Source\PSoC4/BLE_eventHandler.c ****         gattErr = CyBle_CtssWriteEventHandler(eventParam);
 329:Generated_Source\PSoC4/BLE_eventHandler.c ****     }
 330:Generated_Source\PSoC4/BLE_eventHandler.c **** #endif /* CYBLE_CTS_SERVER */
 331:Generated_Source\PSoC4/BLE_eventHandler.c **** #ifdef CYBLE_ESS_SERVER
 332:Generated_Source\PSoC4/BLE_eventHandler.c ****     if(((cyBle_eventHandlerFlag & CYBLE_CALLBACK) != 0u) && (gattErr == CYBLE_GATT_ERR_NONE))
 333:Generated_Source\PSoC4/BLE_eventHandler.c ****     {
 334:Generated_Source\PSoC4/BLE_eventHandler.c ****         gattErr = CyBle_EsssWriteEventHandler(eventParam);
 335:Generated_Source\PSoC4/BLE_eventHandler.c ****     }
 336:Generated_Source\PSoC4/BLE_eventHandler.c **** #endif /* CYBLE_ESS_SERVER */
 337:Generated_Source\PSoC4/BLE_eventHandler.c **** #ifdef CYBLE_GLS_SERVER
 338:Generated_Source\PSoC4/BLE_eventHandler.c ****     if(((cyBle_eventHandlerFlag & CYBLE_CALLBACK) != 0u) && (gattErr == CYBLE_GATT_ERR_NONE))
 339:Generated_Source\PSoC4/BLE_eventHandler.c ****     {
 340:Generated_Source\PSoC4/BLE_eventHandler.c ****         gattErr = CyBle_GlssWriteEventHandler(eventParam);
 341:Generated_Source\PSoC4/BLE_eventHandler.c ****     }
 342:Generated_Source\PSoC4/BLE_eventHandler.c **** #endif /* CYBLE_GLS_SERVER */
 343:Generated_Source\PSoC4/BLE_eventHandler.c **** #ifdef CYBLE_HIDS_SERVER
 344:Generated_Source\PSoC4/BLE_eventHandler.c ****     if(((cyBle_eventHandlerFlag & CYBLE_CALLBACK) != 0u) && (gattErr == CYBLE_GATT_ERR_NONE))
 345:Generated_Source\PSoC4/BLE_eventHandler.c ****     {
 346:Generated_Source\PSoC4/BLE_eventHandler.c ****         gattErr = CyBle_HidssWriteEventHandler(eventParam);
 347:Generated_Source\PSoC4/BLE_eventHandler.c ****     }
 348:Generated_Source\PSoC4/BLE_eventHandler.c **** #endif /* CYBLE_HIDS_SERVER */
 349:Generated_Source\PSoC4/BLE_eventHandler.c **** #ifdef CYBLE_HPS_SERVER
 350:Generated_Source\PSoC4/BLE_eventHandler.c ****     if(((cyBle_eventHandlerFlag & CYBLE_CALLBACK) != 0u) && (gattErr == CYBLE_GATT_ERR_NONE))
 351:Generated_Source\PSoC4/BLE_eventHandler.c ****     {
 352:Generated_Source\PSoC4/BLE_eventHandler.c ****         gattErr = CyBle_HpssWriteEventHandler(eventParam);
 353:Generated_Source\PSoC4/BLE_eventHandler.c ****     }
ARM GAS  C:\Users\run1009\AppData\Local\Temp\ccSZtXoF.s 			page 9


 354:Generated_Source\PSoC4/BLE_eventHandler.c **** #endif /* CYBLE_HPS_SERVER */
 355:Generated_Source\PSoC4/BLE_eventHandler.c **** #ifdef CYBLE_HRS_SERVER
 356:Generated_Source\PSoC4/BLE_eventHandler.c ****     if(((cyBle_eventHandlerFlag & CYBLE_CALLBACK) != 0u) && (gattErr == CYBLE_GATT_ERR_NONE))
 357:Generated_Source\PSoC4/BLE_eventHandler.c ****     {
 358:Generated_Source\PSoC4/BLE_eventHandler.c ****         gattErr = CyBle_HrssWriteEventHandler(eventParam);
 359:Generated_Source\PSoC4/BLE_eventHandler.c ****     }
 360:Generated_Source\PSoC4/BLE_eventHandler.c **** #endif /* CYBLE_HRS_SERVER */
 361:Generated_Source\PSoC4/BLE_eventHandler.c **** #ifdef CYBLE_HTS_SERVER
 362:Generated_Source\PSoC4/BLE_eventHandler.c ****     if(((cyBle_eventHandlerFlag & CYBLE_CALLBACK) != 0u) && (gattErr == CYBLE_GATT_ERR_NONE))
 363:Generated_Source\PSoC4/BLE_eventHandler.c ****     {
 364:Generated_Source\PSoC4/BLE_eventHandler.c ****         gattErr = CyBle_HtssWriteEventHandler(eventParam);
 365:Generated_Source\PSoC4/BLE_eventHandler.c ****     }
 366:Generated_Source\PSoC4/BLE_eventHandler.c **** #endif /* CYBLE_HTS_SERVER */
 367:Generated_Source\PSoC4/BLE_eventHandler.c **** #ifdef CYBLE_IPS_SERVER
 368:Generated_Source\PSoC4/BLE_eventHandler.c ****     if(((cyBle_eventHandlerFlag & CYBLE_CALLBACK) != 0u) && (gattErr == CYBLE_GATT_ERR_NONE))
 369:Generated_Source\PSoC4/BLE_eventHandler.c ****     {
 370:Generated_Source\PSoC4/BLE_eventHandler.c ****         gattErr = CyBle_IpssWriteEventHandler(eventParam);
 371:Generated_Source\PSoC4/BLE_eventHandler.c ****     }
 372:Generated_Source\PSoC4/BLE_eventHandler.c **** #endif /* CYBLE_IPS_SERVER */
 373:Generated_Source\PSoC4/BLE_eventHandler.c **** #ifdef CYBLE_LLS_SERVER
 374:Generated_Source\PSoC4/BLE_eventHandler.c ****     if(((cyBle_eventHandlerFlag & CYBLE_CALLBACK) != 0u) && (gattErr == CYBLE_GATT_ERR_NONE))
 375:Generated_Source\PSoC4/BLE_eventHandler.c ****     {
 376:Generated_Source\PSoC4/BLE_eventHandler.c ****         gattErr = CyBle_LlssWriteEventHandler(eventParam);
 377:Generated_Source\PSoC4/BLE_eventHandler.c ****     }
 378:Generated_Source\PSoC4/BLE_eventHandler.c **** #endif /* CYBLE_LLS_SERVER */
 379:Generated_Source\PSoC4/BLE_eventHandler.c **** #ifdef CYBLE_LNS_SERVER
 380:Generated_Source\PSoC4/BLE_eventHandler.c ****     if(((cyBle_eventHandlerFlag & CYBLE_CALLBACK) != 0u) && (gattErr == CYBLE_GATT_ERR_NONE))
 381:Generated_Source\PSoC4/BLE_eventHandler.c ****     {
 382:Generated_Source\PSoC4/BLE_eventHandler.c ****         gattErr = CyBle_LnssWriteEventHandler(eventParam);
 383:Generated_Source\PSoC4/BLE_eventHandler.c ****     }
 384:Generated_Source\PSoC4/BLE_eventHandler.c **** #endif /* CYBLE_LNS_SERVER */
 385:Generated_Source\PSoC4/BLE_eventHandler.c **** #ifdef CYBLE_PASS_SERVER
 386:Generated_Source\PSoC4/BLE_eventHandler.c ****     if(((cyBle_eventHandlerFlag & CYBLE_CALLBACK) != 0u) && (gattErr == CYBLE_GATT_ERR_NONE))
 387:Generated_Source\PSoC4/BLE_eventHandler.c ****     {
 388:Generated_Source\PSoC4/BLE_eventHandler.c ****         gattErr = CyBle_PasssWriteEventHandler(eventParam);
 389:Generated_Source\PSoC4/BLE_eventHandler.c ****     }
 390:Generated_Source\PSoC4/BLE_eventHandler.c **** #endif /* CYBLE_PASS_SERVER */
 391:Generated_Source\PSoC4/BLE_eventHandler.c **** #ifdef CYBLE_PLXS_SERVER
 392:Generated_Source\PSoC4/BLE_eventHandler.c ****     if(((cyBle_eventHandlerFlag & CYBLE_CALLBACK) != 0u) && (gattErr == CYBLE_GATT_ERR_NONE))
 393:Generated_Source\PSoC4/BLE_eventHandler.c ****     {
 394:Generated_Source\PSoC4/BLE_eventHandler.c ****         gattErr = CyBle_PlxssWriteEventHandler(eventParam);
 395:Generated_Source\PSoC4/BLE_eventHandler.c ****     }
 396:Generated_Source\PSoC4/BLE_eventHandler.c **** #endif /* CYBLE_PLXS_SERVER */    
 397:Generated_Source\PSoC4/BLE_eventHandler.c **** #ifdef CYBLE_RSCS_SERVER
 398:Generated_Source\PSoC4/BLE_eventHandler.c ****     if(((cyBle_eventHandlerFlag & CYBLE_CALLBACK) != 0u) && (gattErr == CYBLE_GATT_ERR_NONE))
 399:Generated_Source\PSoC4/BLE_eventHandler.c ****     {
 400:Generated_Source\PSoC4/BLE_eventHandler.c ****         gattErr = CyBle_RscssWriteEventHandler(eventParam);
 401:Generated_Source\PSoC4/BLE_eventHandler.c ****     }
 402:Generated_Source\PSoC4/BLE_eventHandler.c **** #endif /* CYBLE_RSCS_SERVER */
 403:Generated_Source\PSoC4/BLE_eventHandler.c **** #ifdef CYBLE_SCPS_SERVER
 404:Generated_Source\PSoC4/BLE_eventHandler.c ****     if(((cyBle_eventHandlerFlag & CYBLE_CALLBACK) != 0u) && (gattErr == CYBLE_GATT_ERR_NONE))
 405:Generated_Source\PSoC4/BLE_eventHandler.c ****     {
 406:Generated_Source\PSoC4/BLE_eventHandler.c ****         gattErr = CyBle_ScpssWriteEventHandler(eventParam);
 407:Generated_Source\PSoC4/BLE_eventHandler.c ****     }
 408:Generated_Source\PSoC4/BLE_eventHandler.c **** #endif /* CYBLE_SCPS_SERVER */
 409:Generated_Source\PSoC4/BLE_eventHandler.c **** #ifdef CYBLE_TPS_SERVER
 410:Generated_Source\PSoC4/BLE_eventHandler.c ****     if(((cyBle_eventHandlerFlag & CYBLE_CALLBACK) != 0u) && (gattErr == CYBLE_GATT_ERR_NONE))
ARM GAS  C:\Users\run1009\AppData\Local\Temp\ccSZtXoF.s 			page 10


 411:Generated_Source\PSoC4/BLE_eventHandler.c ****     {
 412:Generated_Source\PSoC4/BLE_eventHandler.c ****         gattErr = CyBle_TpssWriteEventHandler(eventParam);
 413:Generated_Source\PSoC4/BLE_eventHandler.c ****     }
 414:Generated_Source\PSoC4/BLE_eventHandler.c **** #endif /* CYBLE_TPS_SERVER */
 415:Generated_Source\PSoC4/BLE_eventHandler.c **** #ifdef CYBLE_UDS_SERVER
 416:Generated_Source\PSoC4/BLE_eventHandler.c ****     if(((cyBle_eventHandlerFlag & CYBLE_CALLBACK) != 0u) && (gattErr == CYBLE_GATT_ERR_NONE))
 417:Generated_Source\PSoC4/BLE_eventHandler.c ****     {
 418:Generated_Source\PSoC4/BLE_eventHandler.c ****         gattErr = CyBle_UdssWriteEventHandler(eventParam);
 419:Generated_Source\PSoC4/BLE_eventHandler.c ****     }
 420:Generated_Source\PSoC4/BLE_eventHandler.c **** #endif /* CYBLE_UDS_SERVER */
 421:Generated_Source\PSoC4/BLE_eventHandler.c **** #ifdef CYBLE_WPTS_SERVER
 422:Generated_Source\PSoC4/BLE_eventHandler.c ****     if(((cyBle_eventHandlerFlag & CYBLE_CALLBACK) != 0u) && (gattErr == CYBLE_GATT_ERR_NONE))
 423:Generated_Source\PSoC4/BLE_eventHandler.c ****     {
 424:Generated_Source\PSoC4/BLE_eventHandler.c ****         gattErr = CyBle_WptssWriteEventHandler(eventParam);
 425:Generated_Source\PSoC4/BLE_eventHandler.c ****     }
 426:Generated_Source\PSoC4/BLE_eventHandler.c **** #endif /* CYBLE_WPTS_SERVER */
 427:Generated_Source\PSoC4/BLE_eventHandler.c **** #ifdef CYBLE_WSS_SERVER
 428:Generated_Source\PSoC4/BLE_eventHandler.c ****     if(((cyBle_eventHandlerFlag & CYBLE_CALLBACK) != 0u) && (gattErr == CYBLE_GATT_ERR_NONE))
 429:Generated_Source\PSoC4/BLE_eventHandler.c ****     {
 430:Generated_Source\PSoC4/BLE_eventHandler.c ****         gattErr = CyBle_WsssWriteEventHandler(eventParam);
 431:Generated_Source\PSoC4/BLE_eventHandler.c ****     }
 432:Generated_Source\PSoC4/BLE_eventHandler.c **** #endif /* CYBLE_WSS_SERVER */
 433:Generated_Source\PSoC4/BLE_eventHandler.c **** 
 434:Generated_Source\PSoC4/BLE_eventHandler.c ****     /* Send response when event was handled by service */
 435:Generated_Source\PSoC4/BLE_eventHandler.c ****     if((cyBle_eventHandlerFlag & CYBLE_CALLBACK) == 0u)
 100              		.loc 1 435 0
 101 0018 154B     		ldr	r3, .L5
 102 001a 1B78     		ldrb	r3, [r3]
 103 001c DBB2     		uxtb	r3, r3
 104 001e 1A00     		movs	r2, r3
 105 0020 0123     		movs	r3, #1
 106 0022 1340     		ands	r3, r2
 107 0024 1FD1     		bne	.L4
 436:Generated_Source\PSoC4/BLE_eventHandler.c ****     {
 437:Generated_Source\PSoC4/BLE_eventHandler.c ****         if(gattErr != CYBLE_GATT_ERR_NONE)
 108              		.loc 1 437 0
 109 0026 0F23     		movs	r3, #15
 110 0028 FB18     		adds	r3, r7, r3
 111 002a 1B78     		ldrb	r3, [r3]
 112 002c 002B     		cmp	r3, #0
 113 002e 16D0     		beq	.L3
 114              	.LBB2:
 438:Generated_Source\PSoC4/BLE_eventHandler.c ****         {
 439:Generated_Source\PSoC4/BLE_eventHandler.c ****             CYBLE_GATTS_ERR_PARAM_T err_param;
 440:Generated_Source\PSoC4/BLE_eventHandler.c ****             
 441:Generated_Source\PSoC4/BLE_eventHandler.c ****             err_param.opcode = (uint8) CYBLE_GATT_WRITE_REQ;
 115              		.loc 1 441 0
 116 0030 0823     		movs	r3, #8
 117 0032 FB18     		adds	r3, r7, r3
 118 0034 1222     		movs	r2, #18
 119 0036 9A70     		strb	r2, [r3, #2]
 442:Generated_Source\PSoC4/BLE_eventHandler.c ****             err_param.attrHandle = eventParam->handleValPair.attrHandle;
 120              		.loc 1 442 0
 121 0038 7B68     		ldr	r3, [r7, #4]
 122 003a 9A89     		ldrh	r2, [r3, #12]
 123 003c 0823     		movs	r3, #8
 124 003e FB18     		adds	r3, r7, r3
ARM GAS  C:\Users\run1009\AppData\Local\Temp\ccSZtXoF.s 			page 11


 125 0040 1A80     		strh	r2, [r3]
 443:Generated_Source\PSoC4/BLE_eventHandler.c ****             err_param.errorCode = gattErr;
 126              		.loc 1 443 0
 127 0042 0823     		movs	r3, #8
 128 0044 FB18     		adds	r3, r7, r3
 129 0046 0F22     		movs	r2, #15
 130 0048 BA18     		adds	r2, r7, r2
 131 004a 1278     		ldrb	r2, [r2]
 132 004c DA70     		strb	r2, [r3, #3]
 444:Generated_Source\PSoC4/BLE_eventHandler.c **** 
 445:Generated_Source\PSoC4/BLE_eventHandler.c ****             /* Send Error Response */
 446:Generated_Source\PSoC4/BLE_eventHandler.c ****             (void)CyBle_GattsErrorRsp(eventParam->connHandle, &err_param);
 133              		.loc 1 446 0
 134 004e 0823     		movs	r3, #8
 135 0050 FA18     		adds	r2, r7, r3
 136 0052 7B68     		ldr	r3, [r7, #4]
 137 0054 1100     		movs	r1, r2
 138 0056 1868     		ldr	r0, [r3]
 139 0058 FFF7FEFF 		bl	CyBle_GattsErrorRsp
 140              	.LBE2:
 447:Generated_Source\PSoC4/BLE_eventHandler.c ****         }
 448:Generated_Source\PSoC4/BLE_eventHandler.c ****         else
 449:Generated_Source\PSoC4/BLE_eventHandler.c ****         {
 450:Generated_Source\PSoC4/BLE_eventHandler.c ****             (void)CyBle_GattsWriteRsp(eventParam->connHandle);
 451:Generated_Source\PSoC4/BLE_eventHandler.c ****         }
 452:Generated_Source\PSoC4/BLE_eventHandler.c ****     }
 453:Generated_Source\PSoC4/BLE_eventHandler.c **** }
 141              		.loc 1 453 0
 142 005c 03E0     		b	.L4
 143              	.L3:
 450:Generated_Source\PSoC4/BLE_eventHandler.c ****         }
 144              		.loc 1 450 0
 145 005e 7B68     		ldr	r3, [r7, #4]
 146 0060 1868     		ldr	r0, [r3]
 147 0062 FFF7FEFF 		bl	CyBle_GattsWriteRsp
 148              	.L4:
 149              		.loc 1 453 0
 150 0066 C046     		nop
 151 0068 BD46     		mov	sp, r7
 152 006a 05B0     		add	sp, sp, #20
 153              		@ sp needed
 154 006c 90BD     		pop	{r4, r7, pc}
 155              	.L6:
 156 006e C046     		.align	2
 157              	.L5:
 158 0070 00000000 		.word	cyBle_eventHandlerFlag
 159              		.cfi_endproc
 160              	.LFE2:
 161              		.size	CyBle_WriteReqHandler, .-CyBle_WriteReqHandler
 162              		.section	.text.CyBle_ValueConfirmation,"ax",%progbits
 163              		.align	2
 164              		.code	16
 165              		.thumb_func
 166              		.type	CyBle_ValueConfirmation, %function
 167              	CyBle_ValueConfirmation:
 168              	.LFB3:
 454:Generated_Source\PSoC4/BLE_eventHandler.c **** 
ARM GAS  C:\Users\run1009\AppData\Local\Temp\ccSZtXoF.s 			page 12


 455:Generated_Source\PSoC4/BLE_eventHandler.c **** 
 456:Generated_Source\PSoC4/BLE_eventHandler.c **** /****************************************************************************** 
 457:Generated_Source\PSoC4/BLE_eventHandler.c **** * Function Name: CyBle_ValueConfirmation
 458:Generated_Source\PSoC4/BLE_eventHandler.c **** ***************************************************************************//**
 459:Generated_Source\PSoC4/BLE_eventHandler.c **** * 
 460:Generated_Source\PSoC4/BLE_eventHandler.c **** *  Handles the Value Confirmation request event from the BLE stack.
 461:Generated_Source\PSoC4/BLE_eventHandler.c **** * 
 462:Generated_Source\PSoC4/BLE_eventHandler.c **** *  \param eventParam: Pointer to a structure of type 'CYBLE_CONN_HANDLE_T'
 463:Generated_Source\PSoC4/BLE_eventHandler.c **** * 
 464:Generated_Source\PSoC4/BLE_eventHandler.c **** * \return
 465:Generated_Source\PSoC4/BLE_eventHandler.c **** *  None
 466:Generated_Source\PSoC4/BLE_eventHandler.c **** * 
 467:Generated_Source\PSoC4/BLE_eventHandler.c **** ******************************************************************************/
 468:Generated_Source\PSoC4/BLE_eventHandler.c **** static void CyBle_ValueConfirmation(const CYBLE_CONN_HANDLE_T *eventParam)
 469:Generated_Source\PSoC4/BLE_eventHandler.c **** {
 169              		.loc 1 469 0
 170              		.cfi_startproc
 171              		@ args = 0, pretend = 0, frame = 8
 172              		@ frame_needed = 1, uses_anonymous_args = 0
 173 0000 80B5     		push	{r7, lr}
 174              		.cfi_def_cfa_offset 8
 175              		.cfi_offset 7, -8
 176              		.cfi_offset 14, -4
 177 0002 82B0     		sub	sp, sp, #8
 178              		.cfi_def_cfa_offset 16
 179 0004 00AF     		add	r7, sp, #0
 180              		.cfi_def_cfa_register 7
 181 0006 7860     		str	r0, [r7, #4]
 470:Generated_Source\PSoC4/BLE_eventHandler.c ****     if(eventParam != NULL)
 471:Generated_Source\PSoC4/BLE_eventHandler.c ****     {
 472:Generated_Source\PSoC4/BLE_eventHandler.c ****     #ifdef CYBLE_AIOS_SERVER
 473:Generated_Source\PSoC4/BLE_eventHandler.c ****         if((cyBle_eventHandlerFlag & CYBLE_CALLBACK) != 0u)
 474:Generated_Source\PSoC4/BLE_eventHandler.c ****         {
 475:Generated_Source\PSoC4/BLE_eventHandler.c ****             CyBle_AiossConfirmationEventHandler(eventParam);
 476:Generated_Source\PSoC4/BLE_eventHandler.c ****         }
 477:Generated_Source\PSoC4/BLE_eventHandler.c ****     #endif /* CYBLE_AIOS_SERVER */
 478:Generated_Source\PSoC4/BLE_eventHandler.c ****     #ifdef CYBLE_BCS_SERVER
 479:Generated_Source\PSoC4/BLE_eventHandler.c ****         CyBle_BcssConfirmationEventHandler(eventParam);
 480:Generated_Source\PSoC4/BLE_eventHandler.c ****     #endif /* CYBLE_BCS_SERVER */
 481:Generated_Source\PSoC4/BLE_eventHandler.c ****     #ifdef CYBLE_BLS_SERVER
 482:Generated_Source\PSoC4/BLE_eventHandler.c ****         if((cyBle_eventHandlerFlag & CYBLE_CALLBACK) != 0u)
 483:Generated_Source\PSoC4/BLE_eventHandler.c ****         {
 484:Generated_Source\PSoC4/BLE_eventHandler.c ****             CyBle_BlssConfirmationEventHandler(eventParam);
 485:Generated_Source\PSoC4/BLE_eventHandler.c ****         }
 486:Generated_Source\PSoC4/BLE_eventHandler.c ****     #endif /* CYBLE_BLS_SERVER */
 487:Generated_Source\PSoC4/BLE_eventHandler.c ****     
 488:Generated_Source\PSoC4/BLE_eventHandler.c ****     #ifdef CYBLE_CGMS_SERVER
 489:Generated_Source\PSoC4/BLE_eventHandler.c ****         if((cyBle_eventHandlerFlag & CYBLE_CALLBACK) != 0u)
 490:Generated_Source\PSoC4/BLE_eventHandler.c ****         {
 491:Generated_Source\PSoC4/BLE_eventHandler.c ****             CyBle_CgmssConfirmationEventHandler(eventParam);
 492:Generated_Source\PSoC4/BLE_eventHandler.c ****         }
 493:Generated_Source\PSoC4/BLE_eventHandler.c ****     #endif /* CYBLE_CGMS_SERVER */
 494:Generated_Source\PSoC4/BLE_eventHandler.c ****     
 495:Generated_Source\PSoC4/BLE_eventHandler.c ****     #ifdef CYBLE_CPS_SERVER
 496:Generated_Source\PSoC4/BLE_eventHandler.c ****         if((cyBle_eventHandlerFlag & CYBLE_CALLBACK) != 0u)
 497:Generated_Source\PSoC4/BLE_eventHandler.c ****         {
 498:Generated_Source\PSoC4/BLE_eventHandler.c ****             CyBle_CpssConfirmationEventHandler(eventParam);
ARM GAS  C:\Users\run1009\AppData\Local\Temp\ccSZtXoF.s 			page 13


 499:Generated_Source\PSoC4/BLE_eventHandler.c ****         }
 500:Generated_Source\PSoC4/BLE_eventHandler.c ****     #endif /* CYBLE_CPS_SERVER */
 501:Generated_Source\PSoC4/BLE_eventHandler.c ****     
 502:Generated_Source\PSoC4/BLE_eventHandler.c ****     #ifdef CYBLE_CSCS_SERVER
 503:Generated_Source\PSoC4/BLE_eventHandler.c ****         if((cyBle_eventHandlerFlag & CYBLE_CALLBACK) != 0u)
 504:Generated_Source\PSoC4/BLE_eventHandler.c ****         {
 505:Generated_Source\PSoC4/BLE_eventHandler.c ****             CyBle_CscssConfirmationEventHandler(eventParam);
 506:Generated_Source\PSoC4/BLE_eventHandler.c ****         }
 507:Generated_Source\PSoC4/BLE_eventHandler.c ****     #endif /* CYBLE_CSCS_SERVER */
 508:Generated_Source\PSoC4/BLE_eventHandler.c ****     
 509:Generated_Source\PSoC4/BLE_eventHandler.c ****     #ifdef CYBLE_ESS_SERVER
 510:Generated_Source\PSoC4/BLE_eventHandler.c ****         if((cyBle_eventHandlerFlag & CYBLE_CALLBACK) != 0u)
 511:Generated_Source\PSoC4/BLE_eventHandler.c ****         {
 512:Generated_Source\PSoC4/BLE_eventHandler.c ****             CyBle_EsssConfirmationEventHandler(eventParam);
 513:Generated_Source\PSoC4/BLE_eventHandler.c ****         }
 514:Generated_Source\PSoC4/BLE_eventHandler.c ****     #endif /* CYBLE_ESS_SERVER */
 515:Generated_Source\PSoC4/BLE_eventHandler.c ****     
 516:Generated_Source\PSoC4/BLE_eventHandler.c ****     #ifdef CYBLE_GLS_SERVER
 517:Generated_Source\PSoC4/BLE_eventHandler.c ****         if((cyBle_eventHandlerFlag & CYBLE_CALLBACK) != 0u)
 518:Generated_Source\PSoC4/BLE_eventHandler.c ****         {
 519:Generated_Source\PSoC4/BLE_eventHandler.c ****             CyBle_GlssConfirmationEventHandler(eventParam);
 520:Generated_Source\PSoC4/BLE_eventHandler.c ****         }
 521:Generated_Source\PSoC4/BLE_eventHandler.c ****     #endif /* CYBLE_GLS_SERVER */
 522:Generated_Source\PSoC4/BLE_eventHandler.c ****     
 523:Generated_Source\PSoC4/BLE_eventHandler.c ****     #ifdef CYBLE_HTS_SERVER
 524:Generated_Source\PSoC4/BLE_eventHandler.c ****         if((cyBle_eventHandlerFlag & CYBLE_CALLBACK) != 0u)
 525:Generated_Source\PSoC4/BLE_eventHandler.c ****         {
 526:Generated_Source\PSoC4/BLE_eventHandler.c ****             CyBle_HtssConfirmationEventHandler(eventParam);
 527:Generated_Source\PSoC4/BLE_eventHandler.c ****         }
 528:Generated_Source\PSoC4/BLE_eventHandler.c ****     #endif /* CYBLE_HTS_SERVER */
 529:Generated_Source\PSoC4/BLE_eventHandler.c **** 
 530:Generated_Source\PSoC4/BLE_eventHandler.c ****     #ifdef CYBLE_LNS_SERVER
 531:Generated_Source\PSoC4/BLE_eventHandler.c ****         if((cyBle_eventHandlerFlag & CYBLE_CALLBACK) != 0u)
 532:Generated_Source\PSoC4/BLE_eventHandler.c ****         {
 533:Generated_Source\PSoC4/BLE_eventHandler.c ****             CyBle_LnssConfirmationEventHandler(eventParam);
 534:Generated_Source\PSoC4/BLE_eventHandler.c ****         }
 535:Generated_Source\PSoC4/BLE_eventHandler.c ****     #endif /* CYBLE_LNS_SERVER */
 536:Generated_Source\PSoC4/BLE_eventHandler.c ****     
 537:Generated_Source\PSoC4/BLE_eventHandler.c ****     #ifdef CYBLE_PLXS_SERVER
 538:Generated_Source\PSoC4/BLE_eventHandler.c ****         if((cyBle_eventHandlerFlag & CYBLE_CALLBACK) != 0u)
 539:Generated_Source\PSoC4/BLE_eventHandler.c ****         {
 540:Generated_Source\PSoC4/BLE_eventHandler.c ****             CyBle_PlxssConfirmationEventHandler((CYBLE_CONN_HANDLE_T *)eventParam);
 541:Generated_Source\PSoC4/BLE_eventHandler.c ****         }
 542:Generated_Source\PSoC4/BLE_eventHandler.c ****     #endif /* CYBLE_PLXS_SERVER */
 543:Generated_Source\PSoC4/BLE_eventHandler.c ****     
 544:Generated_Source\PSoC4/BLE_eventHandler.c ****     #ifdef CYBLE_RSCS_SERVER
 545:Generated_Source\PSoC4/BLE_eventHandler.c ****         if((cyBle_eventHandlerFlag & CYBLE_CALLBACK) != 0u)
 546:Generated_Source\PSoC4/BLE_eventHandler.c ****         {
 547:Generated_Source\PSoC4/BLE_eventHandler.c ****             CyBle_RscssConfirmationEventHandler(eventParam);
 548:Generated_Source\PSoC4/BLE_eventHandler.c ****         }
 549:Generated_Source\PSoC4/BLE_eventHandler.c ****     #endif /* CYBLE_RSCS_SERVER */
 550:Generated_Source\PSoC4/BLE_eventHandler.c ****     
 551:Generated_Source\PSoC4/BLE_eventHandler.c ****     #ifdef CYBLE_UDS_SERVER
 552:Generated_Source\PSoC4/BLE_eventHandler.c ****         if((cyBle_eventHandlerFlag & CYBLE_CALLBACK) != 0u)
 553:Generated_Source\PSoC4/BLE_eventHandler.c ****         {
 554:Generated_Source\PSoC4/BLE_eventHandler.c ****             CyBle_UdssConfirmationEventHandler(eventParam);
 555:Generated_Source\PSoC4/BLE_eventHandler.c ****         }
ARM GAS  C:\Users\run1009\AppData\Local\Temp\ccSZtXoF.s 			page 14


 556:Generated_Source\PSoC4/BLE_eventHandler.c ****     #endif /* CYBLE_UDS_SERVER */
 557:Generated_Source\PSoC4/BLE_eventHandler.c ****     
 558:Generated_Source\PSoC4/BLE_eventHandler.c ****     #ifdef CYBLE_WPTS_SERVER
 559:Generated_Source\PSoC4/BLE_eventHandler.c ****         if((cyBle_eventHandlerFlag & CYBLE_CALLBACK) != 0u)
 560:Generated_Source\PSoC4/BLE_eventHandler.c ****         {
 561:Generated_Source\PSoC4/BLE_eventHandler.c ****             CyBle_WptssConfirmationEventHandler(eventParam);
 562:Generated_Source\PSoC4/BLE_eventHandler.c ****         }
 563:Generated_Source\PSoC4/BLE_eventHandler.c ****     #endif /* CYBLE_WPTS_SERVER */
 564:Generated_Source\PSoC4/BLE_eventHandler.c ****     
 565:Generated_Source\PSoC4/BLE_eventHandler.c ****     #ifdef CYBLE_WSS_SERVER
 566:Generated_Source\PSoC4/BLE_eventHandler.c ****         if((cyBle_eventHandlerFlag & CYBLE_CALLBACK) != 0u)
 567:Generated_Source\PSoC4/BLE_eventHandler.c ****         {
 568:Generated_Source\PSoC4/BLE_eventHandler.c ****             CyBle_WsssConfirmationEventHandler(eventParam);
 569:Generated_Source\PSoC4/BLE_eventHandler.c ****         }
 570:Generated_Source\PSoC4/BLE_eventHandler.c ****     #endif /* CYBLE_WSS_SERVER */
 571:Generated_Source\PSoC4/BLE_eventHandler.c ****     }
 572:Generated_Source\PSoC4/BLE_eventHandler.c **** }
 182              		.loc 1 572 0
 183 0008 C046     		nop
 184 000a BD46     		mov	sp, r7
 185 000c 02B0     		add	sp, sp, #8
 186              		@ sp needed
 187 000e 80BD     		pop	{r7, pc}
 188              		.cfi_endproc
 189              	.LFE3:
 190              		.size	CyBle_ValueConfirmation, .-CyBle_ValueConfirmation
 191              		.section	.text.CyBle_GattcWriteResponseEventHandler,"ax",%progbits
 192              		.align	2
 193              		.code	16
 194              		.thumb_func
 195              		.type	CyBle_GattcWriteResponseEventHandler, %function
 196              	CyBle_GattcWriteResponseEventHandler:
 197              	.LFB4:
 573:Generated_Source\PSoC4/BLE_eventHandler.c **** 
 574:Generated_Source\PSoC4/BLE_eventHandler.c **** #endif /* CYBLE_GATT_ROLE_SERVER */
 575:Generated_Source\PSoC4/BLE_eventHandler.c **** 
 576:Generated_Source\PSoC4/BLE_eventHandler.c **** 
 577:Generated_Source\PSoC4/BLE_eventHandler.c **** #if (CYBLE_GATT_ROLE_CLIENT)
 578:Generated_Source\PSoC4/BLE_eventHandler.c **** 
 579:Generated_Source\PSoC4/BLE_eventHandler.c **** /****************************************************************************** 
 580:Generated_Source\PSoC4/BLE_eventHandler.c **** * Function Name: CyBle_GattcWriteResponseEventHandler
 581:Generated_Source\PSoC4/BLE_eventHandler.c **** ***************************************************************************//**
 582:Generated_Source\PSoC4/BLE_eventHandler.c **** * 
 583:Generated_Source\PSoC4/BLE_eventHandler.c **** *  Handles the Write response event from the BLE stack.
 584:Generated_Source\PSoC4/BLE_eventHandler.c **** * 
 585:Generated_Source\PSoC4/BLE_eventHandler.c **** *  \param eventParam: Pointer to a structure of type 'CYBLE_CONN_HANDLE_T'
 586:Generated_Source\PSoC4/BLE_eventHandler.c **** * 
 587:Generated_Source\PSoC4/BLE_eventHandler.c **** * \return
 588:Generated_Source\PSoC4/BLE_eventHandler.c **** *  None
 589:Generated_Source\PSoC4/BLE_eventHandler.c **** * 
 590:Generated_Source\PSoC4/BLE_eventHandler.c **** ******************************************************************************/
 591:Generated_Source\PSoC4/BLE_eventHandler.c **** static void CyBle_GattcWriteResponseEventHandler(const CYBLE_CONN_HANDLE_T *eventParam)
 592:Generated_Source\PSoC4/BLE_eventHandler.c **** {
 198              		.loc 1 592 0
 199              		.cfi_startproc
 200              		@ args = 0, pretend = 0, frame = 8
 201              		@ frame_needed = 1, uses_anonymous_args = 0
ARM GAS  C:\Users\run1009\AppData\Local\Temp\ccSZtXoF.s 			page 15


 202 0000 80B5     		push	{r7, lr}
 203              		.cfi_def_cfa_offset 8
 204              		.cfi_offset 7, -8
 205              		.cfi_offset 14, -4
 206 0002 82B0     		sub	sp, sp, #8
 207              		.cfi_def_cfa_offset 16
 208 0004 00AF     		add	r7, sp, #0
 209              		.cfi_def_cfa_register 7
 210 0006 7860     		str	r0, [r7, #4]
 593:Generated_Source\PSoC4/BLE_eventHandler.c **** 
 594:Generated_Source\PSoC4/BLE_eventHandler.c **** #ifdef CYBLE_AIOS_CLIENT
 595:Generated_Source\PSoC4/BLE_eventHandler.c ****     if((cyBle_eventHandlerFlag & CYBLE_CALLBACK) != 0u)
 596:Generated_Source\PSoC4/BLE_eventHandler.c ****     {
 597:Generated_Source\PSoC4/BLE_eventHandler.c ****         CyBle_AioscWriteResponseEventHandler(eventParam);
 598:Generated_Source\PSoC4/BLE_eventHandler.c ****     }
 599:Generated_Source\PSoC4/BLE_eventHandler.c **** #endif /* CYBLE_AIOS_CLIENT */
 600:Generated_Source\PSoC4/BLE_eventHandler.c **** 
 601:Generated_Source\PSoC4/BLE_eventHandler.c **** #ifdef CYBLE_ANCS_CLIENT
 602:Generated_Source\PSoC4/BLE_eventHandler.c ****     CyBle_AncscWriteResponseEventHandler(eventParam);
 603:Generated_Source\PSoC4/BLE_eventHandler.c **** #endif /* CYBLE_ANCS_CLIENT */
 604:Generated_Source\PSoC4/BLE_eventHandler.c **** 
 605:Generated_Source\PSoC4/BLE_eventHandler.c **** #ifdef CYBLE_ANS_CLIENT
 606:Generated_Source\PSoC4/BLE_eventHandler.c ****     if((cyBle_eventHandlerFlag & CYBLE_CALLBACK) != 0u)
 607:Generated_Source\PSoC4/BLE_eventHandler.c ****     {
 608:Generated_Source\PSoC4/BLE_eventHandler.c ****         CyBle_AnscWriteResponseEventHandler(eventParam);
 609:Generated_Source\PSoC4/BLE_eventHandler.c ****     }
 610:Generated_Source\PSoC4/BLE_eventHandler.c **** #endif /* CYBLE_ANS_CLIENT */
 611:Generated_Source\PSoC4/BLE_eventHandler.c **** 
 612:Generated_Source\PSoC4/BLE_eventHandler.c **** #ifdef CYBLE_BAS_CLIENT
 613:Generated_Source\PSoC4/BLE_eventHandler.c ****     if((cyBle_eventHandlerFlag & CYBLE_CALLBACK) != 0u)
 614:Generated_Source\PSoC4/BLE_eventHandler.c ****     {
 615:Generated_Source\PSoC4/BLE_eventHandler.c ****         CyBle_BascWriteResponseEventHandler(eventParam);
 616:Generated_Source\PSoC4/BLE_eventHandler.c ****     }
 617:Generated_Source\PSoC4/BLE_eventHandler.c **** #endif /* CYBLE_BAS_CLIENT */
 618:Generated_Source\PSoC4/BLE_eventHandler.c **** 
 619:Generated_Source\PSoC4/BLE_eventHandler.c **** #ifdef CYBLE_BCS_CLIENT
 620:Generated_Source\PSoC4/BLE_eventHandler.c ****     if((cyBle_eventHandlerFlag & CYBLE_CALLBACK) != 0u)
 621:Generated_Source\PSoC4/BLE_eventHandler.c ****     {
 622:Generated_Source\PSoC4/BLE_eventHandler.c ****         CyBle_BcscWriteResponseEventHandler(eventParam);
 623:Generated_Source\PSoC4/BLE_eventHandler.c ****     }
 624:Generated_Source\PSoC4/BLE_eventHandler.c **** #endif /* CYBLE_BCS_CLIENT */
 625:Generated_Source\PSoC4/BLE_eventHandler.c **** 
 626:Generated_Source\PSoC4/BLE_eventHandler.c **** #ifdef CYBLE_BLS_CLIENT
 627:Generated_Source\PSoC4/BLE_eventHandler.c ****     if((cyBle_eventHandlerFlag & CYBLE_CALLBACK) != 0u)
 628:Generated_Source\PSoC4/BLE_eventHandler.c ****     {
 629:Generated_Source\PSoC4/BLE_eventHandler.c ****         CyBle_BlscWriteResponseEventHandler(eventParam);
 630:Generated_Source\PSoC4/BLE_eventHandler.c ****     }
 631:Generated_Source\PSoC4/BLE_eventHandler.c **** #endif /* CYBLE_BLS_CLIENT */
 632:Generated_Source\PSoC4/BLE_eventHandler.c **** 
 633:Generated_Source\PSoC4/BLE_eventHandler.c **** #ifdef CYBLE_BMS_CLIENT
 634:Generated_Source\PSoC4/BLE_eventHandler.c ****     if((cyBle_eventHandlerFlag & CYBLE_CALLBACK) != 0u)
 635:Generated_Source\PSoC4/BLE_eventHandler.c ****     {
 636:Generated_Source\PSoC4/BLE_eventHandler.c ****         CyBle_BmscWriteResponseEventHandler(eventParam);
 637:Generated_Source\PSoC4/BLE_eventHandler.c ****     }
 638:Generated_Source\PSoC4/BLE_eventHandler.c **** #endif /* CYBLE_BMS_CLIENT */
 639:Generated_Source\PSoC4/BLE_eventHandler.c **** 
 640:Generated_Source\PSoC4/BLE_eventHandler.c **** #ifdef CYBLE_CGMS_CLIENT
ARM GAS  C:\Users\run1009\AppData\Local\Temp\ccSZtXoF.s 			page 16


 641:Generated_Source\PSoC4/BLE_eventHandler.c ****     if((cyBle_eventHandlerFlag & CYBLE_CALLBACK) != 0u)
 642:Generated_Source\PSoC4/BLE_eventHandler.c ****     {
 643:Generated_Source\PSoC4/BLE_eventHandler.c ****         CyBle_CgmscWriteResponseEventHandler(eventParam);
 644:Generated_Source\PSoC4/BLE_eventHandler.c ****     }
 645:Generated_Source\PSoC4/BLE_eventHandler.c **** #endif /* CYBLE_CGMS_CLIENT */
 646:Generated_Source\PSoC4/BLE_eventHandler.c **** 
 647:Generated_Source\PSoC4/BLE_eventHandler.c **** #ifdef CYBLE_CPS_CLIENT
 648:Generated_Source\PSoC4/BLE_eventHandler.c ****     if((cyBle_eventHandlerFlag & CYBLE_CALLBACK) != 0u)
 649:Generated_Source\PSoC4/BLE_eventHandler.c ****     {
 650:Generated_Source\PSoC4/BLE_eventHandler.c ****         CyBle_CpscWriteResponseEventHandler(eventParam);
 651:Generated_Source\PSoC4/BLE_eventHandler.c ****     }
 652:Generated_Source\PSoC4/BLE_eventHandler.c **** #endif /* CYBLE_CPS_CLIENT */
 653:Generated_Source\PSoC4/BLE_eventHandler.c **** 
 654:Generated_Source\PSoC4/BLE_eventHandler.c **** #ifdef CYBLE_CSCS_CLIENT
 655:Generated_Source\PSoC4/BLE_eventHandler.c ****     if((cyBle_eventHandlerFlag & CYBLE_CALLBACK) != 0u)
 656:Generated_Source\PSoC4/BLE_eventHandler.c ****     {
 657:Generated_Source\PSoC4/BLE_eventHandler.c ****         CyBle_CscscWriteResponseEventHandler(eventParam);
 658:Generated_Source\PSoC4/BLE_eventHandler.c ****     }
 659:Generated_Source\PSoC4/BLE_eventHandler.c **** #endif /* CYBLE_CSCS_CLIENT */
 660:Generated_Source\PSoC4/BLE_eventHandler.c **** 
 661:Generated_Source\PSoC4/BLE_eventHandler.c **** #ifdef CYBLE_CTS_CLIENT
 662:Generated_Source\PSoC4/BLE_eventHandler.c ****     if((cyBle_eventHandlerFlag & CYBLE_CALLBACK) != 0u)
 663:Generated_Source\PSoC4/BLE_eventHandler.c ****     {
 664:Generated_Source\PSoC4/BLE_eventHandler.c ****         CyBle_CtscWriteResponseEventHandler(eventParam);
 665:Generated_Source\PSoC4/BLE_eventHandler.c ****     }
 666:Generated_Source\PSoC4/BLE_eventHandler.c **** #endif /* CYBLE_CTS_CLIENT */
 667:Generated_Source\PSoC4/BLE_eventHandler.c **** 
 668:Generated_Source\PSoC4/BLE_eventHandler.c **** #ifdef CYBLE_ESS_CLIENT
 669:Generated_Source\PSoC4/BLE_eventHandler.c ****     if((cyBle_eventHandlerFlag & CYBLE_CALLBACK) != 0u)
 670:Generated_Source\PSoC4/BLE_eventHandler.c ****     {
 671:Generated_Source\PSoC4/BLE_eventHandler.c ****         CyBle_EsscWriteResponseEventHandler(eventParam);
 672:Generated_Source\PSoC4/BLE_eventHandler.c ****     }
 673:Generated_Source\PSoC4/BLE_eventHandler.c **** #endif /* CYBLE_ESS_CLIENT */
 674:Generated_Source\PSoC4/BLE_eventHandler.c **** 
 675:Generated_Source\PSoC4/BLE_eventHandler.c **** #ifdef CYBLE_GLS_CLIENT
 676:Generated_Source\PSoC4/BLE_eventHandler.c ****     if((cyBle_eventHandlerFlag & CYBLE_CALLBACK) != 0u)
 677:Generated_Source\PSoC4/BLE_eventHandler.c ****     {
 678:Generated_Source\PSoC4/BLE_eventHandler.c ****         CyBle_GlscWriteResponseEventHandler(eventParam);
 679:Generated_Source\PSoC4/BLE_eventHandler.c ****     }
 680:Generated_Source\PSoC4/BLE_eventHandler.c **** #endif /* CYBLE_GLS_CLIENT */
 681:Generated_Source\PSoC4/BLE_eventHandler.c **** 
 682:Generated_Source\PSoC4/BLE_eventHandler.c **** #ifdef CYBLE_HIDS_CLIENT
 683:Generated_Source\PSoC4/BLE_eventHandler.c ****     if((cyBle_eventHandlerFlag & CYBLE_CALLBACK) != 0u)
 684:Generated_Source\PSoC4/BLE_eventHandler.c ****     {
 685:Generated_Source\PSoC4/BLE_eventHandler.c ****         CyBle_HidscWriteResponseEventHandler(eventParam);
 686:Generated_Source\PSoC4/BLE_eventHandler.c ****     }
 687:Generated_Source\PSoC4/BLE_eventHandler.c **** #endif /* CYBLE_HIDS_CLIENT */
 688:Generated_Source\PSoC4/BLE_eventHandler.c **** 
 689:Generated_Source\PSoC4/BLE_eventHandler.c **** #ifdef CYBLE_HPS_CLIENT
 690:Generated_Source\PSoC4/BLE_eventHandler.c ****     if((cyBle_eventHandlerFlag & CYBLE_CALLBACK) != 0u)
 691:Generated_Source\PSoC4/BLE_eventHandler.c ****     {
 692:Generated_Source\PSoC4/BLE_eventHandler.c ****         CyBle_HpscWriteResponseEventHandler(eventParam);
 693:Generated_Source\PSoC4/BLE_eventHandler.c ****     }
 694:Generated_Source\PSoC4/BLE_eventHandler.c **** #endif /* CYBLE_HPS_CLIENT */
 695:Generated_Source\PSoC4/BLE_eventHandler.c **** 
 696:Generated_Source\PSoC4/BLE_eventHandler.c **** #ifdef CYBLE_HRS_CLIENT
 697:Generated_Source\PSoC4/BLE_eventHandler.c ****     if((cyBle_eventHandlerFlag & CYBLE_CALLBACK) != 0u)
ARM GAS  C:\Users\run1009\AppData\Local\Temp\ccSZtXoF.s 			page 17


 698:Generated_Source\PSoC4/BLE_eventHandler.c ****     {
 699:Generated_Source\PSoC4/BLE_eventHandler.c ****         CyBle_HrscWriteResponseEventHandler(eventParam);
 700:Generated_Source\PSoC4/BLE_eventHandler.c ****     }
 701:Generated_Source\PSoC4/BLE_eventHandler.c **** #endif /* CYBLE_HRS_CLIENT */
 702:Generated_Source\PSoC4/BLE_eventHandler.c **** 
 703:Generated_Source\PSoC4/BLE_eventHandler.c **** #ifdef CYBLE_HTS_CLIENT
 704:Generated_Source\PSoC4/BLE_eventHandler.c ****     if((cyBle_eventHandlerFlag & CYBLE_CALLBACK) != 0u)
 705:Generated_Source\PSoC4/BLE_eventHandler.c ****     {
 706:Generated_Source\PSoC4/BLE_eventHandler.c ****         CyBle_HtscWriteResponseEventHandler(eventParam);
 707:Generated_Source\PSoC4/BLE_eventHandler.c ****     }
 708:Generated_Source\PSoC4/BLE_eventHandler.c **** #endif /* CYBLE_HTS_CLIENT */
 709:Generated_Source\PSoC4/BLE_eventHandler.c **** 
 710:Generated_Source\PSoC4/BLE_eventHandler.c **** #ifdef CYBLE_IPS_CLIENT
 711:Generated_Source\PSoC4/BLE_eventHandler.c ****     if((cyBle_eventHandlerFlag & CYBLE_CALLBACK) != 0u)
 712:Generated_Source\PSoC4/BLE_eventHandler.c ****     {
 713:Generated_Source\PSoC4/BLE_eventHandler.c ****         CyBle_IpscWriteResponseEventHandler(eventParam);
 714:Generated_Source\PSoC4/BLE_eventHandler.c ****     }
 715:Generated_Source\PSoC4/BLE_eventHandler.c **** #endif /* CYBLE_IPS_CLIENT */
 716:Generated_Source\PSoC4/BLE_eventHandler.c **** 
 717:Generated_Source\PSoC4/BLE_eventHandler.c **** #ifdef CYBLE_LLS_CLIENT
 718:Generated_Source\PSoC4/BLE_eventHandler.c ****     if((cyBle_eventHandlerFlag & CYBLE_CALLBACK) != 0u)
 719:Generated_Source\PSoC4/BLE_eventHandler.c ****     {
 720:Generated_Source\PSoC4/BLE_eventHandler.c ****         CyBle_LlscWriteResponseEventHandler(eventParam);
 721:Generated_Source\PSoC4/BLE_eventHandler.c ****     }
 722:Generated_Source\PSoC4/BLE_eventHandler.c **** #endif /* CYBLE_LLS_CLIENT */
 723:Generated_Source\PSoC4/BLE_eventHandler.c **** 
 724:Generated_Source\PSoC4/BLE_eventHandler.c **** #ifdef CYBLE_LNS_CLIENT
 725:Generated_Source\PSoC4/BLE_eventHandler.c ****     if((cyBle_eventHandlerFlag & CYBLE_CALLBACK) != 0u)
 726:Generated_Source\PSoC4/BLE_eventHandler.c ****     {
 727:Generated_Source\PSoC4/BLE_eventHandler.c ****         CyBle_LnscWriteResponseEventHandler(eventParam);
 728:Generated_Source\PSoC4/BLE_eventHandler.c ****     }
 729:Generated_Source\PSoC4/BLE_eventHandler.c **** #endif /* CYBLE_LNS_CLIENT */
 730:Generated_Source\PSoC4/BLE_eventHandler.c **** 
 731:Generated_Source\PSoC4/BLE_eventHandler.c **** #ifdef CYBLE_PASS_CLIENT
 732:Generated_Source\PSoC4/BLE_eventHandler.c ****     if((cyBle_eventHandlerFlag & CYBLE_CALLBACK) != 0u)
 733:Generated_Source\PSoC4/BLE_eventHandler.c ****     {
 734:Generated_Source\PSoC4/BLE_eventHandler.c ****         CyBle_PasscWriteResponseEventHandler(eventParam);
 735:Generated_Source\PSoC4/BLE_eventHandler.c ****     }
 736:Generated_Source\PSoC4/BLE_eventHandler.c **** #endif /* CYBLE_PASS_CLIENT */
 737:Generated_Source\PSoC4/BLE_eventHandler.c **** 
 738:Generated_Source\PSoC4/BLE_eventHandler.c **** #ifdef CYBLE_PLXS_CLIENT
 739:Generated_Source\PSoC4/BLE_eventHandler.c ****     if((cyBle_eventHandlerFlag & CYBLE_CALLBACK) != 0u)
 740:Generated_Source\PSoC4/BLE_eventHandler.c ****     {
 741:Generated_Source\PSoC4/BLE_eventHandler.c ****         CyBle_PlxscWriteResponseEventHandler(eventParam);
 742:Generated_Source\PSoC4/BLE_eventHandler.c ****     }
 743:Generated_Source\PSoC4/BLE_eventHandler.c **** #endif /* CYBLE_PASS_CLIENT */
 744:Generated_Source\PSoC4/BLE_eventHandler.c **** 
 745:Generated_Source\PSoC4/BLE_eventHandler.c **** #ifdef CYBLE_RSCS_CLIENT
 746:Generated_Source\PSoC4/BLE_eventHandler.c ****     if((cyBle_eventHandlerFlag & CYBLE_CALLBACK) != 0u)
 747:Generated_Source\PSoC4/BLE_eventHandler.c ****     {
 748:Generated_Source\PSoC4/BLE_eventHandler.c ****         CyBle_RscscWriteResponseEventHandler(eventParam);
 749:Generated_Source\PSoC4/BLE_eventHandler.c ****     }
 750:Generated_Source\PSoC4/BLE_eventHandler.c **** #endif /* CYBLE_RSCS_CLIENT */
 751:Generated_Source\PSoC4/BLE_eventHandler.c **** 
 752:Generated_Source\PSoC4/BLE_eventHandler.c **** #ifdef CYBLE_SCPS_CLIENT
 753:Generated_Source\PSoC4/BLE_eventHandler.c ****     if((cyBle_eventHandlerFlag & CYBLE_CALLBACK) != 0u)
 754:Generated_Source\PSoC4/BLE_eventHandler.c ****     {
ARM GAS  C:\Users\run1009\AppData\Local\Temp\ccSZtXoF.s 			page 18


 755:Generated_Source\PSoC4/BLE_eventHandler.c ****         CyBle_ScpscWriteResponseEventHandler(eventParam);
 756:Generated_Source\PSoC4/BLE_eventHandler.c ****     }
 757:Generated_Source\PSoC4/BLE_eventHandler.c **** #endif /* CYBLE_SCPS_CLIENT */
 758:Generated_Source\PSoC4/BLE_eventHandler.c **** 
 759:Generated_Source\PSoC4/BLE_eventHandler.c **** #ifdef CYBLE_TPS_CLIENT
 760:Generated_Source\PSoC4/BLE_eventHandler.c ****     if((cyBle_eventHandlerFlag & CYBLE_CALLBACK) != 0u)
 761:Generated_Source\PSoC4/BLE_eventHandler.c ****     {
 762:Generated_Source\PSoC4/BLE_eventHandler.c ****         CyBle_TpscWriteResponseEventHandler(eventParam);
 763:Generated_Source\PSoC4/BLE_eventHandler.c ****     }
 764:Generated_Source\PSoC4/BLE_eventHandler.c **** #endif /* CYBLE_TPS_CLIENT */
 765:Generated_Source\PSoC4/BLE_eventHandler.c **** 
 766:Generated_Source\PSoC4/BLE_eventHandler.c **** #ifdef CYBLE_UDS_CLIENT
 767:Generated_Source\PSoC4/BLE_eventHandler.c ****     if((cyBle_eventHandlerFlag & CYBLE_CALLBACK) != 0u)
 768:Generated_Source\PSoC4/BLE_eventHandler.c ****     {
 769:Generated_Source\PSoC4/BLE_eventHandler.c ****         CyBle_UdscWriteResponseEventHandler(eventParam);
 770:Generated_Source\PSoC4/BLE_eventHandler.c ****     }
 771:Generated_Source\PSoC4/BLE_eventHandler.c **** #endif /* CYBLE_UDS_CLIENT */
 772:Generated_Source\PSoC4/BLE_eventHandler.c **** #ifdef CYBLE_WPTS_CLIENT
 773:Generated_Source\PSoC4/BLE_eventHandler.c ****     if((cyBle_eventHandlerFlag & CYBLE_CALLBACK) != 0u)
 774:Generated_Source\PSoC4/BLE_eventHandler.c ****     {
 775:Generated_Source\PSoC4/BLE_eventHandler.c ****         CyBle_WptscWriteResponseEventHandler(eventParam);
 776:Generated_Source\PSoC4/BLE_eventHandler.c ****     }
 777:Generated_Source\PSoC4/BLE_eventHandler.c **** #endif /* CYBLE_WPTS_CLIENT */
 778:Generated_Source\PSoC4/BLE_eventHandler.c **** #ifdef CYBLE_WSS_CLIENT
 779:Generated_Source\PSoC4/BLE_eventHandler.c ****     if((cyBle_eventHandlerFlag & CYBLE_CALLBACK) != 0u)
 780:Generated_Source\PSoC4/BLE_eventHandler.c ****     {
 781:Generated_Source\PSoC4/BLE_eventHandler.c ****         CyBle_WsscWriteResponseEventHandler(eventParam);
 782:Generated_Source\PSoC4/BLE_eventHandler.c ****     }
 783:Generated_Source\PSoC4/BLE_eventHandler.c **** #endif /* CYBLE_WSS_CLIENT */
 784:Generated_Source\PSoC4/BLE_eventHandler.c **** }
 211              		.loc 1 784 0
 212 0008 C046     		nop
 213 000a BD46     		mov	sp, r7
 214 000c 02B0     		add	sp, sp, #8
 215              		@ sp needed
 216 000e 80BD     		pop	{r7, pc}
 217              		.cfi_endproc
 218              	.LFE4:
 219              		.size	CyBle_GattcWriteResponseEventHandler, .-CyBle_GattcWriteResponseEventHandler
 220              		.section	.text.CyBle_NotificationEventHandler,"ax",%progbits
 221              		.align	2
 222              		.code	16
 223              		.thumb_func
 224              		.type	CyBle_NotificationEventHandler, %function
 225              	CyBle_NotificationEventHandler:
 226              	.LFB5:
 785:Generated_Source\PSoC4/BLE_eventHandler.c **** 
 786:Generated_Source\PSoC4/BLE_eventHandler.c **** 
 787:Generated_Source\PSoC4/BLE_eventHandler.c **** /******************************************************************************    
 788:Generated_Source\PSoC4/BLE_eventHandler.c **** * Function Name: CyBle_NotificationEventHandler
 789:Generated_Source\PSoC4/BLE_eventHandler.c **** ***************************************************************************//**
 790:Generated_Source\PSoC4/BLE_eventHandler.c **** * 
 791:Generated_Source\PSoC4/BLE_eventHandler.c **** *  Handles the Notification event from BLE stack.
 792:Generated_Source\PSoC4/BLE_eventHandler.c **** * 
 793:Generated_Source\PSoC4/BLE_eventHandler.c **** *  \param eventParam: event parameter
 794:Generated_Source\PSoC4/BLE_eventHandler.c **** * 
 795:Generated_Source\PSoC4/BLE_eventHandler.c **** * \return
ARM GAS  C:\Users\run1009\AppData\Local\Temp\ccSZtXoF.s 			page 19


 796:Generated_Source\PSoC4/BLE_eventHandler.c **** *  None
 797:Generated_Source\PSoC4/BLE_eventHandler.c **** * 
 798:Generated_Source\PSoC4/BLE_eventHandler.c **** ******************************************************************************/
 799:Generated_Source\PSoC4/BLE_eventHandler.c **** static void CyBle_NotificationEventHandler(CYBLE_GATTC_HANDLE_VALUE_NTF_PARAM_T *eventParam)
 800:Generated_Source\PSoC4/BLE_eventHandler.c **** {
 227              		.loc 1 800 0
 228              		.cfi_startproc
 229              		@ args = 0, pretend = 0, frame = 8
 230              		@ frame_needed = 1, uses_anonymous_args = 0
 231 0000 80B5     		push	{r7, lr}
 232              		.cfi_def_cfa_offset 8
 233              		.cfi_offset 7, -8
 234              		.cfi_offset 14, -4
 235 0002 82B0     		sub	sp, sp, #8
 236              		.cfi_def_cfa_offset 16
 237 0004 00AF     		add	r7, sp, #0
 238              		.cfi_def_cfa_register 7
 239 0006 7860     		str	r0, [r7, #4]
 801:Generated_Source\PSoC4/BLE_eventHandler.c **** #ifdef CYBLE_AIOS_CLIENT
 802:Generated_Source\PSoC4/BLE_eventHandler.c ****     if((cyBle_eventHandlerFlag & CYBLE_CALLBACK) != 0u)
 803:Generated_Source\PSoC4/BLE_eventHandler.c ****     {
 804:Generated_Source\PSoC4/BLE_eventHandler.c ****         CyBle_AioscNotificationEventHandler(eventParam);
 805:Generated_Source\PSoC4/BLE_eventHandler.c ****     }
 806:Generated_Source\PSoC4/BLE_eventHandler.c **** #endif /* CYBLE_AIOS_CLIENT */
 807:Generated_Source\PSoC4/BLE_eventHandler.c **** #ifdef CYBLE_ANCS_CLIENT
 808:Generated_Source\PSoC4/BLE_eventHandler.c ****     CyBle_AncscNotificationEventHandler(eventParam);
 809:Generated_Source\PSoC4/BLE_eventHandler.c **** #endif /* CYBLE_ANCS_CLIENT */
 810:Generated_Source\PSoC4/BLE_eventHandler.c **** #ifdef CYBLE_ANS_CLIENT
 811:Generated_Source\PSoC4/BLE_eventHandler.c ****     if((cyBle_eventHandlerFlag & CYBLE_CALLBACK) != 0u)
 812:Generated_Source\PSoC4/BLE_eventHandler.c ****     {
 813:Generated_Source\PSoC4/BLE_eventHandler.c ****         CyBle_AnscNotificationEventHandler(eventParam);
 814:Generated_Source\PSoC4/BLE_eventHandler.c ****     }
 815:Generated_Source\PSoC4/BLE_eventHandler.c **** #endif /* CYBLE_ANS_CLIENT */
 816:Generated_Source\PSoC4/BLE_eventHandler.c **** #ifdef CYBLE_BAS_CLIENT
 817:Generated_Source\PSoC4/BLE_eventHandler.c ****     if((cyBle_eventHandlerFlag & CYBLE_CALLBACK) != 0u)
 818:Generated_Source\PSoC4/BLE_eventHandler.c ****     {
 819:Generated_Source\PSoC4/BLE_eventHandler.c ****         CyBle_BascNotificationEventHandler(eventParam);
 820:Generated_Source\PSoC4/BLE_eventHandler.c ****     }
 821:Generated_Source\PSoC4/BLE_eventHandler.c **** #endif /* CYBLE_BAS_CLIENT */
 822:Generated_Source\PSoC4/BLE_eventHandler.c **** #ifdef CYBLE_BLS_CLIENT
 823:Generated_Source\PSoC4/BLE_eventHandler.c ****     if((cyBle_eventHandlerFlag & CYBLE_CALLBACK) != 0u)
 824:Generated_Source\PSoC4/BLE_eventHandler.c ****     {
 825:Generated_Source\PSoC4/BLE_eventHandler.c ****         CyBle_BlscNotificationEventHandler(eventParam);
 826:Generated_Source\PSoC4/BLE_eventHandler.c ****     }
 827:Generated_Source\PSoC4/BLE_eventHandler.c **** #endif /* CYBLE_BLS_CLIENT */
 828:Generated_Source\PSoC4/BLE_eventHandler.c **** #ifdef CYBLE_CGMS_CLIENT
 829:Generated_Source\PSoC4/BLE_eventHandler.c ****     if((cyBle_eventHandlerFlag & CYBLE_CALLBACK) != 0u)
 830:Generated_Source\PSoC4/BLE_eventHandler.c ****     {
 831:Generated_Source\PSoC4/BLE_eventHandler.c ****         CyBle_CgmscNotificationEventHandler(eventParam);
 832:Generated_Source\PSoC4/BLE_eventHandler.c ****     }
 833:Generated_Source\PSoC4/BLE_eventHandler.c **** #endif /* CYBLE_CGMS_CLIENT */
 834:Generated_Source\PSoC4/BLE_eventHandler.c **** #ifdef CYBLE_CPS_CLIENT
 835:Generated_Source\PSoC4/BLE_eventHandler.c ****     if((cyBle_eventHandlerFlag & CYBLE_CALLBACK) != 0u)
 836:Generated_Source\PSoC4/BLE_eventHandler.c ****     {
 837:Generated_Source\PSoC4/BLE_eventHandler.c ****         CyBle_CpscNotificationEventHandler(eventParam);
 838:Generated_Source\PSoC4/BLE_eventHandler.c ****     }
 839:Generated_Source\PSoC4/BLE_eventHandler.c **** #endif /* CYBLE_CPS_CLIENT */
ARM GAS  C:\Users\run1009\AppData\Local\Temp\ccSZtXoF.s 			page 20


 840:Generated_Source\PSoC4/BLE_eventHandler.c **** #ifdef CYBLE_CSCS_CLIENT
 841:Generated_Source\PSoC4/BLE_eventHandler.c ****     if((cyBle_eventHandlerFlag & CYBLE_CALLBACK) != 0u)
 842:Generated_Source\PSoC4/BLE_eventHandler.c ****     {
 843:Generated_Source\PSoC4/BLE_eventHandler.c ****         CyBle_CscscNotificationEventHandler(eventParam);
 844:Generated_Source\PSoC4/BLE_eventHandler.c ****     }
 845:Generated_Source\PSoC4/BLE_eventHandler.c **** #endif /* CYBLE_CSCS_CLIENT */
 846:Generated_Source\PSoC4/BLE_eventHandler.c **** #ifdef CYBLE_CTS_CLIENT
 847:Generated_Source\PSoC4/BLE_eventHandler.c ****     if((cyBle_eventHandlerFlag & CYBLE_CALLBACK) != 0u)
 848:Generated_Source\PSoC4/BLE_eventHandler.c ****     {
 849:Generated_Source\PSoC4/BLE_eventHandler.c ****         CyBle_CtscNotificationEventHandler(eventParam);
 850:Generated_Source\PSoC4/BLE_eventHandler.c ****     }
 851:Generated_Source\PSoC4/BLE_eventHandler.c **** #endif /* CYBLE_CTS_CLIENT */
 852:Generated_Source\PSoC4/BLE_eventHandler.c **** #ifdef CYBLE_ESS_CLIENT
 853:Generated_Source\PSoC4/BLE_eventHandler.c ****     if((cyBle_eventHandlerFlag & CYBLE_CALLBACK) != 0u)
 854:Generated_Source\PSoC4/BLE_eventHandler.c ****     {
 855:Generated_Source\PSoC4/BLE_eventHandler.c ****         CyBle_EsscNotificationEventHandler(eventParam);
 856:Generated_Source\PSoC4/BLE_eventHandler.c ****     }
 857:Generated_Source\PSoC4/BLE_eventHandler.c **** #endif /* CYBLE_ESS_CLIENT */
 858:Generated_Source\PSoC4/BLE_eventHandler.c **** #ifdef CYBLE_GLS_CLIENT
 859:Generated_Source\PSoC4/BLE_eventHandler.c ****     if((cyBle_eventHandlerFlag & CYBLE_CALLBACK) != 0u)
 860:Generated_Source\PSoC4/BLE_eventHandler.c ****     {
 861:Generated_Source\PSoC4/BLE_eventHandler.c ****         CyBle_GlscNotificationEventHandler(eventParam);
 862:Generated_Source\PSoC4/BLE_eventHandler.c ****     }
 863:Generated_Source\PSoC4/BLE_eventHandler.c **** #endif /* CYBLE_GLS_CLIENT */
 864:Generated_Source\PSoC4/BLE_eventHandler.c **** #ifdef CYBLE_HIDS_CLIENT
 865:Generated_Source\PSoC4/BLE_eventHandler.c ****     if((cyBle_eventHandlerFlag & CYBLE_CALLBACK) != 0u)
 866:Generated_Source\PSoC4/BLE_eventHandler.c ****     {
 867:Generated_Source\PSoC4/BLE_eventHandler.c ****         CyBle_HidscNotificationEventHandler(eventParam);
 868:Generated_Source\PSoC4/BLE_eventHandler.c ****     }
 869:Generated_Source\PSoC4/BLE_eventHandler.c **** #endif /* CYBLE_HIDS_CLIENT */
 870:Generated_Source\PSoC4/BLE_eventHandler.c **** #ifdef CYBLE_HPS_CLIENT
 871:Generated_Source\PSoC4/BLE_eventHandler.c ****     if((cyBle_eventHandlerFlag & CYBLE_CALLBACK) != 0u)
 872:Generated_Source\PSoC4/BLE_eventHandler.c ****     {
 873:Generated_Source\PSoC4/BLE_eventHandler.c ****         CyBle_HpscNotificationEventHandler(eventParam);
 874:Generated_Source\PSoC4/BLE_eventHandler.c ****     }
 875:Generated_Source\PSoC4/BLE_eventHandler.c **** #endif /* CYBLE_HPS_CLIENT */
 876:Generated_Source\PSoC4/BLE_eventHandler.c **** #ifdef CYBLE_HRS_CLIENT
 877:Generated_Source\PSoC4/BLE_eventHandler.c ****     if((cyBle_eventHandlerFlag & CYBLE_CALLBACK) != 0u)
 878:Generated_Source\PSoC4/BLE_eventHandler.c ****     {
 879:Generated_Source\PSoC4/BLE_eventHandler.c ****         CyBle_HrscNotificationEventHandler(eventParam);
 880:Generated_Source\PSoC4/BLE_eventHandler.c ****     }
 881:Generated_Source\PSoC4/BLE_eventHandler.c **** #endif /* CYBLE_HRS_CLIENT */
 882:Generated_Source\PSoC4/BLE_eventHandler.c **** #ifdef CYBLE_HTS_CLIENT
 883:Generated_Source\PSoC4/BLE_eventHandler.c ****     if((cyBle_eventHandlerFlag & CYBLE_CALLBACK) != 0u)
 884:Generated_Source\PSoC4/BLE_eventHandler.c ****     {
 885:Generated_Source\PSoC4/BLE_eventHandler.c ****         CyBle_HtscNotificationEventHandler(eventParam);
 886:Generated_Source\PSoC4/BLE_eventHandler.c ****     }
 887:Generated_Source\PSoC4/BLE_eventHandler.c **** #endif /* CYBLE_HTS_CLIENT */
 888:Generated_Source\PSoC4/BLE_eventHandler.c **** #ifdef CYBLE_LNS_CLIENT
 889:Generated_Source\PSoC4/BLE_eventHandler.c ****     if((cyBle_eventHandlerFlag & CYBLE_CALLBACK) != 0u)
 890:Generated_Source\PSoC4/BLE_eventHandler.c ****     {
 891:Generated_Source\PSoC4/BLE_eventHandler.c ****         CyBle_LnscNotificationEventHandler(eventParam);
 892:Generated_Source\PSoC4/BLE_eventHandler.c ****     }
 893:Generated_Source\PSoC4/BLE_eventHandler.c **** #endif /* CYBLE_LNS_CLIENT */
 894:Generated_Source\PSoC4/BLE_eventHandler.c **** #ifdef CYBLE_PASS_CLIENT
 895:Generated_Source\PSoC4/BLE_eventHandler.c ****     if((cyBle_eventHandlerFlag & CYBLE_CALLBACK) != 0u)
 896:Generated_Source\PSoC4/BLE_eventHandler.c ****     {
ARM GAS  C:\Users\run1009\AppData\Local\Temp\ccSZtXoF.s 			page 21


 897:Generated_Source\PSoC4/BLE_eventHandler.c ****         CyBle_PasscNotificationEventHandler(eventParam);
 898:Generated_Source\PSoC4/BLE_eventHandler.c ****     }
 899:Generated_Source\PSoC4/BLE_eventHandler.c **** #endif /* CYBLE_PASS_CLIENT */
 900:Generated_Source\PSoC4/BLE_eventHandler.c **** #ifdef CYBLE_PLXS_CLIENT
 901:Generated_Source\PSoC4/BLE_eventHandler.c ****     if((cyBle_eventHandlerFlag & CYBLE_CALLBACK) != 0u)
 902:Generated_Source\PSoC4/BLE_eventHandler.c ****     {
 903:Generated_Source\PSoC4/BLE_eventHandler.c ****         CyBle_PlxscNotificationEventHandler(eventParam);
 904:Generated_Source\PSoC4/BLE_eventHandler.c ****     }
 905:Generated_Source\PSoC4/BLE_eventHandler.c **** #endif /* CYBLE_PLXS_CLIENT */
 906:Generated_Source\PSoC4/BLE_eventHandler.c **** #ifdef CYBLE_RSCS_CLIENT
 907:Generated_Source\PSoC4/BLE_eventHandler.c ****     if((cyBle_eventHandlerFlag & CYBLE_CALLBACK) != 0u)
 908:Generated_Source\PSoC4/BLE_eventHandler.c ****     {
 909:Generated_Source\PSoC4/BLE_eventHandler.c ****         CyBle_RscscNotificationEventHandler(eventParam);
 910:Generated_Source\PSoC4/BLE_eventHandler.c ****     }
 911:Generated_Source\PSoC4/BLE_eventHandler.c **** #endif /* CYBLE_RSCS_CLIENT */
 912:Generated_Source\PSoC4/BLE_eventHandler.c **** #ifdef CYBLE_SCPS_CLIENT
 913:Generated_Source\PSoC4/BLE_eventHandler.c ****     if((cyBle_eventHandlerFlag & CYBLE_CALLBACK) != 0u)
 914:Generated_Source\PSoC4/BLE_eventHandler.c ****     {
 915:Generated_Source\PSoC4/BLE_eventHandler.c ****         CyBle_ScpscNotificationEventHandler(eventParam);
 916:Generated_Source\PSoC4/BLE_eventHandler.c ****     }
 917:Generated_Source\PSoC4/BLE_eventHandler.c **** #endif /* CYBLE_SCPS_CLIENT */
 918:Generated_Source\PSoC4/BLE_eventHandler.c **** #ifdef CYBLE_TPS_CLIENT
 919:Generated_Source\PSoC4/BLE_eventHandler.c ****     if((cyBle_eventHandlerFlag & CYBLE_CALLBACK) != 0u)
 920:Generated_Source\PSoC4/BLE_eventHandler.c ****     {
 921:Generated_Source\PSoC4/BLE_eventHandler.c ****         CyBle_TpscNotificationEventHandler(eventParam);
 922:Generated_Source\PSoC4/BLE_eventHandler.c ****     }
 923:Generated_Source\PSoC4/BLE_eventHandler.c **** #endif /* CYBLE_TPS_CLIENT */
 924:Generated_Source\PSoC4/BLE_eventHandler.c **** #ifdef CYBLE_UDS_CLIENT
 925:Generated_Source\PSoC4/BLE_eventHandler.c ****     if((cyBle_eventHandlerFlag & CYBLE_CALLBACK) != 0u)
 926:Generated_Source\PSoC4/BLE_eventHandler.c ****     {
 927:Generated_Source\PSoC4/BLE_eventHandler.c ****         CyBle_UdscNotificationEventHandler(eventParam);
 928:Generated_Source\PSoC4/BLE_eventHandler.c ****     }
 929:Generated_Source\PSoC4/BLE_eventHandler.c **** #endif /* CYBLE_UDS_CLIENT */
 930:Generated_Source\PSoC4/BLE_eventHandler.c **** #ifdef CYBLE_WPTS_CLIENT
 931:Generated_Source\PSoC4/BLE_eventHandler.c ****     if((cyBle_eventHandlerFlag & CYBLE_CALLBACK) != 0u)
 932:Generated_Source\PSoC4/BLE_eventHandler.c ****     {
 933:Generated_Source\PSoC4/BLE_eventHandler.c ****         CyBle_WptscNotificationEventHandler(eventParam);
 934:Generated_Source\PSoC4/BLE_eventHandler.c ****     }
 935:Generated_Source\PSoC4/BLE_eventHandler.c **** #endif /* CYBLE_WPTS_CLIENT */
 936:Generated_Source\PSoC4/BLE_eventHandler.c **** }
 240              		.loc 1 936 0
 241 0008 C046     		nop
 242 000a BD46     		mov	sp, r7
 243 000c 02B0     		add	sp, sp, #8
 244              		@ sp needed
 245 000e 80BD     		pop	{r7, pc}
 246              		.cfi_endproc
 247              	.LFE5:
 248              		.size	CyBle_NotificationEventHandler, .-CyBle_NotificationEventHandler
 249              		.section	.text.CyBle_IndicationEventHandler,"ax",%progbits
 250              		.align	2
 251              		.code	16
 252              		.thumb_func
 253              		.type	CyBle_IndicationEventHandler, %function
 254              	CyBle_IndicationEventHandler:
 255              	.LFB6:
 937:Generated_Source\PSoC4/BLE_eventHandler.c **** 
ARM GAS  C:\Users\run1009\AppData\Local\Temp\ccSZtXoF.s 			page 22


 938:Generated_Source\PSoC4/BLE_eventHandler.c **** 
 939:Generated_Source\PSoC4/BLE_eventHandler.c **** /******************************************************************************    
 940:Generated_Source\PSoC4/BLE_eventHandler.c **** * Function Name: CyBle_IndicationEventHandler
 941:Generated_Source\PSoC4/BLE_eventHandler.c **** ***************************************************************************//**
 942:Generated_Source\PSoC4/BLE_eventHandler.c **** * 
 943:Generated_Source\PSoC4/BLE_eventHandler.c **** *  Handles the Indication event from BLE stack.
 944:Generated_Source\PSoC4/BLE_eventHandler.c **** * 
 945:Generated_Source\PSoC4/BLE_eventHandler.c **** *  \param eventParam: event parameter
 946:Generated_Source\PSoC4/BLE_eventHandler.c **** * 
 947:Generated_Source\PSoC4/BLE_eventHandler.c **** * \return
 948:Generated_Source\PSoC4/BLE_eventHandler.c **** *  None
 949:Generated_Source\PSoC4/BLE_eventHandler.c **** * 
 950:Generated_Source\PSoC4/BLE_eventHandler.c **** ******************************************************************************/
 951:Generated_Source\PSoC4/BLE_eventHandler.c **** static void CyBle_IndicationEventHandler(CYBLE_GATTC_HANDLE_VALUE_IND_PARAM_T *eventParam)
 952:Generated_Source\PSoC4/BLE_eventHandler.c **** {
 256              		.loc 1 952 0
 257              		.cfi_startproc
 258              		@ args = 0, pretend = 0, frame = 8
 259              		@ frame_needed = 1, uses_anonymous_args = 0
 260 0000 80B5     		push	{r7, lr}
 261              		.cfi_def_cfa_offset 8
 262              		.cfi_offset 7, -8
 263              		.cfi_offset 14, -4
 264 0002 82B0     		sub	sp, sp, #8
 265              		.cfi_def_cfa_offset 16
 266 0004 00AF     		add	r7, sp, #0
 267              		.cfi_def_cfa_register 7
 268 0006 7860     		str	r0, [r7, #4]
 953:Generated_Source\PSoC4/BLE_eventHandler.c **** #ifdef CYBLE_AIOS_CLIENT
 954:Generated_Source\PSoC4/BLE_eventHandler.c ****     if((cyBle_eventHandlerFlag & CYBLE_CALLBACK) != 0u)
 955:Generated_Source\PSoC4/BLE_eventHandler.c ****     {
 956:Generated_Source\PSoC4/BLE_eventHandler.c ****         CyBle_AioscIndicationEventHandler(eventParam);
 957:Generated_Source\PSoC4/BLE_eventHandler.c ****     }
 958:Generated_Source\PSoC4/BLE_eventHandler.c **** #endif /* CYBLE_AIOS_CLIENT */
 959:Generated_Source\PSoC4/BLE_eventHandler.c **** #ifdef CYBLE_BCS_CLIENT
 960:Generated_Source\PSoC4/BLE_eventHandler.c ****     if((cyBle_eventHandlerFlag & CYBLE_CALLBACK) != 0u)
 961:Generated_Source\PSoC4/BLE_eventHandler.c ****     {
 962:Generated_Source\PSoC4/BLE_eventHandler.c ****         CyBle_BcscIndicationEventHandler(eventParam);
 963:Generated_Source\PSoC4/BLE_eventHandler.c ****     }
 964:Generated_Source\PSoC4/BLE_eventHandler.c **** #endif /* CYBLE_BCS_CLIENT */
 965:Generated_Source\PSoC4/BLE_eventHandler.c **** #ifdef CYBLE_BLS_CLIENT
 966:Generated_Source\PSoC4/BLE_eventHandler.c ****     if((cyBle_eventHandlerFlag & CYBLE_CALLBACK) != 0u)
 967:Generated_Source\PSoC4/BLE_eventHandler.c ****     {
 968:Generated_Source\PSoC4/BLE_eventHandler.c ****         CyBle_BlscIndicationEventHandler(eventParam);
 969:Generated_Source\PSoC4/BLE_eventHandler.c ****     }
 970:Generated_Source\PSoC4/BLE_eventHandler.c **** #endif /* CYBLE_BLS_CLIENT */
 971:Generated_Source\PSoC4/BLE_eventHandler.c **** #ifdef CYBLE_CGMS_CLIENT
 972:Generated_Source\PSoC4/BLE_eventHandler.c ****     if((cyBle_eventHandlerFlag & CYBLE_CALLBACK) != 0u)
 973:Generated_Source\PSoC4/BLE_eventHandler.c ****     {
 974:Generated_Source\PSoC4/BLE_eventHandler.c ****         CyBle_CgmscIndicationEventHandler(eventParam);
 975:Generated_Source\PSoC4/BLE_eventHandler.c ****     }
 976:Generated_Source\PSoC4/BLE_eventHandler.c **** #endif /* CYBLE_CGMS_CLIENT */
 977:Generated_Source\PSoC4/BLE_eventHandler.c **** #ifdef CYBLE_CPS_CLIENT
 978:Generated_Source\PSoC4/BLE_eventHandler.c ****     if((cyBle_eventHandlerFlag & CYBLE_CALLBACK) != 0u)
 979:Generated_Source\PSoC4/BLE_eventHandler.c ****     {
 980:Generated_Source\PSoC4/BLE_eventHandler.c ****         CyBle_CpscIndicationEventHandler(eventParam);
 981:Generated_Source\PSoC4/BLE_eventHandler.c ****     }
ARM GAS  C:\Users\run1009\AppData\Local\Temp\ccSZtXoF.s 			page 23


 982:Generated_Source\PSoC4/BLE_eventHandler.c **** #endif /* CYBLE_CPS_CLIENT */
 983:Generated_Source\PSoC4/BLE_eventHandler.c **** #ifdef CYBLE_CSCS_CLIENT
 984:Generated_Source\PSoC4/BLE_eventHandler.c ****     if((cyBle_eventHandlerFlag & CYBLE_CALLBACK) != 0u)
 985:Generated_Source\PSoC4/BLE_eventHandler.c ****     {
 986:Generated_Source\PSoC4/BLE_eventHandler.c ****         CyBle_CscscIndicationEventHandler(eventParam);
 987:Generated_Source\PSoC4/BLE_eventHandler.c ****     }
 988:Generated_Source\PSoC4/BLE_eventHandler.c **** #endif /* CYBLE_CSCS_CLIENT */
 989:Generated_Source\PSoC4/BLE_eventHandler.c **** #ifdef CYBLE_ESS_CLIENT
 990:Generated_Source\PSoC4/BLE_eventHandler.c ****     if((cyBle_eventHandlerFlag & CYBLE_CALLBACK) != 0u)
 991:Generated_Source\PSoC4/BLE_eventHandler.c ****     {
 992:Generated_Source\PSoC4/BLE_eventHandler.c ****         CyBle_EsscIndicationEventHandler(eventParam);
 993:Generated_Source\PSoC4/BLE_eventHandler.c ****     }
 994:Generated_Source\PSoC4/BLE_eventHandler.c **** #endif /* CYBLE_ESS_CLIENT */
 995:Generated_Source\PSoC4/BLE_eventHandler.c **** #ifdef CYBLE_GLS_CLIENT
 996:Generated_Source\PSoC4/BLE_eventHandler.c ****     if((cyBle_eventHandlerFlag & CYBLE_CALLBACK) != 0u)
 997:Generated_Source\PSoC4/BLE_eventHandler.c ****     {
 998:Generated_Source\PSoC4/BLE_eventHandler.c ****         CyBle_GlscIndicationEventHandler(eventParam);
 999:Generated_Source\PSoC4/BLE_eventHandler.c ****     }
1000:Generated_Source\PSoC4/BLE_eventHandler.c **** #endif /* CYBLE_GLS_CLIENT */
1001:Generated_Source\PSoC4/BLE_eventHandler.c **** #ifdef CYBLE_HTS_CLIENT
1002:Generated_Source\PSoC4/BLE_eventHandler.c ****     if((cyBle_eventHandlerFlag & CYBLE_CALLBACK) != 0u)
1003:Generated_Source\PSoC4/BLE_eventHandler.c ****     {
1004:Generated_Source\PSoC4/BLE_eventHandler.c ****         CyBle_HtscIndicationEventHandler(eventParam);
1005:Generated_Source\PSoC4/BLE_eventHandler.c ****     }
1006:Generated_Source\PSoC4/BLE_eventHandler.c **** #endif /* CYBLE_HTS_CLIENT */
1007:Generated_Source\PSoC4/BLE_eventHandler.c **** #ifdef CYBLE_LNS_CLIENT
1008:Generated_Source\PSoC4/BLE_eventHandler.c ****     if((cyBle_eventHandlerFlag & CYBLE_CALLBACK) != 0u)
1009:Generated_Source\PSoC4/BLE_eventHandler.c ****     {
1010:Generated_Source\PSoC4/BLE_eventHandler.c ****         CyBle_LnscIndicationEventHandler(eventParam);
1011:Generated_Source\PSoC4/BLE_eventHandler.c ****     }
1012:Generated_Source\PSoC4/BLE_eventHandler.c **** #endif /* CYBLE_LNS_CLIENT */
1013:Generated_Source\PSoC4/BLE_eventHandler.c **** #ifdef CYBLE_PLXS_CLIENT
1014:Generated_Source\PSoC4/BLE_eventHandler.c ****     if((cyBle_eventHandlerFlag & CYBLE_CALLBACK) != 0u)
1015:Generated_Source\PSoC4/BLE_eventHandler.c ****     {
1016:Generated_Source\PSoC4/BLE_eventHandler.c ****         CyBle_PlxscIndicationEventHandler(eventParam);
1017:Generated_Source\PSoC4/BLE_eventHandler.c ****     }
1018:Generated_Source\PSoC4/BLE_eventHandler.c **** #endif /* CYBLE_PLXS_CLIENT */
1019:Generated_Source\PSoC4/BLE_eventHandler.c **** #ifdef CYBLE_RSCS_CLIENT
1020:Generated_Source\PSoC4/BLE_eventHandler.c ****     if((cyBle_eventHandlerFlag & CYBLE_CALLBACK) != 0u)
1021:Generated_Source\PSoC4/BLE_eventHandler.c ****     {
1022:Generated_Source\PSoC4/BLE_eventHandler.c ****         CyBle_RscscIndicationEventHandler(eventParam);
1023:Generated_Source\PSoC4/BLE_eventHandler.c ****     }
1024:Generated_Source\PSoC4/BLE_eventHandler.c **** #endif /* CYBLE_RSCS_CLIENT */
1025:Generated_Source\PSoC4/BLE_eventHandler.c **** #ifdef CYBLE_UDS_CLIENT
1026:Generated_Source\PSoC4/BLE_eventHandler.c ****     if((cyBle_eventHandlerFlag & CYBLE_CALLBACK) != 0u)
1027:Generated_Source\PSoC4/BLE_eventHandler.c ****     {
1028:Generated_Source\PSoC4/BLE_eventHandler.c ****         CyBle_UdscIndicationEventHandler(eventParam);
1029:Generated_Source\PSoC4/BLE_eventHandler.c ****     }
1030:Generated_Source\PSoC4/BLE_eventHandler.c **** #endif /* CYBLE_UDS_CLIENT */
1031:Generated_Source\PSoC4/BLE_eventHandler.c **** #ifdef CYBLE_WPTS_CLIENT
1032:Generated_Source\PSoC4/BLE_eventHandler.c ****     if((cyBle_eventHandlerFlag & CYBLE_CALLBACK) != 0u)
1033:Generated_Source\PSoC4/BLE_eventHandler.c ****     {
1034:Generated_Source\PSoC4/BLE_eventHandler.c ****         CyBle_WptscIndicationEventHandler(eventParam);
1035:Generated_Source\PSoC4/BLE_eventHandler.c ****     }
1036:Generated_Source\PSoC4/BLE_eventHandler.c **** #endif /* CYBLE_WPTS_CLIENT */
1037:Generated_Source\PSoC4/BLE_eventHandler.c **** #ifdef CYBLE_WSS_CLIENT
1038:Generated_Source\PSoC4/BLE_eventHandler.c ****     if((cyBle_eventHandlerFlag & CYBLE_CALLBACK) != 0u)
ARM GAS  C:\Users\run1009\AppData\Local\Temp\ccSZtXoF.s 			page 24


1039:Generated_Source\PSoC4/BLE_eventHandler.c ****     {
1040:Generated_Source\PSoC4/BLE_eventHandler.c ****         CyBle_WsscIndicationEventHandler(eventParam);
1041:Generated_Source\PSoC4/BLE_eventHandler.c ****     }
1042:Generated_Source\PSoC4/BLE_eventHandler.c **** #endif /* CYBLE_WSS_CLIENT */
1043:Generated_Source\PSoC4/BLE_eventHandler.c **** }
 269              		.loc 1 1043 0
 270 0008 C046     		nop
 271 000a BD46     		mov	sp, r7
 272 000c 02B0     		add	sp, sp, #8
 273              		@ sp needed
 274 000e 80BD     		pop	{r7, pc}
 275              		.cfi_endproc
 276              	.LFE6:
 277              		.size	CyBle_IndicationEventHandler, .-CyBle_IndicationEventHandler
 278              		.section	.text.CyBle_ReadResponseEventHandler,"ax",%progbits
 279              		.align	2
 280              		.code	16
 281              		.thumb_func
 282              		.type	CyBle_ReadResponseEventHandler, %function
 283              	CyBle_ReadResponseEventHandler:
 284              	.LFB7:
1044:Generated_Source\PSoC4/BLE_eventHandler.c **** 
1045:Generated_Source\PSoC4/BLE_eventHandler.c **** /******************************************************************************    
1046:Generated_Source\PSoC4/BLE_eventHandler.c **** * Function Name: CyBle_ReadResponseEventHandler
1047:Generated_Source\PSoC4/BLE_eventHandler.c **** ***************************************************************************//**
1048:Generated_Source\PSoC4/BLE_eventHandler.c **** * 
1049:Generated_Source\PSoC4/BLE_eventHandler.c **** *  Handles the Read Response event from BLE stack.
1050:Generated_Source\PSoC4/BLE_eventHandler.c **** * 
1051:Generated_Source\PSoC4/BLE_eventHandler.c **** *  \param eventParam: event parameter
1052:Generated_Source\PSoC4/BLE_eventHandler.c **** * 
1053:Generated_Source\PSoC4/BLE_eventHandler.c **** * \return
1054:Generated_Source\PSoC4/BLE_eventHandler.c **** *  None
1055:Generated_Source\PSoC4/BLE_eventHandler.c **** * 
1056:Generated_Source\PSoC4/BLE_eventHandler.c **** ******************************************************************************/
1057:Generated_Source\PSoC4/BLE_eventHandler.c **** static void CyBle_ReadResponseEventHandler(CYBLE_GATTC_READ_RSP_PARAM_T *eventParam)
1058:Generated_Source\PSoC4/BLE_eventHandler.c **** {
 285              		.loc 1 1058 0
 286              		.cfi_startproc
 287              		@ args = 0, pretend = 0, frame = 32
 288              		@ frame_needed = 1, uses_anonymous_args = 0
 289 0000 80B5     		push	{r7, lr}
 290              		.cfi_def_cfa_offset 8
 291              		.cfi_offset 7, -8
 292              		.cfi_offset 14, -4
 293 0002 88B0     		sub	sp, sp, #32
 294              		.cfi_def_cfa_offset 40
 295 0004 00AF     		add	r7, sp, #0
 296              		.cfi_def_cfa_register 7
 297 0006 7860     		str	r0, [r7, #4]
1059:Generated_Source\PSoC4/BLE_eventHandler.c **** #ifdef CYBLE_CUSTOM_CLIENT
1060:Generated_Source\PSoC4/BLE_eventHandler.c ****     /* Read response with 128-bit included service uuid */
1061:Generated_Source\PSoC4/BLE_eventHandler.c ****     if((CyBle_GetClientState() == CYBLE_CLIENT_STATE_INCL_DISCOVERING) &&
 298              		.loc 1 1061 0
 299 0008 394B     		ldr	r3, .L17
 300 000a 1B78     		ldrb	r3, [r3]
 301 000c 022B     		cmp	r3, #2
 302 000e 6AD1     		bne	.L16
ARM GAS  C:\Users\run1009\AppData\Local\Temp\ccSZtXoF.s 			page 25


1062:Generated_Source\PSoC4/BLE_eventHandler.c ****        (cyBle_discInclInfo.inclDefHandle != 0u))
 303              		.loc 1 1062 0 discriminator 1
 304 0010 384B     		ldr	r3, .L17+4
 305 0012 1B88     		ldrh	r3, [r3]
1061:Generated_Source\PSoC4/BLE_eventHandler.c ****        (cyBle_discInclInfo.inclDefHandle != 0u))
 306              		.loc 1 1061 0 discriminator 1
 307 0014 002B     		cmp	r3, #0
 308 0016 66D0     		beq	.L16
 309              	.LBB3:
1063:Generated_Source\PSoC4/BLE_eventHandler.c ****     {
1064:Generated_Source\PSoC4/BLE_eventHandler.c ****         CYBLE_DISC_SRVC128_INFO_T discServInfo;
1065:Generated_Source\PSoC4/BLE_eventHandler.c **** 
1066:Generated_Source\PSoC4/BLE_eventHandler.c ****         /* Store service range */
1067:Generated_Source\PSoC4/BLE_eventHandler.c ****         discServInfo.range = cyBle_discInclInfo.inclHandleRange;
 310              		.loc 1 1067 0
 311 0018 0823     		movs	r3, #8
 312 001a F918     		adds	r1, r7, r3
 313 001c 354B     		ldr	r3, .L17+4
 314 001e 0222     		movs	r2, #2
 315 0020 0800     		movs	r0, r1
 316 0022 9B18     		adds	r3, r3, r2
 317 0024 0422     		movs	r2, #4
 318 0026 1900     		movs	r1, r3
 319 0028 FFF7FEFF 		bl	memcpy
1068:Generated_Source\PSoC4/BLE_eventHandler.c ****         (void)memcpy((void *) discServInfo.uuid.uuid128.value, (void *)eventParam->value.val, event
 320              		.loc 1 1068 0
 321 002c 7B68     		ldr	r3, [r7, #4]
 322 002e 5968     		ldr	r1, [r3, #4]
 323 0030 7B68     		ldr	r3, [r7, #4]
 324 0032 1B89     		ldrh	r3, [r3, #8]
 325 0034 1A00     		movs	r2, r3
 326 0036 0823     		movs	r3, #8
 327 0038 FB18     		adds	r3, r7, r3
 328 003a 0433     		adds	r3, r3, #4
 329 003c 1800     		movs	r0, r3
 330 003e FFF7FEFF 		bl	memcpy
1069:Generated_Source\PSoC4/BLE_eventHandler.c ****         CyBle_CustomcDiscoverServiceEventHandler(&discServInfo);
 331              		.loc 1 1069 0
 332 0042 0823     		movs	r3, #8
 333 0044 FB18     		adds	r3, r7, r3
 334 0046 1800     		movs	r0, r3
 335 0048 FFF7FEFF 		bl	CyBle_CustomcDiscoverServiceEventHandler
1070:Generated_Source\PSoC4/BLE_eventHandler.c ****         
1071:Generated_Source\PSoC4/BLE_eventHandler.c ****         /* Re-initiate CyBle_GattcFindIncludedServices function, setting the start
1072:Generated_Source\PSoC4/BLE_eventHandler.c ****            handle to the attribute handle which is placed next to the one used in
1073:Generated_Source\PSoC4/BLE_eventHandler.c ****            the above step.
1074:Generated_Source\PSoC4/BLE_eventHandler.c ****         */
1075:Generated_Source\PSoC4/BLE_eventHandler.c ****         discServInfo.range.startHandle = cyBle_discInclInfo.inclDefHandle + 1u;
 336              		.loc 1 1075 0
 337 004c 294B     		ldr	r3, .L17+4
 338 004e 1B88     		ldrh	r3, [r3]
 339 0050 0133     		adds	r3, r3, #1
 340 0052 9AB2     		uxth	r2, r3
 341 0054 0823     		movs	r3, #8
 342 0056 FB18     		adds	r3, r7, r3
 343 0058 1A80     		strh	r2, [r3]
1076:Generated_Source\PSoC4/BLE_eventHandler.c ****         discServInfo.range.endHandle = cyBle_serverInfo[cyBle_disCount].range.endHandle;
ARM GAS  C:\Users\run1009\AppData\Local\Temp\ccSZtXoF.s 			page 26


 344              		.loc 1 1076 0
 345 005a 274B     		ldr	r3, .L17+8
 346 005c 1B78     		ldrb	r3, [r3]
 347 005e 1900     		movs	r1, r3
 348 0060 264A     		ldr	r2, .L17+12
 349 0062 0B00     		movs	r3, r1
 350 0064 5B00     		lsls	r3, r3, #1
 351 0066 5B18     		adds	r3, r3, r1
 352 0068 5B00     		lsls	r3, r3, #1
 353 006a D318     		adds	r3, r2, r3
 354 006c 0233     		adds	r3, r3, #2
 355 006e 1A88     		ldrh	r2, [r3]
 356 0070 0823     		movs	r3, #8
 357 0072 FB18     		adds	r3, r7, r3
 358 0074 5A80     		strh	r2, [r3, #2]
1077:Generated_Source\PSoC4/BLE_eventHandler.c ****         if(discServInfo.range.startHandle <= discServInfo.range.endHandle)
 359              		.loc 1 1077 0
 360 0076 0823     		movs	r3, #8
 361 0078 FB18     		adds	r3, r7, r3
 362 007a 1A88     		ldrh	r2, [r3]
 363 007c 0823     		movs	r3, #8
 364 007e FB18     		adds	r3, r7, r3
 365 0080 5B88     		ldrh	r3, [r3, #2]
 366 0082 9A42     		cmp	r2, r3
 367 0084 21D8     		bhi	.L13
1078:Generated_Source\PSoC4/BLE_eventHandler.c ****         {
1079:Generated_Source\PSoC4/BLE_eventHandler.c ****             if(CYBLE_ERROR_OK != CyBle_GattcFindIncludedServices(cyBle_connHandle, &discServInfo.ra
 368              		.loc 1 1079 0
 369 0086 0823     		movs	r3, #8
 370 0088 F918     		adds	r1, r7, r3
 371 008a 1D4B     		ldr	r3, .L17+16
 372 008c 1A78     		ldrb	r2, [r3]
 373 008e 5B78     		ldrb	r3, [r3, #1]
 374 0090 1B02     		lsls	r3, r3, #8
 375 0092 1A43     		orrs	r2, r3
 376 0094 0023     		movs	r3, #0
 377 0096 1204     		lsls	r2, r2, #16
 378 0098 120C     		lsrs	r2, r2, #16
 379 009a 1B0C     		lsrs	r3, r3, #16
 380 009c 1B04     		lsls	r3, r3, #16
 381 009e 1343     		orrs	r3, r2
 382 00a0 1800     		movs	r0, r3
 383 00a2 FFF7FEFF 		bl	CyBle_GattcFindIncludedServices
 384 00a6 031E     		subs	r3, r0, #0
 385 00a8 12D0     		beq	.L15
1080:Generated_Source\PSoC4/BLE_eventHandler.c ****             {
1081:Generated_Source\PSoC4/BLE_eventHandler.c ****                 CyBle_ApplCallback(CYBLE_EVT_GATTC_INCL_DISCOVERY_FAILED, NULL);
 386              		.loc 1 1081 0
 387 00aa 164B     		ldr	r3, .L17+20
 388 00ac 1B68     		ldr	r3, [r3]
 389 00ae 8422     		movs	r2, #132
 390 00b0 5200     		lsls	r2, r2, #1
 391 00b2 0021     		movs	r1, #0
 392 00b4 1000     		movs	r0, r2
 393 00b6 9847     		blx	r3
1082:Generated_Source\PSoC4/BLE_eventHandler.c ****                 cyBle_eventHandlerFlag &= (uint8)~CYBLE_AUTO_DISCOVERY;
 394              		.loc 1 1082 0
ARM GAS  C:\Users\run1009\AppData\Local\Temp\ccSZtXoF.s 			page 27


 395 00b8 134B     		ldr	r3, .L17+24
 396 00ba 1B78     		ldrb	r3, [r3]
 397 00bc DBB2     		uxtb	r3, r3
 398 00be 0222     		movs	r2, #2
 399 00c0 9343     		bics	r3, r2
 400 00c2 DAB2     		uxtb	r2, r3
 401 00c4 104B     		ldr	r3, .L17+24
 402 00c6 1A70     		strb	r2, [r3]
 403 00c8 02E0     		b	.L15
 404              	.L13:
1083:Generated_Source\PSoC4/BLE_eventHandler.c ****             }
1084:Generated_Source\PSoC4/BLE_eventHandler.c ****         }
1085:Generated_Source\PSoC4/BLE_eventHandler.c ****         else /* Continue discovery of the following service */
1086:Generated_Source\PSoC4/BLE_eventHandler.c ****         {
1087:Generated_Source\PSoC4/BLE_eventHandler.c ****             CyBle_NextInclDiscovery(CYBLE_DISCOVERY_CONTINUE);
 405              		.loc 1 1087 0
 406 00ca 0120     		movs	r0, #1
 407 00cc FFF7FEFF 		bl	CyBle_NextInclDiscovery
 408              	.L15:
1088:Generated_Source\PSoC4/BLE_eventHandler.c ****         }
1089:Generated_Source\PSoC4/BLE_eventHandler.c ****         
1090:Generated_Source\PSoC4/BLE_eventHandler.c ****         cyBle_eventHandlerFlag &= (uint8)~CYBLE_CALLBACK;
 409              		.loc 1 1090 0 discriminator 1
 410 00d0 0D4B     		ldr	r3, .L17+24
 411 00d2 1B78     		ldrb	r3, [r3]
 412 00d4 DBB2     		uxtb	r3, r3
 413 00d6 0122     		movs	r2, #1
 414 00d8 9343     		bics	r3, r2
 415 00da DAB2     		uxtb	r2, r3
 416 00dc 0A4B     		ldr	r3, .L17+24
 417 00de 1A70     		strb	r2, [r3]
1091:Generated_Source\PSoC4/BLE_eventHandler.c ****     #ifdef CYBLE_CUSTOM_CLIENT
1092:Generated_Source\PSoC4/BLE_eventHandler.c ****         cyBle_discInclInfo.inclDefHandle = 0u;
 418              		.loc 1 1092 0 discriminator 1
 419 00e0 044B     		ldr	r3, .L17+4
 420 00e2 0022     		movs	r2, #0
 421 00e4 1A80     		strh	r2, [r3]
 422              	.L16:
 423              	.LBE3:
1093:Generated_Source\PSoC4/BLE_eventHandler.c ****     #endif /* CYBLE_CUSTOM_CLIENT */
1094:Generated_Source\PSoC4/BLE_eventHandler.c ****     }
1095:Generated_Source\PSoC4/BLE_eventHandler.c **** #endif /* CYBLE_CUSTOM_CLIENT */
1096:Generated_Source\PSoC4/BLE_eventHandler.c **** #ifdef CYBLE_AIOS_CLIENT
1097:Generated_Source\PSoC4/BLE_eventHandler.c ****     if((cyBle_eventHandlerFlag & CYBLE_CALLBACK) != 0u)
1098:Generated_Source\PSoC4/BLE_eventHandler.c ****     {
1099:Generated_Source\PSoC4/BLE_eventHandler.c ****         CyBle_AioscReadResponseEventHandler(eventParam);
1100:Generated_Source\PSoC4/BLE_eventHandler.c ****     }
1101:Generated_Source\PSoC4/BLE_eventHandler.c **** #endif /* CYBLE_AIOS_CLIENT */
1102:Generated_Source\PSoC4/BLE_eventHandler.c **** #ifdef CYBLE_ANCS_CLIENT
1103:Generated_Source\PSoC4/BLE_eventHandler.c ****     if((cyBle_eventHandlerFlag & CYBLE_CALLBACK) != 0u)
1104:Generated_Source\PSoC4/BLE_eventHandler.c ****     {
1105:Generated_Source\PSoC4/BLE_eventHandler.c ****         CyBle_AncscReadResponseEventHandler(eventParam);
1106:Generated_Source\PSoC4/BLE_eventHandler.c ****     }
1107:Generated_Source\PSoC4/BLE_eventHandler.c **** #endif /* CYBLE_ANCS_CLIENT */
1108:Generated_Source\PSoC4/BLE_eventHandler.c **** #ifdef CYBLE_ANS_CLIENT
1109:Generated_Source\PSoC4/BLE_eventHandler.c ****     if((cyBle_eventHandlerFlag & CYBLE_CALLBACK) != 0u)
1110:Generated_Source\PSoC4/BLE_eventHandler.c ****     {
ARM GAS  C:\Users\run1009\AppData\Local\Temp\ccSZtXoF.s 			page 28


1111:Generated_Source\PSoC4/BLE_eventHandler.c ****         CyBle_AnscReadResponseEventHandler(eventParam);
1112:Generated_Source\PSoC4/BLE_eventHandler.c ****     }
1113:Generated_Source\PSoC4/BLE_eventHandler.c **** #endif /* CYBLE_ANS_CLIENT */
1114:Generated_Source\PSoC4/BLE_eventHandler.c **** #ifdef CYBLE_BAS_CLIENT
1115:Generated_Source\PSoC4/BLE_eventHandler.c ****     if((cyBle_eventHandlerFlag & CYBLE_CALLBACK) != 0u)
1116:Generated_Source\PSoC4/BLE_eventHandler.c ****     {
1117:Generated_Source\PSoC4/BLE_eventHandler.c ****         CyBle_BascReadResponseEventHandler(eventParam);
1118:Generated_Source\PSoC4/BLE_eventHandler.c ****     }
1119:Generated_Source\PSoC4/BLE_eventHandler.c **** #endif /* CYBLE_BAS_CLIENT */
1120:Generated_Source\PSoC4/BLE_eventHandler.c **** #ifdef CYBLE_BLS_CLIENT
1121:Generated_Source\PSoC4/BLE_eventHandler.c ****     if((cyBle_eventHandlerFlag & CYBLE_CALLBACK) != 0u)
1122:Generated_Source\PSoC4/BLE_eventHandler.c ****     {
1123:Generated_Source\PSoC4/BLE_eventHandler.c ****         CyBle_BlscReadResponseEventHandler(eventParam);
1124:Generated_Source\PSoC4/BLE_eventHandler.c ****     }
1125:Generated_Source\PSoC4/BLE_eventHandler.c **** #endif /* CYBLE_BLS_CLIENT */
1126:Generated_Source\PSoC4/BLE_eventHandler.c **** #ifdef CYBLE_BCS_CLIENT
1127:Generated_Source\PSoC4/BLE_eventHandler.c ****     if((cyBle_eventHandlerFlag & CYBLE_CALLBACK) != 0u)
1128:Generated_Source\PSoC4/BLE_eventHandler.c ****     {
1129:Generated_Source\PSoC4/BLE_eventHandler.c ****         CyBle_BcscReadResponseEventHandler(eventParam);
1130:Generated_Source\PSoC4/BLE_eventHandler.c ****     }
1131:Generated_Source\PSoC4/BLE_eventHandler.c **** #endif /* CYBLE_BCS_CLIENT */
1132:Generated_Source\PSoC4/BLE_eventHandler.c **** #ifdef CYBLE_BMS_CLIENT
1133:Generated_Source\PSoC4/BLE_eventHandler.c ****     if((cyBle_eventHandlerFlag & CYBLE_CALLBACK) != 0u)
1134:Generated_Source\PSoC4/BLE_eventHandler.c ****     {
1135:Generated_Source\PSoC4/BLE_eventHandler.c ****         CyBle_BmscReadResponseEventHandler(eventParam);
1136:Generated_Source\PSoC4/BLE_eventHandler.c ****     }
1137:Generated_Source\PSoC4/BLE_eventHandler.c **** #endif /* CYBLE_BMS_CLIENT */
1138:Generated_Source\PSoC4/BLE_eventHandler.c **** #ifdef CYBLE_CGMS_CLIENT
1139:Generated_Source\PSoC4/BLE_eventHandler.c ****     if((cyBle_eventHandlerFlag & CYBLE_CALLBACK) != 0u)
1140:Generated_Source\PSoC4/BLE_eventHandler.c ****     {
1141:Generated_Source\PSoC4/BLE_eventHandler.c ****         CyBle_CgmscReadResponseEventHandler(eventParam);
1142:Generated_Source\PSoC4/BLE_eventHandler.c ****     }
1143:Generated_Source\PSoC4/BLE_eventHandler.c **** #endif /* CYBLE_CGMS_CLIENT */
1144:Generated_Source\PSoC4/BLE_eventHandler.c **** #ifdef CYBLE_CPS_CLIENT
1145:Generated_Source\PSoC4/BLE_eventHandler.c ****     if((cyBle_eventHandlerFlag & CYBLE_CALLBACK) != 0u)
1146:Generated_Source\PSoC4/BLE_eventHandler.c ****     {
1147:Generated_Source\PSoC4/BLE_eventHandler.c ****         CyBle_CpscReadResponseEventHandler(eventParam);
1148:Generated_Source\PSoC4/BLE_eventHandler.c ****     }
1149:Generated_Source\PSoC4/BLE_eventHandler.c **** #endif /* CYBLE_CPS_CLIENT */
1150:Generated_Source\PSoC4/BLE_eventHandler.c **** #ifdef CYBLE_CSCS_CLIENT
1151:Generated_Source\PSoC4/BLE_eventHandler.c ****     if((cyBle_eventHandlerFlag & CYBLE_CALLBACK) != 0u)
1152:Generated_Source\PSoC4/BLE_eventHandler.c ****     {
1153:Generated_Source\PSoC4/BLE_eventHandler.c ****         CyBle_CscscReadResponseEventHandler(eventParam);
1154:Generated_Source\PSoC4/BLE_eventHandler.c ****     }
1155:Generated_Source\PSoC4/BLE_eventHandler.c **** #endif /* CYBLE_CSCS_CLIENT */
1156:Generated_Source\PSoC4/BLE_eventHandler.c **** #ifdef CYBLE_CTS_CLIENT
1157:Generated_Source\PSoC4/BLE_eventHandler.c ****     if((cyBle_eventHandlerFlag & CYBLE_CALLBACK) != 0u)
1158:Generated_Source\PSoC4/BLE_eventHandler.c ****     {
1159:Generated_Source\PSoC4/BLE_eventHandler.c ****         CyBle_CtscReadResponseEventHandler(eventParam);
1160:Generated_Source\PSoC4/BLE_eventHandler.c ****     }
1161:Generated_Source\PSoC4/BLE_eventHandler.c **** #endif /* CYBLE_BAS_CLIENT */
1162:Generated_Source\PSoC4/BLE_eventHandler.c **** #ifdef CYBLE_DIS_CLIENT
1163:Generated_Source\PSoC4/BLE_eventHandler.c ****     if((cyBle_eventHandlerFlag & CYBLE_CALLBACK) != 0u)
1164:Generated_Source\PSoC4/BLE_eventHandler.c ****     {
1165:Generated_Source\PSoC4/BLE_eventHandler.c ****         CyBle_DiscReadResponseEventHandler(eventParam);
1166:Generated_Source\PSoC4/BLE_eventHandler.c ****     }
1167:Generated_Source\PSoC4/BLE_eventHandler.c **** #endif /* CYBLE_DIS_CLIENT */
ARM GAS  C:\Users\run1009\AppData\Local\Temp\ccSZtXoF.s 			page 29


1168:Generated_Source\PSoC4/BLE_eventHandler.c **** #ifdef CYBLE_ESS_CLIENT
1169:Generated_Source\PSoC4/BLE_eventHandler.c ****     if((cyBle_eventHandlerFlag & CYBLE_CALLBACK) != 0u)
1170:Generated_Source\PSoC4/BLE_eventHandler.c ****     {
1171:Generated_Source\PSoC4/BLE_eventHandler.c ****         CyBle_EsscReadResponseEventHandler(eventParam);
1172:Generated_Source\PSoC4/BLE_eventHandler.c ****     }
1173:Generated_Source\PSoC4/BLE_eventHandler.c **** #endif /* CYBLE_ESS_CLIENT */
1174:Generated_Source\PSoC4/BLE_eventHandler.c **** #ifdef CYBLE_GLS_CLIENT
1175:Generated_Source\PSoC4/BLE_eventHandler.c ****     if((cyBle_eventHandlerFlag & CYBLE_CALLBACK) != 0u)
1176:Generated_Source\PSoC4/BLE_eventHandler.c ****     {
1177:Generated_Source\PSoC4/BLE_eventHandler.c ****         CyBle_GlscReadResponseEventHandler(eventParam);
1178:Generated_Source\PSoC4/BLE_eventHandler.c ****     }
1179:Generated_Source\PSoC4/BLE_eventHandler.c **** #endif /* CYBLE_GLS_CLIENT */
1180:Generated_Source\PSoC4/BLE_eventHandler.c **** #ifdef CYBLE_HIDS_CLIENT
1181:Generated_Source\PSoC4/BLE_eventHandler.c ****     if((cyBle_eventHandlerFlag & CYBLE_CALLBACK) != 0u)
1182:Generated_Source\PSoC4/BLE_eventHandler.c ****     {
1183:Generated_Source\PSoC4/BLE_eventHandler.c ****         CyBle_HidscReadResponseEventHandler(eventParam);
1184:Generated_Source\PSoC4/BLE_eventHandler.c ****     }
1185:Generated_Source\PSoC4/BLE_eventHandler.c **** #endif /* CYBLE_HIDS_CLIENT */
1186:Generated_Source\PSoC4/BLE_eventHandler.c **** #ifdef CYBLE_HPS_CLIENT
1187:Generated_Source\PSoC4/BLE_eventHandler.c ****     if((cyBle_eventHandlerFlag & CYBLE_CALLBACK) != 0u)
1188:Generated_Source\PSoC4/BLE_eventHandler.c ****     {
1189:Generated_Source\PSoC4/BLE_eventHandler.c ****         CyBle_HpscReadResponseEventHandler(eventParam);
1190:Generated_Source\PSoC4/BLE_eventHandler.c ****     }
1191:Generated_Source\PSoC4/BLE_eventHandler.c **** #endif /* CYBLE_HPS_CLIENT */
1192:Generated_Source\PSoC4/BLE_eventHandler.c **** #ifdef CYBLE_HRS_CLIENT
1193:Generated_Source\PSoC4/BLE_eventHandler.c ****     if((cyBle_eventHandlerFlag & CYBLE_CALLBACK) != 0u)
1194:Generated_Source\PSoC4/BLE_eventHandler.c ****     {
1195:Generated_Source\PSoC4/BLE_eventHandler.c ****         CyBle_HrscReadResponseEventHandler(eventParam);
1196:Generated_Source\PSoC4/BLE_eventHandler.c ****     }
1197:Generated_Source\PSoC4/BLE_eventHandler.c **** #endif /* CYBLE_HRS_CLIENT */
1198:Generated_Source\PSoC4/BLE_eventHandler.c **** #ifdef CYBLE_HTS_CLIENT
1199:Generated_Source\PSoC4/BLE_eventHandler.c ****     if((cyBle_eventHandlerFlag & CYBLE_CALLBACK) != 0u)
1200:Generated_Source\PSoC4/BLE_eventHandler.c ****     {
1201:Generated_Source\PSoC4/BLE_eventHandler.c ****         CyBle_HtscReadResponseEventHandler(eventParam);
1202:Generated_Source\PSoC4/BLE_eventHandler.c ****     }
1203:Generated_Source\PSoC4/BLE_eventHandler.c **** #endif /* CYBLE_HTS_CLIENT */
1204:Generated_Source\PSoC4/BLE_eventHandler.c **** #ifdef CYBLE_IPS_CLIENT
1205:Generated_Source\PSoC4/BLE_eventHandler.c ****     if((cyBle_eventHandlerFlag & CYBLE_CALLBACK) != 0u)
1206:Generated_Source\PSoC4/BLE_eventHandler.c ****     {
1207:Generated_Source\PSoC4/BLE_eventHandler.c ****         CyBle_IpscReadResponseEventHandler(eventParam);
1208:Generated_Source\PSoC4/BLE_eventHandler.c ****     }
1209:Generated_Source\PSoC4/BLE_eventHandler.c **** #endif /* CYBLE_IPS_CLIENT */
1210:Generated_Source\PSoC4/BLE_eventHandler.c **** #ifdef CYBLE_LLS_CLIENT
1211:Generated_Source\PSoC4/BLE_eventHandler.c ****     if((cyBle_eventHandlerFlag & CYBLE_CALLBACK) != 0u)
1212:Generated_Source\PSoC4/BLE_eventHandler.c ****     {
1213:Generated_Source\PSoC4/BLE_eventHandler.c ****         CyBle_LlscReadResponseEventHandler(eventParam);
1214:Generated_Source\PSoC4/BLE_eventHandler.c ****     }
1215:Generated_Source\PSoC4/BLE_eventHandler.c **** #endif /* CYBLE_LLS_CLIENT */
1216:Generated_Source\PSoC4/BLE_eventHandler.c **** #ifdef CYBLE_LNS_CLIENT
1217:Generated_Source\PSoC4/BLE_eventHandler.c ****     if((cyBle_eventHandlerFlag & CYBLE_CALLBACK) != 0u)
1218:Generated_Source\PSoC4/BLE_eventHandler.c ****     {
1219:Generated_Source\PSoC4/BLE_eventHandler.c ****         CyBle_LnscReadResponseEventHandler(eventParam);
1220:Generated_Source\PSoC4/BLE_eventHandler.c ****     }
1221:Generated_Source\PSoC4/BLE_eventHandler.c **** #endif /* CYBLE_LNS_CLIENT */
1222:Generated_Source\PSoC4/BLE_eventHandler.c **** #ifdef CYBLE_NDCS_CLIENT
1223:Generated_Source\PSoC4/BLE_eventHandler.c ****     if((cyBle_eventHandlerFlag & CYBLE_CALLBACK) != 0u)
1224:Generated_Source\PSoC4/BLE_eventHandler.c ****     {
ARM GAS  C:\Users\run1009\AppData\Local\Temp\ccSZtXoF.s 			page 30


1225:Generated_Source\PSoC4/BLE_eventHandler.c ****         CyBle_NdcscReadResponseEventHandler(eventParam);
1226:Generated_Source\PSoC4/BLE_eventHandler.c ****     }
1227:Generated_Source\PSoC4/BLE_eventHandler.c **** #endif /* CYBLE_NDCS_CLIENT */
1228:Generated_Source\PSoC4/BLE_eventHandler.c **** #ifdef CYBLE_PASS_CLIENT
1229:Generated_Source\PSoC4/BLE_eventHandler.c ****     if((cyBle_eventHandlerFlag & CYBLE_CALLBACK) != 0u)
1230:Generated_Source\PSoC4/BLE_eventHandler.c ****     {
1231:Generated_Source\PSoC4/BLE_eventHandler.c ****         CyBle_PasscReadResponseEventHandler(eventParam);
1232:Generated_Source\PSoC4/BLE_eventHandler.c ****     }
1233:Generated_Source\PSoC4/BLE_eventHandler.c **** #endif /* CYBLE_PASS_CLIENT */
1234:Generated_Source\PSoC4/BLE_eventHandler.c **** #ifdef CYBLE_PLXS_CLIENT
1235:Generated_Source\PSoC4/BLE_eventHandler.c ****     if((cyBle_eventHandlerFlag & CYBLE_CALLBACK) != 0u)
1236:Generated_Source\PSoC4/BLE_eventHandler.c ****     {
1237:Generated_Source\PSoC4/BLE_eventHandler.c ****         CyBle_PlxscReadResponseEventHandler(eventParam);
1238:Generated_Source\PSoC4/BLE_eventHandler.c ****     }
1239:Generated_Source\PSoC4/BLE_eventHandler.c **** #endif /* CYBLE_PLXS_CLIENT */
1240:Generated_Source\PSoC4/BLE_eventHandler.c **** #ifdef CYBLE_RSCS_CLIENT
1241:Generated_Source\PSoC4/BLE_eventHandler.c ****     if((cyBle_eventHandlerFlag & CYBLE_CALLBACK) != 0u)
1242:Generated_Source\PSoC4/BLE_eventHandler.c ****     {
1243:Generated_Source\PSoC4/BLE_eventHandler.c ****         CyBle_RscscReadResponseEventHandler(eventParam);
1244:Generated_Source\PSoC4/BLE_eventHandler.c ****     }
1245:Generated_Source\PSoC4/BLE_eventHandler.c **** #endif /* CYBLE_RSCS_CLIENT */
1246:Generated_Source\PSoC4/BLE_eventHandler.c **** #ifdef CYBLE_RTUS_CLIENT
1247:Generated_Source\PSoC4/BLE_eventHandler.c ****     if((cyBle_eventHandlerFlag & CYBLE_CALLBACK) != 0u)
1248:Generated_Source\PSoC4/BLE_eventHandler.c ****     {
1249:Generated_Source\PSoC4/BLE_eventHandler.c ****         CyBle_RtuscReadResponseEventHandler(eventParam);
1250:Generated_Source\PSoC4/BLE_eventHandler.c ****     }
1251:Generated_Source\PSoC4/BLE_eventHandler.c **** #endif /* CYBLE_RTUS_CLIENT */
1252:Generated_Source\PSoC4/BLE_eventHandler.c **** #ifdef CYBLE_SCPS_CLIENT
1253:Generated_Source\PSoC4/BLE_eventHandler.c ****     if((cyBle_eventHandlerFlag & CYBLE_CALLBACK) != 0u)
1254:Generated_Source\PSoC4/BLE_eventHandler.c ****     {
1255:Generated_Source\PSoC4/BLE_eventHandler.c ****         CyBle_ScpscReadResponseEventHandler(eventParam);
1256:Generated_Source\PSoC4/BLE_eventHandler.c ****     }
1257:Generated_Source\PSoC4/BLE_eventHandler.c **** #endif /* CYBLE_SCPS_CLIENT */
1258:Generated_Source\PSoC4/BLE_eventHandler.c **** #ifdef CYBLE_TPS_CLIENT
1259:Generated_Source\PSoC4/BLE_eventHandler.c ****     if((cyBle_eventHandlerFlag & CYBLE_CALLBACK) != 0u)
1260:Generated_Source\PSoC4/BLE_eventHandler.c ****     {
1261:Generated_Source\PSoC4/BLE_eventHandler.c ****         CyBle_TpscReadResponseEventHandler(eventParam);
1262:Generated_Source\PSoC4/BLE_eventHandler.c ****     }
1263:Generated_Source\PSoC4/BLE_eventHandler.c **** #endif /* CYBLE_TPS_CLIENT */
1264:Generated_Source\PSoC4/BLE_eventHandler.c **** #ifdef CYBLE_UDS_CLIENT
1265:Generated_Source\PSoC4/BLE_eventHandler.c ****     if((cyBle_eventHandlerFlag & CYBLE_CALLBACK) != 0u)
1266:Generated_Source\PSoC4/BLE_eventHandler.c ****     {
1267:Generated_Source\PSoC4/BLE_eventHandler.c ****         CyBle_UdscReadResponseEventHandler(eventParam);
1268:Generated_Source\PSoC4/BLE_eventHandler.c ****     }
1269:Generated_Source\PSoC4/BLE_eventHandler.c **** #endif /* CYBLE_UDS_CLIENT */
1270:Generated_Source\PSoC4/BLE_eventHandler.c **** #ifdef CYBLE_WPTS_CLIENT
1271:Generated_Source\PSoC4/BLE_eventHandler.c ****     if((cyBle_eventHandlerFlag & CYBLE_CALLBACK) != 0u)
1272:Generated_Source\PSoC4/BLE_eventHandler.c ****     {
1273:Generated_Source\PSoC4/BLE_eventHandler.c ****         CyBle_WptscReadResponseEventHandler(eventParam);
1274:Generated_Source\PSoC4/BLE_eventHandler.c ****     }
1275:Generated_Source\PSoC4/BLE_eventHandler.c **** #endif /* CYBLE_WPTS_CLIENT */
1276:Generated_Source\PSoC4/BLE_eventHandler.c **** #ifdef CYBLE_WSS_CLIENT
1277:Generated_Source\PSoC4/BLE_eventHandler.c ****     if((cyBle_eventHandlerFlag & CYBLE_CALLBACK) != 0u)
1278:Generated_Source\PSoC4/BLE_eventHandler.c ****     {
1279:Generated_Source\PSoC4/BLE_eventHandler.c ****         CyBle_WsscReadResponseEventHandler(eventParam);
1280:Generated_Source\PSoC4/BLE_eventHandler.c ****     }
1281:Generated_Source\PSoC4/BLE_eventHandler.c **** #endif /* CYBLE_WSS_CLIENT */
ARM GAS  C:\Users\run1009\AppData\Local\Temp\ccSZtXoF.s 			page 31


1282:Generated_Source\PSoC4/BLE_eventHandler.c **** }
 424              		.loc 1 1282 0
 425 00e6 C046     		nop
 426 00e8 BD46     		mov	sp, r7
 427 00ea 08B0     		add	sp, sp, #32
 428              		@ sp needed
 429 00ec 80BD     		pop	{r7, pc}
 430              	.L18:
 431 00ee C046     		.align	2
 432              	.L17:
 433 00f0 00000000 		.word	cyBle_clientState
 434 00f4 00000000 		.word	cyBle_discInclInfo
 435 00f8 00000000 		.word	cyBle_disCount
 436 00fc 00000000 		.word	cyBle_serverInfo
 437 0100 00000000 		.word	cyBle_connHandle
 438 0104 00000000 		.word	CyBle_ApplCallback
 439 0108 00000000 		.word	cyBle_eventHandlerFlag
 440              		.cfi_endproc
 441              	.LFE7:
 442              		.size	CyBle_ReadResponseEventHandler, .-CyBle_ReadResponseEventHandler
 443              		.section	.text.CyBle_ReadMultipleResponseEventHandler,"ax",%progbits
 444              		.align	2
 445              		.code	16
 446              		.thumb_func
 447              		.type	CyBle_ReadMultipleResponseEventHandler, %function
 448              	CyBle_ReadMultipleResponseEventHandler:
 449              	.LFB8:
1283:Generated_Source\PSoC4/BLE_eventHandler.c **** 
1284:Generated_Source\PSoC4/BLE_eventHandler.c **** /******************************************************************************    
1285:Generated_Source\PSoC4/BLE_eventHandler.c **** * Function Name: CyBle_ReadMultipleResponseEventHandler
1286:Generated_Source\PSoC4/BLE_eventHandler.c **** ***************************************************************************//**
1287:Generated_Source\PSoC4/BLE_eventHandler.c **** * 
1288:Generated_Source\PSoC4/BLE_eventHandler.c **** *  Handles the Read Multiple Response event from BLE stack.
1289:Generated_Source\PSoC4/BLE_eventHandler.c **** * 
1290:Generated_Source\PSoC4/BLE_eventHandler.c **** *  \param eventParam: event parameter
1291:Generated_Source\PSoC4/BLE_eventHandler.c **** * 
1292:Generated_Source\PSoC4/BLE_eventHandler.c **** * \return
1293:Generated_Source\PSoC4/BLE_eventHandler.c **** *  None
1294:Generated_Source\PSoC4/BLE_eventHandler.c **** * 
1295:Generated_Source\PSoC4/BLE_eventHandler.c **** ******************************************************************************/
1296:Generated_Source\PSoC4/BLE_eventHandler.c **** static void CyBle_ReadMultipleResponseEventHandler(CYBLE_GATTC_READ_RSP_PARAM_T *eventParam)
1297:Generated_Source\PSoC4/BLE_eventHandler.c **** {
 450              		.loc 1 1297 0
 451              		.cfi_startproc
 452              		@ args = 0, pretend = 0, frame = 32
 453              		@ frame_needed = 1, uses_anonymous_args = 0
 454 0000 80B5     		push	{r7, lr}
 455              		.cfi_def_cfa_offset 8
 456              		.cfi_offset 7, -8
 457              		.cfi_offset 14, -4
 458 0002 88B0     		sub	sp, sp, #32
 459              		.cfi_def_cfa_offset 40
 460 0004 00AF     		add	r7, sp, #0
 461              		.cfi_def_cfa_register 7
 462 0006 7860     		str	r0, [r7, #4]
1298:Generated_Source\PSoC4/BLE_eventHandler.c **** #ifdef CYBLE_CUSTOM_CLIENT
1299:Generated_Source\PSoC4/BLE_eventHandler.c ****     /* Read response with 128-bit included service uuid */
ARM GAS  C:\Users\run1009\AppData\Local\Temp\ccSZtXoF.s 			page 32


1300:Generated_Source\PSoC4/BLE_eventHandler.c ****     if((CYBLE_CLIENT_STATE_INCL_DISCOVERING == CyBle_GetClientState()) &&
 463              		.loc 1 1300 0
 464 0008 394B     		ldr	r3, .L25
 465 000a 1B78     		ldrb	r3, [r3]
 466 000c 022B     		cmp	r3, #2
 467 000e 6AD1     		bne	.L24
1301:Generated_Source\PSoC4/BLE_eventHandler.c ****        (cyBle_discInclInfo.inclDefHandle != 0u))
 468              		.loc 1 1301 0 discriminator 1
 469 0010 384B     		ldr	r3, .L25+4
 470 0012 1B88     		ldrh	r3, [r3]
1300:Generated_Source\PSoC4/BLE_eventHandler.c ****        (cyBle_discInclInfo.inclDefHandle != 0u))
 471              		.loc 1 1300 0 discriminator 1
 472 0014 002B     		cmp	r3, #0
 473 0016 66D0     		beq	.L24
 474              	.LBB4:
1302:Generated_Source\PSoC4/BLE_eventHandler.c ****     {
1303:Generated_Source\PSoC4/BLE_eventHandler.c ****         CYBLE_DISC_SRVC128_INFO_T discServInfo;
1304:Generated_Source\PSoC4/BLE_eventHandler.c **** 
1305:Generated_Source\PSoC4/BLE_eventHandler.c ****         /* Store service range */
1306:Generated_Source\PSoC4/BLE_eventHandler.c ****         discServInfo.range = cyBle_discInclInfo.inclHandleRange;
 475              		.loc 1 1306 0
 476 0018 0823     		movs	r3, #8
 477 001a F918     		adds	r1, r7, r3
 478 001c 354B     		ldr	r3, .L25+4
 479 001e 0222     		movs	r2, #2
 480 0020 0800     		movs	r0, r1
 481 0022 9B18     		adds	r3, r3, r2
 482 0024 0422     		movs	r2, #4
 483 0026 1900     		movs	r1, r3
 484 0028 FFF7FEFF 		bl	memcpy
1307:Generated_Source\PSoC4/BLE_eventHandler.c ****         (void)memcpy((void *) discServInfo.uuid.uuid128.value, (void *)eventParam->value.val, event
 485              		.loc 1 1307 0
 486 002c 7B68     		ldr	r3, [r7, #4]
 487 002e 5968     		ldr	r1, [r3, #4]
 488 0030 7B68     		ldr	r3, [r7, #4]
 489 0032 1B89     		ldrh	r3, [r3, #8]
 490 0034 1A00     		movs	r2, r3
 491 0036 0823     		movs	r3, #8
 492 0038 FB18     		adds	r3, r7, r3
 493 003a 0433     		adds	r3, r3, #4
 494 003c 1800     		movs	r0, r3
 495 003e FFF7FEFF 		bl	memcpy
1308:Generated_Source\PSoC4/BLE_eventHandler.c ****         CyBle_CustomcDiscoverServiceEventHandler(&discServInfo);
 496              		.loc 1 1308 0
 497 0042 0823     		movs	r3, #8
 498 0044 FB18     		adds	r3, r7, r3
 499 0046 1800     		movs	r0, r3
 500 0048 FFF7FEFF 		bl	CyBle_CustomcDiscoverServiceEventHandler
1309:Generated_Source\PSoC4/BLE_eventHandler.c ****         
1310:Generated_Source\PSoC4/BLE_eventHandler.c ****         /* Re-initiate CyBle_GattcFindIncludedServices function, setting the start
1311:Generated_Source\PSoC4/BLE_eventHandler.c ****            handle to the attribute handle which is placed next to the one used in
1312:Generated_Source\PSoC4/BLE_eventHandler.c ****            the above step.
1313:Generated_Source\PSoC4/BLE_eventHandler.c ****         */
1314:Generated_Source\PSoC4/BLE_eventHandler.c ****         discServInfo.range.startHandle = cyBle_discInclInfo.inclDefHandle + 1;
 501              		.loc 1 1314 0
 502 004c 294B     		ldr	r3, .L25+4
 503 004e 1B88     		ldrh	r3, [r3]
ARM GAS  C:\Users\run1009\AppData\Local\Temp\ccSZtXoF.s 			page 33


 504 0050 0133     		adds	r3, r3, #1
 505 0052 9AB2     		uxth	r2, r3
 506 0054 0823     		movs	r3, #8
 507 0056 FB18     		adds	r3, r7, r3
 508 0058 1A80     		strh	r2, [r3]
1315:Generated_Source\PSoC4/BLE_eventHandler.c ****         discServInfo.range.endHandle = cyBle_serverInfo[cyBle_disCount].range.endHandle;
 509              		.loc 1 1315 0
 510 005a 274B     		ldr	r3, .L25+8
 511 005c 1B78     		ldrb	r3, [r3]
 512 005e 1900     		movs	r1, r3
 513 0060 264A     		ldr	r2, .L25+12
 514 0062 0B00     		movs	r3, r1
 515 0064 5B00     		lsls	r3, r3, #1
 516 0066 5B18     		adds	r3, r3, r1
 517 0068 5B00     		lsls	r3, r3, #1
 518 006a D318     		adds	r3, r2, r3
 519 006c 0233     		adds	r3, r3, #2
 520 006e 1A88     		ldrh	r2, [r3]
 521 0070 0823     		movs	r3, #8
 522 0072 FB18     		adds	r3, r7, r3
 523 0074 5A80     		strh	r2, [r3, #2]
1316:Generated_Source\PSoC4/BLE_eventHandler.c ****         if(discServInfo.range.startHandle <= discServInfo.range.endHandle)
 524              		.loc 1 1316 0
 525 0076 0823     		movs	r3, #8
 526 0078 FB18     		adds	r3, r7, r3
 527 007a 1A88     		ldrh	r2, [r3]
 528 007c 0823     		movs	r3, #8
 529 007e FB18     		adds	r3, r7, r3
 530 0080 5B88     		ldrh	r3, [r3, #2]
 531 0082 9A42     		cmp	r2, r3
 532 0084 21D8     		bhi	.L21
1317:Generated_Source\PSoC4/BLE_eventHandler.c ****         {
1318:Generated_Source\PSoC4/BLE_eventHandler.c ****             if(CYBLE_ERROR_OK != CyBle_GattcFindIncludedServices(cyBle_connHandle, &discServInfo.ra
 533              		.loc 1 1318 0
 534 0086 0823     		movs	r3, #8
 535 0088 F918     		adds	r1, r7, r3
 536 008a 1D4B     		ldr	r3, .L25+16
 537 008c 1A78     		ldrb	r2, [r3]
 538 008e 5B78     		ldrb	r3, [r3, #1]
 539 0090 1B02     		lsls	r3, r3, #8
 540 0092 1A43     		orrs	r2, r3
 541 0094 0023     		movs	r3, #0
 542 0096 1204     		lsls	r2, r2, #16
 543 0098 120C     		lsrs	r2, r2, #16
 544 009a 1B0C     		lsrs	r3, r3, #16
 545 009c 1B04     		lsls	r3, r3, #16
 546 009e 1343     		orrs	r3, r2
 547 00a0 1800     		movs	r0, r3
 548 00a2 FFF7FEFF 		bl	CyBle_GattcFindIncludedServices
 549 00a6 031E     		subs	r3, r0, #0
 550 00a8 12D0     		beq	.L23
1319:Generated_Source\PSoC4/BLE_eventHandler.c ****             {
1320:Generated_Source\PSoC4/BLE_eventHandler.c ****                 CyBle_ApplCallback(CYBLE_EVT_GATTC_INCL_DISCOVERY_FAILED, NULL);
 551              		.loc 1 1320 0
 552 00aa 164B     		ldr	r3, .L25+20
 553 00ac 1B68     		ldr	r3, [r3]
 554 00ae 8422     		movs	r2, #132
ARM GAS  C:\Users\run1009\AppData\Local\Temp\ccSZtXoF.s 			page 34


 555 00b0 5200     		lsls	r2, r2, #1
 556 00b2 0021     		movs	r1, #0
 557 00b4 1000     		movs	r0, r2
 558 00b6 9847     		blx	r3
1321:Generated_Source\PSoC4/BLE_eventHandler.c ****                 cyBle_eventHandlerFlag &= (uint8)~CYBLE_AUTO_DISCOVERY;
 559              		.loc 1 1321 0
 560 00b8 134B     		ldr	r3, .L25+24
 561 00ba 1B78     		ldrb	r3, [r3]
 562 00bc DBB2     		uxtb	r3, r3
 563 00be 0222     		movs	r2, #2
 564 00c0 9343     		bics	r3, r2
 565 00c2 DAB2     		uxtb	r2, r3
 566 00c4 104B     		ldr	r3, .L25+24
 567 00c6 1A70     		strb	r2, [r3]
 568 00c8 02E0     		b	.L23
 569              	.L21:
1322:Generated_Source\PSoC4/BLE_eventHandler.c ****             }
1323:Generated_Source\PSoC4/BLE_eventHandler.c ****         }
1324:Generated_Source\PSoC4/BLE_eventHandler.c ****         else /* Continue discovery of the following service */
1325:Generated_Source\PSoC4/BLE_eventHandler.c ****         {
1326:Generated_Source\PSoC4/BLE_eventHandler.c ****             CyBle_NextInclDiscovery(CYBLE_DISCOVERY_CONTINUE);
 570              		.loc 1 1326 0
 571 00ca 0120     		movs	r0, #1
 572 00cc FFF7FEFF 		bl	CyBle_NextInclDiscovery
 573              	.L23:
1327:Generated_Source\PSoC4/BLE_eventHandler.c ****         }
1328:Generated_Source\PSoC4/BLE_eventHandler.c ****         
1329:Generated_Source\PSoC4/BLE_eventHandler.c ****         cyBle_eventHandlerFlag &= (uint8)~CYBLE_CALLBACK;
 574              		.loc 1 1329 0 discriminator 1
 575 00d0 0D4B     		ldr	r3, .L25+24
 576 00d2 1B78     		ldrb	r3, [r3]
 577 00d4 DBB2     		uxtb	r3, r3
 578 00d6 0122     		movs	r2, #1
 579 00d8 9343     		bics	r3, r2
 580 00da DAB2     		uxtb	r2, r3
 581 00dc 0A4B     		ldr	r3, .L25+24
 582 00de 1A70     		strb	r2, [r3]
1330:Generated_Source\PSoC4/BLE_eventHandler.c ****     #ifdef CYBLE_CUSTOM_CLIENT
1331:Generated_Source\PSoC4/BLE_eventHandler.c ****         cyBle_discInclInfo.inclDefHandle = 0u;
 583              		.loc 1 1331 0 discriminator 1
 584 00e0 044B     		ldr	r3, .L25+4
 585 00e2 0022     		movs	r2, #0
 586 00e4 1A80     		strh	r2, [r3]
 587              	.L24:
 588              	.LBE4:
1332:Generated_Source\PSoC4/BLE_eventHandler.c ****     #endif /* CYBLE_CUSTOM_CLIENT */
1333:Generated_Source\PSoC4/BLE_eventHandler.c ****     }
1334:Generated_Source\PSoC4/BLE_eventHandler.c **** #endif /* CYBLE_CUSTOM_CLIENT */
1335:Generated_Source\PSoC4/BLE_eventHandler.c **** #ifdef CYBLE_IPS_CLIENT
1336:Generated_Source\PSoC4/BLE_eventHandler.c ****     if((cyBle_eventHandlerFlag & CYBLE_CALLBACK) != 0u)
1337:Generated_Source\PSoC4/BLE_eventHandler.c ****     {
1338:Generated_Source\PSoC4/BLE_eventHandler.c ****         CyBle_IpscReadMultipleResponseEventHandler(eventParam);
1339:Generated_Source\PSoC4/BLE_eventHandler.c ****     }
1340:Generated_Source\PSoC4/BLE_eventHandler.c **** #endif /* CYBLE_IPS_CLIENT */
1341:Generated_Source\PSoC4/BLE_eventHandler.c ****     /* MISRA 16.7 violation workaround */
1342:Generated_Source\PSoC4/BLE_eventHandler.c ****     eventParam = eventParam;
1343:Generated_Source\PSoC4/BLE_eventHandler.c **** }
ARM GAS  C:\Users\run1009\AppData\Local\Temp\ccSZtXoF.s 			page 35


 589              		.loc 1 1343 0
 590 00e6 C046     		nop
 591 00e8 BD46     		mov	sp, r7
 592 00ea 08B0     		add	sp, sp, #32
 593              		@ sp needed
 594 00ec 80BD     		pop	{r7, pc}
 595              	.L26:
 596 00ee C046     		.align	2
 597              	.L25:
 598 00f0 00000000 		.word	cyBle_clientState
 599 00f4 00000000 		.word	cyBle_discInclInfo
 600 00f8 00000000 		.word	cyBle_disCount
 601 00fc 00000000 		.word	cyBle_serverInfo
 602 0100 00000000 		.word	cyBle_connHandle
 603 0104 00000000 		.word	CyBle_ApplCallback
 604 0108 00000000 		.word	cyBle_eventHandlerFlag
 605              		.cfi_endproc
 606              	.LFE8:
 607              		.size	CyBle_ReadMultipleResponseEventHandler, .-CyBle_ReadMultipleResponseEventHandler
 608              		.section	.text.CyBle_GattDisconnectEventHandler,"ax",%progbits
 609              		.align	2
 610              		.code	16
 611              		.thumb_func
 612              		.type	CyBle_GattDisconnectEventHandler, %function
 613              	CyBle_GattDisconnectEventHandler:
 614              	.LFB9:
1344:Generated_Source\PSoC4/BLE_eventHandler.c **** #endif /* CYBLE_GATT_ROLE_CLIENT */
1345:Generated_Source\PSoC4/BLE_eventHandler.c **** 
1346:Generated_Source\PSoC4/BLE_eventHandler.c **** 
1347:Generated_Source\PSoC4/BLE_eventHandler.c **** /****************************************************************************** 
1348:Generated_Source\PSoC4/BLE_eventHandler.c **** * Function Name: CyBle_DisconnectEventHandler
1349:Generated_Source\PSoC4/BLE_eventHandler.c **** ***************************************************************************//**
1350:Generated_Source\PSoC4/BLE_eventHandler.c **** * 
1351:Generated_Source\PSoC4/BLE_eventHandler.c **** *  Handles the GATT Disconnection event from the BLE stack.
1352:Generated_Source\PSoC4/BLE_eventHandler.c **** * 
1353:Generated_Source\PSoC4/BLE_eventHandler.c **** * \return
1354:Generated_Source\PSoC4/BLE_eventHandler.c **** *  None
1355:Generated_Source\PSoC4/BLE_eventHandler.c **** * 
1356:Generated_Source\PSoC4/BLE_eventHandler.c **** ******************************************************************************/
1357:Generated_Source\PSoC4/BLE_eventHandler.c **** static void CyBle_GattDisconnectEventHandler(void)
1358:Generated_Source\PSoC4/BLE_eventHandler.c **** {
 615              		.loc 1 1358 0
 616              		.cfi_startproc
 617              		@ args = 0, pretend = 0, frame = 0
 618              		@ frame_needed = 1, uses_anonymous_args = 0
 619 0000 80B5     		push	{r7, lr}
 620              		.cfi_def_cfa_offset 8
 621              		.cfi_offset 7, -8
 622              		.cfi_offset 14, -4
 623 0002 00AF     		add	r7, sp, #0
 624              		.cfi_def_cfa_register 7
1359:Generated_Source\PSoC4/BLE_eventHandler.c ****     cyBle_connHandle.attId = 0u;
 625              		.loc 1 1359 0
 626 0004 094B     		ldr	r3, .L31
 627 0006 0022     		movs	r2, #0
 628 0008 5A70     		strb	r2, [r3, #1]
1360:Generated_Source\PSoC4/BLE_eventHandler.c ****     cyBle_connHandle.bdHandle = 0u;
ARM GAS  C:\Users\run1009\AppData\Local\Temp\ccSZtXoF.s 			page 36


 629              		.loc 1 1360 0
 630 000a 084B     		ldr	r3, .L31
 631 000c 0022     		movs	r2, #0
 632 000e 1A70     		strb	r2, [r3]
1361:Generated_Source\PSoC4/BLE_eventHandler.c ****     
1362:Generated_Source\PSoC4/BLE_eventHandler.c ****     #if (CYBLE_GATT_ROLE_CLIENT)
1363:Generated_Source\PSoC4/BLE_eventHandler.c ****         if(CyBle_GetClientState() == CYBLE_CLIENT_STATE_DISCOVERED)
 633              		.loc 1 1363 0
 634 0010 074B     		ldr	r3, .L31+4
 635 0012 1B78     		ldrb	r3, [r3]
 636 0014 052B     		cmp	r3, #5
 637 0016 03D1     		bne	.L28
1364:Generated_Source\PSoC4/BLE_eventHandler.c ****         {
1365:Generated_Source\PSoC4/BLE_eventHandler.c ****             CyBle_SetClientState(CYBLE_CLIENT_STATE_DISCONNECTED_DISCOVERED);
 638              		.loc 1 1365 0
 639 0018 054B     		ldr	r3, .L31+4
 640 001a 0722     		movs	r2, #7
 641 001c 1A70     		strb	r2, [r3]
1366:Generated_Source\PSoC4/BLE_eventHandler.c ****         }
1367:Generated_Source\PSoC4/BLE_eventHandler.c ****         else
1368:Generated_Source\PSoC4/BLE_eventHandler.c ****         {
1369:Generated_Source\PSoC4/BLE_eventHandler.c ****             CyBle_SetClientState(CYBLE_CLIENT_STATE_DISCONNECTED);
1370:Generated_Source\PSoC4/BLE_eventHandler.c ****         }
1371:Generated_Source\PSoC4/BLE_eventHandler.c ****     #endif /* CYBLE_GATT_ROLE_CLIENT */
1372:Generated_Source\PSoC4/BLE_eventHandler.c ****         
1373:Generated_Source\PSoC4/BLE_eventHandler.c ****     #ifdef CYBLE_CPS_SERVER
1374:Generated_Source\PSoC4/BLE_eventHandler.c ****         #if CYBLE_GAP_ROLE_BROADCASTER
1375:Generated_Source\PSoC4/BLE_eventHandler.c ****             CyBle_CpssDisconnectEventHandler();
1376:Generated_Source\PSoC4/BLE_eventHandler.c ****         #endif /* CYBLE_GAP_ROLE_BROADCASTER */
1377:Generated_Source\PSoC4/BLE_eventHandler.c ****     #endif /* CYBLE_CPS_SERVER */
1378:Generated_Source\PSoC4/BLE_eventHandler.c **** 
1379:Generated_Source\PSoC4/BLE_eventHandler.c ****     #ifdef CYBLE_CPS_CLIENT
1380:Generated_Source\PSoC4/BLE_eventHandler.c ****         CyBle_CpscDisconnectEventHandler();
1381:Generated_Source\PSoC4/BLE_eventHandler.c ****     #endif /* CYBLE_CPS_CLIENT */
1382:Generated_Source\PSoC4/BLE_eventHandler.c **** 
1383:Generated_Source\PSoC4/BLE_eventHandler.c ****     #ifdef CYBLE_IAS_SERVER
1384:Generated_Source\PSoC4/BLE_eventHandler.c ****         CyBle_IassDisconnectEventHandler();
1385:Generated_Source\PSoC4/BLE_eventHandler.c ****     #endif /* CYBLE_IAS_SERVER */
1386:Generated_Source\PSoC4/BLE_eventHandler.c ****     
1387:Generated_Source\PSoC4/BLE_eventHandler.c ****     #ifdef CYBLE_GLS_SERVER
1388:Generated_Source\PSoC4/BLE_eventHandler.c ****         CyBle_GlsInit();
1389:Generated_Source\PSoC4/BLE_eventHandler.c ****     #endif /* CYBLE_GLS_SERVER */
1390:Generated_Source\PSoC4/BLE_eventHandler.c ****     
1391:Generated_Source\PSoC4/BLE_eventHandler.c ****     #ifdef CYBLE_LNS_SERVER
1392:Generated_Source\PSoC4/BLE_eventHandler.c ****         CyBle_LnsInit();
1393:Generated_Source\PSoC4/BLE_eventHandler.c ****     #endif /* CYBLE_LNS_SERVER */
1394:Generated_Source\PSoC4/BLE_eventHandler.c ****     
1395:Generated_Source\PSoC4/BLE_eventHandler.c ****     #ifdef CYBLE_UDS_SERVER
1396:Generated_Source\PSoC4/BLE_eventHandler.c ****         CyBle_UdsInit();
1397:Generated_Source\PSoC4/BLE_eventHandler.c ****     #endif /* CYBLE_UDS_SERVER */
1398:Generated_Source\PSoC4/BLE_eventHandler.c **** }
 642              		.loc 1 1398 0
 643 001e 02E0     		b	.L30
 644              	.L28:
1369:Generated_Source\PSoC4/BLE_eventHandler.c ****         }
 645              		.loc 1 1369 0
 646 0020 034B     		ldr	r3, .L31+4
ARM GAS  C:\Users\run1009\AppData\Local\Temp\ccSZtXoF.s 			page 37


 647 0022 0822     		movs	r2, #8
 648 0024 1A70     		strb	r2, [r3]
 649              	.L30:
 650              		.loc 1 1398 0
 651 0026 C046     		nop
 652 0028 BD46     		mov	sp, r7
 653              		@ sp needed
 654 002a 80BD     		pop	{r7, pc}
 655              	.L32:
 656              		.align	2
 657              	.L31:
 658 002c 00000000 		.word	cyBle_connHandle
 659 0030 00000000 		.word	cyBle_clientState
 660              		.cfi_endproc
 661              	.LFE9:
 662              		.size	CyBle_GattDisconnectEventHandler, .-CyBle_GattDisconnectEventHandler
 663              		.section	.text.CyBle_TimeOutEventHandler,"ax",%progbits
 664              		.align	2
 665              		.code	16
 666              		.thumb_func
 667              		.type	CyBle_TimeOutEventHandler, %function
 668              	CyBle_TimeOutEventHandler:
 669              	.LFB10:
1399:Generated_Source\PSoC4/BLE_eventHandler.c **** 
1400:Generated_Source\PSoC4/BLE_eventHandler.c **** 
1401:Generated_Source\PSoC4/BLE_eventHandler.c **** /****************************************************************************** 
1402:Generated_Source\PSoC4/BLE_eventHandler.c **** * Function Name: CyBle_TimeOutEventHandler
1403:Generated_Source\PSoC4/BLE_eventHandler.c **** ***************************************************************************//**
1404:Generated_Source\PSoC4/BLE_eventHandler.c **** * 
1405:Generated_Source\PSoC4/BLE_eventHandler.c **** *  Handles the CYBLE_EVT_TIMEOUT event from the BLE stack.
1406:Generated_Source\PSoC4/BLE_eventHandler.c **** * 
1407:Generated_Source\PSoC4/BLE_eventHandler.c **** *  \param eventParam: The pointer to a structure of type CYBLE_TO_REASON_CODE_T.
1408:Generated_Source\PSoC4/BLE_eventHandler.c **** * 
1409:Generated_Source\PSoC4/BLE_eventHandler.c **** * \return
1410:Generated_Source\PSoC4/BLE_eventHandler.c **** *  None
1411:Generated_Source\PSoC4/BLE_eventHandler.c **** * 
1412:Generated_Source\PSoC4/BLE_eventHandler.c **** ******************************************************************************/
1413:Generated_Source\PSoC4/BLE_eventHandler.c **** static void CyBle_TimeOutEventHandler(const CYBLE_TO_REASON_CODE_T *eventParam)
1414:Generated_Source\PSoC4/BLE_eventHandler.c **** {
 670              		.loc 1 1414 0
 671              		.cfi_startproc
 672              		@ args = 0, pretend = 0, frame = 8
 673              		@ frame_needed = 1, uses_anonymous_args = 0
 674 0000 80B5     		push	{r7, lr}
 675              		.cfi_def_cfa_offset 8
 676              		.cfi_offset 7, -8
 677              		.cfi_offset 14, -4
 678 0002 82B0     		sub	sp, sp, #8
 679              		.cfi_def_cfa_offset 16
 680 0004 00AF     		add	r7, sp, #0
 681              		.cfi_def_cfa_register 7
 682 0006 7860     		str	r0, [r7, #4]
1415:Generated_Source\PSoC4/BLE_eventHandler.c ****     if(*eventParam == CYBLE_GATT_RSP_TO)
 683              		.loc 1 1415 0
 684 0008 7B68     		ldr	r3, [r7, #4]
 685 000a 1B78     		ldrb	r3, [r3]
 686 000c 032B     		cmp	r3, #3
ARM GAS  C:\Users\run1009\AppData\Local\Temp\ccSZtXoF.s 			page 38


 687 000e 3ED1     		bne	.L34
1416:Generated_Source\PSoC4/BLE_eventHandler.c ****     {
1417:Generated_Source\PSoC4/BLE_eventHandler.c ****     #if (CYBLE_GATT_ROLE_CLIENT)
1418:Generated_Source\PSoC4/BLE_eventHandler.c ****         if((cyBle_eventHandlerFlag & CYBLE_AUTO_DISCOVERY) != 0u)
 688              		.loc 1 1418 0
 689 0010 264B     		ldr	r3, .L44
 690 0012 1B78     		ldrb	r3, [r3]
 691 0014 DBB2     		uxtb	r3, r3
 692 0016 1A00     		movs	r2, r3
 693 0018 0223     		movs	r3, #2
 694 001a 1340     		ands	r3, r2
 695 001c 37D0     		beq	.L34
1419:Generated_Source\PSoC4/BLE_eventHandler.c ****         {
1420:Generated_Source\PSoC4/BLE_eventHandler.c ****             switch(CyBle_GetClientState())
 696              		.loc 1 1420 0
 697 001e 244B     		ldr	r3, .L44+4
 698 0020 1B78     		ldrb	r3, [r3]
 699 0022 022B     		cmp	r3, #2
 700 0024 10D0     		beq	.L36
 701 0026 02DC     		bgt	.L37
 702 0028 012B     		cmp	r3, #1
 703 002a 05D0     		beq	.L38
1421:Generated_Source\PSoC4/BLE_eventHandler.c ****             {
1422:Generated_Source\PSoC4/BLE_eventHandler.c ****                 case CYBLE_CLIENT_STATE_SRVC_DISCOVERING:
1423:Generated_Source\PSoC4/BLE_eventHandler.c ****                     CyBle_ApplCallback(CYBLE_EVT_GATTC_SRVC_DISCOVERY_FAILED, NULL);
1424:Generated_Source\PSoC4/BLE_eventHandler.c ****                     break;
1425:Generated_Source\PSoC4/BLE_eventHandler.c ****                 case CYBLE_CLIENT_STATE_INCL_DISCOVERING:
1426:Generated_Source\PSoC4/BLE_eventHandler.c ****                     CyBle_ApplCallback(CYBLE_EVT_GATTC_INCL_DISCOVERY_FAILED, NULL);
1427:Generated_Source\PSoC4/BLE_eventHandler.c ****                     break;
1428:Generated_Source\PSoC4/BLE_eventHandler.c ****                 case CYBLE_CLIENT_STATE_CHAR_DISCOVERING:
1429:Generated_Source\PSoC4/BLE_eventHandler.c ****                     CyBle_ApplCallback(CYBLE_EVT_GATTC_CHAR_DISCOVERY_FAILED, NULL);
1430:Generated_Source\PSoC4/BLE_eventHandler.c ****                     break;
1431:Generated_Source\PSoC4/BLE_eventHandler.c ****                 case CYBLE_CLIENT_STATE_DESCR_DISCOVERING:
1432:Generated_Source\PSoC4/BLE_eventHandler.c ****                     CyBle_ApplCallback(CYBLE_EVT_GATTC_DESCR_DISCOVERY_FAILED, NULL);
1433:Generated_Source\PSoC4/BLE_eventHandler.c ****                     break;
1434:Generated_Source\PSoC4/BLE_eventHandler.c ****                 default:        /* Other states should not be set in Auto discovery mode */
1435:Generated_Source\PSoC4/BLE_eventHandler.c ****                     break;
 704              		.loc 1 1435 0
 705 002c 24E0     		b	.L41
 706              	.L37:
1420:Generated_Source\PSoC4/BLE_eventHandler.c ****             {
 707              		.loc 1 1420 0
 708 002e 032B     		cmp	r3, #3
 709 0030 12D0     		beq	.L39
 710 0032 042B     		cmp	r3, #4
 711 0034 18D0     		beq	.L40
 712              		.loc 1 1435 0
 713 0036 1FE0     		b	.L41
 714              	.L38:
1423:Generated_Source\PSoC4/BLE_eventHandler.c ****                     break;
 715              		.loc 1 1423 0
 716 0038 1E4B     		ldr	r3, .L44+8
 717 003a 1B68     		ldr	r3, [r3]
 718 003c 0822     		movs	r2, #8
 719 003e FF32     		adds	r2, r2, #255
 720 0040 0021     		movs	r1, #0
 721 0042 1000     		movs	r0, r2
ARM GAS  C:\Users\run1009\AppData\Local\Temp\ccSZtXoF.s 			page 39


 722 0044 9847     		blx	r3
1424:Generated_Source\PSoC4/BLE_eventHandler.c ****                 case CYBLE_CLIENT_STATE_INCL_DISCOVERING:
 723              		.loc 1 1424 0
 724 0046 17E0     		b	.L41
 725              	.L36:
1426:Generated_Source\PSoC4/BLE_eventHandler.c ****                     break;
 726              		.loc 1 1426 0
 727 0048 1A4B     		ldr	r3, .L44+8
 728 004a 1B68     		ldr	r3, [r3]
 729 004c 8422     		movs	r2, #132
 730 004e 5200     		lsls	r2, r2, #1
 731 0050 0021     		movs	r1, #0
 732 0052 1000     		movs	r0, r2
 733 0054 9847     		blx	r3
1427:Generated_Source\PSoC4/BLE_eventHandler.c ****                 case CYBLE_CLIENT_STATE_CHAR_DISCOVERING:
 734              		.loc 1 1427 0
 735 0056 0FE0     		b	.L41
 736              	.L39:
1429:Generated_Source\PSoC4/BLE_eventHandler.c ****                     break;
 737              		.loc 1 1429 0
 738 0058 164B     		ldr	r3, .L44+8
 739 005a 1B68     		ldr	r3, [r3]
 740 005c 0A22     		movs	r2, #10
 741 005e FF32     		adds	r2, r2, #255
 742 0060 0021     		movs	r1, #0
 743 0062 1000     		movs	r0, r2
 744 0064 9847     		blx	r3
1430:Generated_Source\PSoC4/BLE_eventHandler.c ****                 case CYBLE_CLIENT_STATE_DESCR_DISCOVERING:
 745              		.loc 1 1430 0
 746 0066 07E0     		b	.L41
 747              	.L40:
1432:Generated_Source\PSoC4/BLE_eventHandler.c ****                     break;
 748              		.loc 1 1432 0
 749 0068 124B     		ldr	r3, .L44+8
 750 006a 1B68     		ldr	r3, [r3]
 751 006c 8522     		movs	r2, #133
 752 006e 5200     		lsls	r2, r2, #1
 753 0070 0021     		movs	r1, #0
 754 0072 1000     		movs	r0, r2
 755 0074 9847     		blx	r3
1433:Generated_Source\PSoC4/BLE_eventHandler.c ****                 default:        /* Other states should not be set in Auto discovery mode */
 756              		.loc 1 1433 0
 757 0076 C046     		nop
 758              	.L41:
1436:Generated_Source\PSoC4/BLE_eventHandler.c ****             }
1437:Generated_Source\PSoC4/BLE_eventHandler.c ****             cyBle_eventHandlerFlag &= (uint8)~CYBLE_AUTO_DISCOVERY;
 759              		.loc 1 1437 0
 760 0078 0C4B     		ldr	r3, .L44
 761 007a 1B78     		ldrb	r3, [r3]
 762 007c DBB2     		uxtb	r3, r3
 763 007e 0222     		movs	r2, #2
 764 0080 9343     		bics	r3, r2
 765 0082 DAB2     		uxtb	r2, r3
 766 0084 094B     		ldr	r3, .L44
 767 0086 1A70     		strb	r2, [r3]
1438:Generated_Source\PSoC4/BLE_eventHandler.c ****             CyBle_SetClientState(CYBLE_CLIENT_STATE_CONNECTED);
 768              		.loc 1 1438 0
ARM GAS  C:\Users\run1009\AppData\Local\Temp\ccSZtXoF.s 			page 40


 769 0088 094B     		ldr	r3, .L44+4
 770 008a 0022     		movs	r2, #0
 771 008c 1A70     		strb	r2, [r3]
 772              	.L34:
1439:Generated_Source\PSoC4/BLE_eventHandler.c ****         }
1440:Generated_Source\PSoC4/BLE_eventHandler.c ****     #endif /* CYBLE_GATT_ROLE_CLIENT */
1441:Generated_Source\PSoC4/BLE_eventHandler.c ****     #ifdef CYBLE_CPS_SERVER
1442:Generated_Source\PSoC4/BLE_eventHandler.c ****         CyBle_CpssTimeOutEventHandler();
1443:Generated_Source\PSoC4/BLE_eventHandler.c ****     #endif /* CYBLE_CPS_SERVER */
1444:Generated_Source\PSoC4/BLE_eventHandler.c ****     }
1445:Generated_Source\PSoC4/BLE_eventHandler.c ****     
1446:Generated_Source\PSoC4/BLE_eventHandler.c ****     /* Connection procedure timeout */
1447:Generated_Source\PSoC4/BLE_eventHandler.c ****     if(*eventParam == CYBLE_GENERIC_TO)
 773              		.loc 1 1447 0
 774 008e 7B68     		ldr	r3, [r7, #4]
 775 0090 1B78     		ldrb	r3, [r3]
 776 0092 042B     		cmp	r3, #4
 777 0094 05D1     		bne	.L43
1448:Generated_Source\PSoC4/BLE_eventHandler.c ****     {
1449:Generated_Source\PSoC4/BLE_eventHandler.c ****     #if(CYBLE_GAP_ROLE_CENTRAL)
1450:Generated_Source\PSoC4/BLE_eventHandler.c ****         if(CyBle_GetState() == CYBLE_STATE_CONNECTING)
 778              		.loc 1 1450 0
 779 0096 084B     		ldr	r3, .L44+12
 780 0098 1B78     		ldrb	r3, [r3]
 781 009a 052B     		cmp	r3, #5
 782 009c 01D1     		bne	.L43
1451:Generated_Source\PSoC4/BLE_eventHandler.c ****         {
1452:Generated_Source\PSoC4/BLE_eventHandler.c ****             (void)CyBle_GapcCancelDeviceConnection();
 783              		.loc 1 1452 0
 784 009e FFF7FEFF 		bl	CyBle_GapcCancelDeviceConnection
 785              	.L43:
1453:Generated_Source\PSoC4/BLE_eventHandler.c ****         }
1454:Generated_Source\PSoC4/BLE_eventHandler.c ****     #endif /* CYBLE_GAP_ROLE_CENTRAL */
1455:Generated_Source\PSoC4/BLE_eventHandler.c ****     }
1456:Generated_Source\PSoC4/BLE_eventHandler.c **** }
 786              		.loc 1 1456 0
 787 00a2 C046     		nop
 788 00a4 BD46     		mov	sp, r7
 789 00a6 02B0     		add	sp, sp, #8
 790              		@ sp needed
 791 00a8 80BD     		pop	{r7, pc}
 792              	.L45:
 793 00aa C046     		.align	2
 794              	.L44:
 795 00ac 00000000 		.word	cyBle_eventHandlerFlag
 796 00b0 00000000 		.word	cyBle_clientState
 797 00b4 00000000 		.word	CyBle_ApplCallback
 798 00b8 00000000 		.word	cyBle_state
 799              		.cfi_endproc
 800              	.LFE10:
 801              		.size	CyBle_TimeOutEventHandler, .-CyBle_TimeOutEventHandler
 802              		.section	.text.CyBle_GattConnectReqHandler,"ax",%progbits
 803              		.align	2
 804              		.code	16
 805              		.thumb_func
 806              		.type	CyBle_GattConnectReqHandler, %function
 807              	CyBle_GattConnectReqHandler:
ARM GAS  C:\Users\run1009\AppData\Local\Temp\ccSZtXoF.s 			page 41


 808              	.LFB11:
1457:Generated_Source\PSoC4/BLE_eventHandler.c **** 
1458:Generated_Source\PSoC4/BLE_eventHandler.c **** 
1459:Generated_Source\PSoC4/BLE_eventHandler.c **** /****************************************************************************** 
1460:Generated_Source\PSoC4/BLE_eventHandler.c **** * Function Name: CyBle_GattConnectReqHandler
1461:Generated_Source\PSoC4/BLE_eventHandler.c **** ***************************************************************************//**
1462:Generated_Source\PSoC4/BLE_eventHandler.c **** * 
1463:Generated_Source\PSoC4/BLE_eventHandler.c **** *  Handles the GATT connect event from the BLE stack.
1464:Generated_Source\PSoC4/BLE_eventHandler.c **** * 
1465:Generated_Source\PSoC4/BLE_eventHandler.c **** * \return
1466:Generated_Source\PSoC4/BLE_eventHandler.c **** *  None
1467:Generated_Source\PSoC4/BLE_eventHandler.c **** * 
1468:Generated_Source\PSoC4/BLE_eventHandler.c **** ******************************************************************************/
1469:Generated_Source\PSoC4/BLE_eventHandler.c **** static void CyBle_GattConnectReqHandler(void)
1470:Generated_Source\PSoC4/BLE_eventHandler.c **** {
 809              		.loc 1 1470 0
 810              		.cfi_startproc
 811              		@ args = 0, pretend = 0, frame = 0
 812              		@ frame_needed = 1, uses_anonymous_args = 0
 813 0000 80B5     		push	{r7, lr}
 814              		.cfi_def_cfa_offset 8
 815              		.cfi_offset 7, -8
 816              		.cfi_offset 14, -4
 817 0002 00AF     		add	r7, sp, #0
 818              		.cfi_def_cfa_register 7
1471:Generated_Source\PSoC4/BLE_eventHandler.c ****     #ifdef CYBLE_CGMS_SERVER
1472:Generated_Source\PSoC4/BLE_eventHandler.c ****         CyBle_CgmsInit();
1473:Generated_Source\PSoC4/BLE_eventHandler.c ****     #endif /* CYBLE_CGMS_SERVER */
1474:Generated_Source\PSoC4/BLE_eventHandler.c ****     
1475:Generated_Source\PSoC4/BLE_eventHandler.c ****     #ifdef CYBLE_CPS_SERVER
1476:Generated_Source\PSoC4/BLE_eventHandler.c ****         CyBle_CpssConnectEventHandler();
1477:Generated_Source\PSoC4/BLE_eventHandler.c ****     #endif /* CYBLE_CPS_SERVER */
1478:Generated_Source\PSoC4/BLE_eventHandler.c ****     
1479:Generated_Source\PSoC4/BLE_eventHandler.c ****     #ifdef CYBLE_CSCS_SERVER
1480:Generated_Source\PSoC4/BLE_eventHandler.c ****             CyBle_CscsInit();
1481:Generated_Source\PSoC4/BLE_eventHandler.c ****     #endif /* CYBLE_CSCS_SERVER */
1482:Generated_Source\PSoC4/BLE_eventHandler.c ****     
1483:Generated_Source\PSoC4/BLE_eventHandler.c ****     #ifdef CYBLE_LLS_SERVER
1484:Generated_Source\PSoC4/BLE_eventHandler.c ****         CyBle_LlssConnectEventHandler();
1485:Generated_Source\PSoC4/BLE_eventHandler.c ****     #endif /* CYBLE_LLS_SERVER */
1486:Generated_Source\PSoC4/BLE_eventHandler.c ****     
1487:Generated_Source\PSoC4/BLE_eventHandler.c ****     #ifdef CYBLE_HIDS_SERVER
1488:Generated_Source\PSoC4/BLE_eventHandler.c ****         CyBle_HidssOnDeviceConnected();
1489:Generated_Source\PSoC4/BLE_eventHandler.c ****     #endif /* CYBLE_HIDS_SERVER */
1490:Generated_Source\PSoC4/BLE_eventHandler.c **** 
1491:Generated_Source\PSoC4/BLE_eventHandler.c ****     #ifdef CYBLE_RSCS_SERVER
1492:Generated_Source\PSoC4/BLE_eventHandler.c ****         CyBle_RscsInit();
1493:Generated_Source\PSoC4/BLE_eventHandler.c ****     #endif /* CYBLE_RSCS_SERVER */
1494:Generated_Source\PSoC4/BLE_eventHandler.c **** }
 819              		.loc 1 1494 0
 820 0004 C046     		nop
 821 0006 BD46     		mov	sp, r7
 822              		@ sp needed
 823 0008 80BD     		pop	{r7, pc}
 824              		.cfi_endproc
 825              	.LFE11:
 826              		.size	CyBle_GattConnectReqHandler, .-CyBle_GattConnectReqHandler
ARM GAS  C:\Users\run1009\AppData\Local\Temp\ccSZtXoF.s 			page 42


 827 000a C046     		.section	.text.CyBle_IsDeviceAddressValid,"ax",%progbits
 828              		.align	2
 829              		.global	CyBle_IsDeviceAddressValid
 830              		.code	16
 831              		.thumb_func
 832              		.type	CyBle_IsDeviceAddressValid, %function
 833              	CyBle_IsDeviceAddressValid:
 834              	.LFB12:
1495:Generated_Source\PSoC4/BLE_eventHandler.c **** 
1496:Generated_Source\PSoC4/BLE_eventHandler.c **** 
1497:Generated_Source\PSoC4/BLE_eventHandler.c **** #if (CYBLE_GATT_ROLE_SERVER || CYBLE_GATT_ROLE_CLIENT)
1498:Generated_Source\PSoC4/BLE_eventHandler.c **** 
1499:Generated_Source\PSoC4/BLE_eventHandler.c **** /****************************************************************************** 
1500:Generated_Source\PSoC4/BLE_eventHandler.c **** * Function Name: CyBle_IsDeviceAddressValid
1501:Generated_Source\PSoC4/BLE_eventHandler.c **** ***************************************************************************//**
1502:Generated_Source\PSoC4/BLE_eventHandler.c **** * 
1503:Generated_Source\PSoC4/BLE_eventHandler.c **** *  This function verifies that BLE public address has been programmed to SFLASH 
1504:Generated_Source\PSoC4/BLE_eventHandler.c **** *  during manufacture. It could be used to verify if public device address is 
1505:Generated_Source\PSoC4/BLE_eventHandler.c **** *  programmed to flash memory.
1506:Generated_Source\PSoC4/BLE_eventHandler.c **** * 
1507:Generated_Source\PSoC4/BLE_eventHandler.c **** *  \param deviceAddress: the pointer to the BD address of type CYBLE_GAP_BD_ADDR_T. 
1508:Generated_Source\PSoC4/BLE_eventHandler.c **** * 
1509:Generated_Source\PSoC4/BLE_eventHandler.c **** * \return
1510:Generated_Source\PSoC4/BLE_eventHandler.c **** *  Non zero value when a device address differs from the default SFLASH content.
1511:Generated_Source\PSoC4/BLE_eventHandler.c **** * 
1512:Generated_Source\PSoC4/BLE_eventHandler.c **** ******************************************************************************/
1513:Generated_Source\PSoC4/BLE_eventHandler.c **** uint8 CyBle_IsDeviceAddressValid(const CYBLE_GAP_BD_ADDR_T *deviceAddress)
1514:Generated_Source\PSoC4/BLE_eventHandler.c **** {
 835              		.loc 1 1514 0
 836              		.cfi_startproc
 837              		@ args = 0, pretend = 0, frame = 16
 838              		@ frame_needed = 1, uses_anonymous_args = 0
 839 0000 80B5     		push	{r7, lr}
 840              		.cfi_def_cfa_offset 8
 841              		.cfi_offset 7, -8
 842              		.cfi_offset 14, -4
 843 0002 84B0     		sub	sp, sp, #16
 844              		.cfi_def_cfa_offset 24
 845 0004 00AF     		add	r7, sp, #0
 846              		.cfi_def_cfa_register 7
 847 0006 7860     		str	r0, [r7, #4]
1515:Generated_Source\PSoC4/BLE_eventHandler.c ****     uint8 i;
1516:Generated_Source\PSoC4/BLE_eventHandler.c ****     uint8 addressValid = 0u;
 848              		.loc 1 1516 0
 849 0008 0E23     		movs	r3, #14
 850 000a FB18     		adds	r3, r7, r3
 851 000c 0022     		movs	r2, #0
 852 000e 1A70     		strb	r2, [r3]
1517:Generated_Source\PSoC4/BLE_eventHandler.c ****     
1518:Generated_Source\PSoC4/BLE_eventHandler.c ****     if(deviceAddress -> type == CYBLE_GAP_ADDR_TYPE_PUBLIC)  
 853              		.loc 1 1518 0
 854 0010 7B68     		ldr	r3, [r7, #4]
 855 0012 9B79     		ldrb	r3, [r3, #6]
 856 0014 002B     		cmp	r3, #0
 857 0016 1CD1     		bne	.L48
1519:Generated_Source\PSoC4/BLE_eventHandler.c ****     {
1520:Generated_Source\PSoC4/BLE_eventHandler.c ****         for(i = 0u; i < CYBLE_GAP_BD_ADDR_SIZE; i++)
ARM GAS  C:\Users\run1009\AppData\Local\Temp\ccSZtXoF.s 			page 43


 858              		.loc 1 1520 0
 859 0018 0F23     		movs	r3, #15
 860 001a FB18     		adds	r3, r7, r3
 861 001c 0022     		movs	r2, #0
 862 001e 1A70     		strb	r2, [r3]
 863 0020 12E0     		b	.L49
 864              	.L51:
1521:Generated_Source\PSoC4/BLE_eventHandler.c ****         {
1522:Generated_Source\PSoC4/BLE_eventHandler.c ****             if(deviceAddress->bdAddr[i] != 0u)
 865              		.loc 1 1522 0
 866 0022 0F23     		movs	r3, #15
 867 0024 FB18     		adds	r3, r7, r3
 868 0026 1B78     		ldrb	r3, [r3]
 869 0028 7A68     		ldr	r2, [r7, #4]
 870 002a D35C     		ldrb	r3, [r2, r3]
 871 002c 002B     		cmp	r3, #0
 872 002e 04D0     		beq	.L50
1523:Generated_Source\PSoC4/BLE_eventHandler.c ****             {
1524:Generated_Source\PSoC4/BLE_eventHandler.c ****                 addressValid = 1u;
 873              		.loc 1 1524 0
 874 0030 0E23     		movs	r3, #14
 875 0032 FB18     		adds	r3, r7, r3
 876 0034 0122     		movs	r2, #1
 877 0036 1A70     		strb	r2, [r3]
1525:Generated_Source\PSoC4/BLE_eventHandler.c ****                 break;
 878              		.loc 1 1525 0
 879 0038 0BE0     		b	.L48
 880              	.L50:
1520:Generated_Source\PSoC4/BLE_eventHandler.c ****         {
 881              		.loc 1 1520 0 discriminator 2
 882 003a 0F23     		movs	r3, #15
 883 003c FB18     		adds	r3, r7, r3
 884 003e 1A78     		ldrb	r2, [r3]
 885 0040 0F23     		movs	r3, #15
 886 0042 FB18     		adds	r3, r7, r3
 887 0044 0132     		adds	r2, r2, #1
 888 0046 1A70     		strb	r2, [r3]
 889              	.L49:
1520:Generated_Source\PSoC4/BLE_eventHandler.c ****         {
 890              		.loc 1 1520 0 is_stmt 0 discriminator 1
 891 0048 0F23     		movs	r3, #15
 892 004a FB18     		adds	r3, r7, r3
 893 004c 1B78     		ldrb	r3, [r3]
 894 004e 052B     		cmp	r3, #5
 895 0050 E7D9     		bls	.L51
 896              	.L48:
1526:Generated_Source\PSoC4/BLE_eventHandler.c ****             }
1527:Generated_Source\PSoC4/BLE_eventHandler.c ****         }
1528:Generated_Source\PSoC4/BLE_eventHandler.c ****     }
1529:Generated_Source\PSoC4/BLE_eventHandler.c ****     return (addressValid);
 897              		.loc 1 1529 0 is_stmt 1
 898 0052 0E23     		movs	r3, #14
 899 0054 FB18     		adds	r3, r7, r3
 900 0056 1B78     		ldrb	r3, [r3]
1530:Generated_Source\PSoC4/BLE_eventHandler.c **** }
 901              		.loc 1 1530 0
 902 0058 1800     		movs	r0, r3
ARM GAS  C:\Users\run1009\AppData\Local\Temp\ccSZtXoF.s 			page 44


 903 005a BD46     		mov	sp, r7
 904 005c 04B0     		add	sp, sp, #16
 905              		@ sp needed
 906 005e 80BD     		pop	{r7, pc}
 907              		.cfi_endproc
 908              	.LFE12:
 909              		.size	CyBle_IsDeviceAddressValid, .-CyBle_IsDeviceAddressValid
 910              		.section	.text.CyBle_L2Cap_ConnParamUpdateRspEventHandler,"ax",%progbits
 911              		.align	2
 912              		.code	16
 913              		.thumb_func
 914              		.type	CyBle_L2Cap_ConnParamUpdateRspEventHandler, %function
 915              	CyBle_L2Cap_ConnParamUpdateRspEventHandler:
 916              	.LFB13:
1531:Generated_Source\PSoC4/BLE_eventHandler.c **** #endif /* CYBLE_GATT_ROLE_SERVER || CYBLE_GATT_ROLE_CLIENT */
1532:Generated_Source\PSoC4/BLE_eventHandler.c **** 
1533:Generated_Source\PSoC4/BLE_eventHandler.c **** 
1534:Generated_Source\PSoC4/BLE_eventHandler.c **** /****************************************************************************** 
1535:Generated_Source\PSoC4/BLE_eventHandler.c **** * Function Name: CyBle_L2Cap_ConnParamUpdateRspHandler
1536:Generated_Source\PSoC4/BLE_eventHandler.c **** ***************************************************************************//**
1537:Generated_Source\PSoC4/BLE_eventHandler.c **** * 
1538:Generated_Source\PSoC4/BLE_eventHandler.c **** *  Handles the L2CAP connection parameter response event from
1539:Generated_Source\PSoC4/BLE_eventHandler.c **** *  the BLE stack.
1540:Generated_Source\PSoC4/BLE_eventHandler.c **** * 
1541:Generated_Source\PSoC4/BLE_eventHandler.c **** *  \param response:
1542:Generated_Source\PSoC4/BLE_eventHandler.c **** *      * Accepted = 0x0000
1543:Generated_Source\PSoC4/BLE_eventHandler.c **** *      * Rejected = 0x0001
1544:Generated_Source\PSoC4/BLE_eventHandler.c **** * 
1545:Generated_Source\PSoC4/BLE_eventHandler.c **** * \return
1546:Generated_Source\PSoC4/BLE_eventHandler.c **** *  None
1547:Generated_Source\PSoC4/BLE_eventHandler.c **** * 
1548:Generated_Source\PSoC4/BLE_eventHandler.c **** ******************************************************************************/
1549:Generated_Source\PSoC4/BLE_eventHandler.c **** static void CyBle_L2Cap_ConnParamUpdateRspEventHandler(uint16 response)
1550:Generated_Source\PSoC4/BLE_eventHandler.c **** {
 917              		.loc 1 1550 0
 918              		.cfi_startproc
 919              		@ args = 0, pretend = 0, frame = 8
 920              		@ frame_needed = 1, uses_anonymous_args = 0
 921 0000 80B5     		push	{r7, lr}
 922              		.cfi_def_cfa_offset 8
 923              		.cfi_offset 7, -8
 924              		.cfi_offset 14, -4
 925 0002 82B0     		sub	sp, sp, #8
 926              		.cfi_def_cfa_offset 16
 927 0004 00AF     		add	r7, sp, #0
 928              		.cfi_def_cfa_register 7
 929 0006 0200     		movs	r2, r0
 930 0008 BB1D     		adds	r3, r7, #6
 931 000a 1A80     		strh	r2, [r3]
1551:Generated_Source\PSoC4/BLE_eventHandler.c ****     #ifdef CYBLE_CPS_SERVER
1552:Generated_Source\PSoC4/BLE_eventHandler.c ****         CyBle_CpssConnParamUpdateRspEventHandler(response);
1553:Generated_Source\PSoC4/BLE_eventHandler.c ****     #endif /* CYBLE_CPS_SERVER */
1554:Generated_Source\PSoC4/BLE_eventHandler.c ****     
1555:Generated_Source\PSoC4/BLE_eventHandler.c ****     /* Unreferenced variable warning workaround */
1556:Generated_Source\PSoC4/BLE_eventHandler.c ****     if(response != 0u)
1557:Generated_Source\PSoC4/BLE_eventHandler.c ****     {
1558:Generated_Source\PSoC4/BLE_eventHandler.c ****     }
ARM GAS  C:\Users\run1009\AppData\Local\Temp\ccSZtXoF.s 			page 45


1559:Generated_Source\PSoC4/BLE_eventHandler.c **** }
 932              		.loc 1 1559 0
 933 000c C046     		nop
 934 000e BD46     		mov	sp, r7
 935 0010 02B0     		add	sp, sp, #8
 936              		@ sp needed
 937 0012 80BD     		pop	{r7, pc}
 938              		.cfi_endproc
 939              	.LFE13:
 940              		.size	CyBle_L2Cap_ConnParamUpdateRspEventHandler, .-CyBle_L2Cap_ConnParamUpdateRspEventHandler
 941              		.section	.text.CyBle_GapConnUpdateCompleteEventHandler,"ax",%progbits
 942              		.align	2
 943              		.code	16
 944              		.thumb_func
 945              		.type	CyBle_GapConnUpdateCompleteEventHandler, %function
 946              	CyBle_GapConnUpdateCompleteEventHandler:
 947              	.LFB14:
1560:Generated_Source\PSoC4/BLE_eventHandler.c **** 
1561:Generated_Source\PSoC4/BLE_eventHandler.c **** 
1562:Generated_Source\PSoC4/BLE_eventHandler.c **** /****************************************************************************** 
1563:Generated_Source\PSoC4/BLE_eventHandler.c **** * Function Name: CyBle_GapConnUpdateCompleteEventHandler
1564:Generated_Source\PSoC4/BLE_eventHandler.c **** ***************************************************************************//**
1565:Generated_Source\PSoC4/BLE_eventHandler.c **** * 
1566:Generated_Source\PSoC4/BLE_eventHandler.c **** *  Handles the CYBLE_EVT_GAP_CONNECTION_UPDATE_COMPLETE event from
1567:Generated_Source\PSoC4/BLE_eventHandler.c **** *  the BLE stack.
1568:Generated_Source\PSoC4/BLE_eventHandler.c **** * 
1569:Generated_Source\PSoC4/BLE_eventHandler.c **** *  \param eventParam: The pointer to the data structure specified by the event.
1570:Generated_Source\PSoC4/BLE_eventHandler.c **** * 
1571:Generated_Source\PSoC4/BLE_eventHandler.c **** * \return
1572:Generated_Source\PSoC4/BLE_eventHandler.c **** *  None
1573:Generated_Source\PSoC4/BLE_eventHandler.c **** * 
1574:Generated_Source\PSoC4/BLE_eventHandler.c **** ******************************************************************************/
1575:Generated_Source\PSoC4/BLE_eventHandler.c **** static void CyBle_GapConnUpdateCompleteEventHandler(const CYBLE_GAP_CONN_PARAM_UPDATED_IN_CONTROLLE
1576:Generated_Source\PSoC4/BLE_eventHandler.c **** {
 948              		.loc 1 1576 0
 949              		.cfi_startproc
 950              		@ args = 0, pretend = 0, frame = 8
 951              		@ frame_needed = 1, uses_anonymous_args = 0
 952 0000 80B5     		push	{r7, lr}
 953              		.cfi_def_cfa_offset 8
 954              		.cfi_offset 7, -8
 955              		.cfi_offset 14, -4
 956 0002 82B0     		sub	sp, sp, #8
 957              		.cfi_def_cfa_offset 16
 958 0004 00AF     		add	r7, sp, #0
 959              		.cfi_def_cfa_register 7
 960 0006 7860     		str	r0, [r7, #4]
1577:Generated_Source\PSoC4/BLE_eventHandler.c ****     #ifdef CYBLE_CPS_SERVER
1578:Generated_Source\PSoC4/BLE_eventHandler.c ****         CyBle_CpssConnUpdateCompleteEventHandler(eventParam);
1579:Generated_Source\PSoC4/BLE_eventHandler.c ****     #endif /* CYBLE_CPS_SERVER */
1580:Generated_Source\PSoC4/BLE_eventHandler.c ****     
1581:Generated_Source\PSoC4/BLE_eventHandler.c ****     /* Unreferenced variable warning workaround */
1582:Generated_Source\PSoC4/BLE_eventHandler.c ****     if(eventParam != 0u)
1583:Generated_Source\PSoC4/BLE_eventHandler.c ****     {
1584:Generated_Source\PSoC4/BLE_eventHandler.c ****     }
1585:Generated_Source\PSoC4/BLE_eventHandler.c **** }
 961              		.loc 1 1585 0
ARM GAS  C:\Users\run1009\AppData\Local\Temp\ccSZtXoF.s 			page 46


 962 0008 C046     		nop
 963 000a BD46     		mov	sp, r7
 964 000c 02B0     		add	sp, sp, #8
 965              		@ sp needed
 966 000e 80BD     		pop	{r7, pc}
 967              		.cfi_endproc
 968              	.LFE14:
 969              		.size	CyBle_GapConnUpdateCompleteEventHandler, .-CyBle_GapConnUpdateCompleteEventHandler
 970              		.section	.text.CyBle_EventHandler,"ax",%progbits
 971              		.align	2
 972              		.global	CyBle_EventHandler
 973              		.code	16
 974              		.thumb_func
 975              		.type	CyBle_EventHandler, %function
 976              	CyBle_EventHandler:
 977              	.LFB15:
1586:Generated_Source\PSoC4/BLE_eventHandler.c **** 
1587:Generated_Source\PSoC4/BLE_eventHandler.c **** 
1588:Generated_Source\PSoC4/BLE_eventHandler.c **** /****************************************************************************** 
1589:Generated_Source\PSoC4/BLE_eventHandler.c **** * Function Name: CyBle_EventHandler
1590:Generated_Source\PSoC4/BLE_eventHandler.c **** ***************************************************************************//**
1591:Generated_Source\PSoC4/BLE_eventHandler.c **** * 
1592:Generated_Source\PSoC4/BLE_eventHandler.c **** *  Handles the events from the BLE stack
1593:Generated_Source\PSoC4/BLE_eventHandler.c **** * 
1594:Generated_Source\PSoC4/BLE_eventHandler.c **** *  \param eventCode:    the event code
1595:Generated_Source\PSoC4/BLE_eventHandler.c **** *  \param eventParam:  the event parameters
1596:Generated_Source\PSoC4/BLE_eventHandler.c **** * 
1597:Generated_Source\PSoC4/BLE_eventHandler.c **** * \return
1598:Generated_Source\PSoC4/BLE_eventHandler.c **** *  None.
1599:Generated_Source\PSoC4/BLE_eventHandler.c **** * 
1600:Generated_Source\PSoC4/BLE_eventHandler.c **** ******************************************************************************/
1601:Generated_Source\PSoC4/BLE_eventHandler.c **** void CyBle_EventHandler(uint8 eventCode, void *eventParam)
1602:Generated_Source\PSoC4/BLE_eventHandler.c **** {
 978              		.loc 1 1602 0
 979              		.cfi_startproc
 980              		@ args = 0, pretend = 0, frame = 32
 981              		@ frame_needed = 1, uses_anonymous_args = 0
 982 0000 80B5     		push	{r7, lr}
 983              		.cfi_def_cfa_offset 8
 984              		.cfi_offset 7, -8
 985              		.cfi_offset 14, -4
 986 0002 88B0     		sub	sp, sp, #32
 987              		.cfi_def_cfa_offset 40
 988 0004 00AF     		add	r7, sp, #0
 989              		.cfi_def_cfa_register 7
 990 0006 0200     		movs	r2, r0
 991 0008 3960     		str	r1, [r7]
 992 000a FB1D     		adds	r3, r7, #7
 993 000c 1A70     		strb	r2, [r3]
1603:Generated_Source\PSoC4/BLE_eventHandler.c ****     cyBle_eventHandlerFlag |= CYBLE_CALLBACK;
 994              		.loc 1 1603 0
 995 000e D44B     		ldr	r3, .L119
 996 0010 1B78     		ldrb	r3, [r3]
 997 0012 DBB2     		uxtb	r3, r3
 998 0014 0122     		movs	r2, #1
 999 0016 1343     		orrs	r3, r2
 1000 0018 DAB2     		uxtb	r2, r3
ARM GAS  C:\Users\run1009\AppData\Local\Temp\ccSZtXoF.s 			page 47


 1001 001a D14B     		ldr	r3, .L119
 1002 001c 1A70     		strb	r2, [r3]
1604:Generated_Source\PSoC4/BLE_eventHandler.c **** 
1605:Generated_Source\PSoC4/BLE_eventHandler.c ****     /* Common Profile event handling */
1606:Generated_Source\PSoC4/BLE_eventHandler.c ****     switch(eventCode)
 1003              		.loc 1 1606 0
 1004 001e FB1D     		adds	r3, r7, #7
 1005 0020 1B78     		ldrb	r3, [r3]
 1006 0022 712B     		cmp	r3, #113
 1007 0024 00D9     		bls	.LCB830
 1008 0026 19E2     		b	.L112	@long jump
 1009              	.LCB830:
 1010 0028 9A00     		lsls	r2, r3, #2
 1011 002a CE4B     		ldr	r3, .L119+4
 1012 002c D318     		adds	r3, r2, r3
 1013 002e 1B68     		ldr	r3, [r3]
 1014 0030 9F46     		mov	pc, r3
 1015              		.section	.rodata
 1016              		.align	2
 1017              	.L58:
 1018 000c 5C040000 		.word	.L112
 1019 0010 32000000 		.word	.L57
 1020 0014 38010000 		.word	.L59
 1021 0018 5C040000 		.word	.L112
 1022 001c 5C040000 		.word	.L112
 1023 0020 42010000 		.word	.L60
 1024 0024 4C010000 		.word	.L61
 1025 0028 5C040000 		.word	.L112
 1026 002c 5C040000 		.word	.L112
 1027 0030 5C040000 		.word	.L112
 1028 0034 5C040000 		.word	.L112
 1029 0038 5C040000 		.word	.L112
 1030 003c 5C040000 		.word	.L112
 1031 0040 5C040000 		.word	.L112
 1032 0044 5C040000 		.word	.L112
 1033 0048 5C040000 		.word	.L112
 1034 004c 5C040000 		.word	.L112
 1035 0050 5C040000 		.word	.L112
 1036 0054 5C040000 		.word	.L112
 1037 0058 5C040000 		.word	.L112
 1038 005c 5C040000 		.word	.L112
 1039 0060 5C040000 		.word	.L112
 1040 0064 5C040000 		.word	.L112
 1041 0068 5C040000 		.word	.L112
 1042 006c 5C040000 		.word	.L112
 1043 0070 5C040000 		.word	.L112
 1044 0074 5C040000 		.word	.L112
 1045 0078 5C040000 		.word	.L112
 1046 007c 5C040000 		.word	.L112
 1047 0080 5C040000 		.word	.L112
 1048 0084 5C040000 		.word	.L112
 1049 0088 5C040000 		.word	.L112
 1050 008c 5C040000 		.word	.L112
 1051 0090 8C010000 		.word	.L63
 1052 0094 5C040000 		.word	.L112
 1053 0098 5C040000 		.word	.L112
 1054 009c 5C040000 		.word	.L112
ARM GAS  C:\Users\run1009\AppData\Local\Temp\ccSZtXoF.s 			page 48


 1055 00a0 5C040000 		.word	.L112
 1056 00a4 28020000 		.word	.L65
 1057 00a8 04020000 		.word	.L66
 1058 00ac 20020000 		.word	.L67
 1059 00b0 5C040000 		.word	.L112
 1060 00b4 FA010000 		.word	.L68
 1061 00b8 A0020000 		.word	.L69
 1062 00bc 5C040000 		.word	.L112
 1063 00c0 5C040000 		.word	.L112
 1064 00c4 5C040000 		.word	.L112
 1065 00c8 5C040000 		.word	.L112
 1066 00cc 5C040000 		.word	.L112
 1067 00d0 5C040000 		.word	.L112
 1068 00d4 5C040000 		.word	.L112
 1069 00d8 5C040000 		.word	.L112
 1070 00dc 5C040000 		.word	.L112
 1071 00e0 5C040000 		.word	.L112
 1072 00e4 5C040000 		.word	.L112
 1073 00e8 5C040000 		.word	.L112
 1074 00ec 5C040000 		.word	.L112
 1075 00f0 5C040000 		.word	.L112
 1076 00f4 5C040000 		.word	.L112
 1077 00f8 5C040000 		.word	.L112
 1078 00fc 5C040000 		.word	.L112
 1079 0100 5C040000 		.word	.L112
 1080 0104 5C040000 		.word	.L112
 1081 0108 5C040000 		.word	.L112
 1082 010c 02040000 		.word	.L70
 1083 0110 24030000 		.word	.L71
 1084 0114 46030000 		.word	.L72
 1085 0118 4C030000 		.word	.L73
 1086 011c 5C040000 		.word	.L112
 1087 0120 DE030000 		.word	.L74
 1088 0124 E8030000 		.word	.L75
 1089 0128 F8030000 		.word	.L76
 1090 012c 5C040000 		.word	.L112
 1091 0130 3E040000 		.word	.L77
 1092 0134 5C040000 		.word	.L112
 1093 0138 48040000 		.word	.L79
 1094 013c CA030000 		.word	.L80
 1095 0140 52040000 		.word	.L81
 1096 0144 5C040000 		.word	.L112
 1097 0148 5C040000 		.word	.L112
 1098 014c 5C040000 		.word	.L112
 1099 0150 5C040000 		.word	.L112
 1100 0154 0C040000 		.word	.L86
 1101 0158 16040000 		.word	.L87
 1102 015c D4030000 		.word	.L88
 1103 0160 5C040000 		.word	.L112
 1104 0164 5C040000 		.word	.L112
 1105 0168 5C040000 		.word	.L112
 1106 016c F2030000 		.word	.L90
 1107 0170 5C040000 		.word	.L112
 1108 0174 5C040000 		.word	.L112
 1109 0178 5C040000 		.word	.L112
 1110 017c 5C040000 		.word	.L112
 1111 0180 5C040000 		.word	.L112
ARM GAS  C:\Users\run1009\AppData\Local\Temp\ccSZtXoF.s 			page 49


 1112 0184 5C040000 		.word	.L112
 1113 0188 5C040000 		.word	.L112
 1114 018c 5C040000 		.word	.L112
 1115 0190 5C040000 		.word	.L112
 1116 0194 5C040000 		.word	.L112
 1117 0198 5C040000 		.word	.L112
 1118 019c 5C040000 		.word	.L112
 1119 01a0 5C040000 		.word	.L112
 1120 01a4 5C040000 		.word	.L112
 1121 01a8 5C040000 		.word	.L112
 1122 01ac 5C040000 		.word	.L112
 1123 01b0 5C040000 		.word	.L112
 1124 01b4 5C040000 		.word	.L112
 1125 01b8 5C040000 		.word	.L112
 1126 01bc 5C040000 		.word	.L112
 1127 01c0 5C040000 		.word	.L112
 1128 01c4 5C040000 		.word	.L112
 1129 01c8 5C040000 		.word	.L112
 1130 01cc 5C040000 		.word	.L112
 1131 01d0 18030000 		.word	.L91
 1132              		.section	.text.CyBle_EventHandler
 1133              	.L57:
 1134              	.LBB5:
1607:Generated_Source\PSoC4/BLE_eventHandler.c ****     {
1608:Generated_Source\PSoC4/BLE_eventHandler.c ****         /**********************************************************
1609:Generated_Source\PSoC4/BLE_eventHandler.c ****         * General events
1610:Generated_Source\PSoC4/BLE_eventHandler.c ****         ************************************************************/
1611:Generated_Source\PSoC4/BLE_eventHandler.c ****         case CYBLE_EVT_STACK_ON:
1612:Generated_Source\PSoC4/BLE_eventHandler.c ****         #if(CYBLE_MODE_PROFILE)
1613:Generated_Source\PSoC4/BLE_eventHandler.c ****         {
1614:Generated_Source\PSoC4/BLE_eventHandler.c ****             CYBLE_BLESS_PWR_IN_DB_T bleSsPowerLevel;
1615:Generated_Source\PSoC4/BLE_eventHandler.c ****             
1616:Generated_Source\PSoC4/BLE_eventHandler.c ****             /* Set Tx Power Level for advertising and connection channels */
1617:Generated_Source\PSoC4/BLE_eventHandler.c ****             bleSsPowerLevel.blePwrLevelInDbm = CYBLE_TX_POWER_LEVEL_ADV;
 1135              		.loc 1 1617 0
 1136 0032 1023     		movs	r3, #16
 1137 0034 FB18     		adds	r3, r7, r3
 1138 0036 0722     		movs	r2, #7
 1139 0038 1A70     		strb	r2, [r3]
1618:Generated_Source\PSoC4/BLE_eventHandler.c ****             bleSsPowerLevel.bleSsChId = CYBLE_LL_ADV_CH_TYPE;
 1140              		.loc 1 1618 0
 1141 003a 1023     		movs	r3, #16
 1142 003c FB18     		adds	r3, r7, r3
 1143 003e 0022     		movs	r2, #0
 1144 0040 5A70     		strb	r2, [r3, #1]
1619:Generated_Source\PSoC4/BLE_eventHandler.c ****             (void) CyBle_SetTxPowerLevel (&bleSsPowerLevel);
 1145              		.loc 1 1619 0
 1146 0042 1023     		movs	r3, #16
 1147 0044 FB18     		adds	r3, r7, r3
 1148 0046 1800     		movs	r0, r3
 1149 0048 FFF7FEFF 		bl	CyBle_SetTxPowerLevel
1620:Generated_Source\PSoC4/BLE_eventHandler.c ****             bleSsPowerLevel.blePwrLevelInDbm = CYBLE_TX_POWER_LEVEL_CONN;
 1150              		.loc 1 1620 0
 1151 004c 1023     		movs	r3, #16
 1152 004e FB18     		adds	r3, r7, r3
 1153 0050 0722     		movs	r2, #7
 1154 0052 1A70     		strb	r2, [r3]
ARM GAS  C:\Users\run1009\AppData\Local\Temp\ccSZtXoF.s 			page 50


1621:Generated_Source\PSoC4/BLE_eventHandler.c ****             bleSsPowerLevel.bleSsChId = CYBLE_LL_CONN_CH_TYPE;
 1155              		.loc 1 1621 0
 1156 0054 1023     		movs	r3, #16
 1157 0056 FB18     		adds	r3, r7, r3
 1158 0058 0122     		movs	r2, #1
 1159 005a 5A70     		strb	r2, [r3, #1]
1622:Generated_Source\PSoC4/BLE_eventHandler.c ****             (void) CyBle_SetTxPowerLevel (&bleSsPowerLevel);
 1160              		.loc 1 1622 0
 1161 005c 1023     		movs	r3, #16
 1162 005e FB18     		adds	r3, r7, r3
 1163 0060 1800     		movs	r0, r3
 1164 0062 FFF7FEFF 		bl	CyBle_SetTxPowerLevel
1623:Generated_Source\PSoC4/BLE_eventHandler.c ****             
1624:Generated_Source\PSoC4/BLE_eventHandler.c ****             #if (CYBLE_GATT_ROLE_SERVER)
1625:Generated_Source\PSoC4/BLE_eventHandler.c ****                 /* As per Privacy Errata a call to CyBle_EnableDefaultDevicePrivacy() is
1626:Generated_Source\PSoC4/BLE_eventHandler.c ****                   required to set a device to use device privacy instead of network privacy
1627:Generated_Source\PSoC4/BLE_eventHandler.c ****                   that is enabled by default starting from BLE Stack 3.3.
1628:Generated_Source\PSoC4/BLE_eventHandler.c ****                 */
1629:Generated_Source\PSoC4/BLE_eventHandler.c ****                 if(cyBle_gaps.rpaOnlyCharHandle != CYBLE_GATT_INVALID_ATTR_HANDLE_VALUE)
 1165              		.loc 1 1629 0
 1166 0066 0023     		movs	r3, #0
 1167 0068 002B     		cmp	r3, #0
 1168 006a 01D0     		beq	.L92
1630:Generated_Source\PSoC4/BLE_eventHandler.c ****                 {
1631:Generated_Source\PSoC4/BLE_eventHandler.c ****                     CyBle_EnableDefaultDevicePrivacy();
 1169              		.loc 1 1631 0
 1170 006c FFF7FEFF 		bl	CyBle_EnableDefaultDevicePrivacy
 1171              	.L92:
 1172              	.LBE5:
1632:Generated_Source\PSoC4/BLE_eventHandler.c ****                 }
1633:Generated_Source\PSoC4/BLE_eventHandler.c ****             #endif /* (CYBLE_GATT_ROLE_SERVER) */
1634:Generated_Source\PSoC4/BLE_eventHandler.c ****             
1635:Generated_Source\PSoC4/BLE_eventHandler.c ****             #if (CYBLE_STRICT_PAIRING_ENABLED)
1636:Generated_Source\PSoC4/BLE_eventHandler.c ****                 (void) CyBle_GapSetSecurityRequirements(CYBLE_STRICT_PAIRING_REQ_VALUE, CYBLE_SECUR
1637:Generated_Source\PSoC4/BLE_eventHandler.c ****             #endif /* (CYBLE_STRICT_PAIRING_ENABLED) */
1638:Generated_Source\PSoC4/BLE_eventHandler.c ****             
1639:Generated_Source\PSoC4/BLE_eventHandler.c ****         }
1640:Generated_Source\PSoC4/BLE_eventHandler.c ****         #endif /* CYBLE_MODE_PROFILE */
1641:Generated_Source\PSoC4/BLE_eventHandler.c ****         #if (CYBLE_GATT_ROLE_SERVER || CYBLE_GATT_ROLE_CLIENT)
1642:Generated_Source\PSoC4/BLE_eventHandler.c ****             /* Set device Address  */
1643:Generated_Source\PSoC4/BLE_eventHandler.c ****             if(CyBle_IsDeviceAddressValid(cyBle_sflashDeviceAddress) != 0u)
 1173              		.loc 1 1643 0
 1174 0070 BD4B     		ldr	r3, .L119+8
 1175 0072 1B68     		ldr	r3, [r3]
 1176 0074 1800     		movs	r0, r3
 1177 0076 FFF7FEFF 		bl	CyBle_IsDeviceAddressValid
 1178 007a 031E     		subs	r3, r0, #0
 1179 007c 11D0     		beq	.L93
1644:Generated_Source\PSoC4/BLE_eventHandler.c ****             {
1645:Generated_Source\PSoC4/BLE_eventHandler.c ****                 (void) CyBle_SetDeviceAddress(cyBle_sflashDeviceAddress);
 1180              		.loc 1 1645 0
 1181 007e BA4B     		ldr	r3, .L119+8
 1182 0080 1B68     		ldr	r3, [r3]
 1183 0082 1800     		movs	r0, r3
 1184 0084 FFF7FEFF 		bl	CyBle_SetDeviceAddress
1646:Generated_Source\PSoC4/BLE_eventHandler.c ****                 #if(CYBLE_GAP_ROLE_PERIPHERAL || CYBLE_GAP_ROLE_BROADCASTER)
1647:Generated_Source\PSoC4/BLE_eventHandler.c ****                     CyBle_ChangeAdDeviceAddress(cyBle_sflashDeviceAddress, 0u);
ARM GAS  C:\Users\run1009\AppData\Local\Temp\ccSZtXoF.s 			page 51


 1185              		.loc 1 1647 0
 1186 0088 B74B     		ldr	r3, .L119+8
 1187 008a 1B68     		ldr	r3, [r3]
 1188 008c 0021     		movs	r1, #0
 1189 008e 1800     		movs	r0, r3
 1190 0090 FFF7FEFF 		bl	CyBle_ChangeAdDeviceAddress
1648:Generated_Source\PSoC4/BLE_eventHandler.c ****                     CyBle_ChangeAdDeviceAddress(cyBle_sflashDeviceAddress, 1u);
 1191              		.loc 1 1648 0
 1192 0094 B44B     		ldr	r3, .L119+8
 1193 0096 1B68     		ldr	r3, [r3]
 1194 0098 0121     		movs	r1, #1
 1195 009a 1800     		movs	r0, r3
 1196 009c FFF7FEFF 		bl	CyBle_ChangeAdDeviceAddress
 1197 00a0 36E0     		b	.L94
 1198              	.L93:
 1199              	.LBB6:
1649:Generated_Source\PSoC4/BLE_eventHandler.c ****                 #endif /* CYBLE_GAP_ROLE_PERIPHERAL || CYBLE_GAP_ROLE_BROADCASTER */    
1650:Generated_Source\PSoC4/BLE_eventHandler.c ****             }
1651:Generated_Source\PSoC4/BLE_eventHandler.c ****             else
1652:Generated_Source\PSoC4/BLE_eventHandler.c ****             {
1653:Generated_Source\PSoC4/BLE_eventHandler.c ****             #if (SILICON_GENERATED_DEVICE_ADDRESS != 0u)
1654:Generated_Source\PSoC4/BLE_eventHandler.c ****             {
1655:Generated_Source\PSoC4/BLE_eventHandler.c ****                 uint32 bdAddrLoc;
1656:Generated_Source\PSoC4/BLE_eventHandler.c ****                 bdAddrLoc = (CYBLE_SFLASH_DIE_X_REG & CYBLE_SFLASH_DIE_X_MASK) |
 1200              		.loc 1 1656 0
 1201 00a2 B24B     		ldr	r3, .L119+12
 1202 00a4 1B78     		ldrb	r3, [r3]
 1203 00a6 1A00     		movs	r2, r3
 1204 00a8 3F23     		movs	r3, #63
 1205 00aa 1A40     		ands	r2, r3
1657:Generated_Source\PSoC4/BLE_eventHandler.c ****                     ((uint32)(((uint32)CYBLE_SFLASH_DIE_Y_REG) & ((uint32)CYBLE_SFLASH_DIE_Y_MASK))
 1206              		.loc 1 1657 0
 1207 00ac B04B     		ldr	r3, .L119+16
 1208 00ae 1B78     		ldrb	r3, [r3]
 1209 00b0 9901     		lsls	r1, r3, #6
 1210 00b2 FC23     		movs	r3, #252
 1211 00b4 1B01     		lsls	r3, r3, #4
 1212 00b6 0B40     		ands	r3, r1
1656:Generated_Source\PSoC4/BLE_eventHandler.c ****                     ((uint32)(((uint32)CYBLE_SFLASH_DIE_Y_REG) & ((uint32)CYBLE_SFLASH_DIE_Y_MASK))
 1213              		.loc 1 1656 0
 1214 00b8 1A43     		orrs	r2, r3
1658:Generated_Source\PSoC4/BLE_eventHandler.c ****                         CYBLE_SFLASH_DIE_X_BITS) |
1659:Generated_Source\PSoC4/BLE_eventHandler.c ****                     ((uint32)(((uint32)CYBLE_SFLASH_DIE_WAFER_REG) & ((uint32)CYBLE_SFLASH_DIE_WAFE
 1215              		.loc 1 1659 0
 1216 00ba AE4B     		ldr	r3, .L119+20
 1217 00bc 1B78     		ldrb	r3, [r3]
 1218 00be 1903     		lsls	r1, r3, #12
 1219 00c0 F823     		movs	r3, #248
 1220 00c2 5B02     		lsls	r3, r3, #9
 1221 00c4 0B40     		ands	r3, r1
1658:Generated_Source\PSoC4/BLE_eventHandler.c ****                         CYBLE_SFLASH_DIE_X_BITS) |
 1222              		.loc 1 1658 0
 1223 00c6 1A43     		orrs	r2, r3
1660:Generated_Source\PSoC4/BLE_eventHandler.c ****                         CYBLE_SFLASH_DIE_XY_BITS) |
1661:Generated_Source\PSoC4/BLE_eventHandler.c ****                     ((uint32)(((uint32)CYBLE_SFLASH_DIE_LOT_REG) & ((uint32)CYBLE_SFLASH_DIE_LOT_MA
 1224              		.loc 1 1661 0
 1225 00c8 AB4B     		ldr	r3, .L119+24
ARM GAS  C:\Users\run1009\AppData\Local\Temp\ccSZtXoF.s 			page 52


 1226 00ca 1B78     		ldrb	r3, [r3]
 1227 00cc 5904     		lsls	r1, r3, #17
 1228 00ce FE23     		movs	r3, #254
 1229 00d0 1B04     		lsls	r3, r3, #16
 1230 00d2 0B40     		ands	r3, r1
1656:Generated_Source\PSoC4/BLE_eventHandler.c ****                     ((uint32)(((uint32)CYBLE_SFLASH_DIE_Y_REG) & ((uint32)CYBLE_SFLASH_DIE_Y_MASK))
 1231              		.loc 1 1656 0
 1232 00d4 1343     		orrs	r3, r2
 1233 00d6 BB61     		str	r3, [r7, #24]
1662:Generated_Source\PSoC4/BLE_eventHandler.c ****                         CYBLE_SFLASH_DIE_XYWAFER_BITS);
1663:Generated_Source\PSoC4/BLE_eventHandler.c ****                             
1664:Generated_Source\PSoC4/BLE_eventHandler.c ****                 cyBle_deviceAddress.bdAddr[0] = (uint8)bdAddrLoc;
 1234              		.loc 1 1664 0
 1235 00d8 BB69     		ldr	r3, [r7, #24]
 1236 00da DAB2     		uxtb	r2, r3
 1237 00dc A74B     		ldr	r3, .L119+28
 1238 00de 1A70     		strb	r2, [r3]
1665:Generated_Source\PSoC4/BLE_eventHandler.c ****                 cyBle_deviceAddress.bdAddr[1] = (uint8)(bdAddrLoc >> 8u);
 1239              		.loc 1 1665 0
 1240 00e0 BB69     		ldr	r3, [r7, #24]
 1241 00e2 1B0A     		lsrs	r3, r3, #8
 1242 00e4 DAB2     		uxtb	r2, r3
 1243 00e6 A54B     		ldr	r3, .L119+28
 1244 00e8 5A70     		strb	r2, [r3, #1]
1666:Generated_Source\PSoC4/BLE_eventHandler.c ****                 cyBle_deviceAddress.bdAddr[2] = (uint8)(bdAddrLoc >> 16u);
 1245              		.loc 1 1666 0
 1246 00ea BB69     		ldr	r3, [r7, #24]
 1247 00ec 1B0C     		lsrs	r3, r3, #16
 1248 00ee DAB2     		uxtb	r2, r3
 1249 00f0 A24B     		ldr	r3, .L119+28
 1250 00f2 9A70     		strb	r2, [r3, #2]
 1251              	.LBE6:
1667:Generated_Source\PSoC4/BLE_eventHandler.c ****             }
1668:Generated_Source\PSoC4/BLE_eventHandler.c ****             #endif /* SILICON_GENERATED_DEVICE_ADDRESS != 0u */
1669:Generated_Source\PSoC4/BLE_eventHandler.c ****                 (void) CyBle_SetDeviceAddress(&cyBle_deviceAddress);
 1252              		.loc 1 1669 0
 1253 00f4 A14B     		ldr	r3, .L119+28
 1254 00f6 1800     		movs	r0, r3
 1255 00f8 FFF7FEFF 		bl	CyBle_SetDeviceAddress
1670:Generated_Source\PSoC4/BLE_eventHandler.c ****                 #if(CYBLE_GAP_ROLE_PERIPHERAL || CYBLE_GAP_ROLE_BROADCASTER)
1671:Generated_Source\PSoC4/BLE_eventHandler.c ****                     CyBle_ChangeAdDeviceAddress(&cyBle_deviceAddress, 0u);
 1256              		.loc 1 1671 0
 1257 00fc 9F4B     		ldr	r3, .L119+28
 1258 00fe 0021     		movs	r1, #0
 1259 0100 1800     		movs	r0, r3
 1260 0102 FFF7FEFF 		bl	CyBle_ChangeAdDeviceAddress
1672:Generated_Source\PSoC4/BLE_eventHandler.c ****                     CyBle_ChangeAdDeviceAddress(&cyBle_deviceAddress, 1u);
 1261              		.loc 1 1672 0
 1262 0106 9D4B     		ldr	r3, .L119+28
 1263 0108 0121     		movs	r1, #1
 1264 010a 1800     		movs	r0, r3
 1265 010c FFF7FEFF 		bl	CyBle_ChangeAdDeviceAddress
 1266              	.L94:
1673:Generated_Source\PSoC4/BLE_eventHandler.c ****                 #endif /* CYBLE_GAP_ROLE_PERIPHERAL || CYBLE_GAP_ROLE_BROADCASTER */    
1674:Generated_Source\PSoC4/BLE_eventHandler.c ****             }
1675:Generated_Source\PSoC4/BLE_eventHandler.c ****             /* Set device IO Capability  */
1676:Generated_Source\PSoC4/BLE_eventHandler.c ****             (void) CyBle_GapSetIoCap(CYBLE_IO_CAPABILITY);    
ARM GAS  C:\Users\run1009\AppData\Local\Temp\ccSZtXoF.s 			page 53


 1267              		.loc 1 1676 0
 1268 0110 0320     		movs	r0, #3
 1269 0112 FFF7FEFF 		bl	CyBle_GapSetIoCap
 1270              	.LBB7:
1677:Generated_Source\PSoC4/BLE_eventHandler.c ****             {
1678:Generated_Source\PSoC4/BLE_eventHandler.c ****                 /* Enable all 4.1 events and configured 4.2 events */
1679:Generated_Source\PSoC4/BLE_eventHandler.c ****                 uint8 leMask[CYBLE_LE_MASK_LENGTH] = {LO8(CYBLE_LE_MASK), HI8(CYBLE_LE_MASK)};
 1271              		.loc 1 1679 0
 1272 0116 0C23     		movs	r3, #12
 1273 0118 FB18     		adds	r3, r7, r3
 1274 011a 3F22     		movs	r2, #63
 1275 011c 1A70     		strb	r2, [r3]
 1276 011e 0C23     		movs	r3, #12
 1277 0120 FB18     		adds	r3, r7, r3
 1278 0122 0022     		movs	r2, #0
 1279 0124 5A70     		strb	r2, [r3, #1]
1680:Generated_Source\PSoC4/BLE_eventHandler.c ****                 (void) CyBle_GapSetLeEventMask(leMask);
 1280              		.loc 1 1680 0
 1281 0126 0C23     		movs	r3, #12
 1282 0128 FB18     		adds	r3, r7, r3
 1283 012a 1800     		movs	r0, r3
 1284 012c FFF7FEFF 		bl	CyBle_GapSetLeEventMask
 1285              	.LBE7:
1681:Generated_Source\PSoC4/BLE_eventHandler.c ****             }
1682:Generated_Source\PSoC4/BLE_eventHandler.c ****         #if(CYBLE_DLE_FEATURE_ENABLED)
1683:Generated_Source\PSoC4/BLE_eventHandler.c ****         {
1684:Generated_Source\PSoC4/BLE_eventHandler.c ****             /* Set maximum suggested TX payload size */
1685:Generated_Source\PSoC4/BLE_eventHandler.c ****             uint16 payloadTime = CYBLE_LL_MAX_TX_TIME;
1686:Generated_Source\PSoC4/BLE_eventHandler.c ****             (void) CyBle_GapConvertOctetToTime(CYBLE_GAP_PHY_1MBPS, CYBLE_LL_MAX_TX_PAYLOAD_SIZE, &
1687:Generated_Source\PSoC4/BLE_eventHandler.c ****             (void) CyBle_GapSetSuggestedDataLength(CYBLE_LL_MAX_TX_PAYLOAD_SIZE, payloadTime); 
1688:Generated_Source\PSoC4/BLE_eventHandler.c ****         }
1689:Generated_Source\PSoC4/BLE_eventHandler.c ****         #endif /* CYBLE_DLE_FEATURE != 0u */
1690:Generated_Source\PSoC4/BLE_eventHandler.c ****         
1691:Generated_Source\PSoC4/BLE_eventHandler.c ****         #endif /* CYBLE_GATT_ROLE_SERVER || CYBLE_GATT_ROLE_CLIENT */
1692:Generated_Source\PSoC4/BLE_eventHandler.c ****             CyBle_SetState(CYBLE_STATE_DISCONNECTED);
 1286              		.loc 1 1692 0
 1287 0130 934B     		ldr	r3, .L119+32
 1288 0132 0622     		movs	r2, #6
 1289 0134 1A70     		strb	r2, [r3]
1693:Generated_Source\PSoC4/BLE_eventHandler.c ****             break;
 1290              		.loc 1 1693 0
 1291 0136 9CE1     		b	.L95
 1292              	.L59:
1694:Generated_Source\PSoC4/BLE_eventHandler.c ****         case CYBLE_EVT_TIMEOUT:
1695:Generated_Source\PSoC4/BLE_eventHandler.c ****             CyBle_TimeOutEventHandler((CYBLE_TO_REASON_CODE_T *)eventParam);
 1293              		.loc 1 1695 0
 1294 0138 3B68     		ldr	r3, [r7]
 1295 013a 1800     		movs	r0, r3
 1296 013c FFF7FEFF 		bl	CyBle_TimeOutEventHandler
1696:Generated_Source\PSoC4/BLE_eventHandler.c ****             break;
 1297              		.loc 1 1696 0
 1298 0140 97E1     		b	.L95
 1299              	.L60:
1697:Generated_Source\PSoC4/BLE_eventHandler.c ****     	case CYBLE_EVT_STACK_BUSY_STATUS:
1698:Generated_Source\PSoC4/BLE_eventHandler.c ****             cyBle_busyStatus = *(uint8 *)eventParam;
 1300              		.loc 1 1698 0
 1301 0142 3B68     		ldr	r3, [r7]
ARM GAS  C:\Users\run1009\AppData\Local\Temp\ccSZtXoF.s 			page 54


 1302 0144 1A78     		ldrb	r2, [r3]
 1303 0146 8F4B     		ldr	r3, .L119+36
 1304 0148 1A70     		strb	r2, [r3]
1699:Generated_Source\PSoC4/BLE_eventHandler.c ****             break;
 1305              		.loc 1 1699 0
 1306 014a 92E1     		b	.L95
 1307              	.L61:
 1308              	.LBB8:
1700:Generated_Source\PSoC4/BLE_eventHandler.c ****     	case CYBLE_EVT_MEMORY_REQUEST:
1701:Generated_Source\PSoC4/BLE_eventHandler.c ****         #if(CYBLE_MODE_PROFILE)
1702:Generated_Source\PSoC4/BLE_eventHandler.c ****         {
1703:Generated_Source\PSoC4/BLE_eventHandler.c ****             CYBLE_MEMORY_REQUEST_T *memReq = (CYBLE_MEMORY_REQUEST_T *)eventParam;
 1309              		.loc 1 1703 0
 1310 014c 3B68     		ldr	r3, [r7]
 1311 014e 7B61     		str	r3, [r7, #20]
1704:Generated_Source\PSoC4/BLE_eventHandler.c ****             if(memReq->request == CYBLE_PREPARED_WRITE_REQUEST)
 1312              		.loc 1 1704 0
 1313 0150 7B69     		ldr	r3, [r7, #20]
 1314 0152 1B78     		ldrb	r3, [r3]
 1315 0154 002B     		cmp	r3, #0
 1316 0156 00D0     		beq	.LCB999
 1317 0158 82E1     		b	.L113	@long jump
 1318              	.LCB999:
1705:Generated_Source\PSoC4/BLE_eventHandler.c ****             {  
1706:Generated_Source\PSoC4/BLE_eventHandler.c ****             #if(CYBLE_GATT_ENABLE_EXTERNAL_PREP_WRITE_BUFF == 0u)
1707:Generated_Source\PSoC4/BLE_eventHandler.c ****                 /* Stack requests to provide memory to process remote request */
1708:Generated_Source\PSoC4/BLE_eventHandler.c ****                 if(memReq->allocFree == CYBLE_ALLOC_MEMORY)
 1319              		.loc 1 1708 0
 1320 015a 7B69     		ldr	r3, [r7, #20]
 1321 015c 5B78     		ldrb	r3, [r3, #1]
 1322 015e 002B     		cmp	r3, #0
 1323 0160 0BD1     		bne	.L97
 1324              	.LBB9:
1709:Generated_Source\PSoC4/BLE_eventHandler.c ****                 {
1710:Generated_Source\PSoC4/BLE_eventHandler.c ****                     static CYBLE_PREPARE_WRITE_REQUEST_MEMORY_T gPrepWriteReqMem;
1711:Generated_Source\PSoC4/BLE_eventHandler.c ****                     
1712:Generated_Source\PSoC4/BLE_eventHandler.c ****                     /* Configure and return statically allocated buffer at the end of cyBle_stackMe
1713:Generated_Source\PSoC4/BLE_eventHandler.c ****                     gPrepWriteReqMem.prepareWriteQueueSize = CYBLE_GATT_MAX_PREPARE_BUFF_COUNT;
 1325              		.loc 1 1713 0
 1326 0162 894B     		ldr	r3, .L119+40
 1327 0164 0222     		movs	r2, #2
 1328 0166 DA80     		strh	r2, [r3, #6]
1714:Generated_Source\PSoC4/BLE_eventHandler.c ****                     gPrepWriteReqMem.totalAttrValueLength = CYBLE_GATT_PREPARE_LENGTH_ALIGN;
 1329              		.loc 1 1714 0
 1330 0168 874B     		ldr	r3, .L119+40
 1331 016a 1C22     		movs	r2, #28
 1332 016c 9A80     		strh	r2, [r3, #4]
1715:Generated_Source\PSoC4/BLE_eventHandler.c ****                     gPrepWriteReqMem.queueBuffer = &cyBle_stackMemoryRam[CYBLE_STACK_RAM_SIZE - 
 1333              		.loc 1 1715 0
 1334 016e 864B     		ldr	r3, .L119+40
 1335 0170 864A     		ldr	r2, .L119+44
 1336 0172 1A60     		str	r2, [r3]
1716:Generated_Source\PSoC4/BLE_eventHandler.c ****                                                                          CYBLE_GATT_PREPARE_WRITE_B
1717:Generated_Source\PSoC4/BLE_eventHandler.c ****                     memReq->configMemory = &gPrepWriteReqMem;  
 1337              		.loc 1 1717 0
 1338 0174 7B69     		ldr	r3, [r7, #20]
 1339 0176 844A     		ldr	r2, .L119+40
ARM GAS  C:\Users\run1009\AppData\Local\Temp\ccSZtXoF.s 			page 55


 1340 0178 5A60     		str	r2, [r3, #4]
 1341              	.L97:
 1342              	.LBE9:
1718:Generated_Source\PSoC4/BLE_eventHandler.c ****                 }                
1719:Generated_Source\PSoC4/BLE_eventHandler.c ****                 /* Clear CYBLE_CALLBACK flag not to provide handled event to application */
1720:Generated_Source\PSoC4/BLE_eventHandler.c ****                 cyBle_eventHandlerFlag &= (uint8)~CYBLE_CALLBACK;
 1343              		.loc 1 1720 0
 1344 017a 794B     		ldr	r3, .L119
 1345 017c 1B78     		ldrb	r3, [r3]
 1346 017e DBB2     		uxtb	r3, r3
 1347 0180 0122     		movs	r2, #1
 1348 0182 9343     		bics	r3, r2
 1349 0184 DAB2     		uxtb	r2, r3
 1350 0186 764B     		ldr	r3, .L119
 1351 0188 1A70     		strb	r2, [r3]
 1352              	.LBE8:
1721:Generated_Source\PSoC4/BLE_eventHandler.c ****             #endif  /* CYBLE_GATT_ENABLE_EXTERNAL_PREP_WRITE_BUFF == 0u */
1722:Generated_Source\PSoC4/BLE_eventHandler.c ****             }
1723:Generated_Source\PSoC4/BLE_eventHandler.c ****         }
1724:Generated_Source\PSoC4/BLE_eventHandler.c ****         #endif /* CYBLE_MODE_PROFILE */
1725:Generated_Source\PSoC4/BLE_eventHandler.c ****             break;
 1353              		.loc 1 1725 0
 1354 018a 69E1     		b	.L113
 1355              	.L63:
1726:Generated_Source\PSoC4/BLE_eventHandler.c ****         /**********************************************************
1727:Generated_Source\PSoC4/BLE_eventHandler.c ****         * GAP events
1728:Generated_Source\PSoC4/BLE_eventHandler.c ****         ************************************************************/
1729:Generated_Source\PSoC4/BLE_eventHandler.c ****         case CYBLE_EVT_GAP_AUTH_REQ:
1730:Generated_Source\PSoC4/BLE_eventHandler.c ****         #if(CYBLE_MODE_PROFILE)
1731:Generated_Source\PSoC4/BLE_eventHandler.c ****             if((cyBle_eventHandlerFlag & CYBLE_DISABLE_AUTOMATIC_AUTH) == 0u)
 1356              		.loc 1 1731 0
 1357 018c 744B     		ldr	r3, .L119
 1358 018e 1B78     		ldrb	r3, [r3]
 1359 0190 DBB2     		uxtb	r3, r3
 1360 0192 1A00     		movs	r2, r3
 1361 0194 2023     		movs	r3, #32
 1362 0196 1340     		ands	r3, r2
 1363 0198 00D0     		beq	.LCB1040
 1364 019a 63E1     		b	.L114	@long jump
 1365              	.LCB1040:
1732:Generated_Source\PSoC4/BLE_eventHandler.c ****             {
1733:Generated_Source\PSoC4/BLE_eventHandler.c ****                 /* If the responding device does not support pairing then the responding 
1734:Generated_Source\PSoC4/BLE_eventHandler.c ****                    device shall respond using the Pairing Failed message with the error 
1735:Generated_Source\PSoC4/BLE_eventHandler.c ****                    code "Pairing Not Supported" otherwise it responds with a Pairing 
1736:Generated_Source\PSoC4/BLE_eventHandler.c ****                    Response message.
1737:Generated_Source\PSoC4/BLE_eventHandler.c ****                 */
1738:Generated_Source\PSoC4/BLE_eventHandler.c ****                 if(cyBle_authInfo.security == (CYBLE_GAP_SEC_MODE_1 | CYBLE_GAP_SEC_LEVEL_1))
 1366              		.loc 1 1738 0
 1367 019c 7C4B     		ldr	r3, .L119+48
 1368 019e 1B78     		ldrb	r3, [r3]
 1369 01a0 102B     		cmp	r3, #16
 1370 01a2 02D1     		bne	.L99
1739:Generated_Source\PSoC4/BLE_eventHandler.c ****                 {
1740:Generated_Source\PSoC4/BLE_eventHandler.c ****                     cyBle_authInfo.authErr = CYBLE_GAP_AUTH_ERROR_PAIRING_NOT_SUPPORTED;
 1371              		.loc 1 1740 0
 1372 01a4 7A4B     		ldr	r3, .L119+48
 1373 01a6 0522     		movs	r2, #5
ARM GAS  C:\Users\run1009\AppData\Local\Temp\ccSZtXoF.s 			page 56


 1374 01a8 DA70     		strb	r2, [r3, #3]
 1375              	.L99:
 1376              	.LBB10:
1741:Generated_Source\PSoC4/BLE_eventHandler.c ****                 }    
1742:Generated_Source\PSoC4/BLE_eventHandler.c ****             #if(CYBLE_GAP_ROLE_PERIPHERAL)
1743:Generated_Source\PSoC4/BLE_eventHandler.c ****                 {
1744:Generated_Source\PSoC4/BLE_eventHandler.c ****                     CYBLE_API_RESULT_T apiResult;
1745:Generated_Source\PSoC4/BLE_eventHandler.c ****                     
1746:Generated_Source\PSoC4/BLE_eventHandler.c ****                     apiResult = CyBle_GappAuthReqReply(cyBle_connHandle.bdHandle, &cyBle_authInfo);
 1377              		.loc 1 1746 0
 1378 01aa 7A4B     		ldr	r3, .L119+52
 1379 01ac 1B78     		ldrb	r3, [r3]
 1380 01ae 784A     		ldr	r2, .L119+48
 1381 01b0 1100     		movs	r1, r2
 1382 01b2 1800     		movs	r0, r3
 1383 01b4 FFF7FEFF 		bl	CyBle_GappAuthReqReply
 1384 01b8 0300     		movs	r3, r0
 1385 01ba 1A00     		movs	r2, r3
 1386 01bc 0A23     		movs	r3, #10
 1387 01be FB18     		adds	r3, r7, r3
 1388 01c0 1A80     		strh	r2, [r3]
1747:Generated_Source\PSoC4/BLE_eventHandler.c ****                     /* Setting callback flag again as CyBle_GappAuthReqReply() will generate
1748:Generated_Source\PSoC4/BLE_eventHandler.c ****                     * CYBLE_EVT_GAP_SMP_NEGOTIATED_AUTH_INFO event which will clear the callback
1749:Generated_Source\PSoC4/BLE_eventHandler.c ****                     * flag.
1750:Generated_Source\PSoC4/BLE_eventHandler.c ****                     */
1751:Generated_Source\PSoC4/BLE_eventHandler.c ****                     if (apiResult != CYBLE_ERROR_OK)
 1389              		.loc 1 1751 0
 1390 01c2 0A23     		movs	r3, #10
 1391 01c4 FB18     		adds	r3, r7, r3
 1392 01c6 1B88     		ldrh	r3, [r3]
 1393 01c8 002B     		cmp	r3, #0
 1394 01ca 06D0     		beq	.L100
1752:Generated_Source\PSoC4/BLE_eventHandler.c ****                     {   
1753:Generated_Source\PSoC4/BLE_eventHandler.c ****                         CyBle_ApplCallback(CYBLE_EVT_GAP_AUTH_REQ_REPLY_ERR , &apiResult);
 1395              		.loc 1 1753 0
 1396 01cc 724B     		ldr	r3, .L119+56
 1397 01ce 1B68     		ldr	r3, [r3]
 1398 01d0 0A22     		movs	r2, #10
 1399 01d2 BA18     		adds	r2, r7, r2
 1400 01d4 1100     		movs	r1, r2
 1401 01d6 3620     		movs	r0, #54
 1402 01d8 9847     		blx	r3
 1403              	.L100:
1754:Generated_Source\PSoC4/BLE_eventHandler.c ****                     }
1755:Generated_Source\PSoC4/BLE_eventHandler.c ****                     cyBle_eventHandlerFlag |= CYBLE_CALLBACK;
 1404              		.loc 1 1755 0
 1405 01da 614B     		ldr	r3, .L119
 1406 01dc 1B78     		ldrb	r3, [r3]
 1407 01de DBB2     		uxtb	r3, r3
 1408 01e0 0122     		movs	r2, #1
 1409 01e2 1343     		orrs	r3, r2
 1410 01e4 DAB2     		uxtb	r2, r3
 1411 01e6 5E4B     		ldr	r3, .L119
 1412 01e8 1A70     		strb	r2, [r3]
 1413              	.LBE10:
1756:Generated_Source\PSoC4/BLE_eventHandler.c ****                 }
1757:Generated_Source\PSoC4/BLE_eventHandler.c ****             #endif /* CYBLE_GAP_ROLE_PERIPHERAL */
ARM GAS  C:\Users\run1009\AppData\Local\Temp\ccSZtXoF.s 			page 57


1758:Generated_Source\PSoC4/BLE_eventHandler.c ****             #if (CYBLE_GAP_ROLE_CENTRAL)
1759:Generated_Source\PSoC4/BLE_eventHandler.c ****                 (void)CyBle_GapAuthReq(cyBle_connHandle.bdHandle, &cyBle_authInfo);
 1414              		.loc 1 1759 0
 1415 01ea 6A4B     		ldr	r3, .L119+52
 1416 01ec 1B78     		ldrb	r3, [r3]
 1417 01ee 684A     		ldr	r2, .L119+48
 1418 01f0 1100     		movs	r1, r2
 1419 01f2 1800     		movs	r0, r3
 1420 01f4 FFF7FEFF 		bl	CyBle_GapAuthReq
1760:Generated_Source\PSoC4/BLE_eventHandler.c ****             #endif /* CYBLE_GAP_ROLE_CENTRAL */
1761:Generated_Source\PSoC4/BLE_eventHandler.c ****             }
1762:Generated_Source\PSoC4/BLE_eventHandler.c ****         #endif /* CYBLE_MODE_PROFILE */
1763:Generated_Source\PSoC4/BLE_eventHandler.c ****             break;
 1421              		.loc 1 1763 0
 1422 01f8 34E1     		b	.L114
 1423              	.L68:
1764:Generated_Source\PSoC4/BLE_eventHandler.c ****         
1765:Generated_Source\PSoC4/BLE_eventHandler.c ****         case CYBLE_EVT_GAP_AUTH_COMPLETE:
1766:Generated_Source\PSoC4/BLE_eventHandler.c ****         #if((CYBLE_GAP_ROLE_PERIPHERAL || CYBLE_GAP_ROLE_CENTRAL) && (CYBLE_BONDING_REQUIREMENT == 
1767:Generated_Source\PSoC4/BLE_eventHandler.c ****             cyBle_peerBonding = ((CYBLE_GAP_AUTH_INFO_T *)eventParam)->bonding;
1768:Generated_Source\PSoC4/BLE_eventHandler.c ****         #endif  /* CYBLE_BONDING_REQUIREMENT == CYBLE_BONDING_YES */
1769:Generated_Source\PSoC4/BLE_eventHandler.c ****             break;
1770:Generated_Source\PSoC4/BLE_eventHandler.c ****         
1771:Generated_Source\PSoC4/BLE_eventHandler.c ****         case CYBLE_EVT_GAP_CONNECTION_UPDATE_COMPLETE:
1772:Generated_Source\PSoC4/BLE_eventHandler.c ****             CyBle_GapConnUpdateCompleteEventHandler((const CYBLE_GAP_CONN_PARAM_UPDATED_IN_CONTROLL
 1424              		.loc 1 1772 0
 1425 01fa 3B68     		ldr	r3, [r7]
 1426 01fc 1800     		movs	r0, r3
 1427 01fe FFF7FEFF 		bl	CyBle_GapConnUpdateCompleteEventHandler
1773:Generated_Source\PSoC4/BLE_eventHandler.c ****             break;
 1428              		.loc 1 1773 0
 1429 0202 36E1     		b	.L95
 1430              	.L66:
1774:Generated_Source\PSoC4/BLE_eventHandler.c ****             
1775:Generated_Source\PSoC4/BLE_eventHandler.c ****     #if(CYBLE_LL_PRIVACY_FEATURE != 0u)        
1776:Generated_Source\PSoC4/BLE_eventHandler.c ****         case CYBLE_EVT_GAP_ENHANCE_CONN_COMPLETE:
1777:Generated_Source\PSoC4/BLE_eventHandler.c ****         {
1778:Generated_Source\PSoC4/BLE_eventHandler.c ****             CYBLE_GAP_CONN_PARAM_UPDATED_IN_CONTROLLER_T  connCParam;
1779:Generated_Source\PSoC4/BLE_eventHandler.c ****             CYBLE_GAP_ENHANCE_CONN_COMPLETE_T *connEnhanceParam;
1780:Generated_Source\PSoC4/BLE_eventHandler.c ****             
1781:Generated_Source\PSoC4/BLE_eventHandler.c ****             connEnhanceParam = (CYBLE_GAP_ENHANCE_CONN_COMPLETE_T *)eventParam;
1782:Generated_Source\PSoC4/BLE_eventHandler.c ****             connCParam.status = connEnhanceParam->status;
1783:Generated_Source\PSoC4/BLE_eventHandler.c ****             connCParam.connIntv = connEnhanceParam->connIntv;
1784:Generated_Source\PSoC4/BLE_eventHandler.c ****             connCParam.connLatency = connEnhanceParam->connLatency;
1785:Generated_Source\PSoC4/BLE_eventHandler.c ****             connCParam.supervisionTO = connEnhanceParam->supervisionTo;
1786:Generated_Source\PSoC4/BLE_eventHandler.c ****             CyBle_GapConnUpdateCompleteEventHandler((const CYBLE_GAP_CONN_PARAM_UPDATED_IN_CONTROLL
1787:Generated_Source\PSoC4/BLE_eventHandler.c ****             
1788:Generated_Source\PSoC4/BLE_eventHandler.c ****             #if(CYBLE_GAP_ROLE_CENTRAL)
1789:Generated_Source\PSoC4/BLE_eventHandler.c ****                 if(cyBle_connectingTimeout != 0u)
1790:Generated_Source\PSoC4/BLE_eventHandler.c ****                 {
1791:Generated_Source\PSoC4/BLE_eventHandler.c ****                    (void)CyBle_StopTimer();
1792:Generated_Source\PSoC4/BLE_eventHandler.c ****                 }
1793:Generated_Source\PSoC4/BLE_eventHandler.c ****             #endif /* CYBLE_GAP_ROLE_CENTRAL */
1794:Generated_Source\PSoC4/BLE_eventHandler.c ****             CyBle_SetState(CYBLE_STATE_CONNECTED);
1795:Generated_Source\PSoC4/BLE_eventHandler.c ****         }
1796:Generated_Source\PSoC4/BLE_eventHandler.c ****             break;
1797:Generated_Source\PSoC4/BLE_eventHandler.c ****     #endif /* CYBLE_LL_PRIVACY_FEATURE != 0u */      
ARM GAS  C:\Users\run1009\AppData\Local\Temp\ccSZtXoF.s 			page 58


1798:Generated_Source\PSoC4/BLE_eventHandler.c ****             
1799:Generated_Source\PSoC4/BLE_eventHandler.c ****         case CYBLE_EVT_GAP_DEVICE_CONNECTED:
1800:Generated_Source\PSoC4/BLE_eventHandler.c ****             CyBle_GapConnUpdateCompleteEventHandler((const CYBLE_GAP_CONN_PARAM_UPDATED_IN_CONTROLL
 1431              		.loc 1 1800 0
 1432 0204 3B68     		ldr	r3, [r7]
 1433 0206 1800     		movs	r0, r3
 1434 0208 FFF7FEFF 		bl	CyBle_GapConnUpdateCompleteEventHandler
1801:Generated_Source\PSoC4/BLE_eventHandler.c ****             #if(CYBLE_GAP_ROLE_CENTRAL)
1802:Generated_Source\PSoC4/BLE_eventHandler.c ****                 if(cyBle_connectingTimeout != 0u)
 1435              		.loc 1 1802 0
 1436 020c 634B     		ldr	r3, .L119+60
 1437 020e 1B88     		ldrh	r3, [r3]
 1438 0210 002B     		cmp	r3, #0
 1439 0212 01D0     		beq	.L101
1803:Generated_Source\PSoC4/BLE_eventHandler.c ****                 {
1804:Generated_Source\PSoC4/BLE_eventHandler.c ****                    (void)CyBle_StopTimer();
 1440              		.loc 1 1804 0
 1441 0214 FFF7FEFF 		bl	CyBle_StopTimer
 1442              	.L101:
1805:Generated_Source\PSoC4/BLE_eventHandler.c ****                 }
1806:Generated_Source\PSoC4/BLE_eventHandler.c ****             #endif /* CYBLE_GAP_ROLE_CENTRAL */
1807:Generated_Source\PSoC4/BLE_eventHandler.c ****             CyBle_SetState(CYBLE_STATE_CONNECTED);
 1443              		.loc 1 1807 0
 1444 0218 594B     		ldr	r3, .L119+32
 1445 021a 0222     		movs	r2, #2
 1446 021c 1A70     		strb	r2, [r3]
1808:Generated_Source\PSoC4/BLE_eventHandler.c ****             break;
 1447              		.loc 1 1808 0
 1448 021e 28E1     		b	.L95
 1449              	.L67:
1809:Generated_Source\PSoC4/BLE_eventHandler.c **** 
1810:Generated_Source\PSoC4/BLE_eventHandler.c ****         case CYBLE_EVT_GAP_DEVICE_DISCONNECTED:
1811:Generated_Source\PSoC4/BLE_eventHandler.c ****             CyBle_SetState(CYBLE_STATE_DISCONNECTED);
 1450              		.loc 1 1811 0
 1451 0220 574B     		ldr	r3, .L119+32
 1452 0222 0622     		movs	r2, #6
 1453 0224 1A70     		strb	r2, [r3]
1812:Generated_Source\PSoC4/BLE_eventHandler.c ****             break;
 1454              		.loc 1 1812 0
 1455 0226 24E1     		b	.L95
 1456              	.L65:
1813:Generated_Source\PSoC4/BLE_eventHandler.c ****         #if(CYBLE_GAP_ROLE_PERIPHERAL || CYBLE_GAP_ROLE_BROADCASTER)
1814:Generated_Source\PSoC4/BLE_eventHandler.c ****             
1815:Generated_Source\PSoC4/BLE_eventHandler.c ****         case CYBLE_EVT_GAPP_ADVERTISEMENT_START_STOP:
1816:Generated_Source\PSoC4/BLE_eventHandler.c ****             #ifdef CYBLE_CPS_SERVER
1817:Generated_Source\PSoC4/BLE_eventHandler.c ****                 #if(CYBLE_GAP_ROLE_BROADCASTER)
1818:Generated_Source\PSoC4/BLE_eventHandler.c ****                     CyBle_CpssAdvertisementStartStopEventHandler();
1819:Generated_Source\PSoC4/BLE_eventHandler.c ****                 #endif /* CYBLE_GAP_ROLE_BROADCASTER */
1820:Generated_Source\PSoC4/BLE_eventHandler.c ****             #endif /* CYBLE_CPS_SERVER */
1821:Generated_Source\PSoC4/BLE_eventHandler.c ****             
1822:Generated_Source\PSoC4/BLE_eventHandler.c ****             if((CYBLE_STATE_CONNECTED != CyBle_GetState()) && ((cyBle_eventHandlerFlag & CYBLE_CALL
 1457              		.loc 1 1822 0
 1458 0228 554B     		ldr	r3, .L119+32
 1459 022a 1B78     		ldrb	r3, [r3]
 1460 022c 022B     		cmp	r3, #2
 1461 022e 00D1     		bne	.LCB1129
 1462 0230 1AE1     		b	.L115	@long jump
ARM GAS  C:\Users\run1009\AppData\Local\Temp\ccSZtXoF.s 			page 59


 1463              	.LCB1129:
 1464              		.loc 1 1822 0 is_stmt 0 discriminator 1
 1465 0232 4B4B     		ldr	r3, .L119
 1466 0234 1B78     		ldrb	r3, [r3]
 1467 0236 DBB2     		uxtb	r3, r3
 1468 0238 1A00     		movs	r2, r3
 1469 023a 0123     		movs	r3, #1
 1470 023c 1340     		ands	r3, r2
 1471 023e 00D1     		bne	.LCB1137
 1472 0240 12E1     		b	.L115	@long jump
 1473              	.LCB1137:
1823:Generated_Source\PSoC4/BLE_eventHandler.c ****             {
1824:Generated_Source\PSoC4/BLE_eventHandler.c ****                 /* After CyBle_GappStartAdvertisement first event indicates that advertising has be
1825:Generated_Source\PSoC4/BLE_eventHandler.c ****                 if(0u != (cyBle_eventHandlerFlag & CYBLE_START_FLAG))
 1474              		.loc 1 1825 0 is_stmt 1
 1475 0242 474B     		ldr	r3, .L119
 1476 0244 1B78     		ldrb	r3, [r3]
 1477 0246 DBB2     		uxtb	r3, r3
 1478 0248 1A00     		movs	r2, r3
 1479 024a 0423     		movs	r3, #4
 1480 024c 1340     		ands	r3, r2
 1481 024e 0BD0     		beq	.L103
1826:Generated_Source\PSoC4/BLE_eventHandler.c ****                 {
1827:Generated_Source\PSoC4/BLE_eventHandler.c ****                     CyBle_SetState(CYBLE_STATE_ADVERTISING);
 1482              		.loc 1 1827 0
 1483 0250 4B4B     		ldr	r3, .L119+32
 1484 0252 0322     		movs	r2, #3
 1485 0254 1A70     		strb	r2, [r3]
1828:Generated_Source\PSoC4/BLE_eventHandler.c ****                     cyBle_eventHandlerFlag &= (uint8)~CYBLE_START_FLAG;
 1486              		.loc 1 1828 0
 1487 0256 424B     		ldr	r3, .L119
 1488 0258 1B78     		ldrb	r3, [r3]
 1489 025a DBB2     		uxtb	r3, r3
 1490 025c 0422     		movs	r2, #4
 1491 025e 9343     		bics	r3, r2
 1492 0260 DAB2     		uxtb	r2, r3
 1493 0262 3F4B     		ldr	r3, .L119
 1494 0264 1A70     		strb	r2, [r3]
1829:Generated_Source\PSoC4/BLE_eventHandler.c ****                 }
1830:Generated_Source\PSoC4/BLE_eventHandler.c ****                 /* When application initiated stop advertisement */
1831:Generated_Source\PSoC4/BLE_eventHandler.c ****                 else if(0u != (cyBle_eventHandlerFlag & CYBLE_STOP_FLAG))
1832:Generated_Source\PSoC4/BLE_eventHandler.c ****                 {
1833:Generated_Source\PSoC4/BLE_eventHandler.c ****                     CyBle_SetState(CYBLE_STATE_DISCONNECTED);  
1834:Generated_Source\PSoC4/BLE_eventHandler.c ****                     cyBle_eventHandlerFlag &= (uint8)~CYBLE_STOP_FLAG;
1835:Generated_Source\PSoC4/BLE_eventHandler.c ****                 }
1836:Generated_Source\PSoC4/BLE_eventHandler.c ****                 else /* Following event indicates that advertising has been stopped */
1837:Generated_Source\PSoC4/BLE_eventHandler.c ****                 {
1838:Generated_Source\PSoC4/BLE_eventHandler.c ****                     if(CyBle_GetState() == CYBLE_STATE_ADVERTISING)
1839:Generated_Source\PSoC4/BLE_eventHandler.c ****                     {
1840:Generated_Source\PSoC4/BLE_eventHandler.c ****                         CyBle_SetState(CYBLE_STATE_DISCONNECTED);
1841:Generated_Source\PSoC4/BLE_eventHandler.c ****                     #if ((CYBLE_SLOW_ADV_ENABLED != 0u) && (CYBLE_FAST_ADV_TIMEOUT != 0u))
1842:Generated_Source\PSoC4/BLE_eventHandler.c ****                         if(cyBle_advertisingIntervalType == CYBLE_ADVERTISING_FAST)
1843:Generated_Source\PSoC4/BLE_eventHandler.c ****                         {
1844:Generated_Source\PSoC4/BLE_eventHandler.c ****                             /* When fast advertising time out occur: Start slow advertising */
1845:Generated_Source\PSoC4/BLE_eventHandler.c ****                             if(CyBle_GappStartAdvertisement(CYBLE_ADVERTISING_SLOW) == CYBLE_ERROR_
1846:Generated_Source\PSoC4/BLE_eventHandler.c ****                             {
1847:Generated_Source\PSoC4/BLE_eventHandler.c ****                                 CyBle_SetState(CYBLE_STATE_ADVERTISING);
ARM GAS  C:\Users\run1009\AppData\Local\Temp\ccSZtXoF.s 			page 60


1848:Generated_Source\PSoC4/BLE_eventHandler.c ****                             }
1849:Generated_Source\PSoC4/BLE_eventHandler.c ****                         }
1850:Generated_Source\PSoC4/BLE_eventHandler.c ****                     #endif /* CYBLE_SLOW_ADV_ENABLED */
1851:Generated_Source\PSoC4/BLE_eventHandler.c ****                     }
1852:Generated_Source\PSoC4/BLE_eventHandler.c ****                 }
1853:Generated_Source\PSoC4/BLE_eventHandler.c ****             }
1854:Generated_Source\PSoC4/BLE_eventHandler.c ****             break;
 1495              		.loc 1 1854 0
 1496 0266 FFE0     		b	.L115
 1497              	.L103:
1831:Generated_Source\PSoC4/BLE_eventHandler.c ****                 {
 1498              		.loc 1 1831 0
 1499 0268 3D4B     		ldr	r3, .L119
 1500 026a 1B78     		ldrb	r3, [r3]
 1501 026c DBB2     		uxtb	r3, r3
 1502 026e 1A00     		movs	r2, r3
 1503 0270 0823     		movs	r3, #8
 1504 0272 1340     		ands	r3, r2
 1505 0274 0BD0     		beq	.L104
1833:Generated_Source\PSoC4/BLE_eventHandler.c ****                     cyBle_eventHandlerFlag &= (uint8)~CYBLE_STOP_FLAG;
 1506              		.loc 1 1833 0
 1507 0276 424B     		ldr	r3, .L119+32
 1508 0278 0622     		movs	r2, #6
 1509 027a 1A70     		strb	r2, [r3]
1834:Generated_Source\PSoC4/BLE_eventHandler.c ****                 }
 1510              		.loc 1 1834 0
 1511 027c 384B     		ldr	r3, .L119
 1512 027e 1B78     		ldrb	r3, [r3]
 1513 0280 DBB2     		uxtb	r3, r3
 1514 0282 0822     		movs	r2, #8
 1515 0284 9343     		bics	r3, r2
 1516 0286 DAB2     		uxtb	r2, r3
 1517 0288 354B     		ldr	r3, .L119
 1518 028a 1A70     		strb	r2, [r3]
 1519              		.loc 1 1854 0
 1520 028c ECE0     		b	.L115
 1521              	.L104:
1838:Generated_Source\PSoC4/BLE_eventHandler.c ****                     {
 1522              		.loc 1 1838 0
 1523 028e 3C4B     		ldr	r3, .L119+32
 1524 0290 1B78     		ldrb	r3, [r3]
 1525 0292 032B     		cmp	r3, #3
 1526 0294 00D0     		beq	.LCB1187
 1527 0296 E7E0     		b	.L115	@long jump
 1528              	.LCB1187:
1840:Generated_Source\PSoC4/BLE_eventHandler.c ****                     #if ((CYBLE_SLOW_ADV_ENABLED != 0u) && (CYBLE_FAST_ADV_TIMEOUT != 0u))
 1529              		.loc 1 1840 0
 1530 0298 394B     		ldr	r3, .L119+32
 1531 029a 0622     		movs	r2, #6
 1532 029c 1A70     		strb	r2, [r3]
 1533              		.loc 1 1854 0
 1534 029e E3E0     		b	.L115
 1535              	.L69:
1855:Generated_Source\PSoC4/BLE_eventHandler.c ****         #endif /* CYBLE_GAP_ROLE_PERIPHERAL || CYBLE_GAP_ROLE_BROADCASTER */
1856:Generated_Source\PSoC4/BLE_eventHandler.c ****         
1857:Generated_Source\PSoC4/BLE_eventHandler.c ****         #if(CYBLE_GAP_ROLE_CENTRAL || CYBLE_GAP_ROLE_OBSERVER)    
1858:Generated_Source\PSoC4/BLE_eventHandler.c ****         case CYBLE_EVT_GAPC_SCAN_START_STOP:
ARM GAS  C:\Users\run1009\AppData\Local\Temp\ccSZtXoF.s 			page 61


1859:Generated_Source\PSoC4/BLE_eventHandler.c ****             #ifdef CYBLE_CPS_CLIENT
1860:Generated_Source\PSoC4/BLE_eventHandler.c ****                 CyBle_CpscScanStartStopEventHandler();
1861:Generated_Source\PSoC4/BLE_eventHandler.c ****             #endif /* CYBLE_CPS_CLIENT */
1862:Generated_Source\PSoC4/BLE_eventHandler.c ****             
1863:Generated_Source\PSoC4/BLE_eventHandler.c ****             if((CYBLE_STATE_CONNECTED != CyBle_GetState()) && ((cyBle_eventHandlerFlag & CYBLE_CALL
 1536              		.loc 1 1863 0
 1537 02a0 374B     		ldr	r3, .L119+32
 1538 02a2 1B78     		ldrb	r3, [r3]
 1539 02a4 022B     		cmp	r3, #2
 1540 02a6 00D1     		bne	.LCB1198
 1541 02a8 E0E0     		b	.L116	@long jump
 1542              	.LCB1198:
 1543              		.loc 1 1863 0 is_stmt 0 discriminator 1
 1544 02aa 2D4B     		ldr	r3, .L119
 1545 02ac 1B78     		ldrb	r3, [r3]
 1546 02ae DBB2     		uxtb	r3, r3
 1547 02b0 1A00     		movs	r2, r3
 1548 02b2 0123     		movs	r3, #1
 1549 02b4 1340     		ands	r3, r2
 1550 02b6 00D1     		bne	.LCB1206
 1551 02b8 D8E0     		b	.L116	@long jump
 1552              	.LCB1206:
1864:Generated_Source\PSoC4/BLE_eventHandler.c ****             {
1865:Generated_Source\PSoC4/BLE_eventHandler.c ****                 /* After CyBle_GapcStartScan first event indicates that scanning has been started *
1866:Generated_Source\PSoC4/BLE_eventHandler.c ****                 if(0u != (cyBle_eventHandlerFlag & CYBLE_START_FLAG))
 1553              		.loc 1 1866 0 is_stmt 1
 1554 02ba 294B     		ldr	r3, .L119
 1555 02bc 1B78     		ldrb	r3, [r3]
 1556 02be DBB2     		uxtb	r3, r3
 1557 02c0 1A00     		movs	r2, r3
 1558 02c2 0423     		movs	r3, #4
 1559 02c4 1340     		ands	r3, r2
 1560 02c6 0BD0     		beq	.L106
1867:Generated_Source\PSoC4/BLE_eventHandler.c ****                 {
1868:Generated_Source\PSoC4/BLE_eventHandler.c ****                     CyBle_SetState(CYBLE_STATE_SCANNING);
 1561              		.loc 1 1868 0
 1562 02c8 2D4B     		ldr	r3, .L119+32
 1563 02ca 0422     		movs	r2, #4
 1564 02cc 1A70     		strb	r2, [r3]
1869:Generated_Source\PSoC4/BLE_eventHandler.c ****                     cyBle_eventHandlerFlag &= (uint8)~CYBLE_START_FLAG;
 1565              		.loc 1 1869 0
 1566 02ce 244B     		ldr	r3, .L119
 1567 02d0 1B78     		ldrb	r3, [r3]
 1568 02d2 DBB2     		uxtb	r3, r3
 1569 02d4 0422     		movs	r2, #4
 1570 02d6 9343     		bics	r3, r2
 1571 02d8 DAB2     		uxtb	r2, r3
 1572 02da 214B     		ldr	r3, .L119
 1573 02dc 1A70     		strb	r2, [r3]
1870:Generated_Source\PSoC4/BLE_eventHandler.c ****                 }
1871:Generated_Source\PSoC4/BLE_eventHandler.c ****                 /* When application initiated stop scanning */
1872:Generated_Source\PSoC4/BLE_eventHandler.c ****                 else if(0u != (cyBle_eventHandlerFlag & CYBLE_STOP_FLAG))
1873:Generated_Source\PSoC4/BLE_eventHandler.c ****                 {
1874:Generated_Source\PSoC4/BLE_eventHandler.c ****                     CyBle_SetState(CYBLE_STATE_DISCONNECTED);  
1875:Generated_Source\PSoC4/BLE_eventHandler.c ****                     cyBle_eventHandlerFlag &= (uint8)~CYBLE_STOP_FLAG;
1876:Generated_Source\PSoC4/BLE_eventHandler.c ****                 }
1877:Generated_Source\PSoC4/BLE_eventHandler.c ****                 else /* Following event indicates that scanning has been stopped by stack */
ARM GAS  C:\Users\run1009\AppData\Local\Temp\ccSZtXoF.s 			page 62


1878:Generated_Source\PSoC4/BLE_eventHandler.c ****                 {
1879:Generated_Source\PSoC4/BLE_eventHandler.c ****                     if(CyBle_GetState() == CYBLE_STATE_SCANNING)
1880:Generated_Source\PSoC4/BLE_eventHandler.c ****                     {
1881:Generated_Source\PSoC4/BLE_eventHandler.c ****                         CyBle_SetState(CYBLE_STATE_DISCONNECTED);  
1882:Generated_Source\PSoC4/BLE_eventHandler.c ****                     #if ((CYBLE_SLOW_SCAN_ENABLED != 0u) && (CYBLE_FAST_SCAN_TIMEOUT != 0u))
1883:Generated_Source\PSoC4/BLE_eventHandler.c ****                         if(cyBle_scanningIntervalType == CYBLE_SCANNING_FAST)
1884:Generated_Source\PSoC4/BLE_eventHandler.c ****                         {
1885:Generated_Source\PSoC4/BLE_eventHandler.c ****                             /* When fast scanning time out occur: Start slow scanning */
1886:Generated_Source\PSoC4/BLE_eventHandler.c ****                             if(CyBle_GapcStartScan(CYBLE_SCANNING_SLOW) == CYBLE_ERROR_OK)
1887:Generated_Source\PSoC4/BLE_eventHandler.c ****                             {
1888:Generated_Source\PSoC4/BLE_eventHandler.c ****                                 CyBle_SetState(CYBLE_STATE_SCANNING);
1889:Generated_Source\PSoC4/BLE_eventHandler.c ****                             }
1890:Generated_Source\PSoC4/BLE_eventHandler.c ****                         }
1891:Generated_Source\PSoC4/BLE_eventHandler.c ****                     #endif /* CYBLE_SLOW_SCAN_ENABLED */
1892:Generated_Source\PSoC4/BLE_eventHandler.c ****                     }
1893:Generated_Source\PSoC4/BLE_eventHandler.c ****                 }
1894:Generated_Source\PSoC4/BLE_eventHandler.c ****             }
1895:Generated_Source\PSoC4/BLE_eventHandler.c ****             break;
 1574              		.loc 1 1895 0
 1575 02de C5E0     		b	.L116
 1576              	.L106:
1872:Generated_Source\PSoC4/BLE_eventHandler.c ****                 {
 1577              		.loc 1 1872 0
 1578 02e0 1F4B     		ldr	r3, .L119
 1579 02e2 1B78     		ldrb	r3, [r3]
 1580 02e4 DBB2     		uxtb	r3, r3
 1581 02e6 1A00     		movs	r2, r3
 1582 02e8 0823     		movs	r3, #8
 1583 02ea 1340     		ands	r3, r2
 1584 02ec 0BD0     		beq	.L107
1874:Generated_Source\PSoC4/BLE_eventHandler.c ****                     cyBle_eventHandlerFlag &= (uint8)~CYBLE_STOP_FLAG;
 1585              		.loc 1 1874 0
 1586 02ee 244B     		ldr	r3, .L119+32
 1587 02f0 0622     		movs	r2, #6
 1588 02f2 1A70     		strb	r2, [r3]
1875:Generated_Source\PSoC4/BLE_eventHandler.c ****                 }
 1589              		.loc 1 1875 0
 1590 02f4 1A4B     		ldr	r3, .L119
 1591 02f6 1B78     		ldrb	r3, [r3]
 1592 02f8 DBB2     		uxtb	r3, r3
 1593 02fa 0822     		movs	r2, #8
 1594 02fc 9343     		bics	r3, r2
 1595 02fe DAB2     		uxtb	r2, r3
 1596 0300 174B     		ldr	r3, .L119
 1597 0302 1A70     		strb	r2, [r3]
 1598              		.loc 1 1895 0
 1599 0304 B2E0     		b	.L116
 1600              	.L107:
1879:Generated_Source\PSoC4/BLE_eventHandler.c ****                     {
 1601              		.loc 1 1879 0
 1602 0306 1E4B     		ldr	r3, .L119+32
 1603 0308 1B78     		ldrb	r3, [r3]
 1604 030a 042B     		cmp	r3, #4
 1605 030c 00D0     		beq	.LCB1256
 1606 030e ADE0     		b	.L116	@long jump
 1607              	.LCB1256:
1881:Generated_Source\PSoC4/BLE_eventHandler.c ****                     #if ((CYBLE_SLOW_SCAN_ENABLED != 0u) && (CYBLE_FAST_SCAN_TIMEOUT != 0u))
ARM GAS  C:\Users\run1009\AppData\Local\Temp\ccSZtXoF.s 			page 63


 1608              		.loc 1 1881 0
 1609 0310 1B4B     		ldr	r3, .L119+32
 1610 0312 0622     		movs	r2, #6
 1611 0314 1A70     		strb	r2, [r3]
 1612              		.loc 1 1895 0
 1613 0316 A9E0     		b	.L116
 1614              	.L91:
1896:Generated_Source\PSoC4/BLE_eventHandler.c ****         #endif /* CYBLE_GAP_ROLE_CENTRAL || CYBLE_GAP_ROLE_OBSERVER */
1897:Generated_Source\PSoC4/BLE_eventHandler.c **** 
1898:Generated_Source\PSoC4/BLE_eventHandler.c ****         /**********************************************************
1899:Generated_Source\PSoC4/BLE_eventHandler.c ****         * L2AP events 
1900:Generated_Source\PSoC4/BLE_eventHandler.c ****         ************************************************************/
1901:Generated_Source\PSoC4/BLE_eventHandler.c ****         case CYBLE_EVT_L2CAP_CONN_PARAM_UPDATE_RSP:
1902:Generated_Source\PSoC4/BLE_eventHandler.c ****             CyBle_L2Cap_ConnParamUpdateRspEventHandler(*(uint16 *)eventParam);
 1615              		.loc 1 1902 0
 1616 0318 3B68     		ldr	r3, [r7]
 1617 031a 1B88     		ldrh	r3, [r3]
 1618 031c 1800     		movs	r0, r3
 1619 031e FFF7FEFF 		bl	CyBle_L2Cap_ConnParamUpdateRspEventHandler
1903:Generated_Source\PSoC4/BLE_eventHandler.c ****             break;
 1620              		.loc 1 1903 0
 1621 0322 A6E0     		b	.L95
 1622              	.L71:
1904:Generated_Source\PSoC4/BLE_eventHandler.c ****         
1905:Generated_Source\PSoC4/BLE_eventHandler.c ****         /**********************************************************
1906:Generated_Source\PSoC4/BLE_eventHandler.c ****         * GATT events
1907:Generated_Source\PSoC4/BLE_eventHandler.c ****         ************************************************************/        
1908:Generated_Source\PSoC4/BLE_eventHandler.c ****         case CYBLE_EVT_GATT_CONNECT_IND:
1909:Generated_Source\PSoC4/BLE_eventHandler.c ****             cyBle_connHandle = *(CYBLE_CONN_HANDLE_T *)eventParam;
 1623              		.loc 1 1909 0
 1624 0324 1B4A     		ldr	r2, .L119+52
 1625 0326 3B68     		ldr	r3, [r7]
 1626 0328 1000     		movs	r0, r2
 1627 032a 1900     		movs	r1, r3
 1628 032c 0223     		movs	r3, #2
 1629 032e 1A00     		movs	r2, r3
 1630 0330 FFF7FEFF 		bl	memcpy
1910:Generated_Source\PSoC4/BLE_eventHandler.c ****             cyBle_busyStatus = CYBLE_STACK_STATE_FREE;
 1631              		.loc 1 1910 0
 1632 0334 134B     		ldr	r3, .L119+36
 1633 0336 0022     		movs	r2, #0
 1634 0338 1A70     		strb	r2, [r3]
1911:Generated_Source\PSoC4/BLE_eventHandler.c ****             
1912:Generated_Source\PSoC4/BLE_eventHandler.c ****         #if((CYBLE_GATT_ROLE_SERVER) && (CYBLE_GATT_DB_CCCD_COUNT != 0u) && \
1913:Generated_Source\PSoC4/BLE_eventHandler.c ****             (CYBLE_BONDING_REQUIREMENT == CYBLE_BONDING_YES))
1914:Generated_Source\PSoC4/BLE_eventHandler.c ****             /* Init CCCD values in RAM when bonding is enabled */
1915:Generated_Source\PSoC4/BLE_eventHandler.c ****         	(void) memcpy (cyBle_attValuesCCCD, cyBle_flashStorage.attValuesCCCDFlashMemory[cyBle_conn
1916:Generated_Source\PSoC4/BLE_eventHandler.c ****                             CYBLE_GATT_DB_CCCD_COUNT);
1917:Generated_Source\PSoC4/BLE_eventHandler.c ****         #endif /* CYBLE_GATT_ROLE_SERVER && (CYBLE_BONDING_REQUIREMENT == CYBLE_BONDING_YES) */
1918:Generated_Source\PSoC4/BLE_eventHandler.c ****         
1919:Generated_Source\PSoC4/BLE_eventHandler.c ****         #if (CYBLE_GATT_ROLE_CLIENT)
1920:Generated_Source\PSoC4/BLE_eventHandler.c ****             CyBle_SetClientState(CYBLE_CLIENT_STATE_CONNECTED);
 1635              		.loc 1 1920 0
 1636 033a 194B     		ldr	r3, .L119+64
 1637 033c 0022     		movs	r2, #0
 1638 033e 1A70     		strb	r2, [r3]
1921:Generated_Source\PSoC4/BLE_eventHandler.c ****         #endif /* CYBLE_GATT_ROLE_CLIENT */
ARM GAS  C:\Users\run1009\AppData\Local\Temp\ccSZtXoF.s 			page 64


1922:Generated_Source\PSoC4/BLE_eventHandler.c ****         
1923:Generated_Source\PSoC4/BLE_eventHandler.c ****             CyBle_GattConnectReqHandler();
 1639              		.loc 1 1923 0
 1640 0340 FFF7FEFF 		bl	CyBle_GattConnectReqHandler
1924:Generated_Source\PSoC4/BLE_eventHandler.c ****             break;
 1641              		.loc 1 1924 0
 1642 0344 95E0     		b	.L95
 1643              	.L72:
1925:Generated_Source\PSoC4/BLE_eventHandler.c **** 
1926:Generated_Source\PSoC4/BLE_eventHandler.c ****         case CYBLE_EVT_GATT_DISCONNECT_IND:
1927:Generated_Source\PSoC4/BLE_eventHandler.c ****             CyBle_GattDisconnectEventHandler();
 1644              		.loc 1 1927 0
 1645 0346 FFF7FEFF 		bl	CyBle_GattDisconnectEventHandler
1928:Generated_Source\PSoC4/BLE_eventHandler.c ****             break;
 1646              		.loc 1 1928 0
 1647 034a 92E0     		b	.L95
 1648              	.L73:
 1649              	.LBB11:
1929:Generated_Source\PSoC4/BLE_eventHandler.c **** 
1930:Generated_Source\PSoC4/BLE_eventHandler.c ****     #if((CYBLE_GATT_ROLE_SERVER) || (CYBLE_GATT_ROLE_CLIENT))
1931:Generated_Source\PSoC4/BLE_eventHandler.c ****         case CYBLE_EVT_GATTS_XCNHG_MTU_REQ:
1932:Generated_Source\PSoC4/BLE_eventHandler.c ****             {
1933:Generated_Source\PSoC4/BLE_eventHandler.c ****                 uint16 cyBle_mtuSize;
1934:Generated_Source\PSoC4/BLE_eventHandler.c ****                 if(CYBLE_GATT_MTU > ((CYBLE_GATT_XCHG_MTU_PARAM_T *)eventParam)->mtu)
 1650              		.loc 1 1934 0
 1651 034c 3B68     		ldr	r3, [r7]
 1652 034e 5B88     		ldrh	r3, [r3, #2]
 1653 0350 162B     		cmp	r3, #22
 1654 0352 27D8     		bhi	.L108
1935:Generated_Source\PSoC4/BLE_eventHandler.c ****                 {
1936:Generated_Source\PSoC4/BLE_eventHandler.c ****                     cyBle_mtuSize = ((CYBLE_GATT_XCHG_MTU_PARAM_T *)eventParam)->mtu;
 1655              		.loc 1 1936 0
 1656 0354 1E23     		movs	r3, #30
 1657 0356 FB18     		adds	r3, r7, r3
 1658 0358 3A68     		ldr	r2, [r7]
 1659 035a 5288     		ldrh	r2, [r2, #2]
 1660 035c 1A80     		strh	r2, [r3]
 1661 035e 25E0     		b	.L109
 1662              	.L120:
 1663              		.align	2
 1664              	.L119:
 1665 0360 00000000 		.word	cyBle_eventHandlerFlag
 1666 0364 0C000000 		.word	.L58
 1667 0368 00000000 		.word	cyBle_sflashDeviceAddress
 1668 036c 7CF1FF0F 		.word	268431740
 1669 0370 7DF1FF0F 		.word	268431741
 1670 0374 7BF1FF0F 		.word	268431739
 1671 0378 78F1FF0F 		.word	268431736
 1672 037c 00000000 		.word	cyBle_deviceAddress
 1673 0380 00000000 		.word	cyBle_state
 1674 0384 00000000 		.word	cyBle_busyStatus
 1675 0388 18000000 		.word	gPrepWriteReqMem.6802
 1676 038c E00A0000 		.word	cyBle_stackMemoryRam+2784
 1677 0390 00000000 		.word	cyBle_authInfo
 1678 0394 00000000 		.word	cyBle_connHandle
 1679 0398 00000000 		.word	CyBle_ApplCallback
 1680 039c 00000000 		.word	cyBle_connectingTimeout
ARM GAS  C:\Users\run1009\AppData\Local\Temp\ccSZtXoF.s 			page 65


 1681 03a0 00000000 		.word	cyBle_clientState
 1682              	.L108:
1937:Generated_Source\PSoC4/BLE_eventHandler.c ****                 }
1938:Generated_Source\PSoC4/BLE_eventHandler.c ****                 else
1939:Generated_Source\PSoC4/BLE_eventHandler.c ****                 {
1940:Generated_Source\PSoC4/BLE_eventHandler.c ****                     cyBle_mtuSize = CYBLE_GATT_MTU;
 1683              		.loc 1 1940 0
 1684 03a4 1E23     		movs	r3, #30
 1685 03a6 FB18     		adds	r3, r7, r3
 1686 03a8 1722     		movs	r2, #23
 1687 03aa 1A80     		strh	r2, [r3]
 1688              	.L109:
1941:Generated_Source\PSoC4/BLE_eventHandler.c ****                 }
1942:Generated_Source\PSoC4/BLE_eventHandler.c ****                 (void)CyBle_GattsExchangeMtuRsp(((CYBLE_GATT_XCHG_MTU_PARAM_T *)eventParam)->connHa
 1689              		.loc 1 1942 0
 1690 03ac 1E23     		movs	r3, #30
 1691 03ae FB18     		adds	r3, r7, r3
 1692 03b0 1988     		ldrh	r1, [r3]
 1693 03b2 3B68     		ldr	r3, [r7]
 1694 03b4 1A88     		ldrh	r2, [r3]
 1695 03b6 0023     		movs	r3, #0
 1696 03b8 1204     		lsls	r2, r2, #16
 1697 03ba 120C     		lsrs	r2, r2, #16
 1698 03bc 1B0C     		lsrs	r3, r3, #16
 1699 03be 1B04     		lsls	r3, r3, #16
 1700 03c0 1343     		orrs	r3, r2
 1701 03c2 1800     		movs	r0, r3
 1702 03c4 FFF7FEFF 		bl	CyBle_GattsExchangeMtuRsp
 1703              	.LBE11:
1943:Generated_Source\PSoC4/BLE_eventHandler.c ****             }
1944:Generated_Source\PSoC4/BLE_eventHandler.c ****             break;
 1704              		.loc 1 1944 0
 1705 03c8 53E0     		b	.L95
 1706              	.L80:
1945:Generated_Source\PSoC4/BLE_eventHandler.c ****     #endif /* CYBLE_GATT_ROLE_SERVER || CYBLE_GATT_ROLE_CLIENT */
1946:Generated_Source\PSoC4/BLE_eventHandler.c ****     
1947:Generated_Source\PSoC4/BLE_eventHandler.c ****     #if (CYBLE_GATT_ROLE_CLIENT)
1948:Generated_Source\PSoC4/BLE_eventHandler.c ****         case CYBLE_EVT_GAPC_SCAN_PROGRESS_RESULT:
1949:Generated_Source\PSoC4/BLE_eventHandler.c ****         #ifdef CYBLE_CPS_CLIENT
1950:Generated_Source\PSoC4/BLE_eventHandler.c ****             CyBle_CpscScanProcessEventHandler((CYBLE_GAPC_ADV_REPORT_T *)eventParam);
1951:Generated_Source\PSoC4/BLE_eventHandler.c ****         #endif /* CYBLE_CPS_CLIENT */
1952:Generated_Source\PSoC4/BLE_eventHandler.c ****             break;
1953:Generated_Source\PSoC4/BLE_eventHandler.c ****     #endif /* CYBLE_GATT_ROLE_CLIENT */
1954:Generated_Source\PSoC4/BLE_eventHandler.c **** 
1955:Generated_Source\PSoC4/BLE_eventHandler.c ****     #if(CYBLE_GATT_ROLE_SERVER)
1956:Generated_Source\PSoC4/BLE_eventHandler.c ****         case CYBLE_EVT_GATTS_WRITE_REQ:
1957:Generated_Source\PSoC4/BLE_eventHandler.c ****             CyBle_WriteReqHandler((CYBLE_GATTS_WRITE_REQ_PARAM_T *)eventParam);
 1707              		.loc 1 1957 0
 1708 03ca 3B68     		ldr	r3, [r7]
 1709 03cc 1800     		movs	r0, r3
 1710 03ce FFF7FEFF 		bl	CyBle_WriteReqHandler
1958:Generated_Source\PSoC4/BLE_eventHandler.c ****             break;
 1711              		.loc 1 1958 0
 1712 03d2 4EE0     		b	.L95
 1713              	.L88:
1959:Generated_Source\PSoC4/BLE_eventHandler.c **** 
1960:Generated_Source\PSoC4/BLE_eventHandler.c ****         case CYBLE_EVT_GATTS_WRITE_CMD_REQ:
ARM GAS  C:\Users\run1009\AppData\Local\Temp\ccSZtXoF.s 			page 66


1961:Generated_Source\PSoC4/BLE_eventHandler.c ****         #ifdef CYBLE_AIOS_SERVER
1962:Generated_Source\PSoC4/BLE_eventHandler.c ****             if((cyBle_eventHandlerFlag & CYBLE_CALLBACK) != 0u)
1963:Generated_Source\PSoC4/BLE_eventHandler.c ****             {
1964:Generated_Source\PSoC4/BLE_eventHandler.c ****                 (void)CyBle_AiossWriteEventHandler((CYBLE_GATTS_WRITE_REQ_PARAM_T *)eventParam);
1965:Generated_Source\PSoC4/BLE_eventHandler.c ****             }
1966:Generated_Source\PSoC4/BLE_eventHandler.c ****         #endif /* CYBLE_AIOS_SERVER */
1967:Generated_Source\PSoC4/BLE_eventHandler.c ****         #ifdef CYBLE_IAS_SERVER
1968:Generated_Source\PSoC4/BLE_eventHandler.c ****             if((cyBle_eventHandlerFlag & CYBLE_CALLBACK) != 0u)
1969:Generated_Source\PSoC4/BLE_eventHandler.c ****             {
1970:Generated_Source\PSoC4/BLE_eventHandler.c ****                 (void)CyBle_IassWriteCmdEventHandler((CYBLE_GATTS_WRITE_REQ_PARAM_T *)eventParam);
1971:Generated_Source\PSoC4/BLE_eventHandler.c ****             }
1972:Generated_Source\PSoC4/BLE_eventHandler.c ****         #endif /* CYBLE_IAS_SERVER */
1973:Generated_Source\PSoC4/BLE_eventHandler.c ****         #ifdef CYBLE_IPS_SERVER
1974:Generated_Source\PSoC4/BLE_eventHandler.c ****             if((cyBle_eventHandlerFlag & CYBLE_CALLBACK) != 0u)
1975:Generated_Source\PSoC4/BLE_eventHandler.c ****             {
1976:Generated_Source\PSoC4/BLE_eventHandler.c ****                 (void)CyBle_IpssWriteCmdEventHandler((CYBLE_GATTS_WRITE_REQ_PARAM_T *)eventParam);
1977:Generated_Source\PSoC4/BLE_eventHandler.c ****             }
1978:Generated_Source\PSoC4/BLE_eventHandler.c ****         #endif /* CYBLE_IPS_SERVER */
1979:Generated_Source\PSoC4/BLE_eventHandler.c ****         #ifdef CYBLE_HIDS_SERVER
1980:Generated_Source\PSoC4/BLE_eventHandler.c ****             if((cyBle_eventHandlerFlag & CYBLE_CALLBACK) != 0u)
1981:Generated_Source\PSoC4/BLE_eventHandler.c ****             {
1982:Generated_Source\PSoC4/BLE_eventHandler.c ****                 (void)CyBle_HidssWriteEventHandler((CYBLE_GATTS_WRITE_REQ_PARAM_T *)eventParam);
1983:Generated_Source\PSoC4/BLE_eventHandler.c ****             }
1984:Generated_Source\PSoC4/BLE_eventHandler.c ****         #endif /* CYBLE_HIDS_SERVER */
1985:Generated_Source\PSoC4/BLE_eventHandler.c ****         #ifdef CYBLE_PASS_SERVER
1986:Generated_Source\PSoC4/BLE_eventHandler.c ****             if((cyBle_eventHandlerFlag & CYBLE_CALLBACK) != 0u)
1987:Generated_Source\PSoC4/BLE_eventHandler.c ****             {
1988:Generated_Source\PSoC4/BLE_eventHandler.c ****                 (void)CyBle_PasssWriteCmdEventHandler((CYBLE_GATTS_WRITE_REQ_PARAM_T *)eventParam);
1989:Generated_Source\PSoC4/BLE_eventHandler.c ****             }
1990:Generated_Source\PSoC4/BLE_eventHandler.c ****         #endif /* CYBLE_PASS_SERVER */
1991:Generated_Source\PSoC4/BLE_eventHandler.c ****         #ifdef CYBLE_RTUS_SERVER
1992:Generated_Source\PSoC4/BLE_eventHandler.c ****             if((cyBle_eventHandlerFlag & CYBLE_CALLBACK) != 0u)
1993:Generated_Source\PSoC4/BLE_eventHandler.c ****             {
1994:Generated_Source\PSoC4/BLE_eventHandler.c ****                 (void)CyBle_RtussWriteCmdEventHandler((CYBLE_GATTS_WRITE_REQ_PARAM_T *)eventParam);
1995:Generated_Source\PSoC4/BLE_eventHandler.c ****             }
1996:Generated_Source\PSoC4/BLE_eventHandler.c ****         #endif /* CYBLE_RTUS_SERVER */
1997:Generated_Source\PSoC4/BLE_eventHandler.c ****         #ifdef CYBLE_SCPS_SERVER
1998:Generated_Source\PSoC4/BLE_eventHandler.c ****             if((cyBle_eventHandlerFlag & CYBLE_CALLBACK) != 0u)
1999:Generated_Source\PSoC4/BLE_eventHandler.c ****             {
2000:Generated_Source\PSoC4/BLE_eventHandler.c ****                 (void)CyBle_ScpssWriteEventHandler((CYBLE_GATTS_WRITE_REQ_PARAM_T *)eventParam);
2001:Generated_Source\PSoC4/BLE_eventHandler.c ****             }
2002:Generated_Source\PSoC4/BLE_eventHandler.c ****         #endif /* CYBLE_SCPS_SERVER */
2003:Generated_Source\PSoC4/BLE_eventHandler.c ****             break;
2004:Generated_Source\PSoC4/BLE_eventHandler.c ****         
2005:Generated_Source\PSoC4/BLE_eventHandler.c ****         case CYBLE_EVT_GATTS_PREP_WRITE_REQ:
2006:Generated_Source\PSoC4/BLE_eventHandler.c ****         #ifdef CYBLE_BMS_SERVER
2007:Generated_Source\PSoC4/BLE_eventHandler.c ****             CyBle_BmssPrepareWriteRequestEventHandler((CYBLE_GATTS_PREP_WRITE_REQ_PARAM_T *)eventPa
2008:Generated_Source\PSoC4/BLE_eventHandler.c ****         #endif /* CYBLE_BMS_SERVER */
2009:Generated_Source\PSoC4/BLE_eventHandler.c ****         #ifdef CYBLE_BTS_SERVER
2010:Generated_Source\PSoC4/BLE_eventHandler.c ****             if((cyBle_eventHandlerFlag & CYBLE_CALLBACK) != 0u)
2011:Generated_Source\PSoC4/BLE_eventHandler.c ****             {
2012:Generated_Source\PSoC4/BLE_eventHandler.c ****                 CyBle_BtssPrepareWriteRequestEventHandler((CYBLE_GATTS_PREP_WRITE_REQ_PARAM_T *)eve
2013:Generated_Source\PSoC4/BLE_eventHandler.c ****             }
2014:Generated_Source\PSoC4/BLE_eventHandler.c ****         #endif /* CYBLE_BTS_SERVER */
2015:Generated_Source\PSoC4/BLE_eventHandler.c ****         #ifdef CYBLE_ESS_SERVER
2016:Generated_Source\PSoC4/BLE_eventHandler.c ****             if((cyBle_eventHandlerFlag & CYBLE_CALLBACK) != 0u)
2017:Generated_Source\PSoC4/BLE_eventHandler.c ****             {
ARM GAS  C:\Users\run1009\AppData\Local\Temp\ccSZtXoF.s 			page 67


2018:Generated_Source\PSoC4/BLE_eventHandler.c ****                 CyBle_EsssPrepareWriteRequestEventHandler((CYBLE_GATTS_PREP_WRITE_REQ_PARAM_T *)eve
2019:Generated_Source\PSoC4/BLE_eventHandler.c ****             }
2020:Generated_Source\PSoC4/BLE_eventHandler.c ****         #endif /* CYBLE_ESS_SERVER */
2021:Generated_Source\PSoC4/BLE_eventHandler.c ****         #ifdef CYBLE_HPS_SERVER
2022:Generated_Source\PSoC4/BLE_eventHandler.c ****             if((cyBle_eventHandlerFlag & CYBLE_CALLBACK) != 0u)
2023:Generated_Source\PSoC4/BLE_eventHandler.c ****             {
2024:Generated_Source\PSoC4/BLE_eventHandler.c ****                 CyBle_HpssPrepareWriteRequestEventHandler((CYBLE_GATTS_PREP_WRITE_REQ_PARAM_T *)eve
2025:Generated_Source\PSoC4/BLE_eventHandler.c ****             }
2026:Generated_Source\PSoC4/BLE_eventHandler.c ****         #endif /* CYBLE_HPS_SERVER */
2027:Generated_Source\PSoC4/BLE_eventHandler.c ****         #ifdef CYBLE_IPS_SERVER
2028:Generated_Source\PSoC4/BLE_eventHandler.c ****             if((cyBle_eventHandlerFlag & CYBLE_CALLBACK) != 0u)
2029:Generated_Source\PSoC4/BLE_eventHandler.c ****             {
2030:Generated_Source\PSoC4/BLE_eventHandler.c ****                 CyBle_IpssPrepareWriteRequestEventHandler((CYBLE_GATTS_PREP_WRITE_REQ_PARAM_T *)eve
2031:Generated_Source\PSoC4/BLE_eventHandler.c ****             }
2032:Generated_Source\PSoC4/BLE_eventHandler.c ****         #endif /* CYBLE_IPS_SERVER */
2033:Generated_Source\PSoC4/BLE_eventHandler.c ****         #ifdef CYBLE_UDS_SERVER
2034:Generated_Source\PSoC4/BLE_eventHandler.c ****             if((cyBle_eventHandlerFlag & CYBLE_CALLBACK) != 0u)
2035:Generated_Source\PSoC4/BLE_eventHandler.c ****             {
2036:Generated_Source\PSoC4/BLE_eventHandler.c ****                 CyBle_UdssPrepareWriteRequestEventHandler((CYBLE_GATTS_PREP_WRITE_REQ_PARAM_T *)eve
2037:Generated_Source\PSoC4/BLE_eventHandler.c ****             }
2038:Generated_Source\PSoC4/BLE_eventHandler.c ****         #endif /* CYBLE_UDS_SERVER */
2039:Generated_Source\PSoC4/BLE_eventHandler.c ****             break;
2040:Generated_Source\PSoC4/BLE_eventHandler.c **** 
2041:Generated_Source\PSoC4/BLE_eventHandler.c ****         case CYBLE_EVT_GATTS_EXEC_WRITE_REQ:
2042:Generated_Source\PSoC4/BLE_eventHandler.c ****         #ifdef CYBLE_BMS_SERVER
2043:Generated_Source\PSoC4/BLE_eventHandler.c ****             CyBle_BmssExecuteWriteRequestEventHandler((CYBLE_GATTS_EXEC_WRITE_REQ_T *)eventParam);
2044:Generated_Source\PSoC4/BLE_eventHandler.c ****         #endif /* CYBLE_BMS_SERVER */
2045:Generated_Source\PSoC4/BLE_eventHandler.c ****         #ifdef CYBLE_BTS_SERVER
2046:Generated_Source\PSoC4/BLE_eventHandler.c ****             CyBle_BtssExecuteWriteRequestEventHandler((CYBLE_GATTS_EXEC_WRITE_REQ_T *)eventParam);
2047:Generated_Source\PSoC4/BLE_eventHandler.c ****         #endif /* CYBLE_BTS_SERVER */
2048:Generated_Source\PSoC4/BLE_eventHandler.c ****         #ifdef CYBLE_ESS_SERVER
2049:Generated_Source\PSoC4/BLE_eventHandler.c ****             CyBle_EsssExecuteWriteRequestEventHandler((CYBLE_GATTS_EXEC_WRITE_REQ_T *)eventParam);
2050:Generated_Source\PSoC4/BLE_eventHandler.c ****         #endif /* CYBLE_ESS_SERVER */
2051:Generated_Source\PSoC4/BLE_eventHandler.c ****         #ifdef CYBLE_HPS_SERVER
2052:Generated_Source\PSoC4/BLE_eventHandler.c ****             CyBle_HpssExecuteWriteRequestEventHandler((CYBLE_GATTS_EXEC_WRITE_REQ_T *)eventParam);
2053:Generated_Source\PSoC4/BLE_eventHandler.c ****         #endif /* CYBLE_HPS_SERVER */
2054:Generated_Source\PSoC4/BLE_eventHandler.c ****         #ifdef CYBLE_IPS_SERVER
2055:Generated_Source\PSoC4/BLE_eventHandler.c ****             CyBle_IpssExecuteWriteRequestEventHandler((CYBLE_GATTS_EXEC_WRITE_REQ_T *)eventParam);
2056:Generated_Source\PSoC4/BLE_eventHandler.c ****         #endif /* CYBLE_IPS_SERVER */
2057:Generated_Source\PSoC4/BLE_eventHandler.c **** 		#ifdef CYBLE_UDS_SERVER
2058:Generated_Source\PSoC4/BLE_eventHandler.c ****             CyBle_UdssExecuteWriteRequestEventHandler((CYBLE_GATTS_EXEC_WRITE_REQ_T *)eventParam);
2059:Generated_Source\PSoC4/BLE_eventHandler.c ****         #endif /* CYBLE_UDS_SERVER */
2060:Generated_Source\PSoC4/BLE_eventHandler.c ****             break;
2061:Generated_Source\PSoC4/BLE_eventHandler.c ****         
2062:Generated_Source\PSoC4/BLE_eventHandler.c ****         case CYBLE_EVT_GATTS_HANDLE_VALUE_CNF:
2063:Generated_Source\PSoC4/BLE_eventHandler.c ****             CyBle_ValueConfirmation((CYBLE_CONN_HANDLE_T *)eventParam);
 1714              		.loc 1 2063 0
 1715 03d4 3B68     		ldr	r3, [r7]
 1716 03d6 1800     		movs	r0, r3
 1717 03d8 FFF7FEFF 		bl	CyBle_ValueConfirmation
2064:Generated_Source\PSoC4/BLE_eventHandler.c ****             break;
 1718              		.loc 1 2064 0
 1719 03dc 49E0     		b	.L95
 1720              	.L74:
2065:Generated_Source\PSoC4/BLE_eventHandler.c ****             
2066:Generated_Source\PSoC4/BLE_eventHandler.c ****         case CYBLE_EVT_GATTS_READ_CHAR_VAL_ACCESS_REQ:
2067:Generated_Source\PSoC4/BLE_eventHandler.c ****         #ifdef CYBLE_UDS_SERVER
ARM GAS  C:\Users\run1009\AppData\Local\Temp\ccSZtXoF.s 			page 68


2068:Generated_Source\PSoC4/BLE_eventHandler.c ****             CyBle_UdssReadRequestEventHandler((CYBLE_GATTS_CHAR_VAL_READ_REQ_T *)eventParam);
2069:Generated_Source\PSoC4/BLE_eventHandler.c ****         #endif /* CYBLE_UDS_SERVER */
2070:Generated_Source\PSoC4/BLE_eventHandler.c ****             break;
2071:Generated_Source\PSoC4/BLE_eventHandler.c ****             
2072:Generated_Source\PSoC4/BLE_eventHandler.c ****     #endif /* CYBLE_GATT_ROLE_SERVER */
2073:Generated_Source\PSoC4/BLE_eventHandler.c **** 
2074:Generated_Source\PSoC4/BLE_eventHandler.c ****     #if (CYBLE_GATT_ROLE_CLIENT)
2075:Generated_Source\PSoC4/BLE_eventHandler.c ****         
2076:Generated_Source\PSoC4/BLE_eventHandler.c ****         case CYBLE_EVT_GATTC_READ_BY_GROUP_TYPE_RSP:
2077:Generated_Source\PSoC4/BLE_eventHandler.c ****             CyBle_ReadByGroupEventHandler((CYBLE_GATTC_READ_BY_GRP_RSP_PARAM_T *)eventParam);
 1721              		.loc 1 2077 0
 1722 03de 3B68     		ldr	r3, [r7]
 1723 03e0 1800     		movs	r0, r3
 1724 03e2 FFF7FEFF 		bl	CyBle_ReadByGroupEventHandler
2078:Generated_Source\PSoC4/BLE_eventHandler.c ****             break;
 1725              		.loc 1 2078 0
 1726 03e6 44E0     		b	.L95
 1727              	.L75:
2079:Generated_Source\PSoC4/BLE_eventHandler.c **** 
2080:Generated_Source\PSoC4/BLE_eventHandler.c ****         case CYBLE_EVT_GATTC_READ_BY_TYPE_RSP:
2081:Generated_Source\PSoC4/BLE_eventHandler.c ****             CyBle_ReadByTypeEventHandler((CYBLE_GATTC_READ_BY_TYPE_RSP_PARAM_T *)eventParam);
 1728              		.loc 1 2081 0
 1729 03e8 3B68     		ldr	r3, [r7]
 1730 03ea 1800     		movs	r0, r3
 1731 03ec FFF7FEFF 		bl	CyBle_ReadByTypeEventHandler
2082:Generated_Source\PSoC4/BLE_eventHandler.c ****             break;
 1732              		.loc 1 2082 0
 1733 03f0 3FE0     		b	.L95
 1734              	.L90:
2083:Generated_Source\PSoC4/BLE_eventHandler.c **** 
2084:Generated_Source\PSoC4/BLE_eventHandler.c ****         case CYBLE_EVT_GATTC_READ_BLOB_RSP:
2085:Generated_Source\PSoC4/BLE_eventHandler.c ****         #ifdef CYBLE_ESS_CLIENT
2086:Generated_Source\PSoC4/BLE_eventHandler.c ****             CyBle_EsscReadLongRespEventHandler((CYBLE_GATTC_READ_RSP_PARAM_T *)eventParam);
2087:Generated_Source\PSoC4/BLE_eventHandler.c ****         #endif /* CYBLE_ESS_CLIENT */
2088:Generated_Source\PSoC4/BLE_eventHandler.c ****         #ifdef CYBLE_HPS_CLIENT
2089:Generated_Source\PSoC4/BLE_eventHandler.c ****             CyBle_HpscReadLongRespEventHandler((CYBLE_GATTC_READ_RSP_PARAM_T *)eventParam);
2090:Generated_Source\PSoC4/BLE_eventHandler.c ****         #endif /* CYBLE_HPS_CLIENT */
2091:Generated_Source\PSoC4/BLE_eventHandler.c **** 		#ifdef CYBLE_IPS_CLIENT
2092:Generated_Source\PSoC4/BLE_eventHandler.c ****             CyBle_IpscReadLongRespEventHandler((CYBLE_GATTC_READ_RSP_PARAM_T *)eventParam);
2093:Generated_Source\PSoC4/BLE_eventHandler.c ****         #endif /* CYBLE_IPS_CLIENT */
2094:Generated_Source\PSoC4/BLE_eventHandler.c ****         #ifdef CYBLE_UDS_CLIENT
2095:Generated_Source\PSoC4/BLE_eventHandler.c ****             if((cyBle_eventHandlerFlag & CYBLE_CALLBACK) != 0u)
2096:Generated_Source\PSoC4/BLE_eventHandler.c ****             {
2097:Generated_Source\PSoC4/BLE_eventHandler.c ****                 CyBle_UdscReadLongRespEventHandler((CYBLE_GATTC_READ_RSP_PARAM_T *)eventParam);
2098:Generated_Source\PSoC4/BLE_eventHandler.c ****             }
2099:Generated_Source\PSoC4/BLE_eventHandler.c ****         #endif /* CYBLE_UDS_CLIENT */
2100:Generated_Source\PSoC4/BLE_eventHandler.c ****             break;
2101:Generated_Source\PSoC4/BLE_eventHandler.c ****         
2102:Generated_Source\PSoC4/BLE_eventHandler.c ****         case CYBLE_EVT_GATTC_LONG_PROCEDURE_END:
2103:Generated_Source\PSoC4/BLE_eventHandler.c ****             CyBle_LongProcedureEndEventHandler();
 1735              		.loc 1 2103 0
 1736 03f2 FFF7FEFF 		bl	CyBle_LongProcedureEndEventHandler
2104:Generated_Source\PSoC4/BLE_eventHandler.c ****             break;
 1737              		.loc 1 2104 0
 1738 03f6 3CE0     		b	.L95
 1739              	.L76:
2105:Generated_Source\PSoC4/BLE_eventHandler.c ****         
ARM GAS  C:\Users\run1009\AppData\Local\Temp\ccSZtXoF.s 			page 69


2106:Generated_Source\PSoC4/BLE_eventHandler.c ****         case CYBLE_EVT_GATTC_FIND_INFO_RSP:
2107:Generated_Source\PSoC4/BLE_eventHandler.c ****             CyBle_FindInfoEventHandler((CYBLE_GATTC_FIND_INFO_RSP_PARAM_T *)eventParam);
 1740              		.loc 1 2107 0
 1741 03f8 3B68     		ldr	r3, [r7]
 1742 03fa 1800     		movs	r0, r3
 1743 03fc FFF7FEFF 		bl	CyBle_FindInfoEventHandler
2108:Generated_Source\PSoC4/BLE_eventHandler.c ****             break;
 1744              		.loc 1 2108 0
 1745 0400 37E0     		b	.L95
 1746              	.L70:
2109:Generated_Source\PSoC4/BLE_eventHandler.c **** 
2110:Generated_Source\PSoC4/BLE_eventHandler.c ****         case CYBLE_EVT_GATTC_ERROR_RSP:
2111:Generated_Source\PSoC4/BLE_eventHandler.c ****             CyBle_ErrorResponseEventHandler((CYBLE_GATTC_ERR_RSP_PARAM_T *)eventParam);
 1747              		.loc 1 2111 0
 1748 0402 3B68     		ldr	r3, [r7]
 1749 0404 1800     		movs	r0, r3
 1750 0406 FFF7FEFF 		bl	CyBle_ErrorResponseEventHandler
2112:Generated_Source\PSoC4/BLE_eventHandler.c ****             break;
 1751              		.loc 1 2112 0
 1752 040a 32E0     		b	.L95
 1753              	.L86:
2113:Generated_Source\PSoC4/BLE_eventHandler.c **** 
2114:Generated_Source\PSoC4/BLE_eventHandler.c ****         case CYBLE_EVT_GATTC_HANDLE_VALUE_NTF:
2115:Generated_Source\PSoC4/BLE_eventHandler.c ****             CyBle_NotificationEventHandler((CYBLE_GATTC_HANDLE_VALUE_NTF_PARAM_T *)eventParam);
 1754              		.loc 1 2115 0
 1755 040c 3B68     		ldr	r3, [r7]
 1756 040e 1800     		movs	r0, r3
 1757 0410 FFF7FEFF 		bl	CyBle_NotificationEventHandler
2116:Generated_Source\PSoC4/BLE_eventHandler.c ****             break;
 1758              		.loc 1 2116 0
 1759 0414 2DE0     		b	.L95
 1760              	.L87:
2117:Generated_Source\PSoC4/BLE_eventHandler.c **** 
2118:Generated_Source\PSoC4/BLE_eventHandler.c ****         case CYBLE_EVT_GATTC_HANDLE_VALUE_IND:
2119:Generated_Source\PSoC4/BLE_eventHandler.c ****             CyBle_GattcIndicationEventHandler((CYBLE_GATTC_HANDLE_VALUE_IND_PARAM_T *)eventParam);
 1761              		.loc 1 2119 0
 1762 0416 3B68     		ldr	r3, [r7]
 1763 0418 1800     		movs	r0, r3
 1764 041a FFF7FEFF 		bl	CyBle_GattcIndicationEventHandler
2120:Generated_Source\PSoC4/BLE_eventHandler.c ****             CyBle_IndicationEventHandler((CYBLE_GATTC_HANDLE_VALUE_IND_PARAM_T *)eventParam);
 1765              		.loc 1 2120 0
 1766 041e 3B68     		ldr	r3, [r7]
 1767 0420 1800     		movs	r0, r3
 1768 0422 FFF7FEFF 		bl	CyBle_IndicationEventHandler
2121:Generated_Source\PSoC4/BLE_eventHandler.c ****         
2122:Generated_Source\PSoC4/BLE_eventHandler.c ****             /* Respond with a Handle Value Confirmation when request handled */
2123:Generated_Source\PSoC4/BLE_eventHandler.c ****             if((cyBle_eventHandlerFlag & CYBLE_CALLBACK) == 0u)
 1769              		.loc 1 2123 0
 1770 0426 204B     		ldr	r3, .L121
 1771 0428 1B78     		ldrb	r3, [r3]
 1772 042a DBB2     		uxtb	r3, r3
 1773 042c 1A00     		movs	r2, r3
 1774 042e 0123     		movs	r3, #1
 1775 0430 1340     		ands	r3, r2
 1776 0432 1DD1     		bne	.L117
2124:Generated_Source\PSoC4/BLE_eventHandler.c ****             {
2125:Generated_Source\PSoC4/BLE_eventHandler.c ****                 (void)CyBle_GattcConfirmation(((CYBLE_GATTC_HANDLE_VALUE_IND_PARAM_T *)eventParam)-
ARM GAS  C:\Users\run1009\AppData\Local\Temp\ccSZtXoF.s 			page 70


 1777              		.loc 1 2125 0
 1778 0434 3B68     		ldr	r3, [r7]
 1779 0436 1868     		ldr	r0, [r3]
 1780 0438 FFF7FEFF 		bl	CyBle_GattcConfirmation
2126:Generated_Source\PSoC4/BLE_eventHandler.c ****             }
2127:Generated_Source\PSoC4/BLE_eventHandler.c ****             break;
 1781              		.loc 1 2127 0
 1782 043c 18E0     		b	.L117
 1783              	.L77:
2128:Generated_Source\PSoC4/BLE_eventHandler.c ****         
2129:Generated_Source\PSoC4/BLE_eventHandler.c ****         case CYBLE_EVT_GATTC_READ_RSP:
2130:Generated_Source\PSoC4/BLE_eventHandler.c ****             CyBle_ReadResponseEventHandler((CYBLE_GATTC_READ_RSP_PARAM_T *)eventParam);
 1784              		.loc 1 2130 0
 1785 043e 3B68     		ldr	r3, [r7]
 1786 0440 1800     		movs	r0, r3
 1787 0442 FFF7FEFF 		bl	CyBle_ReadResponseEventHandler
2131:Generated_Source\PSoC4/BLE_eventHandler.c ****             break;
 1788              		.loc 1 2131 0
 1789 0446 14E0     		b	.L95
 1790              	.L79:
2132:Generated_Source\PSoC4/BLE_eventHandler.c ****         
2133:Generated_Source\PSoC4/BLE_eventHandler.c ****         case CYBLE_EVT_GATTC_READ_MULTI_RSP:
2134:Generated_Source\PSoC4/BLE_eventHandler.c ****             CyBle_ReadMultipleResponseEventHandler((CYBLE_GATTC_READ_RSP_PARAM_T *)eventParam);
 1791              		.loc 1 2134 0
 1792 0448 3B68     		ldr	r3, [r7]
 1793 044a 1800     		movs	r0, r3
 1794 044c FFF7FEFF 		bl	CyBle_ReadMultipleResponseEventHandler
2135:Generated_Source\PSoC4/BLE_eventHandler.c ****             break;
 1795              		.loc 1 2135 0
 1796 0450 0FE0     		b	.L95
 1797              	.L81:
2136:Generated_Source\PSoC4/BLE_eventHandler.c ****             
2137:Generated_Source\PSoC4/BLE_eventHandler.c ****         case CYBLE_EVT_GATTC_WRITE_RSP:
2138:Generated_Source\PSoC4/BLE_eventHandler.c ****             CyBle_GattcWriteResponseEventHandler((CYBLE_CONN_HANDLE_T *)eventParam);
 1798              		.loc 1 2138 0
 1799 0452 3B68     		ldr	r3, [r7]
 1800 0454 1800     		movs	r0, r3
 1801 0456 FFF7FEFF 		bl	CyBle_GattcWriteResponseEventHandler
2139:Generated_Source\PSoC4/BLE_eventHandler.c ****             break;
 1802              		.loc 1 2139 0
 1803 045a 0AE0     		b	.L95
 1804              	.L112:
2140:Generated_Source\PSoC4/BLE_eventHandler.c ****             
2141:Generated_Source\PSoC4/BLE_eventHandler.c ****         case CYBLE_EVT_GATTC_EXEC_WRITE_RSP:
2142:Generated_Source\PSoC4/BLE_eventHandler.c ****         #ifdef CYBLE_BMS_CLIENT
2143:Generated_Source\PSoC4/BLE_eventHandler.c ****             CyBle_BmscExecuteWriteResponseEventHandler((CYBLE_GATTC_EXEC_WRITE_RSP_T *)eventParam);
2144:Generated_Source\PSoC4/BLE_eventHandler.c ****         #endif /* CYBLE_BMS_CLIENT */
2145:Generated_Source\PSoC4/BLE_eventHandler.c ****         #ifdef CYBLE_ESS_CLIENT
2146:Generated_Source\PSoC4/BLE_eventHandler.c ****             if((cyBle_eventHandlerFlag & CYBLE_CALLBACK) != 0u)
2147:Generated_Source\PSoC4/BLE_eventHandler.c ****             {
2148:Generated_Source\PSoC4/BLE_eventHandler.c ****                 CyBle_EsscExecuteWriteResponseEventHandler((CYBLE_GATTC_EXEC_WRITE_RSP_T *)eventPar
2149:Generated_Source\PSoC4/BLE_eventHandler.c ****             }
2150:Generated_Source\PSoC4/BLE_eventHandler.c ****         #endif /* CYBLE_ESS_CLIENT */
2151:Generated_Source\PSoC4/BLE_eventHandler.c ****         #ifdef CYBLE_HPS_CLIENT
2152:Generated_Source\PSoC4/BLE_eventHandler.c ****             if((cyBle_eventHandlerFlag & CYBLE_CALLBACK) != 0u)
2153:Generated_Source\PSoC4/BLE_eventHandler.c ****             {
2154:Generated_Source\PSoC4/BLE_eventHandler.c ****                 CyBle_HpscExecuteWriteResponseEventHandler((CYBLE_GATTC_EXEC_WRITE_RSP_T *)eventPar
ARM GAS  C:\Users\run1009\AppData\Local\Temp\ccSZtXoF.s 			page 71


2155:Generated_Source\PSoC4/BLE_eventHandler.c ****             }
2156:Generated_Source\PSoC4/BLE_eventHandler.c ****         #endif /* CYBLE_HPS_CLIENT */
2157:Generated_Source\PSoC4/BLE_eventHandler.c ****         #ifdef CYBLE_IPS_CLIENT
2158:Generated_Source\PSoC4/BLE_eventHandler.c ****             if((cyBle_eventHandlerFlag & CYBLE_CALLBACK) != 0u)
2159:Generated_Source\PSoC4/BLE_eventHandler.c ****             {
2160:Generated_Source\PSoC4/BLE_eventHandler.c ****                 CyBle_IpscExecuteWriteResponseEventHandler((CYBLE_GATTC_EXEC_WRITE_RSP_T *)eventPar
2161:Generated_Source\PSoC4/BLE_eventHandler.c ****             }
2162:Generated_Source\PSoC4/BLE_eventHandler.c ****         #endif /* CYBLE_IPS_CLIENT */
2163:Generated_Source\PSoC4/BLE_eventHandler.c ****         #ifdef CYBLE_UDS_CLIENT
2164:Generated_Source\PSoC4/BLE_eventHandler.c ****             if((cyBle_eventHandlerFlag & CYBLE_CALLBACK) != 0u)
2165:Generated_Source\PSoC4/BLE_eventHandler.c ****             {
2166:Generated_Source\PSoC4/BLE_eventHandler.c ****                 CyBle_UdscExecuteWriteResponseEventHandler((CYBLE_GATTC_EXEC_WRITE_RSP_T *)eventPar
2167:Generated_Source\PSoC4/BLE_eventHandler.c ****             }
2168:Generated_Source\PSoC4/BLE_eventHandler.c ****         #endif /* CYBLE_UDS_CLIENT */
2169:Generated_Source\PSoC4/BLE_eventHandler.c ****             break;
2170:Generated_Source\PSoC4/BLE_eventHandler.c ****             
2171:Generated_Source\PSoC4/BLE_eventHandler.c ****     #endif /* CYBLE_GATT_ROLE_CLIENT */
2172:Generated_Source\PSoC4/BLE_eventHandler.c **** 
2173:Generated_Source\PSoC4/BLE_eventHandler.c ****     #if((CYBLE_GAP_ROLE_PERIPHERAL || CYBLE_GAP_ROLE_CENTRAL) && (CYBLE_BONDING_REQUIREMENT == CYBL
2174:Generated_Source\PSoC4/BLE_eventHandler.c **** 
2175:Generated_Source\PSoC4/BLE_eventHandler.c ****         case CYBLE_EVT_PENDING_FLASH_WRITE:
2176:Generated_Source\PSoC4/BLE_eventHandler.c ****             cyBle_pendingFlashWrite |= CYBLE_PENDING_STACK_FLASH_WRITE_BIT;
2177:Generated_Source\PSoC4/BLE_eventHandler.c ****             break;
2178:Generated_Source\PSoC4/BLE_eventHandler.c ****         
2179:Generated_Source\PSoC4/BLE_eventHandler.c ****     #endif  /* (CYBLE_BONDING_REQUIREMENT == CYBLE_BONDING_YES) */
2180:Generated_Source\PSoC4/BLE_eventHandler.c ****     
2181:Generated_Source\PSoC4/BLE_eventHandler.c ****         default:
2182:Generated_Source\PSoC4/BLE_eventHandler.c ****             break;
 1805              		.loc 1 2182 0
 1806 045c C046     		nop
 1807 045e 08E0     		b	.L95
 1808              	.L113:
1725:Generated_Source\PSoC4/BLE_eventHandler.c ****         /**********************************************************
 1809              		.loc 1 1725 0
 1810 0460 C046     		nop
 1811 0462 06E0     		b	.L95
 1812              	.L114:
1763:Generated_Source\PSoC4/BLE_eventHandler.c ****         
 1813              		.loc 1 1763 0
 1814 0464 C046     		nop
 1815 0466 04E0     		b	.L95
 1816              	.L115:
1854:Generated_Source\PSoC4/BLE_eventHandler.c ****         #endif /* CYBLE_GAP_ROLE_PERIPHERAL || CYBLE_GAP_ROLE_BROADCASTER */
 1817              		.loc 1 1854 0
 1818 0468 C046     		nop
 1819 046a 02E0     		b	.L95
 1820              	.L116:
1895:Generated_Source\PSoC4/BLE_eventHandler.c ****         #endif /* CYBLE_GAP_ROLE_CENTRAL || CYBLE_GAP_ROLE_OBSERVER */
 1821              		.loc 1 1895 0
 1822 046c C046     		nop
 1823 046e 00E0     		b	.L95
 1824              	.L117:
2127:Generated_Source\PSoC4/BLE_eventHandler.c ****         
 1825              		.loc 1 2127 0
 1826 0470 C046     		nop
 1827              	.L95:
2183:Generated_Source\PSoC4/BLE_eventHandler.c ****     }
ARM GAS  C:\Users\run1009\AppData\Local\Temp\ccSZtXoF.s 			page 72


2184:Generated_Source\PSoC4/BLE_eventHandler.c **** 
2185:Generated_Source\PSoC4/BLE_eventHandler.c ****     if(0u != (cyBle_eventHandlerFlag & (CYBLE_CALLBACK | CYBLE_ENABLE_ALL_EVENTS))) 
 1828              		.loc 1 2185 0
 1829 0472 0D4B     		ldr	r3, .L121
 1830 0474 1B78     		ldrb	r3, [r3]
 1831 0476 DBB2     		uxtb	r3, r3
 1832 0478 1A00     		movs	r2, r3
 1833 047a 1123     		movs	r3, #17
 1834 047c 1340     		ands	r3, r2
 1835 047e 0ED0     		beq	.L118
2186:Generated_Source\PSoC4/BLE_eventHandler.c ****     {
2187:Generated_Source\PSoC4/BLE_eventHandler.c ****         cyBle_eventHandlerFlag &= (uint8)~CYBLE_CALLBACK;
 1836              		.loc 1 2187 0
 1837 0480 094B     		ldr	r3, .L121
 1838 0482 1B78     		ldrb	r3, [r3]
 1839 0484 DBB2     		uxtb	r3, r3
 1840 0486 0122     		movs	r2, #1
 1841 0488 9343     		bics	r3, r2
 1842 048a DAB2     		uxtb	r2, r3
 1843 048c 064B     		ldr	r3, .L121
 1844 048e 1A70     		strb	r2, [r3]
2188:Generated_Source\PSoC4/BLE_eventHandler.c ****         CyBle_ApplCallback((uint32)eventCode, eventParam);
 1845              		.loc 1 2188 0
 1846 0490 064B     		ldr	r3, .L121+4
 1847 0492 1B68     		ldr	r3, [r3]
 1848 0494 FA1D     		adds	r2, r7, #7
 1849 0496 1278     		ldrb	r2, [r2]
 1850 0498 3968     		ldr	r1, [r7]
 1851 049a 1000     		movs	r0, r2
 1852 049c 9847     		blx	r3
 1853              	.L118:
2189:Generated_Source\PSoC4/BLE_eventHandler.c ****     }
2190:Generated_Source\PSoC4/BLE_eventHandler.c **** }
 1854              		.loc 1 2190 0
 1855 049e C046     		nop
 1856 04a0 BD46     		mov	sp, r7
 1857 04a2 08B0     		add	sp, sp, #32
 1858              		@ sp needed
 1859 04a4 80BD     		pop	{r7, pc}
 1860              	.L122:
 1861 04a6 C046     		.align	2
 1862              	.L121:
 1863 04a8 00000000 		.word	cyBle_eventHandlerFlag
 1864 04ac 00000000 		.word	CyBle_ApplCallback
 1865              		.cfi_endproc
 1866              	.LFE15:
 1867              		.size	CyBle_EventHandler, .-CyBle_EventHandler
 1868              		.section	.text.CyBle_ReadByGroupEventHandler,"ax",%progbits
 1869              		.align	2
 1870              		.global	CyBle_ReadByGroupEventHandler
 1871              		.code	16
 1872              		.thumb_func
 1873              		.type	CyBle_ReadByGroupEventHandler, %function
 1874              	CyBle_ReadByGroupEventHandler:
 1875              	.LFB16:
2191:Generated_Source\PSoC4/BLE_eventHandler.c **** 
2192:Generated_Source\PSoC4/BLE_eventHandler.c **** 
ARM GAS  C:\Users\run1009\AppData\Local\Temp\ccSZtXoF.s 			page 73


2193:Generated_Source\PSoC4/BLE_eventHandler.c **** #if (CYBLE_GATT_ROLE_CLIENT)
2194:Generated_Source\PSoC4/BLE_eventHandler.c **** 
2195:Generated_Source\PSoC4/BLE_eventHandler.c **** 
2196:Generated_Source\PSoC4/BLE_eventHandler.c **** /****************************************************************************** 
2197:Generated_Source\PSoC4/BLE_eventHandler.c **** * Function Name: CyBle_ReadByGroupEventHandler
2198:Generated_Source\PSoC4/BLE_eventHandler.c **** ***************************************************************************//**
2199:Generated_Source\PSoC4/BLE_eventHandler.c **** * 
2200:Generated_Source\PSoC4/BLE_eventHandler.c **** *  Handles the Read By Group Response Event during an automatic server discovery
2201:Generated_Source\PSoC4/BLE_eventHandler.c **** *  process.
2202:Generated_Source\PSoC4/BLE_eventHandler.c **** * 
2203:Generated_Source\PSoC4/BLE_eventHandler.c **** *  \param eventParam:  the event parameters for a Read By Group Response
2204:Generated_Source\PSoC4/BLE_eventHandler.c **** * 
2205:Generated_Source\PSoC4/BLE_eventHandler.c **** * \return
2206:Generated_Source\PSoC4/BLE_eventHandler.c **** *  None
2207:Generated_Source\PSoC4/BLE_eventHandler.c **** * 
2208:Generated_Source\PSoC4/BLE_eventHandler.c **** ******************************************************************************/
2209:Generated_Source\PSoC4/BLE_eventHandler.c **** void CyBle_ReadByGroupEventHandler(CYBLE_GATTC_READ_BY_GRP_RSP_PARAM_T *eventParam)
2210:Generated_Source\PSoC4/BLE_eventHandler.c **** {
 1876              		.loc 1 2210 0
 1877              		.cfi_startproc
 1878              		@ args = 0, pretend = 0, frame = 24
 1879              		@ frame_needed = 1, uses_anonymous_args = 0
 1880 0000 80B5     		push	{r7, lr}
 1881              		.cfi_def_cfa_offset 8
 1882              		.cfi_offset 7, -8
 1883              		.cfi_offset 14, -4
 1884 0002 86B0     		sub	sp, sp, #24
 1885              		.cfi_def_cfa_offset 32
 1886 0004 00AF     		add	r7, sp, #0
 1887              		.cfi_def_cfa_register 7
 1888 0006 7860     		str	r0, [r7, #4]
2211:Generated_Source\PSoC4/BLE_eventHandler.c ****     uint16 j;
2212:Generated_Source\PSoC4/BLE_eventHandler.c ****     uint16 dataLength;
2213:Generated_Source\PSoC4/BLE_eventHandler.c ****     uint16 attrLength;
2214:Generated_Source\PSoC4/BLE_eventHandler.c ****     uint16 i;
2215:Generated_Source\PSoC4/BLE_eventHandler.c ****     CYBLE_DISC_SRVC128_INFO_T* discServInfo = NULL;
 1889              		.loc 1 2215 0
 1890 0008 0023     		movs	r3, #0
 1891 000a FB60     		str	r3, [r7, #12]
2216:Generated_Source\PSoC4/BLE_eventHandler.c ****     uint8 flag;
2217:Generated_Source\PSoC4/BLE_eventHandler.c ****     
2218:Generated_Source\PSoC4/BLE_eventHandler.c ****     if((CyBle_GetClientState() == CYBLE_CLIENT_STATE_SRVC_DISCOVERING) &&
 1892              		.loc 1 2218 0
 1893 000c 774B     		ldr	r3, .L138
 1894 000e 1B78     		ldrb	r3, [r3]
 1895 0010 012B     		cmp	r3, #1
 1896 0012 00D0     		beq	.LCB1539
 1897 0014 E6E0     		b	.L137	@long jump
 1898              	.LCB1539:
2219:Generated_Source\PSoC4/BLE_eventHandler.c ****         ((cyBle_eventHandlerFlag & CYBLE_AUTO_DISCOVERY) != 0u))
 1899              		.loc 1 2219 0 discriminator 1
 1900 0016 764B     		ldr	r3, .L138+4
 1901 0018 1B78     		ldrb	r3, [r3]
 1902 001a DBB2     		uxtb	r3, r3
 1903 001c 1A00     		movs	r2, r3
 1904 001e 0223     		movs	r3, #2
 1905 0020 1340     		ands	r3, r2
ARM GAS  C:\Users\run1009\AppData\Local\Temp\ccSZtXoF.s 			page 74


2218:Generated_Source\PSoC4/BLE_eventHandler.c ****         ((cyBle_eventHandlerFlag & CYBLE_AUTO_DISCOVERY) != 0u))
 1906              		.loc 1 2218 0 discriminator 1
 1907 0022 00D1     		bne	.LCB1547
 1908 0024 DEE0     		b	.L137	@long jump
 1909              	.LCB1547:
2220:Generated_Source\PSoC4/BLE_eventHandler.c ****     {
2221:Generated_Source\PSoC4/BLE_eventHandler.c ****         dataLength = eventParam->attrData.length;
 1910              		.loc 1 2221 0
 1911 0026 0A23     		movs	r3, #10
 1912 0028 FB18     		adds	r3, r7, r3
 1913 002a 7A68     		ldr	r2, [r7, #4]
 1914 002c 1289     		ldrh	r2, [r2, #8]
 1915 002e 1A80     		strh	r2, [r3]
2222:Generated_Source\PSoC4/BLE_eventHandler.c **** 
2223:Generated_Source\PSoC4/BLE_eventHandler.c ****         if((dataLength == CYBLE_DISC_SRVC_INFO_LEN) || (dataLength == CYBLE_DISC_SRVC_INFO_128_LEN)
 1916              		.loc 1 2223 0
 1917 0030 0A23     		movs	r3, #10
 1918 0032 FB18     		adds	r3, r7, r3
 1919 0034 1B88     		ldrh	r3, [r3]
 1920 0036 062B     		cmp	r3, #6
 1921 0038 05D0     		beq	.L125
 1922              		.loc 1 2223 0 is_stmt 0 discriminator 1
 1923 003a 0A23     		movs	r3, #10
 1924 003c FB18     		adds	r3, r7, r3
 1925 003e 1B88     		ldrh	r3, [r3]
 1926 0040 142B     		cmp	r3, #20
 1927 0042 00D0     		beq	.LCB1562
 1928 0044 C7E0     		b	.L126	@long jump
 1929              	.LCB1562:
 1930              	.L125:
2224:Generated_Source\PSoC4/BLE_eventHandler.c ****         {
2225:Generated_Source\PSoC4/BLE_eventHandler.c ****             attrLength = eventParam->attrData.attrLen;
 1931              		.loc 1 2225 0 is_stmt 1
 1932 0046 0823     		movs	r3, #8
 1933 0048 FB18     		adds	r3, r7, r3
 1934 004a 7A68     		ldr	r2, [r7, #4]
 1935 004c 5289     		ldrh	r2, [r2, #10]
 1936 004e 1A80     		strh	r2, [r3]
2226:Generated_Source\PSoC4/BLE_eventHandler.c **** 
2227:Generated_Source\PSoC4/BLE_eventHandler.c ****             for(i = 0u; i < attrLength; i += dataLength)
 1937              		.loc 1 2227 0
 1938 0050 1423     		movs	r3, #20
 1939 0052 FB18     		adds	r3, r7, r3
 1940 0054 0022     		movs	r2, #0
 1941 0056 1A80     		strh	r2, [r3]
 1942 0058 ABE0     		b	.L127
 1943              	.L136:
2228:Generated_Source\PSoC4/BLE_eventHandler.c ****             {
2229:Generated_Source\PSoC4/BLE_eventHandler.c ****                 discServInfo = (CYBLE_DISC_SRVC128_INFO_T *)(eventParam->attrData.attrValue + i);
 1944              		.loc 1 2229 0
 1945 005a 7B68     		ldr	r3, [r7, #4]
 1946 005c 5A68     		ldr	r2, [r3, #4]
 1947 005e 1423     		movs	r3, #20
 1948 0060 FB18     		adds	r3, r7, r3
 1949 0062 1B88     		ldrh	r3, [r3]
 1950 0064 D318     		adds	r3, r2, r3
 1951 0066 FB60     		str	r3, [r7, #12]
ARM GAS  C:\Users\run1009\AppData\Local\Temp\ccSZtXoF.s 			page 75


2230:Generated_Source\PSoC4/BLE_eventHandler.c ****                 flag = 0u;
 1952              		.loc 1 2230 0
 1953 0068 1323     		movs	r3, #19
 1954 006a FB18     		adds	r3, r7, r3
 1955 006c 0022     		movs	r2, #0
 1956 006e 1A70     		strb	r2, [r3]
2231:Generated_Source\PSoC4/BLE_eventHandler.c **** 
2232:Generated_Source\PSoC4/BLE_eventHandler.c ****                 if((discServInfo->range.startHandle >= cyBle_gattcDiscoveryRange.startHandle) &&
 1957              		.loc 1 2232 0
 1958 0070 FB68     		ldr	r3, [r7, #12]
 1959 0072 1A88     		ldrh	r2, [r3]
 1960 0074 5F4B     		ldr	r3, .L138+8
 1961 0076 1B88     		ldrh	r3, [r3]
 1962 0078 9A42     		cmp	r2, r3
 1963 007a 00D2     		bcs	.LCB1593
 1964 007c 7CE0     		b	.L128	@long jump
 1965              	.LCB1593:
2233:Generated_Source\PSoC4/BLE_eventHandler.c ****                    (discServInfo->range.startHandle <= cyBle_gattcDiscoveryRange.endHandle))
 1966              		.loc 1 2233 0 discriminator 1
 1967 007e FB68     		ldr	r3, [r7, #12]
 1968 0080 1A88     		ldrh	r2, [r3]
 1969 0082 5C4B     		ldr	r3, .L138+8
 1970 0084 5B88     		ldrh	r3, [r3, #2]
2232:Generated_Source\PSoC4/BLE_eventHandler.c ****                    (discServInfo->range.startHandle <= cyBle_gattcDiscoveryRange.endHandle))
 1971              		.loc 1 2232 0 discriminator 1
 1972 0086 9A42     		cmp	r2, r3
 1973 0088 00D9     		bls	.LCB1599
 1974 008a 75E0     		b	.L128	@long jump
 1975              	.LCB1599:
2234:Generated_Source\PSoC4/BLE_eventHandler.c ****                 {
2235:Generated_Source\PSoC4/BLE_eventHandler.c ****                     if(dataLength == CYBLE_DISC_SRVC_INFO_LEN)
 1976              		.loc 1 2235 0
 1977 008c 0A23     		movs	r3, #10
 1978 008e FB18     		adds	r3, r7, r3
 1979 0090 1B88     		ldrh	r3, [r3]
 1980 0092 062B     		cmp	r3, #6
 1981 0094 00D0     		beq	.LCB1604
 1982 0096 68E0     		b	.L129	@long jump
 1983              	.LCB1604:
2236:Generated_Source\PSoC4/BLE_eventHandler.c ****                     {   
2237:Generated_Source\PSoC4/BLE_eventHandler.c ****                         discServInfo->uuidFormat = CYBLE_GATT_16_BIT_UUID_FORMAT;
 1984              		.loc 1 2237 0
 1985 0098 FB68     		ldr	r3, [r7, #12]
 1986 009a 0122     		movs	r2, #1
 1987 009c 1A75     		strb	r2, [r3, #20]
2238:Generated_Source\PSoC4/BLE_eventHandler.c ****                         
2239:Generated_Source\PSoC4/BLE_eventHandler.c ****     					for(j = 0u; (j < (uint16)CYBLE_SRVI_COUNT) && (flag == 0u); j++)
 1988              		.loc 1 2239 0
 1989 009e 1623     		movs	r3, #22
 1990 00a0 FB18     		adds	r3, r7, r3
 1991 00a2 0022     		movs	r2, #0
 1992 00a4 1A80     		strh	r2, [r3]
 1993 00a6 55E0     		b	.L130
 1994              	.L134:
2240:Generated_Source\PSoC4/BLE_eventHandler.c ****                         {
2241:Generated_Source\PSoC4/BLE_eventHandler.c ****                             if(cyBle_serverInfo[j].uuid == discServInfo->uuid.uuid16)
 1995              		.loc 1 2241 0
ARM GAS  C:\Users\run1009\AppData\Local\Temp\ccSZtXoF.s 			page 76


 1996 00a8 1623     		movs	r3, #22
 1997 00aa FB18     		adds	r3, r7, r3
 1998 00ac 1A88     		ldrh	r2, [r3]
 1999 00ae 5249     		ldr	r1, .L138+12
 2000 00b0 1300     		movs	r3, r2
 2001 00b2 5B00     		lsls	r3, r3, #1
 2002 00b4 9B18     		adds	r3, r3, r2
 2003 00b6 5B00     		lsls	r3, r3, #1
 2004 00b8 CB18     		adds	r3, r1, r3
 2005 00ba 0433     		adds	r3, r3, #4
 2006 00bc 1A88     		ldrh	r2, [r3]
 2007 00be FB68     		ldr	r3, [r7, #12]
 2008 00c0 9B88     		ldrh	r3, [r3, #4]
 2009 00c2 9A42     		cmp	r2, r3
 2010 00c4 3FD1     		bne	.L131
2242:Generated_Source\PSoC4/BLE_eventHandler.c ****                             {
2243:Generated_Source\PSoC4/BLE_eventHandler.c ****                                 if(cyBle_serverInfo[j].range.startHandle == CYBLE_GATT_INVALID_ATTR
 2011              		.loc 1 2243 0
 2012 00c6 1623     		movs	r3, #22
 2013 00c8 FB18     		adds	r3, r7, r3
 2014 00ca 1A88     		ldrh	r2, [r3]
 2015 00cc 4A49     		ldr	r1, .L138+12
 2016 00ce 1300     		movs	r3, r2
 2017 00d0 5B00     		lsls	r3, r3, #1
 2018 00d2 9B18     		adds	r3, r3, r2
 2019 00d4 5B00     		lsls	r3, r3, #1
 2020 00d6 5B5A     		ldrh	r3, [r3, r1]
 2021 00d8 002B     		cmp	r3, #0
 2022 00da 13D1     		bne	.L132
2244:Generated_Source\PSoC4/BLE_eventHandler.c ****                                 {
2245:Generated_Source\PSoC4/BLE_eventHandler.c ****                                     cyBle_serverInfo[j].range = discServInfo->range;
 2023              		.loc 1 2245 0
 2024 00dc 1623     		movs	r3, #22
 2025 00de FB18     		adds	r3, r7, r3
 2026 00e0 1A88     		ldrh	r2, [r3]
 2027 00e2 4549     		ldr	r1, .L138+12
 2028 00e4 1300     		movs	r3, r2
 2029 00e6 5B00     		lsls	r3, r3, #1
 2030 00e8 9B18     		adds	r3, r3, r2
 2031 00ea 5B00     		lsls	r3, r3, #1
 2032 00ec FA68     		ldr	r2, [r7, #12]
 2033 00ee CB18     		adds	r3, r1, r3
 2034 00f0 1100     		movs	r1, r2
 2035 00f2 0422     		movs	r2, #4
 2036 00f4 1800     		movs	r0, r3
 2037 00f6 FFF7FEFF 		bl	memcpy
2246:Generated_Source\PSoC4/BLE_eventHandler.c ****                                     flag = 1u;
 2038              		.loc 1 2246 0
 2039 00fa 1323     		movs	r3, #19
 2040 00fc FB18     		adds	r3, r7, r3
 2041 00fe 0122     		movs	r2, #1
 2042 0100 1A70     		strb	r2, [r3]
 2043 0102 20E0     		b	.L131
 2044              	.L132:
2247:Generated_Source\PSoC4/BLE_eventHandler.c ****                                 }
2248:Generated_Source\PSoC4/BLE_eventHandler.c ****                                 else    /* Duplication of service */
2249:Generated_Source\PSoC4/BLE_eventHandler.c ****                                 {
ARM GAS  C:\Users\run1009\AppData\Local\Temp\ccSZtXoF.s 			page 77


2250:Generated_Source\PSoC4/BLE_eventHandler.c ****                                     /* For multiple service support next service has the same uuid 
2251:Generated_Source\PSoC4/BLE_eventHandler.c ****                                     if((j >= (CYBLE_SRVI_COUNT - 1u)) || 
 2045              		.loc 1 2251 0
 2046 0104 1623     		movs	r3, #22
 2047 0106 FB18     		adds	r3, r7, r3
 2048 0108 1B88     		ldrh	r3, [r3]
 2049 010a 022B     		cmp	r3, #2
 2050 010c 0FD8     		bhi	.L133
2252:Generated_Source\PSoC4/BLE_eventHandler.c ****                                        (cyBle_serverInfo[j + 1u].uuid != discServInfo->uuid.uuid16)
 2051              		.loc 1 2252 0 discriminator 1
 2052 010e 1623     		movs	r3, #22
 2053 0110 FB18     		adds	r3, r7, r3
 2054 0112 1B88     		ldrh	r3, [r3]
 2055 0114 5A1C     		adds	r2, r3, #1
 2056 0116 3849     		ldr	r1, .L138+12
 2057 0118 1300     		movs	r3, r2
 2058 011a 5B00     		lsls	r3, r3, #1
 2059 011c 9B18     		adds	r3, r3, r2
 2060 011e 5B00     		lsls	r3, r3, #1
 2061 0120 CB18     		adds	r3, r1, r3
 2062 0122 0433     		adds	r3, r3, #4
 2063 0124 1A88     		ldrh	r2, [r3]
 2064 0126 FB68     		ldr	r3, [r7, #12]
 2065 0128 9B88     		ldrh	r3, [r3, #4]
2251:Generated_Source\PSoC4/BLE_eventHandler.c ****                                        (cyBle_serverInfo[j + 1u].uuid != discServInfo->uuid.uuid16)
 2066              		.loc 1 2251 0 discriminator 1
 2067 012a 9A42     		cmp	r2, r3
 2068 012c 0BD0     		beq	.L131
 2069              	.L133:
2253:Generated_Source\PSoC4/BLE_eventHandler.c ****                                     {
2254:Generated_Source\PSoC4/BLE_eventHandler.c ****                                         CyBle_ApplCallback(CYBLE_EVT_GATTC_SRVC_DUPLICATION, &discS
 2070              		.loc 1 2254 0
 2071 012e 334B     		ldr	r3, .L138+16
 2072 0130 1B68     		ldr	r3, [r3]
 2073 0132 FA68     		ldr	r2, [r7, #12]
 2074 0134 111D     		adds	r1, r2, #4
 2075 0136 0C22     		movs	r2, #12
 2076 0138 FF32     		adds	r2, r2, #255
 2077 013a 1000     		movs	r0, r2
 2078 013c 9847     		blx	r3
2255:Generated_Source\PSoC4/BLE_eventHandler.c ****                                         flag = 1u;
 2079              		.loc 1 2255 0
 2080 013e 1323     		movs	r3, #19
 2081 0140 FB18     		adds	r3, r7, r3
 2082 0142 0122     		movs	r2, #1
 2083 0144 1A70     		strb	r2, [r3]
 2084              	.L131:
2239:Generated_Source\PSoC4/BLE_eventHandler.c ****                         {
 2085              		.loc 1 2239 0 discriminator 2
 2086 0146 1623     		movs	r3, #22
 2087 0148 FB18     		adds	r3, r7, r3
 2088 014a 1A88     		ldrh	r2, [r3]
 2089 014c 1623     		movs	r3, #22
 2090 014e FB18     		adds	r3, r7, r3
 2091 0150 0132     		adds	r2, r2, #1
 2092 0152 1A80     		strh	r2, [r3]
 2093              	.L130:
ARM GAS  C:\Users\run1009\AppData\Local\Temp\ccSZtXoF.s 			page 78


2239:Generated_Source\PSoC4/BLE_eventHandler.c ****                         {
 2094              		.loc 1 2239 0 is_stmt 0 discriminator 1
 2095 0154 1623     		movs	r3, #22
 2096 0156 FB18     		adds	r3, r7, r3
 2097 0158 1B88     		ldrh	r3, [r3]
 2098 015a 032B     		cmp	r3, #3
 2099 015c 0CD8     		bhi	.L128
2239:Generated_Source\PSoC4/BLE_eventHandler.c ****                         {
 2100              		.loc 1 2239 0 discriminator 3
 2101 015e 1323     		movs	r3, #19
 2102 0160 FB18     		adds	r3, r7, r3
 2103 0162 1B78     		ldrb	r3, [r3]
 2104 0164 002B     		cmp	r3, #0
 2105 0166 9FD0     		beq	.L134
 2106 0168 06E0     		b	.L128
 2107              	.L129:
2256:Generated_Source\PSoC4/BLE_eventHandler.c ****                                     }
2257:Generated_Source\PSoC4/BLE_eventHandler.c ****                                 }
2258:Generated_Source\PSoC4/BLE_eventHandler.c ****                             }
2259:Generated_Source\PSoC4/BLE_eventHandler.c ****                         }
2260:Generated_Source\PSoC4/BLE_eventHandler.c ****                     }
2261:Generated_Source\PSoC4/BLE_eventHandler.c ****                     else  /* Received 128 bit service UUID */
2262:Generated_Source\PSoC4/BLE_eventHandler.c ****                     {
2263:Generated_Source\PSoC4/BLE_eventHandler.c ****                         discServInfo->uuidFormat = CYBLE_GATT_128_BIT_UUID_FORMAT;
 2108              		.loc 1 2263 0 is_stmt 1
 2109 016a FB68     		ldr	r3, [r7, #12]
 2110 016c 0222     		movs	r2, #2
 2111 016e 1A75     		strb	r2, [r3, #20]
2264:Generated_Source\PSoC4/BLE_eventHandler.c ****                     #ifdef CYBLE_ANCS_CLIENT
2265:Generated_Source\PSoC4/BLE_eventHandler.c ****                         CyBle_AncscDiscoverServiceEventHandler(discServInfo);
2266:Generated_Source\PSoC4/BLE_eventHandler.c ****                     #endif /* CYBLE_CUSTOM_CLIENT */
2267:Generated_Source\PSoC4/BLE_eventHandler.c ****                     #ifdef CYBLE_CUSTOM_CLIENT
2268:Generated_Source\PSoC4/BLE_eventHandler.c ****                         CyBle_CustomcDiscoverServiceEventHandler(discServInfo);
 2112              		.loc 1 2268 0
 2113 0170 FB68     		ldr	r3, [r7, #12]
 2114 0172 1800     		movs	r0, r3
 2115 0174 FFF7FEFF 		bl	CyBle_CustomcDiscoverServiceEventHandler
 2116              	.L128:
2269:Generated_Source\PSoC4/BLE_eventHandler.c ****                     #endif /* CYBLE_CUSTOM_CLIENT */
2270:Generated_Source\PSoC4/BLE_eventHandler.c ****                     }
2271:Generated_Source\PSoC4/BLE_eventHandler.c ****                 }
2272:Generated_Source\PSoC4/BLE_eventHandler.c ****                 
2273:Generated_Source\PSoC4/BLE_eventHandler.c ****                 /* Generate event CY_BLE_EVT_GATTC_DISC_SKIPPED_SERVICE, if the incoming service wa
2274:Generated_Source\PSoC4/BLE_eventHandler.c ****                 if((flag == 0u) && ((cyBle_eventHandlerFlag & CYBLE_CALLBACK) != 0u))
 2117              		.loc 1 2274 0
 2118 0178 1323     		movs	r3, #19
 2119 017a FB18     		adds	r3, r7, r3
 2120 017c 1B78     		ldrb	r3, [r3]
 2121 017e 002B     		cmp	r3, #0
 2122 0180 0DD1     		bne	.L135
 2123              		.loc 1 2274 0 is_stmt 0 discriminator 1
 2124 0182 1B4B     		ldr	r3, .L138+4
 2125 0184 1B78     		ldrb	r3, [r3]
 2126 0186 DBB2     		uxtb	r3, r3
 2127 0188 1A00     		movs	r2, r3
 2128 018a 0123     		movs	r3, #1
 2129 018c 1340     		ands	r3, r2
ARM GAS  C:\Users\run1009\AppData\Local\Temp\ccSZtXoF.s 			page 79


 2130 018e 06D0     		beq	.L135
2275:Generated_Source\PSoC4/BLE_eventHandler.c ****                 {
2276:Generated_Source\PSoC4/BLE_eventHandler.c ****                     /* Inform application that we discovered the service which is not defined in GA
2277:Generated_Source\PSoC4/BLE_eventHandler.c ****                     CyBle_ApplCallback((uint32_t)CYBLE_EVT_GATTC_DISC_SKIPPED_SERVICE, discServInfo
 2131              		.loc 1 2277 0 is_stmt 1
 2132 0190 1A4B     		ldr	r3, .L138+16
 2133 0192 1B68     		ldr	r3, [r3]
 2134 0194 F968     		ldr	r1, [r7, #12]
 2135 0196 1222     		movs	r2, #18
 2136 0198 FF32     		adds	r2, r2, #255
 2137 019a 1000     		movs	r0, r2
 2138 019c 9847     		blx	r3
 2139              	.L135:
2227:Generated_Source\PSoC4/BLE_eventHandler.c ****             {
 2140              		.loc 1 2227 0 discriminator 2
 2141 019e 1423     		movs	r3, #20
 2142 01a0 FB18     		adds	r3, r7, r3
 2143 01a2 1422     		movs	r2, #20
 2144 01a4 B918     		adds	r1, r7, r2
 2145 01a6 0A22     		movs	r2, #10
 2146 01a8 BA18     		adds	r2, r7, r2
 2147 01aa 0988     		ldrh	r1, [r1]
 2148 01ac 1288     		ldrh	r2, [r2]
 2149 01ae 8A18     		adds	r2, r1, r2
 2150 01b0 1A80     		strh	r2, [r3]
 2151              	.L127:
2227:Generated_Source\PSoC4/BLE_eventHandler.c ****             {
 2152              		.loc 1 2227 0 is_stmt 0 discriminator 1
 2153 01b2 1423     		movs	r3, #20
 2154 01b4 FA18     		adds	r2, r7, r3
 2155 01b6 0823     		movs	r3, #8
 2156 01b8 FB18     		adds	r3, r7, r3
 2157 01ba 1288     		ldrh	r2, [r2]
 2158 01bc 1B88     		ldrh	r3, [r3]
 2159 01be 9A42     		cmp	r2, r3
 2160 01c0 00D2     		bcs	.LCB1772
 2161 01c2 4AE7     		b	.L136	@long jump
 2162              	.LCB1772:
2278:Generated_Source\PSoC4/BLE_eventHandler.c ****                 }
2279:Generated_Source\PSoC4/BLE_eventHandler.c ****             }
2280:Generated_Source\PSoC4/BLE_eventHandler.c ****             cyBle_eventHandlerFlag &= (uint8)~CYBLE_CALLBACK;
 2163              		.loc 1 2280 0 is_stmt 1
 2164 01c4 0A4B     		ldr	r3, .L138+4
 2165 01c6 1B78     		ldrb	r3, [r3]
 2166 01c8 DBB2     		uxtb	r3, r3
 2167 01ca 0122     		movs	r2, #1
 2168 01cc 9343     		bics	r3, r2
 2169 01ce DAB2     		uxtb	r2, r3
 2170 01d0 074B     		ldr	r3, .L138+4
 2171 01d2 1A70     		strb	r2, [r3]
2281:Generated_Source\PSoC4/BLE_eventHandler.c ****         }
2282:Generated_Source\PSoC4/BLE_eventHandler.c ****         else
2283:Generated_Source\PSoC4/BLE_eventHandler.c ****         {
2284:Generated_Source\PSoC4/BLE_eventHandler.c ****             CyBle_ApplCallback(CYBLE_EVT_GATTC_SRVC_DISCOVERY_FAILED, NULL);
2285:Generated_Source\PSoC4/BLE_eventHandler.c ****         }
2286:Generated_Source\PSoC4/BLE_eventHandler.c ****     }
2287:Generated_Source\PSoC4/BLE_eventHandler.c **** }
ARM GAS  C:\Users\run1009\AppData\Local\Temp\ccSZtXoF.s 			page 80


 2172              		.loc 1 2287 0
 2173 01d4 06E0     		b	.L137
 2174              	.L126:
2284:Generated_Source\PSoC4/BLE_eventHandler.c ****         }
 2175              		.loc 1 2284 0
 2176 01d6 094B     		ldr	r3, .L138+16
 2177 01d8 1B68     		ldr	r3, [r3]
 2178 01da 0822     		movs	r2, #8
 2179 01dc FF32     		adds	r2, r2, #255
 2180 01de 0021     		movs	r1, #0
 2181 01e0 1000     		movs	r0, r2
 2182 01e2 9847     		blx	r3
 2183              	.L137:
 2184              		.loc 1 2287 0
 2185 01e4 C046     		nop
 2186 01e6 BD46     		mov	sp, r7
 2187 01e8 06B0     		add	sp, sp, #24
 2188              		@ sp needed
 2189 01ea 80BD     		pop	{r7, pc}
 2190              	.L139:
 2191              		.align	2
 2192              	.L138:
 2193 01ec 00000000 		.word	cyBle_clientState
 2194 01f0 00000000 		.word	cyBle_eventHandlerFlag
 2195 01f4 00000000 		.word	cyBle_gattcDiscoveryRange
 2196 01f8 00000000 		.word	cyBle_serverInfo
 2197 01fc 00000000 		.word	CyBle_ApplCallback
 2198              		.cfi_endproc
 2199              	.LFE16:
 2200              		.size	CyBle_ReadByGroupEventHandler, .-CyBle_ReadByGroupEventHandler
 2201              		.section	.text.CyBle_NextInclDiscovery,"ax",%progbits
 2202              		.align	2
 2203              		.global	CyBle_NextInclDiscovery
 2204              		.code	16
 2205              		.thumb_func
 2206              		.type	CyBle_NextInclDiscovery, %function
 2207              	CyBle_NextInclDiscovery:
 2208              	.LFB17:
2288:Generated_Source\PSoC4/BLE_eventHandler.c **** 
2289:Generated_Source\PSoC4/BLE_eventHandler.c **** 
2290:Generated_Source\PSoC4/BLE_eventHandler.c **** /****************************************************************************** 
2291:Generated_Source\PSoC4/BLE_eventHandler.c **** * Function Name: CyBle_NextInclDiscovery
2292:Generated_Source\PSoC4/BLE_eventHandler.c **** ***************************************************************************//**
2293:Generated_Source\PSoC4/BLE_eventHandler.c **** * 
2294:Generated_Source\PSoC4/BLE_eventHandler.c **** *  Looks for the included services in the current service (pointed by
2295:Generated_Source\PSoC4/BLE_eventHandler.c **** *   cyBle_disCount). If the current service handle range is invalid (any of start
2296:Generated_Source\PSoC4/BLE_eventHandler.c **** *   or end handle is invalid), then increment the cyBle_disCount and check
2297:Generated_Source\PSoC4/BLE_eventHandler.c **** *   the next service range and does so until a valid range is caught or the end of
2298:Generated_Source\PSoC4/BLE_eventHandler.c **** *   the service set is reached.
2299:Generated_Source\PSoC4/BLE_eventHandler.c **** * 
2300:Generated_Source\PSoC4/BLE_eventHandler.c **** *  \param incrementIndex: Not zero value indicates that service index should be 
2301:Generated_Source\PSoC4/BLE_eventHandler.c **** *                         incremented.
2302:Generated_Source\PSoC4/BLE_eventHandler.c **** * 
2303:Generated_Source\PSoC4/BLE_eventHandler.c **** * \return
2304:Generated_Source\PSoC4/BLE_eventHandler.c **** *  None.
2305:Generated_Source\PSoC4/BLE_eventHandler.c **** * 
2306:Generated_Source\PSoC4/BLE_eventHandler.c **** ******************************************************************************/
ARM GAS  C:\Users\run1009\AppData\Local\Temp\ccSZtXoF.s 			page 81


2307:Generated_Source\PSoC4/BLE_eventHandler.c **** void CyBle_NextInclDiscovery(uint8 incrementIndex)
2308:Generated_Source\PSoC4/BLE_eventHandler.c **** {
 2209              		.loc 1 2308 0
 2210              		.cfi_startproc
 2211              		@ args = 0, pretend = 0, frame = 8
 2212              		@ frame_needed = 1, uses_anonymous_args = 0
 2213 0000 80B5     		push	{r7, lr}
 2214              		.cfi_def_cfa_offset 8
 2215              		.cfi_offset 7, -8
 2216              		.cfi_offset 14, -4
 2217 0002 82B0     		sub	sp, sp, #8
 2218              		.cfi_def_cfa_offset 16
 2219 0004 00AF     		add	r7, sp, #0
 2220              		.cfi_def_cfa_register 7
 2221 0006 0200     		movs	r2, r0
 2222 0008 FB1D     		adds	r3, r7, #7
 2223 000a 1A70     		strb	r2, [r3]
2309:Generated_Source\PSoC4/BLE_eventHandler.c **** 
2310:Generated_Source\PSoC4/BLE_eventHandler.c ****     if(incrementIndex != CYBLE_DISCOVERY_INIT)
 2224              		.loc 1 2310 0
 2225 000c FB1D     		adds	r3, r7, #7
 2226 000e 1B78     		ldrb	r3, [r3]
 2227 0010 002B     		cmp	r3, #0
 2228 0012 06D0     		beq	.L141
2311:Generated_Source\PSoC4/BLE_eventHandler.c ****     {
2312:Generated_Source\PSoC4/BLE_eventHandler.c ****         cyBle_disCount++;
 2229              		.loc 1 2312 0
 2230 0014 344B     		ldr	r3, .L150
 2231 0016 1B78     		ldrb	r3, [r3]
 2232 0018 0133     		adds	r3, r3, #1
 2233 001a DAB2     		uxtb	r2, r3
 2234 001c 324B     		ldr	r3, .L150
 2235 001e 1A70     		strb	r2, [r3]
 2236 0020 0CE0     		b	.L143
 2237              	.L141:
2313:Generated_Source\PSoC4/BLE_eventHandler.c ****     }
2314:Generated_Source\PSoC4/BLE_eventHandler.c ****     else
2315:Generated_Source\PSoC4/BLE_eventHandler.c ****     {
2316:Generated_Source\PSoC4/BLE_eventHandler.c ****         cyBle_disCount = 0u;
 2238              		.loc 1 2316 0
 2239 0022 314B     		ldr	r3, .L150
 2240 0024 0022     		movs	r2, #0
 2241 0026 1A70     		strb	r2, [r3]
2317:Generated_Source\PSoC4/BLE_eventHandler.c ****     #ifdef CYBLE_CUSTOM_CLIENT
2318:Generated_Source\PSoC4/BLE_eventHandler.c ****         cyBle_discInclInfo.inclDefHandle = 0u;
 2242              		.loc 1 2318 0
 2243 0028 304B     		ldr	r3, .L150+4
 2244 002a 0022     		movs	r2, #0
 2245 002c 1A80     		strh	r2, [r3]
2319:Generated_Source\PSoC4/BLE_eventHandler.c ****     #endif /* CYBLE_CUSTOM_CLIENT */
2320:Generated_Source\PSoC4/BLE_eventHandler.c ****     }
2321:Generated_Source\PSoC4/BLE_eventHandler.c **** 
2322:Generated_Source\PSoC4/BLE_eventHandler.c ****     /* Skip not existing services and services out of discovery range */
2323:Generated_Source\PSoC4/BLE_eventHandler.c ****     while((cyBle_disCount < (uint8) CYBLE_SRVI_COUNT) &&
 2246              		.loc 1 2323 0
 2247 002e 05E0     		b	.L143
 2248              	.L145:
ARM GAS  C:\Users\run1009\AppData\Local\Temp\ccSZtXoF.s 			page 82


2324:Generated_Source\PSoC4/BLE_eventHandler.c ****           ((cyBle_serverInfo[cyBle_disCount].range.startHandle < cyBle_gattcDiscoveryRange.startHan
2325:Generated_Source\PSoC4/BLE_eventHandler.c ****            (cyBle_serverInfo[cyBle_disCount].range.startHandle > cyBle_gattcDiscoveryRange.endHandl
2326:Generated_Source\PSoC4/BLE_eventHandler.c ****     {
2327:Generated_Source\PSoC4/BLE_eventHandler.c ****         cyBle_disCount++;
 2249              		.loc 1 2327 0
 2250 0030 2D4B     		ldr	r3, .L150
 2251 0032 1B78     		ldrb	r3, [r3]
 2252 0034 0133     		adds	r3, r3, #1
 2253 0036 DAB2     		uxtb	r2, r3
 2254 0038 2B4B     		ldr	r3, .L150
 2255 003a 1A70     		strb	r2, [r3]
 2256              	.L143:
2323:Generated_Source\PSoC4/BLE_eventHandler.c ****           ((cyBle_serverInfo[cyBle_disCount].range.startHandle < cyBle_gattcDiscoveryRange.startHan
 2257              		.loc 1 2323 0
 2258 003c 2A4B     		ldr	r3, .L150
 2259 003e 1B78     		ldrb	r3, [r3]
 2260 0040 032B     		cmp	r3, #3
 2261 0042 19D8     		bhi	.L144
2324:Generated_Source\PSoC4/BLE_eventHandler.c ****           ((cyBle_serverInfo[cyBle_disCount].range.startHandle < cyBle_gattcDiscoveryRange.startHan
 2262              		.loc 1 2324 0 discriminator 1
 2263 0044 284B     		ldr	r3, .L150
 2264 0046 1B78     		ldrb	r3, [r3]
 2265 0048 1900     		movs	r1, r3
 2266 004a 294A     		ldr	r2, .L150+8
 2267 004c 0B00     		movs	r3, r1
 2268 004e 5B00     		lsls	r3, r3, #1
 2269 0050 5B18     		adds	r3, r3, r1
 2270 0052 5B00     		lsls	r3, r3, #1
 2271 0054 9A5A     		ldrh	r2, [r3, r2]
 2272 0056 274B     		ldr	r3, .L150+12
 2273 0058 1B88     		ldrh	r3, [r3]
2323:Generated_Source\PSoC4/BLE_eventHandler.c ****           ((cyBle_serverInfo[cyBle_disCount].range.startHandle < cyBle_gattcDiscoveryRange.startHan
 2274              		.loc 1 2323 0 discriminator 1
 2275 005a 9A42     		cmp	r2, r3
 2276 005c E8D3     		bcc	.L145
2325:Generated_Source\PSoC4/BLE_eventHandler.c ****     {
 2277              		.loc 1 2325 0
 2278 005e 224B     		ldr	r3, .L150
 2279 0060 1B78     		ldrb	r3, [r3]
 2280 0062 1900     		movs	r1, r3
 2281 0064 224A     		ldr	r2, .L150+8
 2282 0066 0B00     		movs	r3, r1
 2283 0068 5B00     		lsls	r3, r3, #1
 2284 006a 5B18     		adds	r3, r3, r1
 2285 006c 5B00     		lsls	r3, r3, #1
 2286 006e 9A5A     		ldrh	r2, [r3, r2]
 2287 0070 204B     		ldr	r3, .L150+12
 2288 0072 5B88     		ldrh	r3, [r3, #2]
2324:Generated_Source\PSoC4/BLE_eventHandler.c ****           ((cyBle_serverInfo[cyBle_disCount].range.startHandle < cyBle_gattcDiscoveryRange.startHan
 2289              		.loc 1 2324 0
 2290 0074 9A42     		cmp	r2, r3
 2291 0076 DBD8     		bhi	.L145
 2292              	.L144:
2328:Generated_Source\PSoC4/BLE_eventHandler.c ****     }
2329:Generated_Source\PSoC4/BLE_eventHandler.c **** 
2330:Generated_Source\PSoC4/BLE_eventHandler.c ****     if(cyBle_disCount < (uint8) CYBLE_SRVI_COUNT)
 2293              		.loc 1 2330 0
ARM GAS  C:\Users\run1009\AppData\Local\Temp\ccSZtXoF.s 			page 83


 2294 0078 1B4B     		ldr	r3, .L150
 2295 007a 1B78     		ldrb	r3, [r3]
 2296 007c 032B     		cmp	r3, #3
 2297 007e 28D8     		bhi	.L146
2331:Generated_Source\PSoC4/BLE_eventHandler.c ****     {
2332:Generated_Source\PSoC4/BLE_eventHandler.c ****         if(CYBLE_ERROR_OK != CyBle_GattcFindIncludedServices(cyBle_connHandle, &cyBle_serverInfo[cy
 2298              		.loc 1 2332 0
 2299 0080 194B     		ldr	r3, .L150
 2300 0082 1B78     		ldrb	r3, [r3]
 2301 0084 1A00     		movs	r2, r3
 2302 0086 1300     		movs	r3, r2
 2303 0088 5B00     		lsls	r3, r3, #1
 2304 008a 9B18     		adds	r3, r3, r2
 2305 008c 5B00     		lsls	r3, r3, #1
 2306 008e 184A     		ldr	r2, .L150+8
 2307 0090 9918     		adds	r1, r3, r2
 2308 0092 194B     		ldr	r3, .L150+16
 2309 0094 1A78     		ldrb	r2, [r3]
 2310 0096 5B78     		ldrb	r3, [r3, #1]
 2311 0098 1B02     		lsls	r3, r3, #8
 2312 009a 1A43     		orrs	r2, r3
 2313 009c 0023     		movs	r3, #0
 2314 009e 1204     		lsls	r2, r2, #16
 2315 00a0 120C     		lsrs	r2, r2, #16
 2316 00a2 1B0C     		lsrs	r3, r3, #16
 2317 00a4 1B04     		lsls	r3, r3, #16
 2318 00a6 1343     		orrs	r3, r2
 2319 00a8 1800     		movs	r0, r3
 2320 00aa FFF7FEFF 		bl	CyBle_GattcFindIncludedServices
 2321 00ae 031E     		subs	r3, r0, #0
 2322 00b0 15D0     		beq	.L149
2333:Generated_Source\PSoC4/BLE_eventHandler.c ****         {
2334:Generated_Source\PSoC4/BLE_eventHandler.c ****             CyBle_ApplCallback(CYBLE_EVT_GATTC_INCL_DISCOVERY_FAILED, NULL);
 2323              		.loc 1 2334 0
 2324 00b2 124B     		ldr	r3, .L150+20
 2325 00b4 1B68     		ldr	r3, [r3]
 2326 00b6 8422     		movs	r2, #132
 2327 00b8 5200     		lsls	r2, r2, #1
 2328 00ba 0021     		movs	r1, #0
 2329 00bc 1000     		movs	r0, r2
 2330 00be 9847     		blx	r3
2335:Generated_Source\PSoC4/BLE_eventHandler.c ****             cyBle_eventHandlerFlag &= (uint8)~CYBLE_AUTO_DISCOVERY;
 2331              		.loc 1 2335 0
 2332 00c0 0F4B     		ldr	r3, .L150+24
 2333 00c2 1B78     		ldrb	r3, [r3]
 2334 00c4 DBB2     		uxtb	r3, r3
 2335 00c6 0222     		movs	r2, #2
 2336 00c8 9343     		bics	r3, r2
 2337 00ca DAB2     		uxtb	r2, r3
 2338 00cc 0C4B     		ldr	r3, .L150+24
 2339 00ce 1A70     		strb	r2, [r3]
2336:Generated_Source\PSoC4/BLE_eventHandler.c ****         }
2337:Generated_Source\PSoC4/BLE_eventHandler.c ****     }
2338:Generated_Source\PSoC4/BLE_eventHandler.c ****     else /* Included service discovery procedure is done, start characteristic discovery procedure 
2339:Generated_Source\PSoC4/BLE_eventHandler.c ****     {
2340:Generated_Source\PSoC4/BLE_eventHandler.c ****         #if(CYBLE_STACK_MODE_DEBUG)
2341:Generated_Source\PSoC4/BLE_eventHandler.c ****             CyBle_ApplCallback(CYBLE_EVT_GATTC_INCL_DISCOVERY_COMPLETE, NULL);
ARM GAS  C:\Users\run1009\AppData\Local\Temp\ccSZtXoF.s 			page 84


2342:Generated_Source\PSoC4/BLE_eventHandler.c ****         #endif /* CYBLE_STACK_MODE_DEBUG */
2343:Generated_Source\PSoC4/BLE_eventHandler.c ****             CyBle_SetClientState(CYBLE_CLIENT_STATE_CHAR_DISCOVERING);
2344:Generated_Source\PSoC4/BLE_eventHandler.c ****             CyBle_NextCharDiscovery(CYBLE_DISCOVERY_INIT);
2345:Generated_Source\PSoC4/BLE_eventHandler.c ****     }
2346:Generated_Source\PSoC4/BLE_eventHandler.c **** }
 2340              		.loc 1 2346 0
 2341 00d0 05E0     		b	.L149
 2342              	.L146:
2343:Generated_Source\PSoC4/BLE_eventHandler.c ****             CyBle_NextCharDiscovery(CYBLE_DISCOVERY_INIT);
 2343              		.loc 1 2343 0
 2344 00d2 0C4B     		ldr	r3, .L150+28
 2345 00d4 0322     		movs	r2, #3
 2346 00d6 1A70     		strb	r2, [r3]
2344:Generated_Source\PSoC4/BLE_eventHandler.c ****     }
 2347              		.loc 1 2344 0
 2348 00d8 0020     		movs	r0, #0
 2349 00da FFF7FEFF 		bl	CyBle_NextCharDiscovery
 2350              	.L149:
 2351              		.loc 1 2346 0
 2352 00de C046     		nop
 2353 00e0 BD46     		mov	sp, r7
 2354 00e2 02B0     		add	sp, sp, #8
 2355              		@ sp needed
 2356 00e4 80BD     		pop	{r7, pc}
 2357              	.L151:
 2358 00e6 C046     		.align	2
 2359              	.L150:
 2360 00e8 00000000 		.word	cyBle_disCount
 2361 00ec 00000000 		.word	cyBle_discInclInfo
 2362 00f0 00000000 		.word	cyBle_serverInfo
 2363 00f4 00000000 		.word	cyBle_gattcDiscoveryRange
 2364 00f8 00000000 		.word	cyBle_connHandle
 2365 00fc 00000000 		.word	CyBle_ApplCallback
 2366 0100 00000000 		.word	cyBle_eventHandlerFlag
 2367 0104 00000000 		.word	cyBle_clientState
 2368              		.cfi_endproc
 2369              	.LFE17:
 2370              		.size	CyBle_NextInclDiscovery, .-CyBle_NextInclDiscovery
 2371              		.section	.text.CyBle_GapcDiscoverCharacteristicsEventHandler,"ax",%progbits
 2372              		.align	2
 2373              		.code	16
 2374              		.thumb_func
 2375              		.type	CyBle_GapcDiscoverCharacteristicsEventHandler, %function
 2376              	CyBle_GapcDiscoverCharacteristicsEventHandler:
 2377              	.LFB18:
2347:Generated_Source\PSoC4/BLE_eventHandler.c **** 
2348:Generated_Source\PSoC4/BLE_eventHandler.c **** 
2349:Generated_Source\PSoC4/BLE_eventHandler.c **** /****************************************************************************** 
2350:Generated_Source\PSoC4/BLE_eventHandler.c **** * Function Name: CyBle_GapcDiscoverCharacteristicsEventHandler
2351:Generated_Source\PSoC4/BLE_eventHandler.c **** ***************************************************************************//**
2352:Generated_Source\PSoC4/BLE_eventHandler.c **** * 
2353:Generated_Source\PSoC4/BLE_eventHandler.c **** *  This function is called on receiving a "CYBLE_EVT_GATTC_READ_BY_TYPE_RSP"
2354:Generated_Source\PSoC4/BLE_eventHandler.c **** *  event. Based on the service UUID, an appropriate data structure is populated
2355:Generated_Source\PSoC4/BLE_eventHandler.c **** *  using the data received as part of the callback.
2356:Generated_Source\PSoC4/BLE_eventHandler.c **** * 
2357:Generated_Source\PSoC4/BLE_eventHandler.c **** *  \param discCharInfo:  the pointer to a characteristic information structure.
2358:Generated_Source\PSoC4/BLE_eventHandler.c **** * 
ARM GAS  C:\Users\run1009\AppData\Local\Temp\ccSZtXoF.s 			page 85


2359:Generated_Source\PSoC4/BLE_eventHandler.c **** * \return
2360:Generated_Source\PSoC4/BLE_eventHandler.c **** *  None
2361:Generated_Source\PSoC4/BLE_eventHandler.c **** * 
2362:Generated_Source\PSoC4/BLE_eventHandler.c **** ******************************************************************************/
2363:Generated_Source\PSoC4/BLE_eventHandler.c **** static void CyBle_GapcDiscoverCharacteristicsEventHandler(CYBLE_DISC_CHAR_INFO_T *discCharInfo)
2364:Generated_Source\PSoC4/BLE_eventHandler.c **** {
 2378              		.loc 1 2364 0
 2379              		.cfi_startproc
 2380              		@ args = 0, pretend = 0, frame = 8
 2381              		@ frame_needed = 1, uses_anonymous_args = 0
 2382 0000 80B5     		push	{r7, lr}
 2383              		.cfi_def_cfa_offset 8
 2384              		.cfi_offset 7, -8
 2385              		.cfi_offset 14, -4
 2386 0002 82B0     		sub	sp, sp, #8
 2387              		.cfi_def_cfa_offset 16
 2388 0004 00AF     		add	r7, sp, #0
 2389              		.cfi_def_cfa_register 7
 2390 0006 7860     		str	r0, [r7, #4]
2365:Generated_Source\PSoC4/BLE_eventHandler.c ****     switch(discCharInfo->uuid.uuid16)
 2391              		.loc 1 2365 0
 2392 0008 7B68     		ldr	r3, [r7, #4]
 2393 000a DB88     		ldrh	r3, [r3, #6]
 2394 000c 4F4A     		ldr	r2, .L178
 2395 000e 9342     		cmp	r3, r2
 2396 0010 00D1     		bne	.LCB1987
 2397 0012 84E0     		b	.L154	@long jump
 2398              	.LCB1987:
 2399 0014 4D4A     		ldr	r2, .L178
 2400 0016 9342     		cmp	r3, r2
 2401 0018 0BDC     		bgt	.L155
 2402 001a 4D4A     		ldr	r2, .L178+4
 2403 001c 9342     		cmp	r3, r2
 2404 001e 24D0     		beq	.L156
 2405 0020 4B4A     		ldr	r2, .L178+4
 2406 0022 9342     		cmp	r3, r2
 2407 0024 00DD     		ble	.LCB1996
 2408 0026 68E0     		b	.L157	@long jump
 2409              	.LCB1996:
 2410 0028 A822     		movs	r2, #168
 2411 002a 9201     		lsls	r2, r2, #6
 2412 002c 9342     		cmp	r3, r2
 2413 002e 0AD0     		beq	.L158
2366:Generated_Source\PSoC4/BLE_eventHandler.c ****     {
2367:Generated_Source\PSoC4/BLE_eventHandler.c ****     case CYBLE_UUID_CHAR_DEVICE_NAME:
2368:Generated_Source\PSoC4/BLE_eventHandler.c ****         CYBLE_GapcCheckCharHandle(cyBle_gapc.deviceNameCharHandle, discCharInfo);
2369:Generated_Source\PSoC4/BLE_eventHandler.c ****         break;
2370:Generated_Source\PSoC4/BLE_eventHandler.c **** 
2371:Generated_Source\PSoC4/BLE_eventHandler.c ****     case CYBLE_UUID_CHAR_APPEARANCE:
2372:Generated_Source\PSoC4/BLE_eventHandler.c ****         CYBLE_GapcCheckCharHandle(cyBle_gapc.appearanceCharHandle, discCharInfo);
2373:Generated_Source\PSoC4/BLE_eventHandler.c ****         break;
2374:Generated_Source\PSoC4/BLE_eventHandler.c ****         
2375:Generated_Source\PSoC4/BLE_eventHandler.c ****     case CYBLE_UUID_CHAR_PRFRRD_CNXN_PARAM:
2376:Generated_Source\PSoC4/BLE_eventHandler.c ****         CYBLE_GapcCheckCharHandle(cyBle_gapc.prefConnParamCharHandle, discCharInfo);
2377:Generated_Source\PSoC4/BLE_eventHandler.c ****         break;
2378:Generated_Source\PSoC4/BLE_eventHandler.c **** 
2379:Generated_Source\PSoC4/BLE_eventHandler.c ****     case CYBLE_UUID_CHAR_CENTRAL_ADDRESS_RESOLUTION:
ARM GAS  C:\Users\run1009\AppData\Local\Temp\ccSZtXoF.s 			page 86


2380:Generated_Source\PSoC4/BLE_eventHandler.c ****         CYBLE_GapcCheckCharHandle(cyBle_gapc.centralAddrResolutionCharHandle, discCharInfo);
2381:Generated_Source\PSoC4/BLE_eventHandler.c ****         break;
2382:Generated_Source\PSoC4/BLE_eventHandler.c **** 
2383:Generated_Source\PSoC4/BLE_eventHandler.c ****     case CYBLE_UUID_CHAR_RESOLVABLE_PRIV_ADDR_ONLY:
2384:Generated_Source\PSoC4/BLE_eventHandler.c ****         CYBLE_GapcCheckCharHandle(cyBle_gapc.rpaOnlyCharHandle, discCharInfo);
2385:Generated_Source\PSoC4/BLE_eventHandler.c ****         break;
2386:Generated_Source\PSoC4/BLE_eventHandler.c ****         
2387:Generated_Source\PSoC4/BLE_eventHandler.c ****     /* Obsolete characteristic. Kept for consistency. */
2388:Generated_Source\PSoC4/BLE_eventHandler.c ****     case CYBLE_UUID_CHAR_PERIPH_PRIVCY_FLAG:
2389:Generated_Source\PSoC4/BLE_eventHandler.c ****         CYBLE_GapcCheckCharHandle(cyBle_gapc.periphPrivacyCharHandle, discCharInfo);
2390:Generated_Source\PSoC4/BLE_eventHandler.c ****         break;
2391:Generated_Source\PSoC4/BLE_eventHandler.c ****     
2392:Generated_Source\PSoC4/BLE_eventHandler.c ****     case CYBLE_UUID_CHAR_RECONNECTION_ADDR:
2393:Generated_Source\PSoC4/BLE_eventHandler.c ****         CYBLE_GapcCheckCharHandle(cyBle_gapc.reconnAddrCharHandle, discCharInfo);
2394:Generated_Source\PSoC4/BLE_eventHandler.c ****         break;
2395:Generated_Source\PSoC4/BLE_eventHandler.c **** 
2396:Generated_Source\PSoC4/BLE_eventHandler.c ****     default:
2397:Generated_Source\PSoC4/BLE_eventHandler.c ****         break;
 2414              		.loc 1 2397 0
 2415 0030 87E0     		b	.L164
 2416              	.L155:
2365:Generated_Source\PSoC4/BLE_eventHandler.c ****     switch(discCharInfo->uuid.uuid16)
 2417              		.loc 1 2365 0
 2418 0032 484A     		ldr	r2, .L178+8
 2419 0034 9342     		cmp	r3, r2
 2420 0036 3CD0     		beq	.L159
 2421 0038 474A     		ldr	r2, .L178+12
 2422 003a 9342     		cmp	r3, r2
 2423 003c 4BD0     		beq	.L160
 2424 003e 474A     		ldr	r2, .L178+16
 2425 0040 9342     		cmp	r3, r2
 2426 0042 24D0     		beq	.L161
 2427              		.loc 1 2397 0
 2428 0044 7DE0     		b	.L164
 2429              	.L158:
2368:Generated_Source\PSoC4/BLE_eventHandler.c ****         break;
 2430              		.loc 1 2368 0
 2431 0046 464B     		ldr	r3, .L178+20
 2432 0048 1B88     		ldrh	r3, [r3]
 2433 004a 002B     		cmp	r3, #0
 2434 004c 04D1     		bne	.L162
2368:Generated_Source\PSoC4/BLE_eventHandler.c ****         break;
 2435              		.loc 1 2368 0 is_stmt 0 discriminator 1
 2436 004e 7B68     		ldr	r3, [r7, #4]
 2437 0050 9A88     		ldrh	r2, [r3, #4]
 2438 0052 434B     		ldr	r3, .L178+20
 2439 0054 1A80     		strh	r2, [r3]
2369:Generated_Source\PSoC4/BLE_eventHandler.c **** 
 2440              		.loc 1 2369 0 is_stmt 1 discriminator 1
 2441 0056 74E0     		b	.L164
 2442              	.L162:
2368:Generated_Source\PSoC4/BLE_eventHandler.c ****         break;
 2443              		.loc 1 2368 0 discriminator 2
 2444 0058 424B     		ldr	r3, .L178+24
 2445 005a 1B68     		ldr	r3, [r3]
 2446 005c 7A68     		ldr	r2, [r7, #4]
 2447 005e 911D     		adds	r1, r2, #6
ARM GAS  C:\Users\run1009\AppData\Local\Temp\ccSZtXoF.s 			page 87


 2448 0060 8622     		movs	r2, #134
 2449 0062 5200     		lsls	r2, r2, #1
 2450 0064 1000     		movs	r0, r2
 2451 0066 9847     		blx	r3
2369:Generated_Source\PSoC4/BLE_eventHandler.c **** 
 2452              		.loc 1 2369 0 discriminator 2
 2453 0068 6BE0     		b	.L164
 2454              	.L156:
2372:Generated_Source\PSoC4/BLE_eventHandler.c ****         break;
 2455              		.loc 1 2372 0
 2456 006a 3D4B     		ldr	r3, .L178+20
 2457 006c 5B88     		ldrh	r3, [r3, #2]
 2458 006e 002B     		cmp	r3, #0
 2459 0070 04D1     		bne	.L165
2372:Generated_Source\PSoC4/BLE_eventHandler.c ****         break;
 2460              		.loc 1 2372 0 is_stmt 0 discriminator 1
 2461 0072 7B68     		ldr	r3, [r7, #4]
 2462 0074 9A88     		ldrh	r2, [r3, #4]
 2463 0076 3A4B     		ldr	r3, .L178+20
 2464 0078 5A80     		strh	r2, [r3, #2]
2373:Generated_Source\PSoC4/BLE_eventHandler.c ****         
 2465              		.loc 1 2373 0 is_stmt 1 discriminator 1
 2466 007a 62E0     		b	.L164
 2467              	.L165:
2372:Generated_Source\PSoC4/BLE_eventHandler.c ****         break;
 2468              		.loc 1 2372 0 discriminator 2
 2469 007c 394B     		ldr	r3, .L178+24
 2470 007e 1B68     		ldr	r3, [r3]
 2471 0080 7A68     		ldr	r2, [r7, #4]
 2472 0082 911D     		adds	r1, r2, #6
 2473 0084 8622     		movs	r2, #134
 2474 0086 5200     		lsls	r2, r2, #1
 2475 0088 1000     		movs	r0, r2
 2476 008a 9847     		blx	r3
2373:Generated_Source\PSoC4/BLE_eventHandler.c ****         
 2477              		.loc 1 2373 0 discriminator 2
 2478 008c 59E0     		b	.L164
 2479              	.L161:
2376:Generated_Source\PSoC4/BLE_eventHandler.c ****         break;
 2480              		.loc 1 2376 0
 2481 008e 344B     		ldr	r3, .L178+20
 2482 0090 1B89     		ldrh	r3, [r3, #8]
 2483 0092 002B     		cmp	r3, #0
 2484 0094 04D1     		bne	.L167
2376:Generated_Source\PSoC4/BLE_eventHandler.c ****         break;
 2485              		.loc 1 2376 0 is_stmt 0 discriminator 1
 2486 0096 7B68     		ldr	r3, [r7, #4]
 2487 0098 9A88     		ldrh	r2, [r3, #4]
 2488 009a 314B     		ldr	r3, .L178+20
 2489 009c 1A81     		strh	r2, [r3, #8]
2377:Generated_Source\PSoC4/BLE_eventHandler.c **** 
 2490              		.loc 1 2377 0 is_stmt 1 discriminator 1
 2491 009e 50E0     		b	.L164
 2492              	.L167:
2376:Generated_Source\PSoC4/BLE_eventHandler.c ****         break;
 2493              		.loc 1 2376 0 discriminator 2
 2494 00a0 304B     		ldr	r3, .L178+24
ARM GAS  C:\Users\run1009\AppData\Local\Temp\ccSZtXoF.s 			page 88


 2495 00a2 1B68     		ldr	r3, [r3]
 2496 00a4 7A68     		ldr	r2, [r7, #4]
 2497 00a6 911D     		adds	r1, r2, #6
 2498 00a8 8622     		movs	r2, #134
 2499 00aa 5200     		lsls	r2, r2, #1
 2500 00ac 1000     		movs	r0, r2
 2501 00ae 9847     		blx	r3
2377:Generated_Source\PSoC4/BLE_eventHandler.c **** 
 2502              		.loc 1 2377 0 discriminator 2
 2503 00b0 47E0     		b	.L164
 2504              	.L159:
2380:Generated_Source\PSoC4/BLE_eventHandler.c ****         break;
 2505              		.loc 1 2380 0
 2506 00b2 2B4B     		ldr	r3, .L178+20
 2507 00b4 5B89     		ldrh	r3, [r3, #10]
 2508 00b6 002B     		cmp	r3, #0
 2509 00b8 04D1     		bne	.L169
2380:Generated_Source\PSoC4/BLE_eventHandler.c ****         break;
 2510              		.loc 1 2380 0 is_stmt 0 discriminator 1
 2511 00ba 7B68     		ldr	r3, [r7, #4]
 2512 00bc 9A88     		ldrh	r2, [r3, #4]
 2513 00be 284B     		ldr	r3, .L178+20
 2514 00c0 5A81     		strh	r2, [r3, #10]
2381:Generated_Source\PSoC4/BLE_eventHandler.c **** 
 2515              		.loc 1 2381 0 is_stmt 1 discriminator 1
 2516 00c2 3EE0     		b	.L164
 2517              	.L169:
2380:Generated_Source\PSoC4/BLE_eventHandler.c ****         break;
 2518              		.loc 1 2380 0 discriminator 2
 2519 00c4 274B     		ldr	r3, .L178+24
 2520 00c6 1B68     		ldr	r3, [r3]
 2521 00c8 7A68     		ldr	r2, [r7, #4]
 2522 00ca 911D     		adds	r1, r2, #6
 2523 00cc 8622     		movs	r2, #134
 2524 00ce 5200     		lsls	r2, r2, #1
 2525 00d0 1000     		movs	r0, r2
 2526 00d2 9847     		blx	r3
2381:Generated_Source\PSoC4/BLE_eventHandler.c **** 
 2527              		.loc 1 2381 0 discriminator 2
 2528 00d4 35E0     		b	.L164
 2529              	.L160:
2384:Generated_Source\PSoC4/BLE_eventHandler.c ****         break;
 2530              		.loc 1 2384 0
 2531 00d6 224B     		ldr	r3, .L178+20
 2532 00d8 9B89     		ldrh	r3, [r3, #12]
 2533 00da 002B     		cmp	r3, #0
 2534 00dc 04D1     		bne	.L171
2384:Generated_Source\PSoC4/BLE_eventHandler.c ****         break;
 2535              		.loc 1 2384 0 is_stmt 0 discriminator 1
 2536 00de 7B68     		ldr	r3, [r7, #4]
 2537 00e0 9A88     		ldrh	r2, [r3, #4]
 2538 00e2 1F4B     		ldr	r3, .L178+20
 2539 00e4 9A81     		strh	r2, [r3, #12]
2385:Generated_Source\PSoC4/BLE_eventHandler.c ****         
 2540              		.loc 1 2385 0 is_stmt 1 discriminator 1
 2541 00e6 2CE0     		b	.L164
 2542              	.L171:
ARM GAS  C:\Users\run1009\AppData\Local\Temp\ccSZtXoF.s 			page 89


2384:Generated_Source\PSoC4/BLE_eventHandler.c ****         break;
 2543              		.loc 1 2384 0 discriminator 2
 2544 00e8 1E4B     		ldr	r3, .L178+24
 2545 00ea 1B68     		ldr	r3, [r3]
 2546 00ec 7A68     		ldr	r2, [r7, #4]
 2547 00ee 911D     		adds	r1, r2, #6
 2548 00f0 8622     		movs	r2, #134
 2549 00f2 5200     		lsls	r2, r2, #1
 2550 00f4 1000     		movs	r0, r2
 2551 00f6 9847     		blx	r3
2385:Generated_Source\PSoC4/BLE_eventHandler.c ****         
 2552              		.loc 1 2385 0 discriminator 2
 2553 00f8 23E0     		b	.L164
 2554              	.L157:
2389:Generated_Source\PSoC4/BLE_eventHandler.c ****         break;
 2555              		.loc 1 2389 0
 2556 00fa 194B     		ldr	r3, .L178+20
 2557 00fc 9B88     		ldrh	r3, [r3, #4]
 2558 00fe 002B     		cmp	r3, #0
 2559 0100 04D1     		bne	.L173
2389:Generated_Source\PSoC4/BLE_eventHandler.c ****         break;
 2560              		.loc 1 2389 0 is_stmt 0 discriminator 1
 2561 0102 7B68     		ldr	r3, [r7, #4]
 2562 0104 9A88     		ldrh	r2, [r3, #4]
 2563 0106 164B     		ldr	r3, .L178+20
 2564 0108 9A80     		strh	r2, [r3, #4]
2390:Generated_Source\PSoC4/BLE_eventHandler.c ****     
 2565              		.loc 1 2390 0 is_stmt 1 discriminator 1
 2566 010a 1AE0     		b	.L164
 2567              	.L173:
2389:Generated_Source\PSoC4/BLE_eventHandler.c ****         break;
 2568              		.loc 1 2389 0 discriminator 2
 2569 010c 154B     		ldr	r3, .L178+24
 2570 010e 1B68     		ldr	r3, [r3]
 2571 0110 7A68     		ldr	r2, [r7, #4]
 2572 0112 911D     		adds	r1, r2, #6
 2573 0114 8622     		movs	r2, #134
 2574 0116 5200     		lsls	r2, r2, #1
 2575 0118 1000     		movs	r0, r2
 2576 011a 9847     		blx	r3
2390:Generated_Source\PSoC4/BLE_eventHandler.c ****     
 2577              		.loc 1 2390 0 discriminator 2
 2578 011c 11E0     		b	.L164
 2579              	.L154:
2393:Generated_Source\PSoC4/BLE_eventHandler.c ****         break;
 2580              		.loc 1 2393 0
 2581 011e 104B     		ldr	r3, .L178+20
 2582 0120 DB88     		ldrh	r3, [r3, #6]
 2583 0122 002B     		cmp	r3, #0
 2584 0124 04D1     		bne	.L175
2393:Generated_Source\PSoC4/BLE_eventHandler.c ****         break;
 2585              		.loc 1 2393 0 is_stmt 0 discriminator 1
 2586 0126 7B68     		ldr	r3, [r7, #4]
 2587 0128 9A88     		ldrh	r2, [r3, #4]
 2588 012a 0D4B     		ldr	r3, .L178+20
 2589 012c DA80     		strh	r2, [r3, #6]
2394:Generated_Source\PSoC4/BLE_eventHandler.c **** 
ARM GAS  C:\Users\run1009\AppData\Local\Temp\ccSZtXoF.s 			page 90


 2590              		.loc 1 2394 0 is_stmt 1 discriminator 1
 2591 012e 07E0     		b	.L177
 2592              	.L175:
2393:Generated_Source\PSoC4/BLE_eventHandler.c ****         break;
 2593              		.loc 1 2393 0 discriminator 2
 2594 0130 0C4B     		ldr	r3, .L178+24
 2595 0132 1B68     		ldr	r3, [r3]
 2596 0134 7A68     		ldr	r2, [r7, #4]
 2597 0136 911D     		adds	r1, r2, #6
 2598 0138 8622     		movs	r2, #134
 2599 013a 5200     		lsls	r2, r2, #1
 2600 013c 1000     		movs	r0, r2
 2601 013e 9847     		blx	r3
 2602              	.L177:
2394:Generated_Source\PSoC4/BLE_eventHandler.c **** 
 2603              		.loc 1 2394 0
 2604 0140 C046     		nop
 2605              	.L164:
2398:Generated_Source\PSoC4/BLE_eventHandler.c ****     }
2399:Generated_Source\PSoC4/BLE_eventHandler.c **** }
 2606              		.loc 1 2399 0
 2607 0142 C046     		nop
 2608 0144 BD46     		mov	sp, r7
 2609 0146 02B0     		add	sp, sp, #8
 2610              		@ sp needed
 2611 0148 80BD     		pop	{r7, pc}
 2612              	.L179:
 2613 014a C046     		.align	2
 2614              	.L178:
 2615 014c 032A0000 		.word	10755
 2616 0150 012A0000 		.word	10753
 2617 0154 A62A0000 		.word	10918
 2618 0158 C92A0000 		.word	10953
 2619 015c 042A0000 		.word	10756
 2620 0160 00000000 		.word	cyBle_gapc
 2621 0164 00000000 		.word	CyBle_ApplCallback
 2622              		.cfi_endproc
 2623              	.LFE18:
 2624              		.size	CyBle_GapcDiscoverCharacteristicsEventHandler, .-CyBle_GapcDiscoverCharacteristicsEventHandl
 2625              		.section	.text.CyBle_ReadByTypeEventHandler,"ax",%progbits
 2626              		.align	2
 2627              		.global	CyBle_ReadByTypeEventHandler
 2628              		.code	16
 2629              		.thumb_func
 2630              		.type	CyBle_ReadByTypeEventHandler, %function
 2631              	CyBle_ReadByTypeEventHandler:
 2632              	.LFB19:
2400:Generated_Source\PSoC4/BLE_eventHandler.c **** 
2401:Generated_Source\PSoC4/BLE_eventHandler.c **** 
2402:Generated_Source\PSoC4/BLE_eventHandler.c **** /****************************************************************************** 
2403:Generated_Source\PSoC4/BLE_eventHandler.c **** * Function Name: CyBle_ReadByTypeEventHandler
2404:Generated_Source\PSoC4/BLE_eventHandler.c **** ***************************************************************************//**
2405:Generated_Source\PSoC4/BLE_eventHandler.c **** *  Handles the Read By Type Response Event during an automatic server discovery
2406:Generated_Source\PSoC4/BLE_eventHandler.c **** *  process.
2407:Generated_Source\PSoC4/BLE_eventHandler.c **** * 
2408:Generated_Source\PSoC4/BLE_eventHandler.c **** *  \param eventParam: The event parameters for a Read By Type Response.
2409:Generated_Source\PSoC4/BLE_eventHandler.c **** * 
ARM GAS  C:\Users\run1009\AppData\Local\Temp\ccSZtXoF.s 			page 91


2410:Generated_Source\PSoC4/BLE_eventHandler.c **** * \return
2411:Generated_Source\PSoC4/BLE_eventHandler.c **** *  None.
2412:Generated_Source\PSoC4/BLE_eventHandler.c **** * 
2413:Generated_Source\PSoC4/BLE_eventHandler.c **** ******************************************************************************/
2414:Generated_Source\PSoC4/BLE_eventHandler.c **** void CyBle_ReadByTypeEventHandler(CYBLE_GATTC_READ_BY_TYPE_RSP_PARAM_T *eventParam)
2415:Generated_Source\PSoC4/BLE_eventHandler.c **** {
 2633              		.loc 1 2415 0
 2634              		.cfi_startproc
 2635              		@ args = 0, pretend = 0, frame = 72
 2636              		@ frame_needed = 1, uses_anonymous_args = 0
 2637 0000 90B5     		push	{r4, r7, lr}
 2638              		.cfi_def_cfa_offset 12
 2639              		.cfi_offset 4, -12
 2640              		.cfi_offset 7, -8
 2641              		.cfi_offset 14, -4
 2642 0002 93B0     		sub	sp, sp, #76
 2643              		.cfi_def_cfa_offset 88
 2644 0004 00AF     		add	r7, sp, #0
 2645              		.cfi_def_cfa_register 7
 2646 0006 7860     		str	r0, [r7, #4]
2416:Generated_Source\PSoC4/BLE_eventHandler.c ****     uint16 dataLength;
2417:Generated_Source\PSoC4/BLE_eventHandler.c ****     uint16 attrLength;
2418:Generated_Source\PSoC4/BLE_eventHandler.c ****     uint16 i, j;
2419:Generated_Source\PSoC4/BLE_eventHandler.c ****     uint8 *attrVal;
2420:Generated_Source\PSoC4/BLE_eventHandler.c **** 
2421:Generated_Source\PSoC4/BLE_eventHandler.c ****     if((cyBle_eventHandlerFlag & CYBLE_AUTO_DISCOVERY) != 0u)
 2647              		.loc 1 2421 0
 2648 0008 D44B     		ldr	r3, .L215
 2649 000a 1B78     		ldrb	r3, [r3]
 2650 000c DBB2     		uxtb	r3, r3
 2651 000e 1A00     		movs	r2, r3
 2652 0010 0223     		movs	r3, #2
 2653 0012 1340     		ands	r3, r2
 2654 0014 00D1     		bne	.LCB2230
 2655 0016 D1E1     		b	.L210	@long jump
 2656              	.LCB2230:
2422:Generated_Source\PSoC4/BLE_eventHandler.c ****     {
2423:Generated_Source\PSoC4/BLE_eventHandler.c ****         /* Count of service information pieces in this mtu */
2424:Generated_Source\PSoC4/BLE_eventHandler.c ****         dataLength = eventParam->attrData.length;
 2657              		.loc 1 2424 0
 2658 0018 3E23     		movs	r3, #62
 2659 001a FB18     		adds	r3, r7, r3
 2660 001c 7A68     		ldr	r2, [r7, #4]
 2661 001e 1289     		ldrh	r2, [r2, #8]
 2662 0020 1A80     		strh	r2, [r3]
2425:Generated_Source\PSoC4/BLE_eventHandler.c ****         attrLength = eventParam->attrData.attrLen;
 2663              		.loc 1 2425 0
 2664 0022 3C23     		movs	r3, #60
 2665 0024 FB18     		adds	r3, r7, r3
 2666 0026 7A68     		ldr	r2, [r7, #4]
 2667 0028 5289     		ldrh	r2, [r2, #10]
 2668 002a 1A80     		strh	r2, [r3]
2426:Generated_Source\PSoC4/BLE_eventHandler.c ****         attrVal = eventParam->attrData.attrValue;
 2669              		.loc 1 2426 0
 2670 002c 7B68     		ldr	r3, [r7, #4]
 2671 002e 5B68     		ldr	r3, [r3, #4]
 2672 0030 3B64     		str	r3, [r7, #64]
ARM GAS  C:\Users\run1009\AppData\Local\Temp\ccSZtXoF.s 			page 92


2427:Generated_Source\PSoC4/BLE_eventHandler.c ****         
2428:Generated_Source\PSoC4/BLE_eventHandler.c ****         if(CyBle_GetClientState() == CYBLE_CLIENT_STATE_CHAR_DISCOVERING)
 2673              		.loc 1 2428 0
 2674 0032 CB4B     		ldr	r3, .L215+4
 2675 0034 1B78     		ldrb	r3, [r3]
 2676 0036 032B     		cmp	r3, #3
 2677 0038 00D0     		beq	.LCB2247
 2678 003a C7E0     		b	.L182	@long jump
 2679              	.LCB2247:
 2680              	.LBB12:
2429:Generated_Source\PSoC4/BLE_eventHandler.c ****         {
2430:Generated_Source\PSoC4/BLE_eventHandler.c ****             CYBLE_DISC_CHAR_INFO_T discCharInfo;
2431:Generated_Source\PSoC4/BLE_eventHandler.c ****             
2432:Generated_Source\PSoC4/BLE_eventHandler.c ****             for(i = 0u; i < attrLength; i += dataLength)
 2681              		.loc 1 2432 0
 2682 003c 4623     		movs	r3, #70
 2683 003e FB18     		adds	r3, r7, r3
 2684 0040 0022     		movs	r2, #0
 2685 0042 1A80     		strh	r2, [r3]
 2686 0044 B8E0     		b	.L183
 2687              	.L195:
2433:Generated_Source\PSoC4/BLE_eventHandler.c ****             {
2434:Generated_Source\PSoC4/BLE_eventHandler.c ****                 discCharInfo.charDeclHandle = CyBle_Get16ByPtr(attrVal);
 2688              		.loc 1 2434 0
 2689 0046 3B6C     		ldr	r3, [r7, #64]
 2690 0048 1800     		movs	r0, r3
 2691 004a FFF7FEFF 		bl	CyBle_Get16ByPtr
 2692 004e 0300     		movs	r3, r0
 2693 0050 1A00     		movs	r2, r3
 2694 0052 2423     		movs	r3, #36
 2695 0054 FB18     		adds	r3, r7, r3
 2696 0056 1A80     		strh	r2, [r3]
2435:Generated_Source\PSoC4/BLE_eventHandler.c ****                 attrVal += sizeof(discCharInfo.charDeclHandle);
 2697              		.loc 1 2435 0
 2698 0058 3B6C     		ldr	r3, [r7, #64]
 2699 005a 0233     		adds	r3, r3, #2
 2700 005c 3B64     		str	r3, [r7, #64]
2436:Generated_Source\PSoC4/BLE_eventHandler.c ****                 discCharInfo.properties = *attrVal;
 2701              		.loc 1 2436 0
 2702 005e 3B6C     		ldr	r3, [r7, #64]
 2703 0060 1A78     		ldrb	r2, [r3]
 2704 0062 2423     		movs	r3, #36
 2705 0064 FB18     		adds	r3, r7, r3
 2706 0066 9A70     		strb	r2, [r3, #2]
2437:Generated_Source\PSoC4/BLE_eventHandler.c ****                 attrVal += sizeof(discCharInfo.properties);
 2707              		.loc 1 2437 0
 2708 0068 3B6C     		ldr	r3, [r7, #64]
 2709 006a 0133     		adds	r3, r3, #1
 2710 006c 3B64     		str	r3, [r7, #64]
2438:Generated_Source\PSoC4/BLE_eventHandler.c ****                 discCharInfo.valueHandle = CyBle_Get16ByPtr(attrVal);
 2711              		.loc 1 2438 0
 2712 006e 3B6C     		ldr	r3, [r7, #64]
 2713 0070 1800     		movs	r0, r3
 2714 0072 FFF7FEFF 		bl	CyBle_Get16ByPtr
 2715 0076 0300     		movs	r3, r0
 2716 0078 1A00     		movs	r2, r3
 2717 007a 2423     		movs	r3, #36
ARM GAS  C:\Users\run1009\AppData\Local\Temp\ccSZtXoF.s 			page 93


 2718 007c FB18     		adds	r3, r7, r3
 2719 007e 9A80     		strh	r2, [r3, #4]
2439:Generated_Source\PSoC4/BLE_eventHandler.c ****                 attrVal += sizeof(discCharInfo.valueHandle);
 2720              		.loc 1 2439 0
 2721 0080 3B6C     		ldr	r3, [r7, #64]
 2722 0082 0233     		adds	r3, r3, #2
 2723 0084 3B64     		str	r3, [r7, #64]
2440:Generated_Source\PSoC4/BLE_eventHandler.c ****                 /* Characteristics discovery with 128-bit uuid */
2441:Generated_Source\PSoC4/BLE_eventHandler.c ****                 if(dataLength == CYBLE_DISC_CHAR_INFO_128_LEN)
 2724              		.loc 1 2441 0
 2725 0086 3E23     		movs	r3, #62
 2726 0088 FB18     		adds	r3, r7, r3
 2727 008a 1B88     		ldrh	r3, [r3]
 2728 008c 152B     		cmp	r3, #21
 2729 008e 33D1     		bne	.L184
2442:Generated_Source\PSoC4/BLE_eventHandler.c ****                 {
2443:Generated_Source\PSoC4/BLE_eventHandler.c ****                     discCharInfo.uuidFormat = CYBLE_GATT_128_BIT_UUID_FORMAT;
 2730              		.loc 1 2443 0
 2731 0090 2423     		movs	r3, #36
 2732 0092 FB18     		adds	r3, r7, r3
 2733 0094 0222     		movs	r2, #2
 2734 0096 9A75     		strb	r2, [r3, #22]
2444:Generated_Source\PSoC4/BLE_eventHandler.c ****                     (void)memcpy(&discCharInfo.uuid.uuid128, attrVal, CYBLE_GATT_128_BIT_UUID_SIZE)
 2735              		.loc 1 2444 0
 2736 0098 2423     		movs	r3, #36
 2737 009a FB18     		adds	r3, r7, r3
 2738 009c 0622     		movs	r2, #6
 2739 009e 396C     		ldr	r1, [r7, #64]
 2740 00a0 9B18     		adds	r3, r3, r2
 2741 00a2 1022     		movs	r2, #16
 2742 00a4 1800     		movs	r0, r3
 2743 00a6 FFF7FEFF 		bl	memcpy
2445:Generated_Source\PSoC4/BLE_eventHandler.c ****                     attrVal += CYBLE_GATT_128_BIT_UUID_SIZE;
 2744              		.loc 1 2445 0
 2745 00aa 3B6C     		ldr	r3, [r7, #64]
 2746 00ac 1033     		adds	r3, r3, #16
 2747 00ae 3B64     		str	r3, [r7, #64]
2446:Generated_Source\PSoC4/BLE_eventHandler.c ****                     /* Switch by service uuid */
2447:Generated_Source\PSoC4/BLE_eventHandler.c ****                     switch (cyBle_serverInfo[cyBle_disCount].uuid)
 2748              		.loc 1 2447 0
 2749 00b0 AC4B     		ldr	r3, .L215+8
 2750 00b2 1B78     		ldrb	r3, [r3]
 2751 00b4 1900     		movs	r1, r3
 2752 00b6 AC4A     		ldr	r2, .L215+12
 2753 00b8 0B00     		movs	r3, r1
 2754 00ba 5B00     		lsls	r3, r3, #1
 2755 00bc 5B18     		adds	r3, r3, r1
 2756 00be 5B00     		lsls	r3, r3, #1
 2757 00c0 D318     		adds	r3, r2, r3
 2758 00c2 0433     		adds	r3, r3, #4
 2759 00c4 1B88     		ldrh	r3, [r3]
 2760 00c6 1A00     		movs	r2, r3
 2761 00c8 A84B     		ldr	r3, .L215+16
 2762 00ca 9A42     		cmp	r2, r3
 2763 00cc 5DD0     		beq	.L211
2448:Generated_Source\PSoC4/BLE_eventHandler.c ****                     {
2449:Generated_Source\PSoC4/BLE_eventHandler.c ****                         case CYBLE_UUID_WIRELESS_POWER_TRANSFER_SERVICE:
ARM GAS  C:\Users\run1009\AppData\Local\Temp\ccSZtXoF.s 			page 94


2450:Generated_Source\PSoC4/BLE_eventHandler.c ****                             #ifdef CYBLE_WPTS_CLIENT
2451:Generated_Source\PSoC4/BLE_eventHandler.c ****                                 CyBle_WptscDiscoverCharacteristicsEventHandler(&discCharInfo);
2452:Generated_Source\PSoC4/BLE_eventHandler.c ****                             #endif /* CYBLE_WPTS_CLIENT */
2453:Generated_Source\PSoC4/BLE_eventHandler.c ****                             break;
2454:Generated_Source\PSoC4/BLE_eventHandler.c ****                     
2455:Generated_Source\PSoC4/BLE_eventHandler.c ****                         default:
2456:Generated_Source\PSoC4/BLE_eventHandler.c ****                     #ifdef CYBLE_ANCS_CLIENT
2457:Generated_Source\PSoC4/BLE_eventHandler.c ****                         if(cyBle_disCount == ((uint8)CYBLE_SRVI_ANCS))
2458:Generated_Source\PSoC4/BLE_eventHandler.c ****                         {
2459:Generated_Source\PSoC4/BLE_eventHandler.c ****                             CyBle_AncscDiscoverCharacteristicsEventHandler(&discCharInfo);
2460:Generated_Source\PSoC4/BLE_eventHandler.c ****                         }
2461:Generated_Source\PSoC4/BLE_eventHandler.c ****                     #endif /* CYBLE_ANCS_CLIENT */
2462:Generated_Source\PSoC4/BLE_eventHandler.c ****                     #ifdef CYBLE_CUSTOM_CLIENT
2463:Generated_Source\PSoC4/BLE_eventHandler.c ****                         if((cyBle_disCount >= ((uint8)CYBLE_SRVI_CUSTOMS)) &&
 2764              		.loc 1 2463 0
 2765 00ce A54B     		ldr	r3, .L215+8
 2766 00d0 1B78     		ldrb	r3, [r3]
 2767 00d2 012B     		cmp	r3, #1
 2768 00d4 5BD9     		bls	.L212
2464:Generated_Source\PSoC4/BLE_eventHandler.c ****                             (cyBle_disCount <= ((uint8)CYBLE_SRVI_CUSTOMS_END)))
 2769              		.loc 1 2464 0 discriminator 1
 2770 00d6 A34B     		ldr	r3, .L215+8
 2771 00d8 1B78     		ldrb	r3, [r3]
2463:Generated_Source\PSoC4/BLE_eventHandler.c ****                             (cyBle_disCount <= ((uint8)CYBLE_SRVI_CUSTOMS_END)))
 2772              		.loc 1 2463 0 discriminator 1
 2773 00da 032B     		cmp	r3, #3
 2774 00dc 57D8     		bhi	.L212
2465:Generated_Source\PSoC4/BLE_eventHandler.c ****                         {
2466:Generated_Source\PSoC4/BLE_eventHandler.c ****                             CyBle_CustomcDiscoverCharacteristicsEventHandler(cyBle_disCount - CYBLE
 2775              		.loc 1 2466 0
 2776 00de A14B     		ldr	r3, .L215+8
 2777 00e0 1B78     		ldrb	r3, [r3]
 2778 00e2 9BB2     		uxth	r3, r3
 2779 00e4 023B     		subs	r3, r3, #2
 2780 00e6 9BB2     		uxth	r3, r3
 2781 00e8 2422     		movs	r2, #36
 2782 00ea BA18     		adds	r2, r7, r2
 2783 00ec 1100     		movs	r1, r2
 2784 00ee 1800     		movs	r0, r3
 2785 00f0 FFF7FEFF 		bl	CyBle_CustomcDiscoverCharacteristicsEventHandler
2467:Generated_Source\PSoC4/BLE_eventHandler.c ****                         }
2468:Generated_Source\PSoC4/BLE_eventHandler.c ****                     #endif /* CYBLE_CUSTOM_CLIENT */
2469:Generated_Source\PSoC4/BLE_eventHandler.c ****                         break;
 2786              		.loc 1 2469 0
 2787 00f4 C046     		nop
 2788 00f6 4AE0     		b	.L212
 2789              	.L184:
2470:Generated_Source\PSoC4/BLE_eventHandler.c ****                     }
2471:Generated_Source\PSoC4/BLE_eventHandler.c ****                 }
2472:Generated_Source\PSoC4/BLE_eventHandler.c ****                 else if(dataLength == CYBLE_DISC_CHAR_INFO_LEN)
 2790              		.loc 1 2472 0
 2791 00f8 3E23     		movs	r3, #62
 2792 00fa FB18     		adds	r3, r7, r3
 2793 00fc 1B88     		ldrh	r3, [r3]
 2794 00fe 072B     		cmp	r3, #7
 2795 0100 48D1     		bne	.L189
2473:Generated_Source\PSoC4/BLE_eventHandler.c ****                 {
ARM GAS  C:\Users\run1009\AppData\Local\Temp\ccSZtXoF.s 			page 95


2474:Generated_Source\PSoC4/BLE_eventHandler.c ****                     discCharInfo.uuidFormat = CYBLE_GATT_16_BIT_UUID_FORMAT;
 2796              		.loc 1 2474 0
 2797 0102 2423     		movs	r3, #36
 2798 0104 FB18     		adds	r3, r7, r3
 2799 0106 0122     		movs	r2, #1
 2800 0108 9A75     		strb	r2, [r3, #22]
2475:Generated_Source\PSoC4/BLE_eventHandler.c ****                     discCharInfo.uuid.uuid16 = CyBle_Get16ByPtr(attrVal);
 2801              		.loc 1 2475 0
 2802 010a 3B6C     		ldr	r3, [r7, #64]
 2803 010c 1800     		movs	r0, r3
 2804 010e FFF7FEFF 		bl	CyBle_Get16ByPtr
 2805 0112 0300     		movs	r3, r0
 2806 0114 1A00     		movs	r2, r3
 2807 0116 2423     		movs	r3, #36
 2808 0118 FB18     		adds	r3, r7, r3
 2809 011a DA80     		strh	r2, [r3, #6]
2476:Generated_Source\PSoC4/BLE_eventHandler.c ****                     attrVal += CYBLE_GATT_16_BIT_UUID_SIZE;
 2810              		.loc 1 2476 0
 2811 011c 3B6C     		ldr	r3, [r7, #64]
 2812 011e 0233     		adds	r3, r3, #2
 2813 0120 3B64     		str	r3, [r7, #64]
2477:Generated_Source\PSoC4/BLE_eventHandler.c **** 
2478:Generated_Source\PSoC4/BLE_eventHandler.c ****                     /* Switch by service uuid */
2479:Generated_Source\PSoC4/BLE_eventHandler.c ****                     switch (cyBle_serverInfo[cyBle_disCount].uuid)
 2814              		.loc 1 2479 0
 2815 0122 904B     		ldr	r3, .L215+8
 2816 0124 1B78     		ldrb	r3, [r3]
 2817 0126 1900     		movs	r1, r3
 2818 0128 8F4A     		ldr	r2, .L215+12
 2819 012a 0B00     		movs	r3, r1
 2820 012c 5B00     		lsls	r3, r3, #1
 2821 012e 5B18     		adds	r3, r3, r1
 2822 0130 5B00     		lsls	r3, r3, #1
 2823 0132 D318     		adds	r3, r2, r3
 2824 0134 0433     		adds	r3, r3, #4
 2825 0136 1B88     		ldrh	r3, [r3]
 2826 0138 C022     		movs	r2, #192
 2827 013a 5201     		lsls	r2, r2, #5
 2828 013c 9342     		cmp	r3, r2
 2829 013e 03D0     		beq	.L191
 2830 0140 8B4A     		ldr	r2, .L215+20
 2831 0142 9342     		cmp	r3, r2
 2832 0144 06D0     		beq	.L192
 2833 0146 0BE0     		b	.L209
 2834              	.L191:
2480:Generated_Source\PSoC4/BLE_eventHandler.c ****                     {
2481:Generated_Source\PSoC4/BLE_eventHandler.c ****                     case CYBLE_UUID_GAP_SERVICE:
2482:Generated_Source\PSoC4/BLE_eventHandler.c ****                         CyBle_GapcDiscoverCharacteristicsEventHandler(&discCharInfo);
 2835              		.loc 1 2482 0
 2836 0148 2423     		movs	r3, #36
 2837 014a FB18     		adds	r3, r7, r3
 2838 014c 1800     		movs	r0, r3
 2839 014e FFF7FEFF 		bl	CyBle_GapcDiscoverCharacteristicsEventHandler
2483:Generated_Source\PSoC4/BLE_eventHandler.c ****                         break;
 2840              		.loc 1 2483 0
 2841 0152 1FE0     		b	.L189
 2842              	.L192:
ARM GAS  C:\Users\run1009\AppData\Local\Temp\ccSZtXoF.s 			page 96


2484:Generated_Source\PSoC4/BLE_eventHandler.c **** 
2485:Generated_Source\PSoC4/BLE_eventHandler.c ****                     case CYBLE_UUID_GATT_SERVICE:
2486:Generated_Source\PSoC4/BLE_eventHandler.c ****                         CyBle_GattcDiscoverCharacteristicsEventHandler(&discCharInfo);
 2843              		.loc 1 2486 0
 2844 0154 2423     		movs	r3, #36
 2845 0156 FB18     		adds	r3, r7, r3
 2846 0158 1800     		movs	r0, r3
 2847 015a FFF7FEFF 		bl	CyBle_GattcDiscoverCharacteristicsEventHandler
2487:Generated_Source\PSoC4/BLE_eventHandler.c ****                         break;
 2848              		.loc 1 2487 0
 2849 015e 19E0     		b	.L189
 2850              	.L209:
2488:Generated_Source\PSoC4/BLE_eventHandler.c ****                         
2489:Generated_Source\PSoC4/BLE_eventHandler.c ****                 #ifdef CYBLE_AIOS_CLIENT
2490:Generated_Source\PSoC4/BLE_eventHandler.c ****                     case CYBLE_UUID_AUTOMATION_INPUT_OUTPUT_SERVICE:
2491:Generated_Source\PSoC4/BLE_eventHandler.c ****                         CyBle_AioscDiscoverCharacteristicsEventHandler(&discCharInfo);
2492:Generated_Source\PSoC4/BLE_eventHandler.c ****                         break;
2493:Generated_Source\PSoC4/BLE_eventHandler.c ****                 #endif /* CYBLE_AIOS_CLIENT */
2494:Generated_Source\PSoC4/BLE_eventHandler.c ****                 #ifdef CYBLE_ANS_CLIENT
2495:Generated_Source\PSoC4/BLE_eventHandler.c ****                     case CYBLE_UUID_ALERT_NOTIFICATION_SERVICE:
2496:Generated_Source\PSoC4/BLE_eventHandler.c ****                         CyBle_AnscDiscoverCharacteristicsEventHandler(&discCharInfo);
2497:Generated_Source\PSoC4/BLE_eventHandler.c ****                         break;
2498:Generated_Source\PSoC4/BLE_eventHandler.c ****                 #endif /* CYBLE_ANS_CLIENT */
2499:Generated_Source\PSoC4/BLE_eventHandler.c ****                 #ifdef CYBLE_BAS_CLIENT
2500:Generated_Source\PSoC4/BLE_eventHandler.c ****                     case CYBLE_UUID_BAS_SERVICE:
2501:Generated_Source\PSoC4/BLE_eventHandler.c ****                         CyBle_BascDiscoverCharacteristicsEventHandler(cyBle_disCount - CYBLE_SRVI_B
2502:Generated_Source\PSoC4/BLE_eventHandler.c ****                         break;
2503:Generated_Source\PSoC4/BLE_eventHandler.c ****                 #endif /* CYBLE_BAS_CLIENT */
2504:Generated_Source\PSoC4/BLE_eventHandler.c ****                 #ifdef CYBLE_BCS_CLIENT
2505:Generated_Source\PSoC4/BLE_eventHandler.c ****                     case CYBLE_UUID_BODY_COMPOSITION_SERVICE:
2506:Generated_Source\PSoC4/BLE_eventHandler.c ****                         CyBle_BcscDiscoverCharacteristicsEventHandler(&discCharInfo);
2507:Generated_Source\PSoC4/BLE_eventHandler.c ****                         break;
2508:Generated_Source\PSoC4/BLE_eventHandler.c ****                 #endif /* CYBLE_BCS_CLIENT */
2509:Generated_Source\PSoC4/BLE_eventHandler.c ****                 #ifdef CYBLE_BLS_CLIENT
2510:Generated_Source\PSoC4/BLE_eventHandler.c ****                     case CYBLE_UUID_BLOOD_PRESSURE_SERVICE:
2511:Generated_Source\PSoC4/BLE_eventHandler.c ****                         CyBle_BlscDiscoverCharacteristicsEventHandler(&discCharInfo);
2512:Generated_Source\PSoC4/BLE_eventHandler.c ****                         break;
2513:Generated_Source\PSoC4/BLE_eventHandler.c ****                 #endif /* CYBLE_BLS_CLIENT */
2514:Generated_Source\PSoC4/BLE_eventHandler.c ****                 #ifdef CYBLE_BMS_CLIENT
2515:Generated_Source\PSoC4/BLE_eventHandler.c ****                     case CYBLE_UUID_BOND_MANAGEMENT_SERVICE:
2516:Generated_Source\PSoC4/BLE_eventHandler.c ****                         CyBle_BmscDiscoverCharacteristicsEventHandler(&discCharInfo);
2517:Generated_Source\PSoC4/BLE_eventHandler.c ****                         break;
2518:Generated_Source\PSoC4/BLE_eventHandler.c ****                 #endif /* CYBLE_BMS_CLIENT */
2519:Generated_Source\PSoC4/BLE_eventHandler.c ****                 #ifdef CYBLE_CGMS_CLIENT
2520:Generated_Source\PSoC4/BLE_eventHandler.c ****                     case CYBLE_UUID_CGM_SERVICE:
2521:Generated_Source\PSoC4/BLE_eventHandler.c ****                         CyBle_CgmscDiscoverCharacteristicsEventHandler(&discCharInfo);
2522:Generated_Source\PSoC4/BLE_eventHandler.c ****                         break;
2523:Generated_Source\PSoC4/BLE_eventHandler.c ****                 #endif /* CYBLE_CGMS_CLIENT */
2524:Generated_Source\PSoC4/BLE_eventHandler.c ****                 #ifdef CYBLE_CPS_CLIENT
2525:Generated_Source\PSoC4/BLE_eventHandler.c ****                     case CYBLE_UUID_CPS_SERVICE:
2526:Generated_Source\PSoC4/BLE_eventHandler.c ****                         CyBle_CpscDiscoverCharacteristicsEventHandler(&discCharInfo);
2527:Generated_Source\PSoC4/BLE_eventHandler.c ****                         break;
2528:Generated_Source\PSoC4/BLE_eventHandler.c ****                 #endif /* CYBLE_CPS_CLIENT */
2529:Generated_Source\PSoC4/BLE_eventHandler.c ****                 #ifdef CYBLE_CSCS_CLIENT
2530:Generated_Source\PSoC4/BLE_eventHandler.c ****                     case CYBLE_UUID_CYCLING_SPEED_AND_CADENCE_SERVICE:
2531:Generated_Source\PSoC4/BLE_eventHandler.c ****                         CyBle_CscscDiscoverCharacteristicsEventHandler(&discCharInfo);
2532:Generated_Source\PSoC4/BLE_eventHandler.c ****                         break;
ARM GAS  C:\Users\run1009\AppData\Local\Temp\ccSZtXoF.s 			page 97


2533:Generated_Source\PSoC4/BLE_eventHandler.c ****                 #endif /* CYBLE_CSCS_CLIENT */
2534:Generated_Source\PSoC4/BLE_eventHandler.c ****                 #ifdef CYBLE_CTS_CLIENT
2535:Generated_Source\PSoC4/BLE_eventHandler.c ****                     case CYBLE_UUID_CURRENT_TIME_SERVICE:
2536:Generated_Source\PSoC4/BLE_eventHandler.c ****                         CyBle_CtscDiscoverCharacteristicsEventHandler(&discCharInfo);
2537:Generated_Source\PSoC4/BLE_eventHandler.c ****                         break;
2538:Generated_Source\PSoC4/BLE_eventHandler.c ****                 #endif /* CYBLE_CTS_CLIENT */
2539:Generated_Source\PSoC4/BLE_eventHandler.c ****                 
2540:Generated_Source\PSoC4/BLE_eventHandler.c ****                 #ifdef CYBLE_DIS_CLIENT
2541:Generated_Source\PSoC4/BLE_eventHandler.c ****                     case CYBLE_UUID_DEVICE_INFO_SERVICE:
2542:Generated_Source\PSoC4/BLE_eventHandler.c ****                         CyBle_DiscDiscoverCharacteristicsEventHandler(&discCharInfo);
2543:Generated_Source\PSoC4/BLE_eventHandler.c ****                         break;
2544:Generated_Source\PSoC4/BLE_eventHandler.c ****                 #endif /* CYBLE_DIS_CLIENT */
2545:Generated_Source\PSoC4/BLE_eventHandler.c ****                 #ifdef CYBLE_ESS_CLIENT
2546:Generated_Source\PSoC4/BLE_eventHandler.c ****                     case CYBLE_UUID_ENVIRONMENTAL_SENSING_SERVICE:
2547:Generated_Source\PSoC4/BLE_eventHandler.c ****                         CyBle_EsscDiscoverCharacteristicsEventHandler(&discCharInfo);
2548:Generated_Source\PSoC4/BLE_eventHandler.c ****                         break;
2549:Generated_Source\PSoC4/BLE_eventHandler.c ****                 #endif /* CYBLE_ESS_CLIENT */
2550:Generated_Source\PSoC4/BLE_eventHandler.c ****                 #ifdef CYBLE_GLS_CLIENT
2551:Generated_Source\PSoC4/BLE_eventHandler.c ****                     case CYBLE_UUID_GLUCOSE_SERVICE:
2552:Generated_Source\PSoC4/BLE_eventHandler.c ****                         CyBle_GlscDiscoverCharacteristicsEventHandler(&discCharInfo);
2553:Generated_Source\PSoC4/BLE_eventHandler.c ****                         break;
2554:Generated_Source\PSoC4/BLE_eventHandler.c ****                 #endif /* CYBLE_GLS_CLIENT */
2555:Generated_Source\PSoC4/BLE_eventHandler.c ****                 
2556:Generated_Source\PSoC4/BLE_eventHandler.c ****                 #ifdef CYBLE_HIDS_CLIENT
2557:Generated_Source\PSoC4/BLE_eventHandler.c ****                     case CYBLE_UUID_HIDS_SERVICE:
2558:Generated_Source\PSoC4/BLE_eventHandler.c ****                         CyBle_HidscDiscoverCharacteristicsEventHandler(cyBle_disCount - CYBLE_SRVI_
2559:Generated_Source\PSoC4/BLE_eventHandler.c ****                         break;
2560:Generated_Source\PSoC4/BLE_eventHandler.c ****                 #endif /* CYBLE_HIDS_CLIENT */
2561:Generated_Source\PSoC4/BLE_eventHandler.c ****                 #ifdef CYBLE_HPS_CLIENT
2562:Generated_Source\PSoC4/BLE_eventHandler.c ****                     case CYBLE_UUID_HTTP_PROXY_SERVICE:
2563:Generated_Source\PSoC4/BLE_eventHandler.c ****                         CyBle_HpscDiscoverCharacteristicsEventHandler(&discCharInfo);
2564:Generated_Source\PSoC4/BLE_eventHandler.c ****                         break;
2565:Generated_Source\PSoC4/BLE_eventHandler.c ****                 #endif /* CYBLE_HPS_CLIENT */
2566:Generated_Source\PSoC4/BLE_eventHandler.c ****                 #ifdef CYBLE_HRS_CLIENT
2567:Generated_Source\PSoC4/BLE_eventHandler.c ****                     case CYBLE_UUID_HEART_RATE_SERVICE:
2568:Generated_Source\PSoC4/BLE_eventHandler.c ****                         CyBle_HrscDiscoverCharacteristicsEventHandler(&discCharInfo);
2569:Generated_Source\PSoC4/BLE_eventHandler.c ****                         break;
2570:Generated_Source\PSoC4/BLE_eventHandler.c ****                 #endif /* CYBLE_HRS_CLIENT */
2571:Generated_Source\PSoC4/BLE_eventHandler.c ****                 #ifdef CYBLE_HTS_CLIENT
2572:Generated_Source\PSoC4/BLE_eventHandler.c ****                     case CYBLE_UUID_HEALTH_THERMOMETER_SERVICE:
2573:Generated_Source\PSoC4/BLE_eventHandler.c ****                         CyBle_HtscDiscoverCharacteristicsEventHandler(&discCharInfo);
2574:Generated_Source\PSoC4/BLE_eventHandler.c ****                         break;
2575:Generated_Source\PSoC4/BLE_eventHandler.c ****                 #endif /* CYBLE_HRS_CLIENT */
2576:Generated_Source\PSoC4/BLE_eventHandler.c ****                 #ifdef CYBLE_IAS_CLIENT
2577:Generated_Source\PSoC4/BLE_eventHandler.c ****                     case CYBLE_UUID_IMMEDIATE_ALERT_SERVICE:
2578:Generated_Source\PSoC4/BLE_eventHandler.c ****                         CyBle_IascDiscoverCharacteristicsEventHandler(&discCharInfo);
2579:Generated_Source\PSoC4/BLE_eventHandler.c ****                         break;
2580:Generated_Source\PSoC4/BLE_eventHandler.c ****                 #endif /* CYBLE_IAS_CLIENT */
2581:Generated_Source\PSoC4/BLE_eventHandler.c ****                 #ifdef CYBLE_IPS_CLIENT
2582:Generated_Source\PSoC4/BLE_eventHandler.c ****                     case CYBLE_UUID_IPS_SERVICE:
2583:Generated_Source\PSoC4/BLE_eventHandler.c ****                         CyBle_IpscDiscoverCharacteristicsEventHandler(&discCharInfo);
2584:Generated_Source\PSoC4/BLE_eventHandler.c ****                         break;
2585:Generated_Source\PSoC4/BLE_eventHandler.c ****                 #endif /* CYBLE_IPS_CLIENT */
2586:Generated_Source\PSoC4/BLE_eventHandler.c ****                 #ifdef CYBLE_LLS_CLIENT
2587:Generated_Source\PSoC4/BLE_eventHandler.c ****                     case CYBLE_UUID_LINK_LOSS_SERVICE:
2588:Generated_Source\PSoC4/BLE_eventHandler.c ****                         CyBle_LlscDiscoverCharacteristicsEventHandler(&discCharInfo);
2589:Generated_Source\PSoC4/BLE_eventHandler.c ****                         break;
ARM GAS  C:\Users\run1009\AppData\Local\Temp\ccSZtXoF.s 			page 98


2590:Generated_Source\PSoC4/BLE_eventHandler.c ****                 #endif /* CYBLE_LLS_CLIENT */
2591:Generated_Source\PSoC4/BLE_eventHandler.c ****                 #ifdef CYBLE_LNS_CLIENT
2592:Generated_Source\PSoC4/BLE_eventHandler.c ****                     case CYBLE_UUID_LOCATION_AND_NAVIGATION_SERVICE:
2593:Generated_Source\PSoC4/BLE_eventHandler.c ****                         CyBle_LnscDiscoverCharacteristicsEventHandler(&discCharInfo);
2594:Generated_Source\PSoC4/BLE_eventHandler.c ****                         break;
2595:Generated_Source\PSoC4/BLE_eventHandler.c ****                 #endif /* CYBLE_LNS_CLIENT */
2596:Generated_Source\PSoC4/BLE_eventHandler.c ****                 #ifdef CYBLE_PASS_CLIENT
2597:Generated_Source\PSoC4/BLE_eventHandler.c ****                     case CYBLE_UUID_PHONE_ALERT_STATUS_SERVICE:
2598:Generated_Source\PSoC4/BLE_eventHandler.c ****                         CyBle_PasscDiscoverCharacteristicsEventHandler(&discCharInfo);
2599:Generated_Source\PSoC4/BLE_eventHandler.c ****                         break;
2600:Generated_Source\PSoC4/BLE_eventHandler.c ****                 #endif /* CYBLE_PASS_CLIENT */
2601:Generated_Source\PSoC4/BLE_eventHandler.c ****                 #ifdef CYBLE_PLXS_CLIENT
2602:Generated_Source\PSoC4/BLE_eventHandler.c ****                     case CYBLE_UUID_PLX_SERVICE:
2603:Generated_Source\PSoC4/BLE_eventHandler.c ****                         CyBle_PlxscDiscoverCharacteristicsEventHandler(&discCharInfo);
2604:Generated_Source\PSoC4/BLE_eventHandler.c ****                         break;
2605:Generated_Source\PSoC4/BLE_eventHandler.c ****                 #endif /* CYBLE_PLXS_CLIENT */
2606:Generated_Source\PSoC4/BLE_eventHandler.c ****                 #ifdef CYBLE_NDCS_CLIENT
2607:Generated_Source\PSoC4/BLE_eventHandler.c ****                     case CYBLE_UUID_NEXT_DST_CHANGE_SERVICE:
2608:Generated_Source\PSoC4/BLE_eventHandler.c ****                         CyBle_NdcscDiscoverCharacteristicsEventHandler(&discCharInfo);
2609:Generated_Source\PSoC4/BLE_eventHandler.c ****                         break;
2610:Generated_Source\PSoC4/BLE_eventHandler.c ****                 #endif /* CYBLE_NDCS_CLIENT */
2611:Generated_Source\PSoC4/BLE_eventHandler.c ****                 #ifdef CYBLE_RSCS_CLIENT
2612:Generated_Source\PSoC4/BLE_eventHandler.c ****                     case CYBLE_UUID_RUNNING_SPEED_AND_CADENCE_SERVICE:
2613:Generated_Source\PSoC4/BLE_eventHandler.c ****                         CyBle_RscscDiscoverCharacteristicsEventHandler(&discCharInfo);
2614:Generated_Source\PSoC4/BLE_eventHandler.c ****                         break;
2615:Generated_Source\PSoC4/BLE_eventHandler.c ****                 #endif /* CYBLE_RSCS_CLIENT */
2616:Generated_Source\PSoC4/BLE_eventHandler.c ****                 #ifdef CYBLE_RTUS_CLIENT
2617:Generated_Source\PSoC4/BLE_eventHandler.c ****                     case CYBLE_UUID_REF_TIME_UPDATE_SERVICE:
2618:Generated_Source\PSoC4/BLE_eventHandler.c ****                         CyBle_RtuscDiscoverCharacteristicsEventHandler(&discCharInfo);
2619:Generated_Source\PSoC4/BLE_eventHandler.c ****                         break;
2620:Generated_Source\PSoC4/BLE_eventHandler.c ****                 #endif /* CYBLE_RTUS_CLIENT */
2621:Generated_Source\PSoC4/BLE_eventHandler.c ****                 #ifdef CYBLE_SCPS_CLIENT
2622:Generated_Source\PSoC4/BLE_eventHandler.c ****                     case CYBLE_UUID_SCAN_PARAM_SERVICE:
2623:Generated_Source\PSoC4/BLE_eventHandler.c ****                         CyBle_ScpscDiscoverCharacteristicsEventHandler(&discCharInfo);
2624:Generated_Source\PSoC4/BLE_eventHandler.c ****                         break;
2625:Generated_Source\PSoC4/BLE_eventHandler.c ****                 #endif /* CYBLE_SCPS_CLIENT */
2626:Generated_Source\PSoC4/BLE_eventHandler.c ****                 #ifdef CYBLE_TPS_CLIENT
2627:Generated_Source\PSoC4/BLE_eventHandler.c ****                     case CYBLE_UUID_TX_POWER_SERVICE:
2628:Generated_Source\PSoC4/BLE_eventHandler.c ****                         CyBle_TpscDiscoverCharacteristicsEventHandler(&discCharInfo);
2629:Generated_Source\PSoC4/BLE_eventHandler.c ****                         break;
2630:Generated_Source\PSoC4/BLE_eventHandler.c ****                 #endif /* CYBLE_TPS_CLIENT */
2631:Generated_Source\PSoC4/BLE_eventHandler.c ****                 #ifdef CYBLE_UDS_CLIENT
2632:Generated_Source\PSoC4/BLE_eventHandler.c ****                     case CYBLE_UUID_USER_DATA_SERVICE:
2633:Generated_Source\PSoC4/BLE_eventHandler.c ****                         CyBle_UdscDiscoverCharacteristicsEventHandler(&discCharInfo);
2634:Generated_Source\PSoC4/BLE_eventHandler.c ****                         break;
2635:Generated_Source\PSoC4/BLE_eventHandler.c ****                 #endif /* CYBLE_UDS_CLIENT */
2636:Generated_Source\PSoC4/BLE_eventHandler.c ****                 #ifdef CYBLE_WSS_CLIENT
2637:Generated_Source\PSoC4/BLE_eventHandler.c ****                     case CYBLE_UUID_WEIGHT_SCALE_SERVICE:
2638:Generated_Source\PSoC4/BLE_eventHandler.c ****                         CyBle_WsscDiscoverCharacteristicsEventHandler(&discCharInfo);
2639:Generated_Source\PSoC4/BLE_eventHandler.c ****                         break;
2640:Generated_Source\PSoC4/BLE_eventHandler.c ****                 #endif /* CYBLE_WSS_CLIENT */
2641:Generated_Source\PSoC4/BLE_eventHandler.c ****                     default:
2642:Generated_Source\PSoC4/BLE_eventHandler.c ****                 #ifdef CYBLE_CUSTOM_CLIENT
2643:Generated_Source\PSoC4/BLE_eventHandler.c ****                     if((cyBle_disCount >= ((uint8)CYBLE_SRVI_CUSTOMS)) &&
 2851              		.loc 1 2643 0
 2852 0160 804B     		ldr	r3, .L215+8
 2853 0162 1B78     		ldrb	r3, [r3]
ARM GAS  C:\Users\run1009\AppData\Local\Temp\ccSZtXoF.s 			page 99


 2854 0164 012B     		cmp	r3, #1
 2855 0166 14D9     		bls	.L213
2644:Generated_Source\PSoC4/BLE_eventHandler.c ****                         (cyBle_disCount <= ((uint8)CYBLE_SRVI_CUSTOMS_END)))
 2856              		.loc 1 2644 0 discriminator 1
 2857 0168 7E4B     		ldr	r3, .L215+8
 2858 016a 1B78     		ldrb	r3, [r3]
2643:Generated_Source\PSoC4/BLE_eventHandler.c ****                         (cyBle_disCount <= ((uint8)CYBLE_SRVI_CUSTOMS_END)))
 2859              		.loc 1 2643 0 discriminator 1
 2860 016c 032B     		cmp	r3, #3
 2861 016e 10D8     		bhi	.L213
2645:Generated_Source\PSoC4/BLE_eventHandler.c ****                     {
2646:Generated_Source\PSoC4/BLE_eventHandler.c ****                         CyBle_CustomcDiscoverCharacteristicsEventHandler(cyBle_disCount - CYBLE_SRV
 2862              		.loc 1 2646 0
 2863 0170 7C4B     		ldr	r3, .L215+8
 2864 0172 1B78     		ldrb	r3, [r3]
 2865 0174 9BB2     		uxth	r3, r3
 2866 0176 023B     		subs	r3, r3, #2
 2867 0178 9BB2     		uxth	r3, r3
 2868 017a 2422     		movs	r2, #36
 2869 017c BA18     		adds	r2, r7, r2
 2870 017e 1100     		movs	r1, r2
 2871 0180 1800     		movs	r0, r3
 2872 0182 FFF7FEFF 		bl	CyBle_CustomcDiscoverCharacteristicsEventHandler
2647:Generated_Source\PSoC4/BLE_eventHandler.c ****                     }
2648:Generated_Source\PSoC4/BLE_eventHandler.c ****                 #endif /* CYBLE_CUSTOM_CLIENT */
2649:Generated_Source\PSoC4/BLE_eventHandler.c ****                         break;
 2873              		.loc 1 2649 0
 2874 0186 C046     		nop
 2875 0188 03E0     		b	.L213
 2876              	.L211:
2453:Generated_Source\PSoC4/BLE_eventHandler.c ****                     
 2877              		.loc 1 2453 0
 2878 018a C046     		nop
 2879 018c 02E0     		b	.L189
 2880              	.L212:
2469:Generated_Source\PSoC4/BLE_eventHandler.c ****                     }
 2881              		.loc 1 2469 0
 2882 018e C046     		nop
 2883 0190 00E0     		b	.L189
 2884              	.L213:
 2885              		.loc 1 2649 0
 2886 0192 C046     		nop
 2887              	.L189:
2650:Generated_Source\PSoC4/BLE_eventHandler.c ****                     }
2651:Generated_Source\PSoC4/BLE_eventHandler.c ****                 }
2652:Generated_Source\PSoC4/BLE_eventHandler.c ****                 else
2653:Generated_Source\PSoC4/BLE_eventHandler.c ****                 {
2654:Generated_Source\PSoC4/BLE_eventHandler.c ****                     /* Unsupported data length value */
2655:Generated_Source\PSoC4/BLE_eventHandler.c ****                 }
2656:Generated_Source\PSoC4/BLE_eventHandler.c **** 
2657:Generated_Source\PSoC4/BLE_eventHandler.c ****                 /* The sub-procedure is complete when an Error Response is received and the
2658:Generated_Source\PSoC4/BLE_eventHandler.c ****                    Error Code is set to an Attribute Not Found or the Read By Type Response has an
2659:Generated_Source\PSoC4/BLE_eventHandler.c ****                    Attribute Handle that is equal to the Ending Handle of the request - in this cas
2660:Generated_Source\PSoC4/BLE_eventHandler.c ****                    CYBLE_EVT_GATTC_LONG_PROCEDURE_END event is generated by stack. */
2661:Generated_Source\PSoC4/BLE_eventHandler.c **** 
2662:Generated_Source\PSoC4/BLE_eventHandler.c ****                 cyBle_eventHandlerFlag &= (uint8)~CYBLE_CALLBACK;
 2888              		.loc 1 2662 0 discriminator 2
ARM GAS  C:\Users\run1009\AppData\Local\Temp\ccSZtXoF.s 			page 100


 2889 0194 714B     		ldr	r3, .L215
 2890 0196 1B78     		ldrb	r3, [r3]
 2891 0198 DBB2     		uxtb	r3, r3
 2892 019a 0122     		movs	r2, #1
 2893 019c 9343     		bics	r3, r2
 2894 019e DAB2     		uxtb	r2, r3
 2895 01a0 6E4B     		ldr	r3, .L215
 2896 01a2 1A70     		strb	r2, [r3]
2432:Generated_Source\PSoC4/BLE_eventHandler.c ****             {
 2897              		.loc 1 2432 0 discriminator 2
 2898 01a4 4623     		movs	r3, #70
 2899 01a6 FB18     		adds	r3, r7, r3
 2900 01a8 4622     		movs	r2, #70
 2901 01aa B918     		adds	r1, r7, r2
 2902 01ac 3E22     		movs	r2, #62
 2903 01ae BA18     		adds	r2, r7, r2
 2904 01b0 0988     		ldrh	r1, [r1]
 2905 01b2 1288     		ldrh	r2, [r2]
 2906 01b4 8A18     		adds	r2, r1, r2
 2907 01b6 1A80     		strh	r2, [r3]
 2908              	.L183:
2432:Generated_Source\PSoC4/BLE_eventHandler.c ****             {
 2909              		.loc 1 2432 0 is_stmt 0 discriminator 1
 2910 01b8 4623     		movs	r3, #70
 2911 01ba FA18     		adds	r2, r7, r3
 2912 01bc 3C23     		movs	r3, #60
 2913 01be FB18     		adds	r3, r7, r3
 2914 01c0 1288     		ldrh	r2, [r2]
 2915 01c2 1B88     		ldrh	r3, [r3]
 2916 01c4 9A42     		cmp	r2, r3
 2917 01c6 00D2     		bcs	.LCB2466
 2918 01c8 3DE7     		b	.L195	@long jump
 2919              	.LCB2466:
 2920              	.LBE12:
2663:Generated_Source\PSoC4/BLE_eventHandler.c ****             }
2664:Generated_Source\PSoC4/BLE_eventHandler.c ****         }
2665:Generated_Source\PSoC4/BLE_eventHandler.c ****         else if(CyBle_GetClientState() == CYBLE_CLIENT_STATE_INCL_DISCOVERING)
2666:Generated_Source\PSoC4/BLE_eventHandler.c ****         {
2667:Generated_Source\PSoC4/BLE_eventHandler.c ****             CYBLE_DISC_INCL_INFO_T discInclInfo;
2668:Generated_Source\PSoC4/BLE_eventHandler.c ****             
2669:Generated_Source\PSoC4/BLE_eventHandler.c ****             for(i = 0; i < attrLength; i += dataLength)
2670:Generated_Source\PSoC4/BLE_eventHandler.c ****             {
2671:Generated_Source\PSoC4/BLE_eventHandler.c ****                 discInclInfo.inclDefHandle = CyBle_Get16ByPtr(attrVal);
2672:Generated_Source\PSoC4/BLE_eventHandler.c ****                 attrVal += sizeof(discInclInfo.inclDefHandle);
2673:Generated_Source\PSoC4/BLE_eventHandler.c ****                 discInclInfo.inclHandleRange.startHandle = CyBle_Get16ByPtr(attrVal);
2674:Generated_Source\PSoC4/BLE_eventHandler.c ****                 attrVal += sizeof(discInclInfo.inclHandleRange.startHandle);
2675:Generated_Source\PSoC4/BLE_eventHandler.c ****                 discInclInfo.inclHandleRange.endHandle = CyBle_Get16ByPtr(attrVal);
2676:Generated_Source\PSoC4/BLE_eventHandler.c ****                 attrVal += sizeof(discInclInfo.inclHandleRange.endHandle);
2677:Generated_Source\PSoC4/BLE_eventHandler.c **** 
2678:Generated_Source\PSoC4/BLE_eventHandler.c ****                 if(dataLength == CYBLE_DISC_INCL_INFO_128_LEN)
2679:Generated_Source\PSoC4/BLE_eventHandler.c ****                 {
2680:Generated_Source\PSoC4/BLE_eventHandler.c ****                     discInclInfo.uuidFormat = CYBLE_GATT_128_BIT_UUID_FORMAT;
2681:Generated_Source\PSoC4/BLE_eventHandler.c ****                     /* Only custom service supports 128-bit uuid */
2682:Generated_Source\PSoC4/BLE_eventHandler.c ****                 #ifdef CYBLE_CUSTOM_CLIENT
2683:Generated_Source\PSoC4/BLE_eventHandler.c ****                     /* Stop ongoing GATT operation */
2684:Generated_Source\PSoC4/BLE_eventHandler.c ****                     CyBle_GattcStopCmd();
2685:Generated_Source\PSoC4/BLE_eventHandler.c ****                     /* Get the included service UUID when the included service uses a 128-bit
ARM GAS  C:\Users\run1009\AppData\Local\Temp\ccSZtXoF.s 			page 101


2686:Generated_Source\PSoC4/BLE_eventHandler.c ****                        UUID, the Read Request is used. The Attribute Handle for the Read Request is
2687:Generated_Source\PSoC4/BLE_eventHandler.c ****                        the Attribute Handle of the included service.
2688:Generated_Source\PSoC4/BLE_eventHandler.c ****                     */
2689:Generated_Source\PSoC4/BLE_eventHandler.c ****                     if(CyBle_GattcReadCharacteristicValue(cyBle_connHandle, 
2690:Generated_Source\PSoC4/BLE_eventHandler.c ****                                          discInclInfo.inclHandleRange.startHandle) == CYBLE_ERROR_O
2691:Generated_Source\PSoC4/BLE_eventHandler.c ****                     {
2692:Generated_Source\PSoC4/BLE_eventHandler.c ****                         /* Save handle to support read response from device */
2693:Generated_Source\PSoC4/BLE_eventHandler.c ****                         cyBle_discInclInfo = discInclInfo;
2694:Generated_Source\PSoC4/BLE_eventHandler.c ****                     }
2695:Generated_Source\PSoC4/BLE_eventHandler.c ****                     else
2696:Generated_Source\PSoC4/BLE_eventHandler.c ****                     {
2697:Generated_Source\PSoC4/BLE_eventHandler.c ****                         CyBle_ApplCallback(CYBLE_EVT_GATTC_INCL_DISCOVERY_FAILED, NULL);
2698:Generated_Source\PSoC4/BLE_eventHandler.c ****                         cyBle_eventHandlerFlag &= (uint8)~CYBLE_AUTO_DISCOVERY;
2699:Generated_Source\PSoC4/BLE_eventHandler.c ****                     }
2700:Generated_Source\PSoC4/BLE_eventHandler.c ****                 #endif /* CYBLE_CUSTOM_CLIENT */
2701:Generated_Source\PSoC4/BLE_eventHandler.c ****                 }
2702:Generated_Source\PSoC4/BLE_eventHandler.c ****                 else if(dataLength == CYBLE_DISC_INCL_INFO_LEN)
2703:Generated_Source\PSoC4/BLE_eventHandler.c ****                 {
2704:Generated_Source\PSoC4/BLE_eventHandler.c ****                     discInclInfo.uuidFormat = CYBLE_GATT_16_BIT_UUID_FORMAT;
2705:Generated_Source\PSoC4/BLE_eventHandler.c ****                     discInclInfo.uuid.uuid16 = CyBle_Get16ByPtr(attrVal);
2706:Generated_Source\PSoC4/BLE_eventHandler.c ****                     attrVal += CYBLE_GATT_16_BIT_UUID_SIZE;
2707:Generated_Source\PSoC4/BLE_eventHandler.c ****                     
2708:Generated_Source\PSoC4/BLE_eventHandler.c ****                     /* Store range of included service in list of services for discovery */
2709:Generated_Source\PSoC4/BLE_eventHandler.c ****                     for(j = 0u; j < (uint8) CYBLE_SRVI_COUNT; j++)
2710:Generated_Source\PSoC4/BLE_eventHandler.c ****                     {
2711:Generated_Source\PSoC4/BLE_eventHandler.c ****                         if(cyBle_serverInfo[j].uuid == discInclInfo.uuid.uuid16)
2712:Generated_Source\PSoC4/BLE_eventHandler.c ****                         {
2713:Generated_Source\PSoC4/BLE_eventHandler.c ****                             if(cyBle_serverInfo[j].range.startHandle == CYBLE_GATT_INVALID_ATTR_HAN
2714:Generated_Source\PSoC4/BLE_eventHandler.c ****                             {
2715:Generated_Source\PSoC4/BLE_eventHandler.c ****                                 cyBle_serverInfo[j].range = discInclInfo.inclHandleRange;
2716:Generated_Source\PSoC4/BLE_eventHandler.c ****                                 break;
2717:Generated_Source\PSoC4/BLE_eventHandler.c ****                             }
2718:Generated_Source\PSoC4/BLE_eventHandler.c ****                         }
2719:Generated_Source\PSoC4/BLE_eventHandler.c ****                     }
2720:Generated_Source\PSoC4/BLE_eventHandler.c **** 
2721:Generated_Source\PSoC4/BLE_eventHandler.c ****                     /* Switch by service uuid */
2722:Generated_Source\PSoC4/BLE_eventHandler.c ****                     switch (cyBle_serverInfo[cyBle_disCount].uuid)
2723:Generated_Source\PSoC4/BLE_eventHandler.c ****                     {
2724:Generated_Source\PSoC4/BLE_eventHandler.c ****                         case CYBLE_UUID_HIDS_SERVICE:
2725:Generated_Source\PSoC4/BLE_eventHandler.c ****                         #ifdef CYBLE_HIDS_CLIENT    
2726:Generated_Source\PSoC4/BLE_eventHandler.c ****                             CyBle_HidscInclDiscoveryEventHandler(cyBle_disCount - CYBLE_SRVI_HIDS, 
2727:Generated_Source\PSoC4/BLE_eventHandler.c ****                         #endif /* CYBLE_HIDS_CLIENT */
2728:Generated_Source\PSoC4/BLE_eventHandler.c ****                             break;
2729:Generated_Source\PSoC4/BLE_eventHandler.c ****                     /* other services */
2730:Generated_Source\PSoC4/BLE_eventHandler.c **** 
2731:Generated_Source\PSoC4/BLE_eventHandler.c ****                     default:
2732:Generated_Source\PSoC4/BLE_eventHandler.c ****                         break;
2733:Generated_Source\PSoC4/BLE_eventHandler.c ****                     }
2734:Generated_Source\PSoC4/BLE_eventHandler.c ****                 }
2735:Generated_Source\PSoC4/BLE_eventHandler.c ****                 else
2736:Generated_Source\PSoC4/BLE_eventHandler.c ****                 {
2737:Generated_Source\PSoC4/BLE_eventHandler.c ****                     /* Unsupported data length value */
2738:Generated_Source\PSoC4/BLE_eventHandler.c ****                 }
2739:Generated_Source\PSoC4/BLE_eventHandler.c ****                 /* The sub-procedure is complete when an Error Response is received and the
2740:Generated_Source\PSoC4/BLE_eventHandler.c ****                    Error Code is set to an Attribute Not Found or the Read By Type Response has an
2741:Generated_Source\PSoC4/BLE_eventHandler.c ****                    Attribute Handle that is equal to the Ending Handle of the request - in this cas
2742:Generated_Source\PSoC4/BLE_eventHandler.c ****                    CYBLE_EVT_GATTC_LONG_PROCEDURE_END event is generated by stack.
ARM GAS  C:\Users\run1009\AppData\Local\Temp\ccSZtXoF.s 			page 102


2743:Generated_Source\PSoC4/BLE_eventHandler.c ****                    Not complete when Read Request is sent to read 128-bit UUID.
2744:Generated_Source\PSoC4/BLE_eventHandler.c ****                 */
2745:Generated_Source\PSoC4/BLE_eventHandler.c ****                 cyBle_eventHandlerFlag &= (uint8)~CYBLE_CALLBACK;
2746:Generated_Source\PSoC4/BLE_eventHandler.c ****             }
2747:Generated_Source\PSoC4/BLE_eventHandler.c ****         }
2748:Generated_Source\PSoC4/BLE_eventHandler.c ****         else
2749:Generated_Source\PSoC4/BLE_eventHandler.c ****         {
2750:Generated_Source\PSoC4/BLE_eventHandler.c ****             /* Unhandled state value */
2751:Generated_Source\PSoC4/BLE_eventHandler.c ****         }
2752:Generated_Source\PSoC4/BLE_eventHandler.c ****     }
2753:Generated_Source\PSoC4/BLE_eventHandler.c **** }
 2921              		.loc 1 2753 0 is_stmt 1
 2922 01ca F7E0     		b	.L210
 2923              	.L182:
2665:Generated_Source\PSoC4/BLE_eventHandler.c ****         {
 2924              		.loc 1 2665 0
 2925 01cc 644B     		ldr	r3, .L215+4
 2926 01ce 1B78     		ldrb	r3, [r3]
 2927 01d0 022B     		cmp	r3, #2
 2928 01d2 00D0     		beq	.LCB2475
 2929 01d4 F2E0     		b	.L210	@long jump
 2930              	.LCB2475:
 2931              	.LBB13:
2669:Generated_Source\PSoC4/BLE_eventHandler.c ****             {
 2932              		.loc 1 2669 0
 2933 01d6 4623     		movs	r3, #70
 2934 01d8 FB18     		adds	r3, r7, r3
 2935 01da 0022     		movs	r2, #0
 2936 01dc 1A80     		strh	r2, [r3]
 2937 01de E4E0     		b	.L196
 2938              	.L208:
2671:Generated_Source\PSoC4/BLE_eventHandler.c ****                 attrVal += sizeof(discInclInfo.inclDefHandle);
 2939              		.loc 1 2671 0
 2940 01e0 3B6C     		ldr	r3, [r7, #64]
 2941 01e2 1800     		movs	r0, r3
 2942 01e4 FFF7FEFF 		bl	CyBle_Get16ByPtr
 2943 01e8 0300     		movs	r3, r0
 2944 01ea 1A00     		movs	r2, r3
 2945 01ec 0C23     		movs	r3, #12
 2946 01ee FB18     		adds	r3, r7, r3
 2947 01f0 1A80     		strh	r2, [r3]
2672:Generated_Source\PSoC4/BLE_eventHandler.c ****                 discInclInfo.inclHandleRange.startHandle = CyBle_Get16ByPtr(attrVal);
 2948              		.loc 1 2672 0
 2949 01f2 3B6C     		ldr	r3, [r7, #64]
 2950 01f4 0233     		adds	r3, r3, #2
 2951 01f6 3B64     		str	r3, [r7, #64]
2673:Generated_Source\PSoC4/BLE_eventHandler.c ****                 attrVal += sizeof(discInclInfo.inclHandleRange.startHandle);
 2952              		.loc 1 2673 0
 2953 01f8 3B6C     		ldr	r3, [r7, #64]
 2954 01fa 1800     		movs	r0, r3
 2955 01fc FFF7FEFF 		bl	CyBle_Get16ByPtr
 2956 0200 0300     		movs	r3, r0
 2957 0202 1A00     		movs	r2, r3
 2958 0204 0C23     		movs	r3, #12
 2959 0206 FB18     		adds	r3, r7, r3
 2960 0208 5A80     		strh	r2, [r3, #2]
2674:Generated_Source\PSoC4/BLE_eventHandler.c ****                 discInclInfo.inclHandleRange.endHandle = CyBle_Get16ByPtr(attrVal);
ARM GAS  C:\Users\run1009\AppData\Local\Temp\ccSZtXoF.s 			page 103


 2961              		.loc 1 2674 0
 2962 020a 3B6C     		ldr	r3, [r7, #64]
 2963 020c 0233     		adds	r3, r3, #2
 2964 020e 3B64     		str	r3, [r7, #64]
2675:Generated_Source\PSoC4/BLE_eventHandler.c ****                 attrVal += sizeof(discInclInfo.inclHandleRange.endHandle);
 2965              		.loc 1 2675 0
 2966 0210 3B6C     		ldr	r3, [r7, #64]
 2967 0212 1800     		movs	r0, r3
 2968 0214 FFF7FEFF 		bl	CyBle_Get16ByPtr
 2969 0218 0300     		movs	r3, r0
 2970 021a 1A00     		movs	r2, r3
 2971 021c 0C23     		movs	r3, #12
 2972 021e FB18     		adds	r3, r7, r3
 2973 0220 9A80     		strh	r2, [r3, #4]
2676:Generated_Source\PSoC4/BLE_eventHandler.c **** 
 2974              		.loc 1 2676 0
 2975 0222 3B6C     		ldr	r3, [r7, #64]
 2976 0224 0233     		adds	r3, r3, #2
 2977 0226 3B64     		str	r3, [r7, #64]
2678:Generated_Source\PSoC4/BLE_eventHandler.c ****                 {
 2978              		.loc 1 2678 0
 2979 0228 3E23     		movs	r3, #62
 2980 022a FB18     		adds	r3, r7, r3
 2981 022c 1B88     		ldrh	r3, [r3]
 2982 022e 062B     		cmp	r3, #6
 2983 0230 30D1     		bne	.L197
2680:Generated_Source\PSoC4/BLE_eventHandler.c ****                     /* Only custom service supports 128-bit uuid */
 2984              		.loc 1 2680 0
 2985 0232 0C23     		movs	r3, #12
 2986 0234 FB18     		adds	r3, r7, r3
 2987 0236 0222     		movs	r2, #2
 2988 0238 9A75     		strb	r2, [r3, #22]
2684:Generated_Source\PSoC4/BLE_eventHandler.c ****                     /* Get the included service UUID when the included service uses a 128-bit
 2989              		.loc 1 2684 0
 2990 023a FFF7FEFF 		bl	CyBle_GattcStopCmd
2689:Generated_Source\PSoC4/BLE_eventHandler.c ****                                          discInclInfo.inclHandleRange.startHandle) == CYBLE_ERROR_O
 2991              		.loc 1 2689 0
 2992 023e 0C23     		movs	r3, #12
 2993 0240 FB18     		adds	r3, r7, r3
 2994 0242 5988     		ldrh	r1, [r3, #2]
 2995 0244 4B4B     		ldr	r3, .L215+24
 2996 0246 1A78     		ldrb	r2, [r3]
 2997 0248 5B78     		ldrb	r3, [r3, #1]
 2998 024a 1B02     		lsls	r3, r3, #8
 2999 024c 1A43     		orrs	r2, r3
 3000 024e 0023     		movs	r3, #0
 3001 0250 1204     		lsls	r2, r2, #16
 3002 0252 120C     		lsrs	r2, r2, #16
 3003 0254 1B0C     		lsrs	r3, r3, #16
 3004 0256 1B04     		lsls	r3, r3, #16
 3005 0258 1343     		orrs	r3, r2
 3006 025a 1800     		movs	r0, r3
 3007 025c FFF7FEFF 		bl	CyBle_GattcReadCharacteristicValue
 3008 0260 031E     		subs	r3, r0, #0
 3009 0262 07D1     		bne	.L198
2693:Generated_Source\PSoC4/BLE_eventHandler.c ****                     }
 3010              		.loc 1 2693 0
ARM GAS  C:\Users\run1009\AppData\Local\Temp\ccSZtXoF.s 			page 104


 3011 0264 444B     		ldr	r3, .L215+28
 3012 0266 0C22     		movs	r2, #12
 3013 0268 BA18     		adds	r2, r7, r2
 3014 026a 13CA     		ldmia	r2!, {r0, r1, r4}
 3015 026c 13C3     		stmia	r3!, {r0, r1, r4}
 3016 026e 13CA     		ldmia	r2!, {r0, r1, r4}
 3017 0270 13C3     		stmia	r3!, {r0, r1, r4}
 3018 0272 88E0     		b	.L200
 3019              	.L198:
2697:Generated_Source\PSoC4/BLE_eventHandler.c ****                         cyBle_eventHandlerFlag &= (uint8)~CYBLE_AUTO_DISCOVERY;
 3020              		.loc 1 2697 0
 3021 0274 414B     		ldr	r3, .L215+32
 3022 0276 1B68     		ldr	r3, [r3]
 3023 0278 8422     		movs	r2, #132
 3024 027a 5200     		lsls	r2, r2, #1
 3025 027c 0021     		movs	r1, #0
 3026 027e 1000     		movs	r0, r2
 3027 0280 9847     		blx	r3
2698:Generated_Source\PSoC4/BLE_eventHandler.c ****                     }
 3028              		.loc 1 2698 0
 3029 0282 364B     		ldr	r3, .L215
 3030 0284 1B78     		ldrb	r3, [r3]
 3031 0286 DBB2     		uxtb	r3, r3
 3032 0288 0222     		movs	r2, #2
 3033 028a 9343     		bics	r3, r2
 3034 028c DAB2     		uxtb	r2, r3
 3035 028e 334B     		ldr	r3, .L215
 3036 0290 1A70     		strb	r2, [r3]
 3037 0292 78E0     		b	.L200
 3038              	.L197:
2702:Generated_Source\PSoC4/BLE_eventHandler.c ****                 {
 3039              		.loc 1 2702 0
 3040 0294 3E23     		movs	r3, #62
 3041 0296 FB18     		adds	r3, r7, r3
 3042 0298 1B88     		ldrh	r3, [r3]
 3043 029a 082B     		cmp	r3, #8
 3044 029c 00D0     		beq	.LCB2579
 3045 029e 72E0     		b	.L200	@long jump
 3046              	.LCB2579:
2704:Generated_Source\PSoC4/BLE_eventHandler.c ****                     discInclInfo.uuid.uuid16 = CyBle_Get16ByPtr(attrVal);
 3047              		.loc 1 2704 0
 3048 02a0 0C23     		movs	r3, #12
 3049 02a2 FB18     		adds	r3, r7, r3
 3050 02a4 0122     		movs	r2, #1
 3051 02a6 9A75     		strb	r2, [r3, #22]
2705:Generated_Source\PSoC4/BLE_eventHandler.c ****                     attrVal += CYBLE_GATT_16_BIT_UUID_SIZE;
 3052              		.loc 1 2705 0
 3053 02a8 3B6C     		ldr	r3, [r7, #64]
 3054 02aa 1800     		movs	r0, r3
 3055 02ac FFF7FEFF 		bl	CyBle_Get16ByPtr
 3056 02b0 0300     		movs	r3, r0
 3057 02b2 1A00     		movs	r2, r3
 3058 02b4 0C23     		movs	r3, #12
 3059 02b6 FB18     		adds	r3, r7, r3
 3060 02b8 DA80     		strh	r2, [r3, #6]
2706:Generated_Source\PSoC4/BLE_eventHandler.c ****                     
 3061              		.loc 1 2706 0
ARM GAS  C:\Users\run1009\AppData\Local\Temp\ccSZtXoF.s 			page 105


 3062 02ba 3B6C     		ldr	r3, [r7, #64]
 3063 02bc 0233     		adds	r3, r3, #2
 3064 02be 3B64     		str	r3, [r7, #64]
2709:Generated_Source\PSoC4/BLE_eventHandler.c ****                     {
 3065              		.loc 1 2709 0
 3066 02c0 4423     		movs	r3, #68
 3067 02c2 FB18     		adds	r3, r7, r3
 3068 02c4 0022     		movs	r2, #0
 3069 02c6 1A80     		strh	r2, [r3]
 3070 02c8 33E0     		b	.L201
 3071              	.L204:
2711:Generated_Source\PSoC4/BLE_eventHandler.c ****                         {
 3072              		.loc 1 2711 0
 3073 02ca 4423     		movs	r3, #68
 3074 02cc FB18     		adds	r3, r7, r3
 3075 02ce 1A88     		ldrh	r2, [r3]
 3076 02d0 2549     		ldr	r1, .L215+12
 3077 02d2 1300     		movs	r3, r2
 3078 02d4 5B00     		lsls	r3, r3, #1
 3079 02d6 9B18     		adds	r3, r3, r2
 3080 02d8 5B00     		lsls	r3, r3, #1
 3081 02da CB18     		adds	r3, r1, r3
 3082 02dc 0433     		adds	r3, r3, #4
 3083 02de 1A88     		ldrh	r2, [r3]
 3084 02e0 0C23     		movs	r3, #12
 3085 02e2 FB18     		adds	r3, r7, r3
 3086 02e4 DB88     		ldrh	r3, [r3, #6]
 3087 02e6 9A42     		cmp	r2, r3
 3088 02e8 1CD1     		bne	.L202
2713:Generated_Source\PSoC4/BLE_eventHandler.c ****                             {
 3089              		.loc 1 2713 0
 3090 02ea 4423     		movs	r3, #68
 3091 02ec FB18     		adds	r3, r7, r3
 3092 02ee 1A88     		ldrh	r2, [r3]
 3093 02f0 1D49     		ldr	r1, .L215+12
 3094 02f2 1300     		movs	r3, r2
 3095 02f4 5B00     		lsls	r3, r3, #1
 3096 02f6 9B18     		adds	r3, r3, r2
 3097 02f8 5B00     		lsls	r3, r3, #1
 3098 02fa 5B5A     		ldrh	r3, [r3, r1]
 3099 02fc 002B     		cmp	r3, #0
 3100 02fe 11D1     		bne	.L202
2715:Generated_Source\PSoC4/BLE_eventHandler.c ****                                 break;
 3101              		.loc 1 2715 0
 3102 0300 4423     		movs	r3, #68
 3103 0302 FB18     		adds	r3, r7, r3
 3104 0304 1A88     		ldrh	r2, [r3]
 3105 0306 1849     		ldr	r1, .L215+12
 3106 0308 1300     		movs	r3, r2
 3107 030a 5B00     		lsls	r3, r3, #1
 3108 030c 9B18     		adds	r3, r3, r2
 3109 030e 5B00     		lsls	r3, r3, #1
 3110 0310 0C22     		movs	r2, #12
 3111 0312 BA18     		adds	r2, r7, r2
 3112 0314 0220     		movs	r0, #2
 3113 0316 CB18     		adds	r3, r1, r3
 3114 0318 1118     		adds	r1, r2, r0
ARM GAS  C:\Users\run1009\AppData\Local\Temp\ccSZtXoF.s 			page 106


 3115 031a 0422     		movs	r2, #4
 3116 031c 1800     		movs	r0, r3
 3117 031e FFF7FEFF 		bl	memcpy
2716:Generated_Source\PSoC4/BLE_eventHandler.c ****                             }
 3118              		.loc 1 2716 0
 3119 0322 0BE0     		b	.L203
 3120              	.L202:
2709:Generated_Source\PSoC4/BLE_eventHandler.c ****                     {
 3121              		.loc 1 2709 0 discriminator 2
 3122 0324 4423     		movs	r3, #68
 3123 0326 FB18     		adds	r3, r7, r3
 3124 0328 1A88     		ldrh	r2, [r3]
 3125 032a 4423     		movs	r3, #68
 3126 032c FB18     		adds	r3, r7, r3
 3127 032e 0132     		adds	r2, r2, #1
 3128 0330 1A80     		strh	r2, [r3]
 3129              	.L201:
2709:Generated_Source\PSoC4/BLE_eventHandler.c ****                     {
 3130              		.loc 1 2709 0 is_stmt 0 discriminator 1
 3131 0332 4423     		movs	r3, #68
 3132 0334 FB18     		adds	r3, r7, r3
 3133 0336 1B88     		ldrh	r3, [r3]
 3134 0338 032B     		cmp	r3, #3
 3135 033a C6D9     		bls	.L204
 3136              	.L203:
2722:Generated_Source\PSoC4/BLE_eventHandler.c ****                     {
 3137              		.loc 1 2722 0 is_stmt 1
 3138 033c 094B     		ldr	r3, .L215+8
 3139 033e 1B78     		ldrb	r3, [r3]
 3140 0340 1900     		movs	r1, r3
 3141 0342 094A     		ldr	r2, .L215+12
 3142 0344 0B00     		movs	r3, r1
 3143 0346 5B00     		lsls	r3, r3, #1
 3144 0348 5B18     		adds	r3, r3, r1
 3145 034a 5B00     		lsls	r3, r3, #1
 3146 034c D318     		adds	r3, r2, r3
 3147 034e 0433     		adds	r3, r3, #4
 3148 0350 1B88     		ldrh	r3, [r3]
 3149 0352 1A00     		movs	r2, r3
 3150 0354 0A4B     		ldr	r3, .L215+36
 3151 0356 9A42     		cmp	r2, r3
 3152 0358 14D0     		beq	.L214
2732:Generated_Source\PSoC4/BLE_eventHandler.c ****                     }
 3153              		.loc 1 2732 0
 3154 035a 14E0     		b	.L200
 3155              	.L216:
 3156              		.align	2
 3157              	.L215:
 3158 035c 00000000 		.word	cyBle_eventHandlerFlag
 3159 0360 00000000 		.word	cyBle_clientState
 3160 0364 00000000 		.word	cyBle_disCount
 3161 0368 00000000 		.word	cyBle_serverInfo
 3162 036c FEFF0000 		.word	65534
 3163 0370 01180000 		.word	6145
 3164 0374 00000000 		.word	cyBle_connHandle
 3165 0378 00000000 		.word	cyBle_discInclInfo
 3166 037c 00000000 		.word	CyBle_ApplCallback
ARM GAS  C:\Users\run1009\AppData\Local\Temp\ccSZtXoF.s 			page 107


 3167 0380 12180000 		.word	6162
 3168              	.L214:
2728:Generated_Source\PSoC4/BLE_eventHandler.c ****                     /* other services */
 3169              		.loc 1 2728 0
 3170 0384 C046     		nop
 3171              	.L200:
2745:Generated_Source\PSoC4/BLE_eventHandler.c ****             }
 3172              		.loc 1 2745 0 discriminator 2
 3173 0386 0F4B     		ldr	r3, .L217
 3174 0388 1B78     		ldrb	r3, [r3]
 3175 038a DBB2     		uxtb	r3, r3
 3176 038c 0122     		movs	r2, #1
 3177 038e 9343     		bics	r3, r2
 3178 0390 DAB2     		uxtb	r2, r3
 3179 0392 0C4B     		ldr	r3, .L217
 3180 0394 1A70     		strb	r2, [r3]
2669:Generated_Source\PSoC4/BLE_eventHandler.c ****             {
 3181              		.loc 1 2669 0 discriminator 2
 3182 0396 4623     		movs	r3, #70
 3183 0398 FB18     		adds	r3, r7, r3
 3184 039a 4622     		movs	r2, #70
 3185 039c B918     		adds	r1, r7, r2
 3186 039e 3E22     		movs	r2, #62
 3187 03a0 BA18     		adds	r2, r7, r2
 3188 03a2 0988     		ldrh	r1, [r1]
 3189 03a4 1288     		ldrh	r2, [r2]
 3190 03a6 8A18     		adds	r2, r1, r2
 3191 03a8 1A80     		strh	r2, [r3]
 3192              	.L196:
2669:Generated_Source\PSoC4/BLE_eventHandler.c ****             {
 3193              		.loc 1 2669 0 is_stmt 0 discriminator 1
 3194 03aa 4623     		movs	r3, #70
 3195 03ac FA18     		adds	r2, r7, r3
 3196 03ae 3C23     		movs	r3, #60
 3197 03b0 FB18     		adds	r3, r7, r3
 3198 03b2 1288     		ldrh	r2, [r2]
 3199 03b4 1B88     		ldrh	r3, [r3]
 3200 03b6 9A42     		cmp	r2, r3
 3201 03b8 00D2     		bcs	.LCB2729
 3202 03ba 11E7     		b	.L208	@long jump
 3203              	.LCB2729:
 3204              	.L210:
 3205              	.LBE13:
 3206              		.loc 1 2753 0 is_stmt 1
 3207 03bc C046     		nop
 3208 03be BD46     		mov	sp, r7
 3209 03c0 13B0     		add	sp, sp, #76
 3210              		@ sp needed
 3211 03c2 90BD     		pop	{r4, r7, pc}
 3212              	.L218:
 3213              		.align	2
 3214              	.L217:
 3215 03c4 00000000 		.word	cyBle_eventHandlerFlag
 3216              		.cfi_endproc
 3217              	.LFE19:
 3218              		.size	CyBle_ReadByTypeEventHandler, .-CyBle_ReadByTypeEventHandler
 3219              		.section	.text.CyBle_NextCharDiscovery,"ax",%progbits
ARM GAS  C:\Users\run1009\AppData\Local\Temp\ccSZtXoF.s 			page 108


 3220              		.align	2
 3221              		.global	CyBle_NextCharDiscovery
 3222              		.code	16
 3223              		.thumb_func
 3224              		.type	CyBle_NextCharDiscovery, %function
 3225              	CyBle_NextCharDiscovery:
 3226              	.LFB20:
2754:Generated_Source\PSoC4/BLE_eventHandler.c **** 
2755:Generated_Source\PSoC4/BLE_eventHandler.c **** 
2756:Generated_Source\PSoC4/BLE_eventHandler.c **** /****************************************************************************** 
2757:Generated_Source\PSoC4/BLE_eventHandler.c **** * Function Name: CyBle_NextCharDiscovery
2758:Generated_Source\PSoC4/BLE_eventHandler.c **** ***************************************************************************//**
2759:Generated_Source\PSoC4/BLE_eventHandler.c **** * 
2760:Generated_Source\PSoC4/BLE_eventHandler.c **** *  Looks for a characteristic handle range for the current service (pointed by
2761:Generated_Source\PSoC4/BLE_eventHandler.c **** *   cyBle_disCount). If the current range is invalid (any of start or end
2762:Generated_Source\PSoC4/BLE_eventHandler.c **** *   handles is invalid), then increment the cyBle_disCount and check
2763:Generated_Source\PSoC4/BLE_eventHandler.c **** *   the next service range and does so until a valid range is caught or the end
2764:Generated_Source\PSoC4/BLE_eventHandler.c **** *   of the service set is reached.
2765:Generated_Source\PSoC4/BLE_eventHandler.c **** * 
2766:Generated_Source\PSoC4/BLE_eventHandler.c **** *  \param incrementIndex: Not zero value indicates that characteristic index 
2767:Generated_Source\PSoC4/BLE_eventHandler.c **** *                         should be incremented.
2768:Generated_Source\PSoC4/BLE_eventHandler.c **** * 
2769:Generated_Source\PSoC4/BLE_eventHandler.c **** * \return
2770:Generated_Source\PSoC4/BLE_eventHandler.c **** *  None.
2771:Generated_Source\PSoC4/BLE_eventHandler.c **** * 
2772:Generated_Source\PSoC4/BLE_eventHandler.c **** ******************************************************************************/
2773:Generated_Source\PSoC4/BLE_eventHandler.c **** void CyBle_NextCharDiscovery(uint8 incrementIndex)
2774:Generated_Source\PSoC4/BLE_eventHandler.c **** {
 3227              		.loc 1 2774 0
 3228              		.cfi_startproc
 3229              		@ args = 0, pretend = 0, frame = 8
 3230              		@ frame_needed = 1, uses_anonymous_args = 0
 3231 0000 80B5     		push	{r7, lr}
 3232              		.cfi_def_cfa_offset 8
 3233              		.cfi_offset 7, -8
 3234              		.cfi_offset 14, -4
 3235 0002 82B0     		sub	sp, sp, #8
 3236              		.cfi_def_cfa_offset 16
 3237 0004 00AF     		add	r7, sp, #0
 3238              		.cfi_def_cfa_register 7
 3239 0006 0200     		movs	r2, r0
 3240 0008 FB1D     		adds	r3, r7, #7
 3241 000a 1A70     		strb	r2, [r3]
2775:Generated_Source\PSoC4/BLE_eventHandler.c **** 
2776:Generated_Source\PSoC4/BLE_eventHandler.c ****     if(incrementIndex != CYBLE_DISCOVERY_INIT)
 3242              		.loc 1 2776 0
 3243 000c FB1D     		adds	r3, r7, #7
 3244 000e 1B78     		ldrb	r3, [r3]
 3245 0010 002B     		cmp	r3, #0
 3246 0012 06D0     		beq	.L220
2777:Generated_Source\PSoC4/BLE_eventHandler.c ****     {
2778:Generated_Source\PSoC4/BLE_eventHandler.c ****         cyBle_disCount++;
 3247              		.loc 1 2778 0
 3248 0014 354B     		ldr	r3, .L229
 3249 0016 1B78     		ldrb	r3, [r3]
 3250 0018 0133     		adds	r3, r3, #1
 3251 001a DAB2     		uxtb	r2, r3
ARM GAS  C:\Users\run1009\AppData\Local\Temp\ccSZtXoF.s 			page 109


 3252 001c 334B     		ldr	r3, .L229
 3253 001e 1A70     		strb	r2, [r3]
 3254 0020 09E0     		b	.L222
 3255              	.L220:
2779:Generated_Source\PSoC4/BLE_eventHandler.c ****     }
2780:Generated_Source\PSoC4/BLE_eventHandler.c ****     else
2781:Generated_Source\PSoC4/BLE_eventHandler.c ****     {
2782:Generated_Source\PSoC4/BLE_eventHandler.c ****         cyBle_disCount = 0u;
 3256              		.loc 1 2782 0
 3257 0022 324B     		ldr	r3, .L229
 3258 0024 0022     		movs	r2, #0
 3259 0026 1A70     		strb	r2, [r3]
2783:Generated_Source\PSoC4/BLE_eventHandler.c ****         #ifdef CYBLE_HIDS_CLIENT
2784:Generated_Source\PSoC4/BLE_eventHandler.c ****             disServiceIndex = 0u;
2785:Generated_Source\PSoC4/BLE_eventHandler.c ****         #endif /* CYBLE_HIDS_CLIENT */
2786:Generated_Source\PSoC4/BLE_eventHandler.c ****     }
2787:Generated_Source\PSoC4/BLE_eventHandler.c **** 
2788:Generated_Source\PSoC4/BLE_eventHandler.c ****     /* Skip not existing services and services out of discovery range */
2789:Generated_Source\PSoC4/BLE_eventHandler.c ****     while((cyBle_disCount < (uint8) CYBLE_SRVI_COUNT) &&
 3260              		.loc 1 2789 0
 3261 0028 05E0     		b	.L222
 3262              	.L224:
2790:Generated_Source\PSoC4/BLE_eventHandler.c ****           ((cyBle_serverInfo[cyBle_disCount].range.startHandle < cyBle_gattcDiscoveryRange.startHan
2791:Generated_Source\PSoC4/BLE_eventHandler.c ****            (cyBle_serverInfo[cyBle_disCount].range.startHandle > cyBle_gattcDiscoveryRange.endHandl
2792:Generated_Source\PSoC4/BLE_eventHandler.c ****     {
2793:Generated_Source\PSoC4/BLE_eventHandler.c ****         cyBle_disCount++;
 3263              		.loc 1 2793 0
 3264 002a 304B     		ldr	r3, .L229
 3265 002c 1B78     		ldrb	r3, [r3]
 3266 002e 0133     		adds	r3, r3, #1
 3267 0030 DAB2     		uxtb	r2, r3
 3268 0032 2E4B     		ldr	r3, .L229
 3269 0034 1A70     		strb	r2, [r3]
 3270              	.L222:
2789:Generated_Source\PSoC4/BLE_eventHandler.c ****           ((cyBle_serverInfo[cyBle_disCount].range.startHandle < cyBle_gattcDiscoveryRange.startHan
 3271              		.loc 1 2789 0
 3272 0036 2D4B     		ldr	r3, .L229
 3273 0038 1B78     		ldrb	r3, [r3]
 3274 003a 032B     		cmp	r3, #3
 3275 003c 19D8     		bhi	.L223
2790:Generated_Source\PSoC4/BLE_eventHandler.c ****           ((cyBle_serverInfo[cyBle_disCount].range.startHandle < cyBle_gattcDiscoveryRange.startHan
 3276              		.loc 1 2790 0 discriminator 1
 3277 003e 2B4B     		ldr	r3, .L229
 3278 0040 1B78     		ldrb	r3, [r3]
 3279 0042 1900     		movs	r1, r3
 3280 0044 2A4A     		ldr	r2, .L229+4
 3281 0046 0B00     		movs	r3, r1
 3282 0048 5B00     		lsls	r3, r3, #1
 3283 004a 5B18     		adds	r3, r3, r1
 3284 004c 5B00     		lsls	r3, r3, #1
 3285 004e 9A5A     		ldrh	r2, [r3, r2]
 3286 0050 284B     		ldr	r3, .L229+8
 3287 0052 1B88     		ldrh	r3, [r3]
2789:Generated_Source\PSoC4/BLE_eventHandler.c ****           ((cyBle_serverInfo[cyBle_disCount].range.startHandle < cyBle_gattcDiscoveryRange.startHan
 3288              		.loc 1 2789 0 discriminator 1
 3289 0054 9A42     		cmp	r2, r3
 3290 0056 E8D3     		bcc	.L224
ARM GAS  C:\Users\run1009\AppData\Local\Temp\ccSZtXoF.s 			page 110


2791:Generated_Source\PSoC4/BLE_eventHandler.c ****     {
 3291              		.loc 1 2791 0
 3292 0058 244B     		ldr	r3, .L229
 3293 005a 1B78     		ldrb	r3, [r3]
 3294 005c 1900     		movs	r1, r3
 3295 005e 244A     		ldr	r2, .L229+4
 3296 0060 0B00     		movs	r3, r1
 3297 0062 5B00     		lsls	r3, r3, #1
 3298 0064 5B18     		adds	r3, r3, r1
 3299 0066 5B00     		lsls	r3, r3, #1
 3300 0068 9A5A     		ldrh	r2, [r3, r2]
 3301 006a 224B     		ldr	r3, .L229+8
 3302 006c 5B88     		ldrh	r3, [r3, #2]
2790:Generated_Source\PSoC4/BLE_eventHandler.c ****           ((cyBle_serverInfo[cyBle_disCount].range.startHandle < cyBle_gattcDiscoveryRange.startHan
 3303              		.loc 1 2790 0
 3304 006e 9A42     		cmp	r2, r3
 3305 0070 DBD8     		bhi	.L224
 3306              	.L223:
2794:Generated_Source\PSoC4/BLE_eventHandler.c ****     }
2795:Generated_Source\PSoC4/BLE_eventHandler.c **** 
2796:Generated_Source\PSoC4/BLE_eventHandler.c ****     if(cyBle_disCount < (uint8) CYBLE_SRVI_COUNT)
 3307              		.loc 1 2796 0
 3308 0072 1E4B     		ldr	r3, .L229
 3309 0074 1B78     		ldrb	r3, [r3]
 3310 0076 032B     		cmp	r3, #3
 3311 0078 2DD8     		bhi	.L225
2797:Generated_Source\PSoC4/BLE_eventHandler.c ****     {
2798:Generated_Source\PSoC4/BLE_eventHandler.c ****         if(CYBLE_ERROR_OK != CyBle_GattcDiscoverAllCharacteristics(cyBle_connHandle, cyBle_serverIn
 3312              		.loc 1 2798 0
 3313 007a 1C4B     		ldr	r3, .L229
 3314 007c 1B78     		ldrb	r3, [r3]
 3315 007e 1A00     		movs	r2, r3
 3316 0080 1B49     		ldr	r1, .L229+4
 3317 0082 1300     		movs	r3, r2
 3318 0084 5B00     		lsls	r3, r3, #1
 3319 0086 9B18     		adds	r3, r3, r2
 3320 0088 5B00     		lsls	r3, r3, #1
 3321 008a 1B4A     		ldr	r2, .L229+12
 3322 008c 585A     		ldrh	r0, [r3, r1]
 3323 008e CB18     		adds	r3, r1, r3
 3324 0090 5B88     		ldrh	r3, [r3, #2]
 3325 0092 1B04     		lsls	r3, r3, #16
 3326 0094 0343     		orrs	r3, r0
 3327 0096 1900     		movs	r1, r3
 3328 0098 1378     		ldrb	r3, [r2]
 3329 009a 5278     		ldrb	r2, [r2, #1]
 3330 009c 1202     		lsls	r2, r2, #8
 3331 009e 1A43     		orrs	r2, r3
 3332 00a0 0023     		movs	r3, #0
 3333 00a2 1204     		lsls	r2, r2, #16
 3334 00a4 120C     		lsrs	r2, r2, #16
 3335 00a6 1B0C     		lsrs	r3, r3, #16
 3336 00a8 1B04     		lsls	r3, r3, #16
 3337 00aa 1343     		orrs	r3, r2
 3338 00ac 1800     		movs	r0, r3
 3339 00ae FFF7FEFF 		bl	CyBle_GattcDiscoverAllCharacteristics
 3340 00b2 031E     		subs	r3, r0, #0
ARM GAS  C:\Users\run1009\AppData\Local\Temp\ccSZtXoF.s 			page 111


 3341 00b4 15D0     		beq	.L228
2799:Generated_Source\PSoC4/BLE_eventHandler.c ****         {
2800:Generated_Source\PSoC4/BLE_eventHandler.c ****             CyBle_ApplCallback(CYBLE_EVT_GATTC_CHAR_DISCOVERY_FAILED, NULL);
 3342              		.loc 1 2800 0
 3343 00b6 114B     		ldr	r3, .L229+16
 3344 00b8 1B68     		ldr	r3, [r3]
 3345 00ba 0A22     		movs	r2, #10
 3346 00bc FF32     		adds	r2, r2, #255
 3347 00be 0021     		movs	r1, #0
 3348 00c0 1000     		movs	r0, r2
 3349 00c2 9847     		blx	r3
2801:Generated_Source\PSoC4/BLE_eventHandler.c ****             cyBle_eventHandlerFlag &= (uint8)~CYBLE_AUTO_DISCOVERY;
 3350              		.loc 1 2801 0
 3351 00c4 0E4B     		ldr	r3, .L229+20
 3352 00c6 1B78     		ldrb	r3, [r3]
 3353 00c8 DBB2     		uxtb	r3, r3
 3354 00ca 0222     		movs	r2, #2
 3355 00cc 9343     		bics	r3, r2
 3356 00ce DAB2     		uxtb	r2, r3
 3357 00d0 0B4B     		ldr	r3, .L229+20
 3358 00d2 1A70     		strb	r2, [r3]
2802:Generated_Source\PSoC4/BLE_eventHandler.c ****         }
2803:Generated_Source\PSoC4/BLE_eventHandler.c ****     }
2804:Generated_Source\PSoC4/BLE_eventHandler.c ****     else /* Characteristic discovery procedure is done, start descriptor discovery procedure */
2805:Generated_Source\PSoC4/BLE_eventHandler.c ****     {
2806:Generated_Source\PSoC4/BLE_eventHandler.c ****     #if(CYBLE_STACK_MODE_DEBUG)
2807:Generated_Source\PSoC4/BLE_eventHandler.c ****         CyBle_ApplCallback(CYBLE_EVT_GATTC_CHAR_DISCOVERY_COMPLETE, NULL);
2808:Generated_Source\PSoC4/BLE_eventHandler.c ****     #endif /* CYBLE_STACK_MODE_DEBUG */
2809:Generated_Source\PSoC4/BLE_eventHandler.c ****         CyBle_SetClientState(CYBLE_CLIENT_STATE_DESCR_DISCOVERING);
2810:Generated_Source\PSoC4/BLE_eventHandler.c ****         CyBle_NextCharDscrDiscovery(CYBLE_DISCOVERY_INIT);
2811:Generated_Source\PSoC4/BLE_eventHandler.c ****     }
2812:Generated_Source\PSoC4/BLE_eventHandler.c **** 
2813:Generated_Source\PSoC4/BLE_eventHandler.c **** }
 3359              		.loc 1 2813 0
 3360 00d4 05E0     		b	.L228
 3361              	.L225:
2809:Generated_Source\PSoC4/BLE_eventHandler.c ****         CyBle_NextCharDscrDiscovery(CYBLE_DISCOVERY_INIT);
 3362              		.loc 1 2809 0
 3363 00d6 0B4B     		ldr	r3, .L229+24
 3364 00d8 0422     		movs	r2, #4
 3365 00da 1A70     		strb	r2, [r3]
2810:Generated_Source\PSoC4/BLE_eventHandler.c ****     }
 3366              		.loc 1 2810 0
 3367 00dc 0020     		movs	r0, #0
 3368 00de FFF7FEFF 		bl	CyBle_NextCharDscrDiscovery
 3369              	.L228:
 3370              		.loc 1 2813 0
 3371 00e2 C046     		nop
 3372 00e4 BD46     		mov	sp, r7
 3373 00e6 02B0     		add	sp, sp, #8
 3374              		@ sp needed
 3375 00e8 80BD     		pop	{r7, pc}
 3376              	.L230:
 3377 00ea C046     		.align	2
 3378              	.L229:
 3379 00ec 00000000 		.word	cyBle_disCount
 3380 00f0 00000000 		.word	cyBle_serverInfo
ARM GAS  C:\Users\run1009\AppData\Local\Temp\ccSZtXoF.s 			page 112


 3381 00f4 00000000 		.word	cyBle_gattcDiscoveryRange
 3382 00f8 00000000 		.word	cyBle_connHandle
 3383 00fc 00000000 		.word	CyBle_ApplCallback
 3384 0100 00000000 		.word	cyBle_eventHandlerFlag
 3385 0104 00000000 		.word	cyBle_clientState
 3386              		.cfi_endproc
 3387              	.LFE20:
 3388              		.size	CyBle_NextCharDiscovery, .-CyBle_NextCharDiscovery
 3389              		.section	.text.CyBle_GetCharRange,"ax",%progbits
 3390              		.align	2
 3391              		.code	16
 3392              		.thumb_func
 3393              		.type	CyBle_GetCharRange, %function
 3394              	CyBle_GetCharRange:
 3395              	.LFB21:
2814:Generated_Source\PSoC4/BLE_eventHandler.c **** 
2815:Generated_Source\PSoC4/BLE_eventHandler.c **** 
2816:Generated_Source\PSoC4/BLE_eventHandler.c **** /****************************************************************************** 
2817:Generated_Source\PSoC4/BLE_eventHandler.c **** * Function Name: CyBle_GetCharRange
2818:Generated_Source\PSoC4/BLE_eventHandler.c **** ***************************************************************************//**
2819:Generated_Source\PSoC4/BLE_eventHandler.c **** * 
2820:Generated_Source\PSoC4/BLE_eventHandler.c **** *  Returns a possible range of the current characteristic descriptor
2821:Generated_Source\PSoC4/BLE_eventHandler.c **** *  (which is pointed by curr. descr. index cyBle_disCount).
2822:Generated_Source\PSoC4/BLE_eventHandler.c **** * 
2823:Generated_Source\PSoC4/BLE_eventHandler.c **** * \return
2824:Generated_Source\PSoC4/BLE_eventHandler.c **** *  CYBLE_GATT_ATTR_HANDLE_RANGE_T range:  the block of start and end handles.
2825:Generated_Source\PSoC4/BLE_eventHandler.c **** * 
2826:Generated_Source\PSoC4/BLE_eventHandler.c **** ******************************************************************************/
2827:Generated_Source\PSoC4/BLE_eventHandler.c **** static CYBLE_GATT_ATTR_HANDLE_RANGE_T CyBle_GetCharRange(void)
2828:Generated_Source\PSoC4/BLE_eventHandler.c **** {
 3396              		.loc 1 2828 0
 3397              		.cfi_startproc
 3398              		@ args = 0, pretend = 0, frame = 8
 3399              		@ frame_needed = 1, uses_anonymous_args = 0
 3400 0000 80B5     		push	{r7, lr}
 3401              		.cfi_def_cfa_offset 8
 3402              		.cfi_offset 7, -8
 3403              		.cfi_offset 14, -4
 3404 0002 82B0     		sub	sp, sp, #8
 3405              		.cfi_def_cfa_offset 16
 3406 0004 00AF     		add	r7, sp, #0
 3407              		.cfi_def_cfa_register 7
2829:Generated_Source\PSoC4/BLE_eventHandler.c ****     CYBLE_GATT_ATTR_HANDLE_RANGE_T charRange = {CYBLE_GATT_INVALID_ATTR_HANDLE_VALUE, CYBLE_GATT_IN
 3408              		.loc 1 2829 0
 3409 0006 3B00     		movs	r3, r7
 3410 0008 0022     		movs	r2, #0
 3411 000a 1A80     		strh	r2, [r3]
 3412 000c 3B00     		movs	r3, r7
 3413 000e 0022     		movs	r2, #0
 3414 0010 5A80     		strh	r2, [r3, #2]
2830:Generated_Source\PSoC4/BLE_eventHandler.c ****     if(cyBle_disCount == (uint8) CYBLE_SCDI_GATT_SERVICE_CHANGED)
 3415              		.loc 1 2830 0
 3416 0012 114B     		ldr	r3, .L234
 3417 0014 1B78     		ldrb	r3, [r3]
 3418 0016 002B     		cmp	r3, #0
 3419 0018 09D1     		bne	.L232
2831:Generated_Source\PSoC4/BLE_eventHandler.c ****     {
ARM GAS  C:\Users\run1009\AppData\Local\Temp\ccSZtXoF.s 			page 113


2832:Generated_Source\PSoC4/BLE_eventHandler.c ****         /* One descriptor is available in GATT service */
2833:Generated_Source\PSoC4/BLE_eventHandler.c ****         charRange.startHandle = cyBle_gattc.serviceChanged.valueHandle + 1u;
 3420              		.loc 1 2833 0
 3421 001a 104B     		ldr	r3, .L234+4
 3422 001c 5B88     		ldrh	r3, [r3, #2]
 3423 001e 0133     		adds	r3, r3, #1
 3424 0020 9AB2     		uxth	r2, r3
 3425 0022 3B00     		movs	r3, r7
 3426 0024 1A80     		strh	r2, [r3]
2834:Generated_Source\PSoC4/BLE_eventHandler.c ****         charRange.endHandle = cyBle_serverInfo[CYBLE_SRVI_GATT].range.endHandle;
 3427              		.loc 1 2834 0
 3428 0026 0E4B     		ldr	r3, .L234+8
 3429 0028 1A89     		ldrh	r2, [r3, #8]
 3430 002a 3B00     		movs	r3, r7
 3431 002c 5A80     		strh	r2, [r3, #2]
 3432              	.L232:
2835:Generated_Source\PSoC4/BLE_eventHandler.c ****     }
2836:Generated_Source\PSoC4/BLE_eventHandler.c **** #ifdef CYBLE_AIOS_CLIENT
2837:Generated_Source\PSoC4/BLE_eventHandler.c ****     if((cyBle_disCount >= (uint8) CYBLE_SCDI_AIOS_DIGITAL) && 
2838:Generated_Source\PSoC4/BLE_eventHandler.c ****        (cyBle_disCount <= (uint8) CYBLE_SCDI_AIOS_END_CHAR))
2839:Generated_Source\PSoC4/BLE_eventHandler.c ****     {
2840:Generated_Source\PSoC4/BLE_eventHandler.c ****         if(cyBle_aioscPrevCharInstIndex != (cyBle_disCount - CYBLE_SCDI_AIOS_DIGITAL))
2841:Generated_Source\PSoC4/BLE_eventHandler.c ****         {
2842:Generated_Source\PSoC4/BLE_eventHandler.c ****             /* Check if this the last characteristic instance */
2843:Generated_Source\PSoC4/BLE_eventHandler.c ****             if((cyBle_aioscActiveCharInstance + 1u) < cyBle_aioscCharInstances[cyBle_aioscActiveCha
2844:Generated_Source\PSoC4/BLE_eventHandler.c ****             {
2845:Generated_Source\PSoC4/BLE_eventHandler.c ****                 /* The instance is not last so increment it */
2846:Generated_Source\PSoC4/BLE_eventHandler.c ****                 cyBle_aioscActiveCharInstance += 1u; 
2847:Generated_Source\PSoC4/BLE_eventHandler.c ****             }
2848:Generated_Source\PSoC4/BLE_eventHandler.c ****             else
2849:Generated_Source\PSoC4/BLE_eventHandler.c ****             {
2850:Generated_Source\PSoC4/BLE_eventHandler.c ****                 /* The instance is last so go to new characteristic */
2851:Generated_Source\PSoC4/BLE_eventHandler.c ****                 cyBle_aioscActiveCharInstance = 0u;
2852:Generated_Source\PSoC4/BLE_eventHandler.c ****                 cyBle_aioscActiveCharIndex += 1u;
2853:Generated_Source\PSoC4/BLE_eventHandler.c ****             }
2854:Generated_Source\PSoC4/BLE_eventHandler.c ****             cyBle_aioscPrevCharInstIndex = (cyBle_disCount - CYBLE_SCDI_AIOS_DIGITAL);
2855:Generated_Source\PSoC4/BLE_eventHandler.c ****         }
2856:Generated_Source\PSoC4/BLE_eventHandler.c **** 
2857:Generated_Source\PSoC4/BLE_eventHandler.c ****         if(NULL != cyBle_aiosc.charInfoAddr[cyBle_aioscActiveCharIndex].charInfoPtr)
2858:Generated_Source\PSoC4/BLE_eventHandler.c ****         {
2859:Generated_Source\PSoC4/BLE_eventHandler.c ****             if(cyBle_aioscActiveCharInstance < cyBle_aioscCharInstances[cyBle_aioscActiveCharIndex]
2860:Generated_Source\PSoC4/BLE_eventHandler.c ****             {
2861:Generated_Source\PSoC4/BLE_eventHandler.c ****                 charRange.startHandle =
2862:Generated_Source\PSoC4/BLE_eventHandler.c ****                     cyBle_aiosc.charInfoAddr[cyBle_aioscActiveCharIndex].charInfoPtr[cyBle_aioscAct
2863:Generated_Source\PSoC4/BLE_eventHandler.c ****             
2864:Generated_Source\PSoC4/BLE_eventHandler.c ****                 charRange.endHandle =
2865:Generated_Source\PSoC4/BLE_eventHandler.c ****                     cyBle_aiosc.charInfoAddr[cyBle_aioscActiveCharIndex].charInfoPtr[cyBle_aioscAct
2866:Generated_Source\PSoC4/BLE_eventHandler.c ****             }
2867:Generated_Source\PSoC4/BLE_eventHandler.c ****             else
2868:Generated_Source\PSoC4/BLE_eventHandler.c ****             {
2869:Generated_Source\PSoC4/BLE_eventHandler.c ****                 charRange.startHandle = CYBLE_GATT_INVALID_ATTR_HANDLE_VALUE;
2870:Generated_Source\PSoC4/BLE_eventHandler.c ****                 charRange.endHandle = CYBLE_GATT_INVALID_ATTR_HANDLE_VALUE;
2871:Generated_Source\PSoC4/BLE_eventHandler.c ****             }
2872:Generated_Source\PSoC4/BLE_eventHandler.c ****         }
2873:Generated_Source\PSoC4/BLE_eventHandler.c ****     }
2874:Generated_Source\PSoC4/BLE_eventHandler.c **** #endif /* CYBLE_AIOS_CLIENT */
2875:Generated_Source\PSoC4/BLE_eventHandler.c **** #ifdef CYBLE_ANCS_CLIENT
ARM GAS  C:\Users\run1009\AppData\Local\Temp\ccSZtXoF.s 			page 114


2876:Generated_Source\PSoC4/BLE_eventHandler.c ****     if((cyBle_disCount == (uint8) CYBLE_SCDI_ANCS_NS) || (cyBle_disCount == (uint8) CYBLE_SCDI_ANCS
2877:Generated_Source\PSoC4/BLE_eventHandler.c ****     {
2878:Generated_Source\PSoC4/BLE_eventHandler.c ****         CYBLE_ANCS_CHAR_INDEX_T charIdx;
2879:Generated_Source\PSoC4/BLE_eventHandler.c ****         if(cyBle_disCount == (uint8) CYBLE_SCDI_ANCS_NS)
2880:Generated_Source\PSoC4/BLE_eventHandler.c ****         {
2881:Generated_Source\PSoC4/BLE_eventHandler.c ****             charIdx = CYBLE_ANCS_NS;
2882:Generated_Source\PSoC4/BLE_eventHandler.c ****         }
2883:Generated_Source\PSoC4/BLE_eventHandler.c ****         else
2884:Generated_Source\PSoC4/BLE_eventHandler.c ****         {
2885:Generated_Source\PSoC4/BLE_eventHandler.c ****             charIdx = CYBLE_ANCS_DS;
2886:Generated_Source\PSoC4/BLE_eventHandler.c ****         }
2887:Generated_Source\PSoC4/BLE_eventHandler.c ****         
2888:Generated_Source\PSoC4/BLE_eventHandler.c ****         if(cyBle_ancsc.charInfo[charIdx].valueHandle != CYBLE_GATT_INVALID_ATTR_HANDLE_VALUE)
2889:Generated_Source\PSoC4/BLE_eventHandler.c ****         {
2890:Generated_Source\PSoC4/BLE_eventHandler.c ****             /* One descriptor is available per characteristic */
2891:Generated_Source\PSoC4/BLE_eventHandler.c ****             charRange.startHandle = cyBle_ancsc.charInfo[charIdx].valueHandle + 1u;
2892:Generated_Source\PSoC4/BLE_eventHandler.c ****             charRange.endHandle = cyBle_ancsc.charInfo[charIdx].endHandle;
2893:Generated_Source\PSoC4/BLE_eventHandler.c ****         }
2894:Generated_Source\PSoC4/BLE_eventHandler.c ****     }
2895:Generated_Source\PSoC4/BLE_eventHandler.c **** #endif /* CYBLE_ANCS_CLIENT */
2896:Generated_Source\PSoC4/BLE_eventHandler.c **** #ifdef CYBLE_ANS_CLIENT
2897:Generated_Source\PSoC4/BLE_eventHandler.c ****     if((cyBle_disCount >= (uint8) CYBLE_SCDI_ANS_SUPPORTED_NEW_ALERT_CAT) &&
2898:Generated_Source\PSoC4/BLE_eventHandler.c ****         (cyBle_disCount <= (uint8) CYBLE_SCDI_ANS_ALERT_NTF_CONTROL_POINT))
2899:Generated_Source\PSoC4/BLE_eventHandler.c ****     {
2900:Generated_Source\PSoC4/BLE_eventHandler.c ****         charRange.startHandle = 
2901:Generated_Source\PSoC4/BLE_eventHandler.c ****             cyBle_ansc.characteristics[cyBle_disCount - CYBLE_SCDI_ANS_SUPPORTED_NEW_ALERT_CAT].cha
2902:Generated_Source\PSoC4/BLE_eventHandler.c ****         charRange.endHandle = 
2903:Generated_Source\PSoC4/BLE_eventHandler.c ****             cyBle_ansc.characteristics[cyBle_disCount - CYBLE_SCDI_ANS_SUPPORTED_NEW_ALERT_CAT].end
2904:Generated_Source\PSoC4/BLE_eventHandler.c ****     }
2905:Generated_Source\PSoC4/BLE_eventHandler.c **** #endif /* CYBLE_ANS_CLIENT */
2906:Generated_Source\PSoC4/BLE_eventHandler.c **** #ifdef CYBLE_BAS_CLIENT
2907:Generated_Source\PSoC4/BLE_eventHandler.c ****     if((cyBle_disCount >= (uint8) CYBLE_SCDI_BAS_LEVEL) && (cyBle_disCount <= (uint8) CYBLE_SCDI_BA
2908:Generated_Source\PSoC4/BLE_eventHandler.c ****     {
2909:Generated_Source\PSoC4/BLE_eventHandler.c ****         if(cyBle_basc[cyBle_disCount - CYBLE_SCDI_BAS_LEVEL].batteryLevel.valueHandle != CYBLE_GATT
2910:Generated_Source\PSoC4/BLE_eventHandler.c ****         {
2911:Generated_Source\PSoC4/BLE_eventHandler.c ****             /* One descriptor is available per characteristic */
2912:Generated_Source\PSoC4/BLE_eventHandler.c ****             charRange.startHandle = cyBle_basc[cyBle_disCount - CYBLE_SCDI_BAS_LEVEL].
2913:Generated_Source\PSoC4/BLE_eventHandler.c ****                                 batteryLevel.valueHandle + 1u;
2914:Generated_Source\PSoC4/BLE_eventHandler.c ****             charRange.endHandle = cyBle_serverInfo[CYBLE_SRVI_BAS + (cyBle_disCount - CYBLE_SCDI_BA
2915:Generated_Source\PSoC4/BLE_eventHandler.c ****                                 range.endHandle;
2916:Generated_Source\PSoC4/BLE_eventHandler.c ****         }
2917:Generated_Source\PSoC4/BLE_eventHandler.c ****     }
2918:Generated_Source\PSoC4/BLE_eventHandler.c **** #endif /* CYBLE_BAS_CLIENT */
2919:Generated_Source\PSoC4/BLE_eventHandler.c **** #ifdef CYBLE_BCS_CLIENT
2920:Generated_Source\PSoC4/BLE_eventHandler.c ****     if((cyBle_disCount == (uint8) CYBLE_SCDI_BCS_BODY_COMPOSITION_FEATURE) ||
2921:Generated_Source\PSoC4/BLE_eventHandler.c ****         (cyBle_disCount == (uint8) CYBLE_SCDI_BCS_BODY_COMPOSITION_MEASUREMENT))
2922:Generated_Source\PSoC4/BLE_eventHandler.c ****     {
2923:Generated_Source\PSoC4/BLE_eventHandler.c ****         if(cyBle_bcsc.charInfo[cyBle_disCount - CYBLE_SCDI_BCS_BODY_COMPOSITION_FEATURE].valueHandl
2924:Generated_Source\PSoC4/BLE_eventHandler.c ****             CYBLE_GATT_INVALID_ATTR_HANDLE_VALUE)
2925:Generated_Source\PSoC4/BLE_eventHandler.c ****         {
2926:Generated_Source\PSoC4/BLE_eventHandler.c ****             /* One descriptor is available per characteristic */
2927:Generated_Source\PSoC4/BLE_eventHandler.c ****             charRange.startHandle =
2928:Generated_Source\PSoC4/BLE_eventHandler.c ****                 cyBle_bcsc.charInfo[cyBle_disCount - CYBLE_SCDI_BCS_BODY_COMPOSITION_FEATURE].value
2929:Generated_Source\PSoC4/BLE_eventHandler.c ****             charRange.endHandle =
2930:Generated_Source\PSoC4/BLE_eventHandler.c ****                 cyBle_bcsc.charInfo[cyBle_disCount - CYBLE_SCDI_BCS_BODY_COMPOSITION_FEATURE].endHa
2931:Generated_Source\PSoC4/BLE_eventHandler.c ****         }
2932:Generated_Source\PSoC4/BLE_eventHandler.c ****     }
ARM GAS  C:\Users\run1009\AppData\Local\Temp\ccSZtXoF.s 			page 115


2933:Generated_Source\PSoC4/BLE_eventHandler.c **** #endif /* CYBLE_BCS_CLIENT */
2934:Generated_Source\PSoC4/BLE_eventHandler.c **** #ifdef CYBLE_BLS_CLIENT
2935:Generated_Source\PSoC4/BLE_eventHandler.c ****     if((cyBle_disCount == (uint8) CYBLE_SCDI_BLS_BPM) || (cyBle_disCount == (uint8) CYBLE_SCDI_BLS_
2936:Generated_Source\PSoC4/BLE_eventHandler.c ****     {
2937:Generated_Source\PSoC4/BLE_eventHandler.c ****         if(cyBle_blsc.charInfo[cyBle_disCount - CYBLE_SCDI_BLS_BPM].valueHandle != CYBLE_GATT_INVAL
2938:Generated_Source\PSoC4/BLE_eventHandler.c ****         {
2939:Generated_Source\PSoC4/BLE_eventHandler.c ****             /* One descriptor is available per characteristic */
2940:Generated_Source\PSoC4/BLE_eventHandler.c ****             charRange.startHandle = cyBle_blsc.charInfo[cyBle_disCount - CYBLE_SCDI_BLS_BPM].valueH
2941:Generated_Source\PSoC4/BLE_eventHandler.c ****             charRange.endHandle = cyBle_blsc.charInfo[cyBle_disCount - CYBLE_SCDI_BLS_BPM].endHandl
2942:Generated_Source\PSoC4/BLE_eventHandler.c ****         }
2943:Generated_Source\PSoC4/BLE_eventHandler.c ****     }
2944:Generated_Source\PSoC4/BLE_eventHandler.c **** #endif /* CYBLE_BLS_CLIENT */
2945:Generated_Source\PSoC4/BLE_eventHandler.c **** #ifdef CYBLE_BMS_CLIENT
2946:Generated_Source\PSoC4/BLE_eventHandler.c ****     if(cyBle_disCount == (uint8) CYBLE_SCDI_BMS_BMCP)
2947:Generated_Source\PSoC4/BLE_eventHandler.c ****     {
2948:Generated_Source\PSoC4/BLE_eventHandler.c ****         if(cyBle_bmsc.charInfo[CYBLE_BMS_BMCP].valueHandle != CYBLE_GATT_INVALID_ATTR_HANDLE_VALUE)
2949:Generated_Source\PSoC4/BLE_eventHandler.c ****         {
2950:Generated_Source\PSoC4/BLE_eventHandler.c ****             /* One descriptor is available per characteristic */
2951:Generated_Source\PSoC4/BLE_eventHandler.c ****             charRange.startHandle = cyBle_bmsc.charInfo[CYBLE_BMS_BMCP].valueHandle + 1u;
2952:Generated_Source\PSoC4/BLE_eventHandler.c ****             charRange.endHandle = cyBle_bmsc.charInfo[CYBLE_BMS_BMCP].endHandle;
2953:Generated_Source\PSoC4/BLE_eventHandler.c ****         }
2954:Generated_Source\PSoC4/BLE_eventHandler.c ****     }
2955:Generated_Source\PSoC4/BLE_eventHandler.c **** #endif /* CYBLE_BMS_CLIENT */
2956:Generated_Source\PSoC4/BLE_eventHandler.c **** #ifdef CYBLE_CGMS_CLIENT
2957:Generated_Source\PSoC4/BLE_eventHandler.c ****     if((cyBle_disCount >= (uint8) CYBLE_SCDI_CGMS_CGMT) && (cyBle_disCount <= (uint8) CYBLE_SCDI_CG
2958:Generated_Source\PSoC4/BLE_eventHandler.c ****     {
2959:Generated_Source\PSoC4/BLE_eventHandler.c ****         uint8 charIdx = cyBle_disCount - CYBLE_SCDI_CGMS_CGMT;
2960:Generated_Source\PSoC4/BLE_eventHandler.c ****         if(((uint8)CYBLE_CGMS_CGMT) < charIdx)
2961:Generated_Source\PSoC4/BLE_eventHandler.c ****         {
2962:Generated_Source\PSoC4/BLE_eventHandler.c ****             /* charIdx for RACP is 5 and for SOCP is 6 */
2963:Generated_Source\PSoC4/BLE_eventHandler.c ****             charIdx += CYBLE_CGMS_RACP - 1u;
2964:Generated_Source\PSoC4/BLE_eventHandler.c ****         }
2965:Generated_Source\PSoC4/BLE_eventHandler.c ****         
2966:Generated_Source\PSoC4/BLE_eventHandler.c ****         if(cyBle_cgmsc.charInfo[charIdx].valueHandle != CYBLE_GATT_INVALID_ATTR_HANDLE_VALUE)
2967:Generated_Source\PSoC4/BLE_eventHandler.c ****         {
2968:Generated_Source\PSoC4/BLE_eventHandler.c ****             /* One descriptor is available per characteristic */
2969:Generated_Source\PSoC4/BLE_eventHandler.c ****             charRange.startHandle = cyBle_cgmsc.charInfo[charIdx].valueHandle + 1u;
2970:Generated_Source\PSoC4/BLE_eventHandler.c ****             charRange.endHandle = cyBle_cgmsc.charInfo[charIdx].endHandle;
2971:Generated_Source\PSoC4/BLE_eventHandler.c ****         }
2972:Generated_Source\PSoC4/BLE_eventHandler.c ****     }
2973:Generated_Source\PSoC4/BLE_eventHandler.c **** #endif /* CYBLE_CGMS_CLIENT */
2974:Generated_Source\PSoC4/BLE_eventHandler.c **** #ifdef CYBLE_CPS_CLIENT
2975:Generated_Source\PSoC4/BLE_eventHandler.c ****     if((cyBle_disCount >= (uint8) CYBLE_SCDI_CPS_POWER_MEASURE) && (cyBle_disCount <= (uint8) CYBLE
2976:Generated_Source\PSoC4/BLE_eventHandler.c ****     {
2977:Generated_Source\PSoC4/BLE_eventHandler.c ****         charRange.startHandle = cyBle_cpsc.charInfo[cyBle_disCount - CYBLE_SCDI_CPS_POWER_MEASURE].
2978:Generated_Source\PSoC4/BLE_eventHandler.c ****         charRange.endHandle = cyBle_cpsc.charInfo[cyBle_disCount - CYBLE_SCDI_CPS_POWER_MEASURE].en
2979:Generated_Source\PSoC4/BLE_eventHandler.c ****     }
2980:Generated_Source\PSoC4/BLE_eventHandler.c **** #endif /* CYBLE_CPS_CLIENT */
2981:Generated_Source\PSoC4/BLE_eventHandler.c **** #ifdef CYBLE_CSCS_CLIENT
2982:Generated_Source\PSoC4/BLE_eventHandler.c ****     if((cyBle_disCount >= (uint8) CYBLE_SCDI_CSCS_CSC_MEASUREMENT) && 
2983:Generated_Source\PSoC4/BLE_eventHandler.c ****        (cyBle_disCount <= (uint8) CYBLE_SCDI_CSCS_SC_CONTROL_POINT))
2984:Generated_Source\PSoC4/BLE_eventHandler.c ****     {
2985:Generated_Source\PSoC4/BLE_eventHandler.c ****         charRange.startHandle = 
2986:Generated_Source\PSoC4/BLE_eventHandler.c ****             cyBle_cscsc.characteristics[cyBle_disCount - CYBLE_SCDI_CSCS_CSC_MEASUREMENT].charInfo.
2987:Generated_Source\PSoC4/BLE_eventHandler.c ****         charRange.endHandle = cyBle_cscsc.characteristics[cyBle_disCount - CYBLE_SCDI_CSCS_CSC_MEAS
2988:Generated_Source\PSoC4/BLE_eventHandler.c ****     }
2989:Generated_Source\PSoC4/BLE_eventHandler.c **** #endif /* CYBLE_CSCS_CLIENT */
ARM GAS  C:\Users\run1009\AppData\Local\Temp\ccSZtXoF.s 			page 116


2990:Generated_Source\PSoC4/BLE_eventHandler.c **** #ifdef CYBLE_CTS_CLIENT
2991:Generated_Source\PSoC4/BLE_eventHandler.c ****     if(cyBle_disCount == (uint8) CYBLE_SCDI_CTS_CURRENT_TIME)
2992:Generated_Source\PSoC4/BLE_eventHandler.c ****     {
2993:Generated_Source\PSoC4/BLE_eventHandler.c ****         if(cyBle_ctsc.currTimeCharacteristics[CYBLE_CTS_CURRENT_TIME].valueHandle != CYBLE_GATT_INV
2994:Generated_Source\PSoC4/BLE_eventHandler.c ****         {
2995:Generated_Source\PSoC4/BLE_eventHandler.c ****             /* One descriptor is available per service */
2996:Generated_Source\PSoC4/BLE_eventHandler.c ****             charRange.startHandle = cyBle_ctsc.currTimeCharacteristics[CYBLE_CTS_CURRENT_TIME].valu
2997:Generated_Source\PSoC4/BLE_eventHandler.c ****             charRange.endHandle = cyBle_serverInfo[CYBLE_SRVI_CTS].range.endHandle;
2998:Generated_Source\PSoC4/BLE_eventHandler.c ****         }
2999:Generated_Source\PSoC4/BLE_eventHandler.c ****     }
3000:Generated_Source\PSoC4/BLE_eventHandler.c **** #endif /* CYBLE_CTS_CLIENT */
3001:Generated_Source\PSoC4/BLE_eventHandler.c **** #ifdef CYBLE_ESS_CLIENT
3002:Generated_Source\PSoC4/BLE_eventHandler.c ****     if((cyBle_disCount >= (uint8) CYBLE_SCDI_ESS_DESCRIPTOR_VALUE_CHANGED) && 
3003:Generated_Source\PSoC4/BLE_eventHandler.c ****        (cyBle_disCount <= (uint8) CYBLE_SCDI_ESS_END_CHAR))
3004:Generated_Source\PSoC4/BLE_eventHandler.c ****     {
3005:Generated_Source\PSoC4/BLE_eventHandler.c ****         if(cyBle_esscPrevCharInstIndex != (cyBle_disCount - CYBLE_SCDI_ESS_DESCRIPTOR_VALUE_CHANGED
3006:Generated_Source\PSoC4/BLE_eventHandler.c ****         {
3007:Generated_Source\PSoC4/BLE_eventHandler.c ****             /* Check if this the last characteristic instance */
3008:Generated_Source\PSoC4/BLE_eventHandler.c ****             if((cyBle_esscActiveCharInstance + 1u) < cyBle_esscCharInstances[cyBle_esscActiveCharIn
3009:Generated_Source\PSoC4/BLE_eventHandler.c ****             {
3010:Generated_Source\PSoC4/BLE_eventHandler.c ****                 /* The instance is not last so increment it */
3011:Generated_Source\PSoC4/BLE_eventHandler.c ****                 cyBle_esscActiveCharInstance += 1u; 
3012:Generated_Source\PSoC4/BLE_eventHandler.c ****             }
3013:Generated_Source\PSoC4/BLE_eventHandler.c ****             else
3014:Generated_Source\PSoC4/BLE_eventHandler.c ****             {
3015:Generated_Source\PSoC4/BLE_eventHandler.c ****                 /* The instance is last so go to new characteristic */
3016:Generated_Source\PSoC4/BLE_eventHandler.c ****                 cyBle_esscActiveCharInstance = 0u;
3017:Generated_Source\PSoC4/BLE_eventHandler.c ****                 cyBle_esscActiveCharIndex += 1u;
3018:Generated_Source\PSoC4/BLE_eventHandler.c ****             }
3019:Generated_Source\PSoC4/BLE_eventHandler.c ****             cyBle_esscPrevCharInstIndex = (cyBle_disCount - CYBLE_SCDI_ESS_DESCRIPTOR_VALUE_CHANGED
3020:Generated_Source\PSoC4/BLE_eventHandler.c ****         }
3021:Generated_Source\PSoC4/BLE_eventHandler.c **** 
3022:Generated_Source\PSoC4/BLE_eventHandler.c ****         if(NULL != cyBle_essc.charInfoAddr[cyBle_esscActiveCharIndex].charInfoPtr)
3023:Generated_Source\PSoC4/BLE_eventHandler.c ****         {
3024:Generated_Source\PSoC4/BLE_eventHandler.c ****             if(cyBle_esscActiveCharInstance < cyBle_esscCharInstances[cyBle_esscActiveCharIndex])
3025:Generated_Source\PSoC4/BLE_eventHandler.c ****             {
3026:Generated_Source\PSoC4/BLE_eventHandler.c ****                 charRange.startHandle =
3027:Generated_Source\PSoC4/BLE_eventHandler.c ****                     cyBle_essc.charInfoAddr[cyBle_esscActiveCharIndex].charInfoPtr[cyBle_esscActive
3028:Generated_Source\PSoC4/BLE_eventHandler.c ****             
3029:Generated_Source\PSoC4/BLE_eventHandler.c ****                 charRange.endHandle =
3030:Generated_Source\PSoC4/BLE_eventHandler.c ****                     cyBle_essc.charInfoAddr[cyBle_esscActiveCharIndex].charInfoPtr[cyBle_esscActive
3031:Generated_Source\PSoC4/BLE_eventHandler.c ****             }
3032:Generated_Source\PSoC4/BLE_eventHandler.c ****             else
3033:Generated_Source\PSoC4/BLE_eventHandler.c ****             {
3034:Generated_Source\PSoC4/BLE_eventHandler.c ****                 charRange.startHandle = CYBLE_GATT_INVALID_ATTR_HANDLE_VALUE;
3035:Generated_Source\PSoC4/BLE_eventHandler.c ****                 charRange.endHandle = CYBLE_GATT_INVALID_ATTR_HANDLE_VALUE;
3036:Generated_Source\PSoC4/BLE_eventHandler.c ****             }
3037:Generated_Source\PSoC4/BLE_eventHandler.c ****         }
3038:Generated_Source\PSoC4/BLE_eventHandler.c ****     }
3039:Generated_Source\PSoC4/BLE_eventHandler.c **** #endif /* CYBLE_ESS_CLIENT */
3040:Generated_Source\PSoC4/BLE_eventHandler.c **** #ifdef CYBLE_GLS_CLIENT
3041:Generated_Source\PSoC4/BLE_eventHandler.c ****     if((cyBle_disCount >= (uint8) CYBLE_SCDI_GLS_GLMT) && (cyBle_disCount <= (uint8) CYBLE_SCDI_GLS
3042:Generated_Source\PSoC4/BLE_eventHandler.c ****     {
3043:Generated_Source\PSoC4/BLE_eventHandler.c ****         uint8 charIdx = cyBle_disCount - CYBLE_SCDI_GLS_GLMT;
3044:Generated_Source\PSoC4/BLE_eventHandler.c ****         if(charIdx == (CYBLE_SCDI_GLS_RACP - CYBLE_SCDI_GLS_GLMT))
3045:Generated_Source\PSoC4/BLE_eventHandler.c ****         {
3046:Generated_Source\PSoC4/BLE_eventHandler.c ****             charIdx = CYBLE_GLS_RACP;
ARM GAS  C:\Users\run1009\AppData\Local\Temp\ccSZtXoF.s 			page 117


3047:Generated_Source\PSoC4/BLE_eventHandler.c ****         }
3048:Generated_Source\PSoC4/BLE_eventHandler.c ****         
3049:Generated_Source\PSoC4/BLE_eventHandler.c ****         if(cyBle_glsc.charInfo[charIdx].valueHandle != CYBLE_GATT_INVALID_ATTR_HANDLE_VALUE)
3050:Generated_Source\PSoC4/BLE_eventHandler.c ****         {
3051:Generated_Source\PSoC4/BLE_eventHandler.c ****             /* One descriptor is available per characteristic */
3052:Generated_Source\PSoC4/BLE_eventHandler.c ****             charRange.startHandle = cyBle_glsc.charInfo[charIdx].valueHandle + 1u;
3053:Generated_Source\PSoC4/BLE_eventHandler.c ****             charRange.endHandle = cyBle_glsc.charInfo[charIdx].endHandle;
3054:Generated_Source\PSoC4/BLE_eventHandler.c ****         }
3055:Generated_Source\PSoC4/BLE_eventHandler.c ****     }
3056:Generated_Source\PSoC4/BLE_eventHandler.c **** #endif /* CYBLE_GLS_CLIENT */
3057:Generated_Source\PSoC4/BLE_eventHandler.c **** #ifdef CYBLE_IPS_CLIENT
3058:Generated_Source\PSoC4/BLE_eventHandler.c ****     if((cyBle_disCount >= (uint8) CYBLE_SCDI_IPS_LATITUDE) && (cyBle_disCount <= (uint8) CYBLE_SCDI
3059:Generated_Source\PSoC4/BLE_eventHandler.c ****     {
3060:Generated_Source\PSoC4/BLE_eventHandler.c ****         charRange.startHandle = cyBle_ipsc.charInfo[(cyBle_disCount - CYBLE_SCDI_IPS_LATITUDE) + 1u
3061:Generated_Source\PSoC4/BLE_eventHandler.c ****         charRange.endHandle = cyBle_ipsc.charInfo[(cyBle_disCount - CYBLE_SCDI_IPS_LATITUDE) + 1u].
3062:Generated_Source\PSoC4/BLE_eventHandler.c ****     }
3063:Generated_Source\PSoC4/BLE_eventHandler.c **** #endif /* CYBLE_IPS_CLIENT */
3064:Generated_Source\PSoC4/BLE_eventHandler.c **** #ifdef CYBLE_HIDS_CLIENT
3065:Generated_Source\PSoC4/BLE_eventHandler.c ****     if((cyBle_disCount >= (uint8) CYBLE_SCDI_HIDS_REPORT_MAP) && (cyBle_disCount <= (uint8) CYBLE_S
3066:Generated_Source\PSoC4/BLE_eventHandler.c ****     {
3067:Generated_Source\PSoC4/BLE_eventHandler.c ****         if(cyBle_disCount == (uint8) CYBLE_SCDI_HIDS_REPORT_MAP)
3068:Generated_Source\PSoC4/BLE_eventHandler.c ****         {
3069:Generated_Source\PSoC4/BLE_eventHandler.c ****             if(cyBle_hidsc[disServiceIndex].reportMap.valueHandle != CYBLE_GATT_INVALID_ATTR_HANDLE
3070:Generated_Source\PSoC4/BLE_eventHandler.c ****             {
3071:Generated_Source\PSoC4/BLE_eventHandler.c ****                 charRange.startHandle = cyBle_hidsc[disServiceIndex].reportMap.valueHandle + 1u;
3072:Generated_Source\PSoC4/BLE_eventHandler.c ****                 charRange.endHandle = cyBle_hidsc[disServiceIndex].reportMap.endHandle;
3073:Generated_Source\PSoC4/BLE_eventHandler.c ****             }
3074:Generated_Source\PSoC4/BLE_eventHandler.c ****         }
3075:Generated_Source\PSoC4/BLE_eventHandler.c ****         else if(cyBle_disCount < (uint8) CYBLE_SCDI_HIDS_REPORT)
3076:Generated_Source\PSoC4/BLE_eventHandler.c ****         {
3077:Generated_Source\PSoC4/BLE_eventHandler.c ****             if(cyBle_hidsc[disServiceIndex].bootReport[cyBle_disCount -
3078:Generated_Source\PSoC4/BLE_eventHandler.c ****                 CYBLE_SCDI_HIDS_BOOT_KYBRD_IN_REP].valueHandle != CYBLE_GATT_INVALID_ATTR_HANDLE_VA
3079:Generated_Source\PSoC4/BLE_eventHandler.c ****             {
3080:Generated_Source\PSoC4/BLE_eventHandler.c ****                 charRange.startHandle = cyBle_hidsc[disServiceIndex].
3081:Generated_Source\PSoC4/BLE_eventHandler.c ****                             bootReport[cyBle_disCount - CYBLE_SCDI_HIDS_BOOT_KYBRD_IN_REP].valueHan
3082:Generated_Source\PSoC4/BLE_eventHandler.c ****                 charRange.endHandle = cyBle_hidsc[disServiceIndex].
3083:Generated_Source\PSoC4/BLE_eventHandler.c ****                             bootReport[cyBle_disCount - CYBLE_SCDI_HIDS_BOOT_KYBRD_IN_REP].endHandl
3084:Generated_Source\PSoC4/BLE_eventHandler.c ****             }
3085:Generated_Source\PSoC4/BLE_eventHandler.c ****         }
3086:Generated_Source\PSoC4/BLE_eventHandler.c ****         else
3087:Generated_Source\PSoC4/BLE_eventHandler.c ****         {
3088:Generated_Source\PSoC4/BLE_eventHandler.c ****             if(cyBle_hidsc[disServiceIndex].report[cyBle_disCount - CYBLE_SCDI_HIDS_REPORT].valueHa
3089:Generated_Source\PSoC4/BLE_eventHandler.c ****                 CYBLE_GATT_INVALID_ATTR_HANDLE_VALUE)
3090:Generated_Source\PSoC4/BLE_eventHandler.c ****             {
3091:Generated_Source\PSoC4/BLE_eventHandler.c ****                 charRange.startHandle = cyBle_hidsc[disServiceIndex].
3092:Generated_Source\PSoC4/BLE_eventHandler.c ****                             report[cyBle_disCount - CYBLE_SCDI_HIDS_REPORT].valueHandle + 1u;
3093:Generated_Source\PSoC4/BLE_eventHandler.c ****                 charRange.endHandle = cyBle_hidsc[disServiceIndex].
3094:Generated_Source\PSoC4/BLE_eventHandler.c ****                             report[cyBle_disCount - CYBLE_SCDI_HIDS_REPORT].endHandle;
3095:Generated_Source\PSoC4/BLE_eventHandler.c ****             }
3096:Generated_Source\PSoC4/BLE_eventHandler.c ****         }
3097:Generated_Source\PSoC4/BLE_eventHandler.c ****     }
3098:Generated_Source\PSoC4/BLE_eventHandler.c **** #endif /* CYBLE_HIDS_CLIENT */
3099:Generated_Source\PSoC4/BLE_eventHandler.c **** #ifdef CYBLE_HPS_CLIENT
3100:Generated_Source\PSoC4/BLE_eventHandler.c ****     if(cyBle_disCount == (uint8) CYBLE_SCDI_HPS_STATUS_CODE)
3101:Generated_Source\PSoC4/BLE_eventHandler.c ****     {
3102:Generated_Source\PSoC4/BLE_eventHandler.c ****         charRange.startHandle = cyBle_hpsc.charInfo[CYBLE_HPS_HTTP_STATUS_CODE].valueHandle + 1u;
3103:Generated_Source\PSoC4/BLE_eventHandler.c ****         charRange.endHandle = cyBle_serverInfo[CYBLE_SRVI_HPS].range.endHandle;
ARM GAS  C:\Users\run1009\AppData\Local\Temp\ccSZtXoF.s 			page 118


3104:Generated_Source\PSoC4/BLE_eventHandler.c ****     }
3105:Generated_Source\PSoC4/BLE_eventHandler.c **** #endif /* CYBLE_HPS_CLIENT */
3106:Generated_Source\PSoC4/BLE_eventHandler.c **** #ifdef CYBLE_HRS_CLIENT
3107:Generated_Source\PSoC4/BLE_eventHandler.c ****     if(cyBle_disCount == (uint8) CYBLE_SCDI_HRS_HRM)
3108:Generated_Source\PSoC4/BLE_eventHandler.c ****     {
3109:Generated_Source\PSoC4/BLE_eventHandler.c ****         charRange.startHandle = cyBle_hrsc.charInfo[CYBLE_HRS_HRM].valueHandle + 1u;
3110:Generated_Source\PSoC4/BLE_eventHandler.c ****         charRange.endHandle = cyBle_serverInfo[CYBLE_SRVI_HRS].range.endHandle;
3111:Generated_Source\PSoC4/BLE_eventHandler.c ****     }
3112:Generated_Source\PSoC4/BLE_eventHandler.c **** #endif /* CYBLE_HRS_CLIENT */
3113:Generated_Source\PSoC4/BLE_eventHandler.c **** #ifdef CYBLE_HTS_CLIENT
3114:Generated_Source\PSoC4/BLE_eventHandler.c ****     if((cyBle_disCount >= (uint8) CYBLE_SCDI_HTS_TEMP_MEASURE) && (cyBle_disCount <= (uint8) CYBLE_
3115:Generated_Source\PSoC4/BLE_eventHandler.c ****     {
3116:Generated_Source\PSoC4/BLE_eventHandler.c ****         charRange.startHandle = cyBle_htsc.charInfo[cyBle_disCount - CYBLE_SCDI_HTS_TEMP_MEASURE].v
3117:Generated_Source\PSoC4/BLE_eventHandler.c ****         charRange.endHandle = cyBle_htsc.charInfo[cyBle_disCount - CYBLE_SCDI_HTS_TEMP_MEASURE].end
3118:Generated_Source\PSoC4/BLE_eventHandler.c ****     }
3119:Generated_Source\PSoC4/BLE_eventHandler.c **** #endif /* CYBLE_HTS_CLIENT */
3120:Generated_Source\PSoC4/BLE_eventHandler.c **** #ifdef CYBLE_LNS_CLIENT
3121:Generated_Source\PSoC4/BLE_eventHandler.c ****     if((cyBle_disCount >= (uint8) CYBLE_SCDI_LNS_LS) && (cyBle_disCount <= (uint8) CYBLE_SCDI_LNS_N
3122:Generated_Source\PSoC4/BLE_eventHandler.c ****     {
3123:Generated_Source\PSoC4/BLE_eventHandler.c ****         uint8 charIdx = (cyBle_disCount - CYBLE_SCDI_LNS_LS) + 1u;
3124:Generated_Source\PSoC4/BLE_eventHandler.c ****         if(charIdx > (uint8) CYBLE_SCDI_LNS_LS)
3125:Generated_Source\PSoC4/BLE_eventHandler.c ****         {
3126:Generated_Source\PSoC4/BLE_eventHandler.c ****             charIdx++;
3127:Generated_Source\PSoC4/BLE_eventHandler.c ****         }
3128:Generated_Source\PSoC4/BLE_eventHandler.c ****         charRange.startHandle = cyBle_lnsc.charInfo[charIdx].valueHandle + 1u;
3129:Generated_Source\PSoC4/BLE_eventHandler.c ****         charRange.endHandle = cyBle_lnsc.charInfo[charIdx].endHandle;
3130:Generated_Source\PSoC4/BLE_eventHandler.c ****     }
3131:Generated_Source\PSoC4/BLE_eventHandler.c **** #endif /* CYBLE_LNS_CLIENT */
3132:Generated_Source\PSoC4/BLE_eventHandler.c **** #ifdef CYBLE_PASS_CLIENT
3133:Generated_Source\PSoC4/BLE_eventHandler.c ****     if((cyBle_disCount == (uint8) CYBLE_SCDI_PASS_AS) || (cyBle_disCount == (uint8) CYBLE_SCDI_PASS
3134:Generated_Source\PSoC4/BLE_eventHandler.c ****     {
3135:Generated_Source\PSoC4/BLE_eventHandler.c ****         charRange.startHandle = cyBle_passc.charInfo[cyBle_disCount - CYBLE_SCDI_PASS_AS].valueHand
3136:Generated_Source\PSoC4/BLE_eventHandler.c ****         charRange.endHandle = cyBle_passc.charInfo[cyBle_disCount - CYBLE_SCDI_PASS_AS].endHandle;
3137:Generated_Source\PSoC4/BLE_eventHandler.c ****     }
3138:Generated_Source\PSoC4/BLE_eventHandler.c **** #endif /* CYBLE_PASS_CLIENT */
3139:Generated_Source\PSoC4/BLE_eventHandler.c **** #ifdef CYBLE_PLXS_CLIENT
3140:Generated_Source\PSoC4/BLE_eventHandler.c ****     if((cyBle_disCount >= (uint8) CYBLE_SCDI_PLXS_SPOT_CHECK_MEASUREMENT) && 
3141:Generated_Source\PSoC4/BLE_eventHandler.c ****        (cyBle_disCount <= (uint8) CYBLE_SCDI_PLXS_RECORD_ACCESS_CONTROL_POINT))
3142:Generated_Source\PSoC4/BLE_eventHandler.c ****     {
3143:Generated_Source\PSoC4/BLE_eventHandler.c ****         charRange.startHandle = cyBle_plxsc.charInfo[cyBle_disCount - CYBLE_SCDI_PLXS_SPOT_CHECK_ME
3144:Generated_Source\PSoC4/BLE_eventHandler.c ****         charRange.endHandle = cyBle_plxsc.charInfo[cyBle_disCount - CYBLE_SCDI_PLXS_SPOT_CHECK_MEAS
3145:Generated_Source\PSoC4/BLE_eventHandler.c ****     }
3146:Generated_Source\PSoC4/BLE_eventHandler.c **** #endif /* CYBLE_PLXS_CLIENT */
3147:Generated_Source\PSoC4/BLE_eventHandler.c **** #ifdef CYBLE_RSCS_CLIENT
3148:Generated_Source\PSoC4/BLE_eventHandler.c ****     if((cyBle_disCount >= (uint8) CYBLE_SCDI_RSCS_RSC_MEASUREMENT) && 
3149:Generated_Source\PSoC4/BLE_eventHandler.c ****        (cyBle_disCount <= (uint8) CYBLE_SCDI_RSCS_SC_CONTROL_POINT))
3150:Generated_Source\PSoC4/BLE_eventHandler.c ****     {
3151:Generated_Source\PSoC4/BLE_eventHandler.c ****         charRange.startHandle = 
3152:Generated_Source\PSoC4/BLE_eventHandler.c ****             cyBle_rscsc.characteristics[cyBle_disCount - CYBLE_SCDI_RSCS_RSC_MEASUREMENT].charInfo.
3153:Generated_Source\PSoC4/BLE_eventHandler.c ****         charRange.endHandle = cyBle_rscsc.characteristics[cyBle_disCount - CYBLE_SCDI_RSCS_RSC_MEAS
3154:Generated_Source\PSoC4/BLE_eventHandler.c ****     }
3155:Generated_Source\PSoC4/BLE_eventHandler.c **** #endif /* CYBLE_RSCS_CLIENT */
3156:Generated_Source\PSoC4/BLE_eventHandler.c **** #ifdef CYBLE_SCPS_CLIENT
3157:Generated_Source\PSoC4/BLE_eventHandler.c ****     if(cyBle_disCount == (uint8) CYBLE_SCDI_SCPS_SCAN_REFRESH)
3158:Generated_Source\PSoC4/BLE_eventHandler.c ****     {
3159:Generated_Source\PSoC4/BLE_eventHandler.c ****         if(cyBle_scpsc.refreshChar.valueHandle != CYBLE_GATT_INVALID_ATTR_HANDLE_VALUE)
3160:Generated_Source\PSoC4/BLE_eventHandler.c ****         {
ARM GAS  C:\Users\run1009\AppData\Local\Temp\ccSZtXoF.s 			page 119


3161:Generated_Source\PSoC4/BLE_eventHandler.c ****             /* One descriptor is available per characteristic */
3162:Generated_Source\PSoC4/BLE_eventHandler.c ****             charRange.startHandle = cyBle_scpsc.refreshChar.valueHandle + 1u;
3163:Generated_Source\PSoC4/BLE_eventHandler.c ****             charRange.endHandle = cyBle_serverInfo[CYBLE_SRVI_SCPS].range.endHandle;
3164:Generated_Source\PSoC4/BLE_eventHandler.c ****         }
3165:Generated_Source\PSoC4/BLE_eventHandler.c ****     }
3166:Generated_Source\PSoC4/BLE_eventHandler.c **** #endif /* CYBLE_SCPS_CLIENT */
3167:Generated_Source\PSoC4/BLE_eventHandler.c **** #ifdef CYBLE_TPS_CLIENT
3168:Generated_Source\PSoC4/BLE_eventHandler.c ****     if(cyBle_disCount == (uint8) CYBLE_SCDI_TPS_TX_PWR_LEVEL)
3169:Generated_Source\PSoC4/BLE_eventHandler.c ****     {
3170:Generated_Source\PSoC4/BLE_eventHandler.c ****         if(cyBle_tpsc.txPowerLevelChar.valueHandle != CYBLE_GATT_INVALID_ATTR_HANDLE_VALUE)
3171:Generated_Source\PSoC4/BLE_eventHandler.c ****         {
3172:Generated_Source\PSoC4/BLE_eventHandler.c ****             /* One descriptor is available per service */
3173:Generated_Source\PSoC4/BLE_eventHandler.c ****             charRange.startHandle = cyBle_tpsc.txPowerLevelChar.valueHandle + 1u;
3174:Generated_Source\PSoC4/BLE_eventHandler.c ****             charRange.endHandle = cyBle_serverInfo[CYBLE_SRVI_TPS].range.endHandle;
3175:Generated_Source\PSoC4/BLE_eventHandler.c ****         }
3176:Generated_Source\PSoC4/BLE_eventHandler.c ****     }
3177:Generated_Source\PSoC4/BLE_eventHandler.c **** #endif /* CYBLE_TPS_CLIENT */
3178:Generated_Source\PSoC4/BLE_eventHandler.c **** #ifdef CYBLE_UDS_CLIENT
3179:Generated_Source\PSoC4/BLE_eventHandler.c ****     if((cyBle_disCount == (uint8) CYBLE_SCDI_UDS_DCI) || (cyBle_disCount == (uint8) CYBLE_SCDI_UDS_
3180:Generated_Source\PSoC4/BLE_eventHandler.c ****     {
3181:Generated_Source\PSoC4/BLE_eventHandler.c ****         uint8 charIdx;
3182:Generated_Source\PSoC4/BLE_eventHandler.c ****         if(cyBle_disCount == (uint8)CYBLE_SCDI_UDS_DCI)
3183:Generated_Source\PSoC4/BLE_eventHandler.c ****         {
3184:Generated_Source\PSoC4/BLE_eventHandler.c ****             charIdx = (uint8)CYBLE_UDS_DCI;
3185:Generated_Source\PSoC4/BLE_eventHandler.c ****         }
3186:Generated_Source\PSoC4/BLE_eventHandler.c ****         else
3187:Generated_Source\PSoC4/BLE_eventHandler.c ****         {
3188:Generated_Source\PSoC4/BLE_eventHandler.c ****             charIdx = (uint8)CYBLE_UDS_UCP;
3189:Generated_Source\PSoC4/BLE_eventHandler.c ****         }
3190:Generated_Source\PSoC4/BLE_eventHandler.c ****         
3191:Generated_Source\PSoC4/BLE_eventHandler.c ****         charRange.startHandle = cyBle_udsc.charInfo[charIdx].valueHandle + 1u;
3192:Generated_Source\PSoC4/BLE_eventHandler.c ****         charRange.endHandle = cyBle_udsc.charInfo[charIdx].endHandle;
3193:Generated_Source\PSoC4/BLE_eventHandler.c ****     }
3194:Generated_Source\PSoC4/BLE_eventHandler.c **** #endif /* CYBLE_UDS_CLIENT */
3195:Generated_Source\PSoC4/BLE_eventHandler.c **** #ifdef CYBLE_WPTS_CLIENT
3196:Generated_Source\PSoC4/BLE_eventHandler.c ****     if((cyBle_disCount == (uint8) CYBLE_SCDI_WPTS_PRU_ALERT))
3197:Generated_Source\PSoC4/BLE_eventHandler.c ****     {
3198:Generated_Source\PSoC4/BLE_eventHandler.c ****         charRange.startHandle = cyBle_wptsc.charInfo[CYBLE_WPTS_PRU_ALERT].valueHandle + 1u;
3199:Generated_Source\PSoC4/BLE_eventHandler.c ****         charRange.endHandle = cyBle_wptsc.charInfo[CYBLE_WPTS_PRU_ALERT].endHandle;
3200:Generated_Source\PSoC4/BLE_eventHandler.c ****     }
3201:Generated_Source\PSoC4/BLE_eventHandler.c **** #endif /* CYBLE_WPTS_CLIENT */
3202:Generated_Source\PSoC4/BLE_eventHandler.c **** #ifdef CYBLE_WSS_CLIENT
3203:Generated_Source\PSoC4/BLE_eventHandler.c ****     if((cyBle_disCount >= (uint8) CYBLE_SCDI_WSS_WEIGHT_SCALE_FEATURE) &&
3204:Generated_Source\PSoC4/BLE_eventHandler.c ****        (cyBle_disCount <= (uint8) CYBLE_SCDI_WSS_WEIGHT_WEIGHT_MEASUREMENT))
3205:Generated_Source\PSoC4/BLE_eventHandler.c ****     {
3206:Generated_Source\PSoC4/BLE_eventHandler.c ****         charRange.startHandle = cyBle_wssc.charInfo[cyBle_disCount-CYBLE_SCDI_WSS_WEIGHT_SCALE_FEAT
3207:Generated_Source\PSoC4/BLE_eventHandler.c ****         charRange.endHandle = cyBle_wssc.charInfo[cyBle_disCount-CYBLE_SCDI_WSS_WEIGHT_SCALE_FEATUR
3208:Generated_Source\PSoC4/BLE_eventHandler.c ****     }
3209:Generated_Source\PSoC4/BLE_eventHandler.c **** #endif /* CYBLE_WSS_CLIENT */
3210:Generated_Source\PSoC4/BLE_eventHandler.c **** 
3211:Generated_Source\PSoC4/BLE_eventHandler.c ****     return (charRange);
 3433              		.loc 1 3211 0
 3434 002e 3B1D     		adds	r3, r7, #4
 3435 0030 3A00     		movs	r2, r7
 3436 0032 1268     		ldr	r2, [r2]
 3437 0034 1A60     		str	r2, [r3]
 3438 0036 3A1D     		adds	r2, r7, #4
ARM GAS  C:\Users\run1009\AppData\Local\Temp\ccSZtXoF.s 			page 120


 3439 0038 0023     		movs	r3, #0
 3440 003a 1188     		ldrh	r1, [r2]
 3441 003c 0904     		lsls	r1, r1, #16
 3442 003e 090C     		lsrs	r1, r1, #16
 3443 0040 1B0C     		lsrs	r3, r3, #16
 3444 0042 1B04     		lsls	r3, r3, #16
 3445 0044 0B43     		orrs	r3, r1
 3446 0046 5288     		ldrh	r2, [r2, #2]
 3447 0048 1204     		lsls	r2, r2, #16
 3448 004a 1B04     		lsls	r3, r3, #16
 3449 004c 1B0C     		lsrs	r3, r3, #16
 3450 004e 1343     		orrs	r3, r2
3212:Generated_Source\PSoC4/BLE_eventHandler.c **** }
 3451              		.loc 1 3212 0
 3452 0050 1800     		movs	r0, r3
 3453 0052 BD46     		mov	sp, r7
 3454 0054 02B0     		add	sp, sp, #8
 3455              		@ sp needed
 3456 0056 80BD     		pop	{r7, pc}
 3457              	.L235:
 3458              		.align	2
 3459              	.L234:
 3460 0058 00000000 		.word	cyBle_disCount
 3461 005c 00000000 		.word	cyBle_gattc
 3462 0060 00000000 		.word	cyBle_serverInfo
 3463              		.cfi_endproc
 3464              	.LFE21:
 3465              		.size	CyBle_GetCharRange, .-CyBle_GetCharRange
 3466              		.section	.text.CyBle_FindInfoEventHandler,"ax",%progbits
 3467              		.align	2
 3468              		.global	CyBle_FindInfoEventHandler
 3469              		.code	16
 3470              		.thumb_func
 3471              		.type	CyBle_FindInfoEventHandler, %function
 3472              	CyBle_FindInfoEventHandler:
 3473              	.LFB22:
3213:Generated_Source\PSoC4/BLE_eventHandler.c **** 
3214:Generated_Source\PSoC4/BLE_eventHandler.c **** 
3215:Generated_Source\PSoC4/BLE_eventHandler.c **** /****************************************************************************** 
3216:Generated_Source\PSoC4/BLE_eventHandler.c **** * Function Name: CyBle_FindInfoEventHandler
3217:Generated_Source\PSoC4/BLE_eventHandler.c **** ***************************************************************************//**
3218:Generated_Source\PSoC4/BLE_eventHandler.c **** *  Handles the Find Info Response Event during an automatic server discovery
3219:Generated_Source\PSoC4/BLE_eventHandler.c **** *  process.
3220:Generated_Source\PSoC4/BLE_eventHandler.c **** * 
3221:Generated_Source\PSoC4/BLE_eventHandler.c **** *  \param eventParam:  the event parameters for a Find Info Response
3222:Generated_Source\PSoC4/BLE_eventHandler.c **** * 
3223:Generated_Source\PSoC4/BLE_eventHandler.c **** * \return
3224:Generated_Source\PSoC4/BLE_eventHandler.c **** *  None.
3225:Generated_Source\PSoC4/BLE_eventHandler.c **** * 
3226:Generated_Source\PSoC4/BLE_eventHandler.c **** ******************************************************************************/
3227:Generated_Source\PSoC4/BLE_eventHandler.c **** void CyBle_FindInfoEventHandler(CYBLE_GATTC_FIND_INFO_RSP_PARAM_T *eventParam)
3228:Generated_Source\PSoC4/BLE_eventHandler.c **** {
 3474              		.loc 1 3228 0
 3475              		.cfi_startproc
 3476              		@ args = 0, pretend = 0, frame = 40
 3477              		@ frame_needed = 1, uses_anonymous_args = 0
 3478 0000 80B5     		push	{r7, lr}
ARM GAS  C:\Users\run1009\AppData\Local\Temp\ccSZtXoF.s 			page 121


 3479              		.cfi_def_cfa_offset 8
 3480              		.cfi_offset 7, -8
 3481              		.cfi_offset 14, -4
 3482 0002 8AB0     		sub	sp, sp, #40
 3483              		.cfi_def_cfa_offset 48
 3484 0004 00AF     		add	r7, sp, #0
 3485              		.cfi_def_cfa_register 7
 3486 0006 7860     		str	r0, [r7, #4]
3229:Generated_Source\PSoC4/BLE_eventHandler.c ****     uint16 dataLength;
3230:Generated_Source\PSoC4/BLE_eventHandler.c ****     uint16 attrLength;
3231:Generated_Source\PSoC4/BLE_eventHandler.c ****     uint16 i;
3232:Generated_Source\PSoC4/BLE_eventHandler.c ****     uint8 *attrVal;
3233:Generated_Source\PSoC4/BLE_eventHandler.c **** 
3234:Generated_Source\PSoC4/BLE_eventHandler.c ****     /* Discovery descriptor information */
3235:Generated_Source\PSoC4/BLE_eventHandler.c ****     CYBLE_DISC_DESCR_INFO_T discDescrInfo;
3236:Generated_Source\PSoC4/BLE_eventHandler.c ****     discDescrInfo.descrHandle = CYBLE_GATT_INVALID_ATTR_HANDLE_VALUE;
 3487              		.loc 1 3236 0
 3488 0008 0823     		movs	r3, #8
 3489 000a FB18     		adds	r3, r7, r3
 3490 000c 0022     		movs	r2, #0
 3491 000e 5A80     		strh	r2, [r3, #2]
3237:Generated_Source\PSoC4/BLE_eventHandler.c **** 
3238:Generated_Source\PSoC4/BLE_eventHandler.c ****     if((CyBle_GetClientState() == CYBLE_CLIENT_STATE_DESCR_DISCOVERING) 
 3492              		.loc 1 3238 0
 3493 0010 4A4B     		ldr	r3, .L247
 3494 0012 1B78     		ldrb	r3, [r3]
 3495 0014 042B     		cmp	r3, #4
 3496 0016 00D0     		beq	.LCB2998
 3497 0018 8BE0     		b	.L246	@long jump
 3498              	.LCB2998:
3239:Generated_Source\PSoC4/BLE_eventHandler.c ****             && ((cyBle_eventHandlerFlag & CYBLE_AUTO_DISCOVERY) != 0u))
 3499              		.loc 1 3239 0
 3500 001a 494B     		ldr	r3, .L247+4
 3501 001c 1B78     		ldrb	r3, [r3]
 3502 001e DBB2     		uxtb	r3, r3
 3503 0020 1A00     		movs	r2, r3
 3504 0022 0223     		movs	r3, #2
 3505 0024 1340     		ands	r3, r2
 3506 0026 00D1     		bne	.LCB3006
 3507 0028 83E0     		b	.L246	@long jump
 3508              	.LCB3006:
3240:Generated_Source\PSoC4/BLE_eventHandler.c ****     {
3241:Generated_Source\PSoC4/BLE_eventHandler.c ****         attrLength = eventParam->handleValueList.byteCount;    /* Number of elements on list in byt
 3509              		.loc 1 3241 0
 3510 002a 1E23     		movs	r3, #30
 3511 002c FB18     		adds	r3, r7, r3
 3512 002e 7A68     		ldr	r2, [r7, #4]
 3513 0030 1289     		ldrh	r2, [r2, #8]
 3514 0032 1A80     		strh	r2, [r3]
3242:Generated_Source\PSoC4/BLE_eventHandler.c ****         discDescrInfo.uuidFormat = eventParam->uuidFormat;
 3515              		.loc 1 3242 0
 3516 0034 7B68     		ldr	r3, [r7, #4]
 3517 0036 1A7B     		ldrb	r2, [r3, #12]
 3518 0038 0823     		movs	r3, #8
 3519 003a FB18     		adds	r3, r7, r3
 3520 003c 1A75     		strb	r2, [r3, #20]
3243:Generated_Source\PSoC4/BLE_eventHandler.c ****         discDescrInfo.connHandle = eventParam->connHandle;
ARM GAS  C:\Users\run1009\AppData\Local\Temp\ccSZtXoF.s 			page 122


 3521              		.loc 1 3243 0
 3522 003e 0823     		movs	r3, #8
 3523 0040 FB18     		adds	r3, r7, r3
 3524 0042 7A68     		ldr	r2, [r7, #4]
 3525 0044 1288     		ldrh	r2, [r2]
 3526 0046 1A80     		strh	r2, [r3]
3244:Generated_Source\PSoC4/BLE_eventHandler.c **** 
3245:Generated_Source\PSoC4/BLE_eventHandler.c ****         if(discDescrInfo.uuidFormat == CYBLE_GATT_16_BIT_UUID_FORMAT)
 3527              		.loc 1 3245 0
 3528 0048 0823     		movs	r3, #8
 3529 004a FB18     		adds	r3, r7, r3
 3530 004c 1B7D     		ldrb	r3, [r3, #20]
 3531 004e 012B     		cmp	r3, #1
 3532 0050 04D1     		bne	.L238
3246:Generated_Source\PSoC4/BLE_eventHandler.c ****         {
3247:Generated_Source\PSoC4/BLE_eventHandler.c ****             dataLength = CYBLE_DB_ATTR_HANDLE_LEN + CYBLE_GATT_16_BIT_UUID_SIZE;
 3533              		.loc 1 3247 0
 3534 0052 2623     		movs	r3, #38
 3535 0054 FB18     		adds	r3, r7, r3
 3536 0056 0422     		movs	r2, #4
 3537 0058 1A80     		strh	r2, [r3]
 3538 005a 03E0     		b	.L239
 3539              	.L238:
3248:Generated_Source\PSoC4/BLE_eventHandler.c ****         }
3249:Generated_Source\PSoC4/BLE_eventHandler.c ****         else
3250:Generated_Source\PSoC4/BLE_eventHandler.c ****         {
3251:Generated_Source\PSoC4/BLE_eventHandler.c ****             dataLength = CYBLE_DB_ATTR_HANDLE_LEN + CYBLE_GATT_128_BIT_UUID_SIZE;
 3540              		.loc 1 3251 0
 3541 005c 2623     		movs	r3, #38
 3542 005e FB18     		adds	r3, r7, r3
 3543 0060 1222     		movs	r2, #18
 3544 0062 1A80     		strh	r2, [r3]
 3545              	.L239:
3252:Generated_Source\PSoC4/BLE_eventHandler.c ****         }
3253:Generated_Source\PSoC4/BLE_eventHandler.c ****         attrVal = eventParam->handleValueList.list;
 3546              		.loc 1 3253 0
 3547 0064 7B68     		ldr	r3, [r7, #4]
 3548 0066 5B68     		ldr	r3, [r3, #4]
 3549 0068 3B62     		str	r3, [r7, #32]
3254:Generated_Source\PSoC4/BLE_eventHandler.c **** 
3255:Generated_Source\PSoC4/BLE_eventHandler.c ****         for(i = 0u; i < attrLength; i += dataLength)
 3550              		.loc 1 3255 0
 3551 006a 2423     		movs	r3, #36
 3552 006c FB18     		adds	r3, r7, r3
 3553 006e 0022     		movs	r2, #0
 3554 0070 1A80     		strh	r2, [r3]
 3555 0072 4EE0     		b	.L240
 3556              	.L245:
3256:Generated_Source\PSoC4/BLE_eventHandler.c ****         {
3257:Generated_Source\PSoC4/BLE_eventHandler.c ****             discDescrInfo.descrHandle = CyBle_Get16ByPtr(attrVal);
 3557              		.loc 1 3257 0
 3558 0074 3B6A     		ldr	r3, [r7, #32]
 3559 0076 1800     		movs	r0, r3
 3560 0078 FFF7FEFF 		bl	CyBle_Get16ByPtr
 3561 007c 0300     		movs	r3, r0
 3562 007e 1A00     		movs	r2, r3
 3563 0080 0823     		movs	r3, #8
ARM GAS  C:\Users\run1009\AppData\Local\Temp\ccSZtXoF.s 			page 123


 3564 0082 FB18     		adds	r3, r7, r3
 3565 0084 5A80     		strh	r2, [r3, #2]
3258:Generated_Source\PSoC4/BLE_eventHandler.c ****             attrVal += CYBLE_DB_ATTR_HANDLE_LEN;
 3566              		.loc 1 3258 0
 3567 0086 3B6A     		ldr	r3, [r7, #32]
 3568 0088 0233     		adds	r3, r3, #2
 3569 008a 3B62     		str	r3, [r7, #32]
3259:Generated_Source\PSoC4/BLE_eventHandler.c ****             if(discDescrInfo.uuidFormat == CYBLE_GATT_128_BIT_UUID_FORMAT)
 3570              		.loc 1 3259 0
 3571 008c 0823     		movs	r3, #8
 3572 008e FB18     		adds	r3, r7, r3
 3573 0090 1B7D     		ldrb	r3, [r3, #20]
 3574 0092 022B     		cmp	r3, #2
 3575 0094 15D1     		bne	.L241
3260:Generated_Source\PSoC4/BLE_eventHandler.c ****             {
3261:Generated_Source\PSoC4/BLE_eventHandler.c ****                 (void)memcpy(&discDescrInfo.uuid.uuid128, attrVal, CYBLE_GATT_128_BIT_UUID_SIZE);
 3576              		.loc 1 3261 0
 3577 0096 0823     		movs	r3, #8
 3578 0098 FB18     		adds	r3, r7, r3
 3579 009a 3A6A     		ldr	r2, [r7, #32]
 3580 009c 0433     		adds	r3, r3, #4
 3581 009e 1100     		movs	r1, r2
 3582 00a0 1022     		movs	r2, #16
 3583 00a2 1800     		movs	r0, r3
 3584 00a4 FFF7FEFF 		bl	memcpy
3262:Generated_Source\PSoC4/BLE_eventHandler.c ****                 attrVal += CYBLE_GATT_128_BIT_UUID_SIZE;
 3585              		.loc 1 3262 0
 3586 00a8 3B6A     		ldr	r3, [r7, #32]
 3587 00aa 1033     		adds	r3, r3, #16
 3588 00ac 3B62     		str	r3, [r7, #32]
3263:Generated_Source\PSoC4/BLE_eventHandler.c ****                 #ifdef CYBLE_CUSTOM_CLIENT
3264:Generated_Source\PSoC4/BLE_eventHandler.c ****                     if(cyBle_disCount == (uint8) CYBLE_SCDI_CUSTOM_CHARACTERISTICS)
 3589              		.loc 1 3264 0
 3590 00ae 254B     		ldr	r3, .L247+8
 3591 00b0 1B78     		ldrb	r3, [r3]
 3592 00b2 012B     		cmp	r3, #1
 3593 00b4 23D1     		bne	.L243
3265:Generated_Source\PSoC4/BLE_eventHandler.c ****                     {
3266:Generated_Source\PSoC4/BLE_eventHandler.c ****                         CyBle_CustomcDiscoverCharDescriptorsEventHandler(&discDescrInfo);
 3594              		.loc 1 3266 0
 3595 00b6 0823     		movs	r3, #8
 3596 00b8 FB18     		adds	r3, r7, r3
 3597 00ba 1800     		movs	r0, r3
 3598 00bc FFF7FEFF 		bl	CyBle_CustomcDiscoverCharDescriptorsEventHandler
 3599 00c0 1DE0     		b	.L243
 3600              	.L241:
3267:Generated_Source\PSoC4/BLE_eventHandler.c ****                     }
3268:Generated_Source\PSoC4/BLE_eventHandler.c ****                 #endif /* CYBLE_CUSTOM_CLIENT */
3269:Generated_Source\PSoC4/BLE_eventHandler.c ****             }
3270:Generated_Source\PSoC4/BLE_eventHandler.c ****             else
3271:Generated_Source\PSoC4/BLE_eventHandler.c ****             {
3272:Generated_Source\PSoC4/BLE_eventHandler.c ****                 discDescrInfo.uuid.uuid16 = CyBle_Get16ByPtr(attrVal);
 3601              		.loc 1 3272 0
 3602 00c2 3B6A     		ldr	r3, [r7, #32]
 3603 00c4 1800     		movs	r0, r3
 3604 00c6 FFF7FEFF 		bl	CyBle_Get16ByPtr
 3605 00ca 0300     		movs	r3, r0
ARM GAS  C:\Users\run1009\AppData\Local\Temp\ccSZtXoF.s 			page 124


 3606 00cc 1A00     		movs	r2, r3
 3607 00ce 0823     		movs	r3, #8
 3608 00d0 FB18     		adds	r3, r7, r3
 3609 00d2 9A80     		strh	r2, [r3, #4]
3273:Generated_Source\PSoC4/BLE_eventHandler.c ****                 attrVal += CYBLE_GATT_16_BIT_UUID_SIZE;
 3610              		.loc 1 3273 0
 3611 00d4 3B6A     		ldr	r3, [r7, #32]
 3612 00d6 0233     		adds	r3, r3, #2
 3613 00d8 3B62     		str	r3, [r7, #32]
3274:Generated_Source\PSoC4/BLE_eventHandler.c ****                 
3275:Generated_Source\PSoC4/BLE_eventHandler.c ****                 if(cyBle_disCount == (uint8) CYBLE_SCDI_GATT_SERVICE_CHANGED)
 3614              		.loc 1 3275 0
 3615 00da 1A4B     		ldr	r3, .L247+8
 3616 00dc 1B78     		ldrb	r3, [r3]
 3617 00de 002B     		cmp	r3, #0
 3618 00e0 04D1     		bne	.L244
3276:Generated_Source\PSoC4/BLE_eventHandler.c ****                 {
3277:Generated_Source\PSoC4/BLE_eventHandler.c ****                     CyBle_GattcDiscoverCharDescriptorsEventHandler(&discDescrInfo);
 3619              		.loc 1 3277 0
 3620 00e2 0823     		movs	r3, #8
 3621 00e4 FB18     		adds	r3, r7, r3
 3622 00e6 1800     		movs	r0, r3
 3623 00e8 FFF7FEFF 		bl	CyBle_GattcDiscoverCharDescriptorsEventHandler
 3624              	.L244:
3278:Generated_Source\PSoC4/BLE_eventHandler.c ****                 }
3279:Generated_Source\PSoC4/BLE_eventHandler.c ****                 
3280:Generated_Source\PSoC4/BLE_eventHandler.c ****                 #ifdef CYBLE_AIOS_CLIENT
3281:Generated_Source\PSoC4/BLE_eventHandler.c ****                     if((cyBle_disCount >= (uint8) CYBLE_SCDI_AIOS_DIGITAL) &&
3282:Generated_Source\PSoC4/BLE_eventHandler.c ****                         (cyBle_disCount <= (uint8) CYBLE_SCDI_AIOS_END_CHAR))
3283:Generated_Source\PSoC4/BLE_eventHandler.c ****                     {
3284:Generated_Source\PSoC4/BLE_eventHandler.c ****                         CyBle_AioscDiscoverCharDescriptorsEventHandler(&discDescrInfo);
3285:Generated_Source\PSoC4/BLE_eventHandler.c ****                     }
3286:Generated_Source\PSoC4/BLE_eventHandler.c ****                 #endif /* CYBLE_AIOS_CLIENT */
3287:Generated_Source\PSoC4/BLE_eventHandler.c ****                 
3288:Generated_Source\PSoC4/BLE_eventHandler.c ****                 #ifdef CYBLE_ANCS_CLIENT
3289:Generated_Source\PSoC4/BLE_eventHandler.c ****                     if((cyBle_disCount == (uint8) CYBLE_SCDI_ANCS_NS) ||
3290:Generated_Source\PSoC4/BLE_eventHandler.c ****                         (cyBle_disCount == (uint8) CYBLE_SCDI_ANCS_DS))
3291:Generated_Source\PSoC4/BLE_eventHandler.c ****                     {
3292:Generated_Source\PSoC4/BLE_eventHandler.c ****                         CyBle_AncscDiscoverCharDescriptorsEventHandler(&discDescrInfo);
3293:Generated_Source\PSoC4/BLE_eventHandler.c ****                     }
3294:Generated_Source\PSoC4/BLE_eventHandler.c ****                 #endif /* CYBLE_ANCS_CLIENT */
3295:Generated_Source\PSoC4/BLE_eventHandler.c ****                 
3296:Generated_Source\PSoC4/BLE_eventHandler.c ****                 #ifdef CYBLE_ANS_CLIENT
3297:Generated_Source\PSoC4/BLE_eventHandler.c ****                     if((cyBle_disCount >= (uint8) CYBLE_SCDI_ANS_SUPPORTED_NEW_ALERT_CAT) &&
3298:Generated_Source\PSoC4/BLE_eventHandler.c ****                         (cyBle_disCount <= (uint8) CYBLE_SCDI_ANS_ALERT_NTF_CONTROL_POINT))
3299:Generated_Source\PSoC4/BLE_eventHandler.c ****                     {
3300:Generated_Source\PSoC4/BLE_eventHandler.c ****                         CyBle_AnscDiscoverCharDescriptorsEventHandler(&discDescrInfo);
3301:Generated_Source\PSoC4/BLE_eventHandler.c ****                     }
3302:Generated_Source\PSoC4/BLE_eventHandler.c ****                 #endif /* CYBLE_ANS_CLIENT */
3303:Generated_Source\PSoC4/BLE_eventHandler.c ****                 
3304:Generated_Source\PSoC4/BLE_eventHandler.c ****                 #ifdef CYBLE_BAS_CLIENT
3305:Generated_Source\PSoC4/BLE_eventHandler.c ****                     if((cyBle_disCount >= (uint8) CYBLE_SCDI_BAS_LEVEL) &&
3306:Generated_Source\PSoC4/BLE_eventHandler.c ****                         (cyBle_disCount <= (uint8) CYBLE_SCDI_BAS_LEVEL_END))
3307:Generated_Source\PSoC4/BLE_eventHandler.c ****                     {
3308:Generated_Source\PSoC4/BLE_eventHandler.c ****                         CyBle_BascDiscoverCharDescriptorsEventHandler(cyBle_disCount - CYBLE_SCDI_B
3309:Generated_Source\PSoC4/BLE_eventHandler.c ****                                                                       &discDescrInfo);
3310:Generated_Source\PSoC4/BLE_eventHandler.c ****                     }
ARM GAS  C:\Users\run1009\AppData\Local\Temp\ccSZtXoF.s 			page 125


3311:Generated_Source\PSoC4/BLE_eventHandler.c ****                 #endif /* CYBLE_BAS_CLIENT */
3312:Generated_Source\PSoC4/BLE_eventHandler.c ****                 
3313:Generated_Source\PSoC4/BLE_eventHandler.c ****                 #ifdef CYBLE_BCS_CLIENT
3314:Generated_Source\PSoC4/BLE_eventHandler.c ****                     if((cyBle_disCount == (uint8) CYBLE_SCDI_BCS_BODY_COMPOSITION_FEATURE) ||
3315:Generated_Source\PSoC4/BLE_eventHandler.c ****                         (cyBle_disCount == (uint8) CYBLE_SCDI_BCS_BODY_COMPOSITION_MEASUREMENT))
3316:Generated_Source\PSoC4/BLE_eventHandler.c ****                     {
3317:Generated_Source\PSoC4/BLE_eventHandler.c ****                         CyBle_BcscDiscoverCharDescriptorsEventHandler(&discDescrInfo);
3318:Generated_Source\PSoC4/BLE_eventHandler.c ****                     }
3319:Generated_Source\PSoC4/BLE_eventHandler.c ****                 #endif /* CYBLE_BCS_CLIENT */
3320:Generated_Source\PSoC4/BLE_eventHandler.c ****                 
3321:Generated_Source\PSoC4/BLE_eventHandler.c ****                 #ifdef CYBLE_BLS_CLIENT
3322:Generated_Source\PSoC4/BLE_eventHandler.c ****                     if((cyBle_disCount == (uint8) CYBLE_SCDI_BLS_BPM) || (cyBle_disCount == (uint8)
3323:Generated_Source\PSoC4/BLE_eventHandler.c ****                     {
3324:Generated_Source\PSoC4/BLE_eventHandler.c ****                         CyBle_BlscDiscoverCharDescriptorsEventHandler(&discDescrInfo);
3325:Generated_Source\PSoC4/BLE_eventHandler.c ****                     }
3326:Generated_Source\PSoC4/BLE_eventHandler.c ****                 #endif /* CYBLE_BLS_CLIENT */
3327:Generated_Source\PSoC4/BLE_eventHandler.c ****                 
3328:Generated_Source\PSoC4/BLE_eventHandler.c ****                 #ifdef CYBLE_BMS_CLIENT
3329:Generated_Source\PSoC4/BLE_eventHandler.c ****                     if(cyBle_disCount == (uint8) CYBLE_SCDI_BMS_BMCP)
3330:Generated_Source\PSoC4/BLE_eventHandler.c ****                     {
3331:Generated_Source\PSoC4/BLE_eventHandler.c ****                         CyBle_BmscDiscoverCharDescriptorsEventHandler(&discDescrInfo);
3332:Generated_Source\PSoC4/BLE_eventHandler.c ****                     }
3333:Generated_Source\PSoC4/BLE_eventHandler.c ****                 #endif /* CYBLE_BMS_CLIENT */
3334:Generated_Source\PSoC4/BLE_eventHandler.c ****                 
3335:Generated_Source\PSoC4/BLE_eventHandler.c ****                 #ifdef CYBLE_CGMS_CLIENT
3336:Generated_Source\PSoC4/BLE_eventHandler.c ****                     if((cyBle_disCount >= (uint8) CYBLE_SCDI_CGMS_CGMT) &&
3337:Generated_Source\PSoC4/BLE_eventHandler.c ****                         (cyBle_disCount <= (uint8) CYBLE_SCDI_CGMS_SOCP))
3338:Generated_Source\PSoC4/BLE_eventHandler.c ****                     {
3339:Generated_Source\PSoC4/BLE_eventHandler.c ****                         CyBle_CgmscDiscoverCharDescriptorsEventHandler(&discDescrInfo);
3340:Generated_Source\PSoC4/BLE_eventHandler.c ****                     }
3341:Generated_Source\PSoC4/BLE_eventHandler.c ****                 #endif /* CYBLE_CGMS_CLIENT */
3342:Generated_Source\PSoC4/BLE_eventHandler.c **** 
3343:Generated_Source\PSoC4/BLE_eventHandler.c ****                 #ifdef CYBLE_CPS_CLIENT
3344:Generated_Source\PSoC4/BLE_eventHandler.c ****                     if((cyBle_disCount >= (uint8) CYBLE_SCDI_CPS_POWER_MEASURE) &&
3345:Generated_Source\PSoC4/BLE_eventHandler.c ****                         (cyBle_disCount <= (uint8)CYBLE_SCDI_CPS_POWER_CP))
3346:Generated_Source\PSoC4/BLE_eventHandler.c ****                     {
3347:Generated_Source\PSoC4/BLE_eventHandler.c ****                         uint8 charIdx = cyBle_disCount - CYBLE_SCDI_CPS_POWER_MEASURE;
3348:Generated_Source\PSoC4/BLE_eventHandler.c ****                         CyBle_CpscDiscoverCharDescriptorsEventHandler((CYBLE_CPS_CHAR_INDEX_T)charI
3349:Generated_Source\PSoC4/BLE_eventHandler.c ****                     }
3350:Generated_Source\PSoC4/BLE_eventHandler.c ****                 #endif /* CYBLE_CPS_CLIENT */
3351:Generated_Source\PSoC4/BLE_eventHandler.c **** 
3352:Generated_Source\PSoC4/BLE_eventHandler.c ****                 #ifdef CYBLE_CSCS_CLIENT
3353:Generated_Source\PSoC4/BLE_eventHandler.c ****                     if((cyBle_disCount >= (uint8) CYBLE_SCDI_CSCS_CSC_MEASUREMENT) && 
3354:Generated_Source\PSoC4/BLE_eventHandler.c ****                        (cyBle_disCount <= (uint8) CYBLE_SCDI_CSCS_SC_CONTROL_POINT))
3355:Generated_Source\PSoC4/BLE_eventHandler.c ****                     {
3356:Generated_Source\PSoC4/BLE_eventHandler.c ****                         if(cyBle_disCount == (uint8) CYBLE_SCDI_CSCS_CSC_MEASUREMENT)
3357:Generated_Source\PSoC4/BLE_eventHandler.c ****                         {
3358:Generated_Source\PSoC4/BLE_eventHandler.c ****                             /* The CCC descriptor of CSC Measurement is currently discovering */
3359:Generated_Source\PSoC4/BLE_eventHandler.c ****                             CyBle_CscscDiscoverCharDescriptorsEventHandler(CYBLE_CSCS_CSC_MEASUREME
3360:Generated_Source\PSoC4/BLE_eventHandler.c ****                         }
3361:Generated_Source\PSoC4/BLE_eventHandler.c ****                         else if(cyBle_disCount == (uint8) CYBLE_SCDI_CSCS_SC_CONTROL_POINT)
3362:Generated_Source\PSoC4/BLE_eventHandler.c ****                         {
3363:Generated_Source\PSoC4/BLE_eventHandler.c ****                             /* The CCC descriptor of SC Control Point is currently discovering */
3364:Generated_Source\PSoC4/BLE_eventHandler.c ****                             CyBle_CscscDiscoverCharDescriptorsEventHandler(CYBLE_CSCS_SC_CONTROL_PO
3365:Generated_Source\PSoC4/BLE_eventHandler.c ****                         }
3366:Generated_Source\PSoC4/BLE_eventHandler.c ****                         else
3367:Generated_Source\PSoC4/BLE_eventHandler.c ****                         {
ARM GAS  C:\Users\run1009\AppData\Local\Temp\ccSZtXoF.s 			page 126


3368:Generated_Source\PSoC4/BLE_eventHandler.c ****                             /* No other descriptors are present for CSCS */
3369:Generated_Source\PSoC4/BLE_eventHandler.c ****                         }
3370:Generated_Source\PSoC4/BLE_eventHandler.c ****                     }
3371:Generated_Source\PSoC4/BLE_eventHandler.c ****                 #endif /* CYBLE_CSCS_CLIENT */
3372:Generated_Source\PSoC4/BLE_eventHandler.c ****                 
3373:Generated_Source\PSoC4/BLE_eventHandler.c ****                 #ifdef CYBLE_CTS_CLIENT
3374:Generated_Source\PSoC4/BLE_eventHandler.c ****                     if(cyBle_disCount == (uint8) CYBLE_SCDI_CTS_CURRENT_TIME)
3375:Generated_Source\PSoC4/BLE_eventHandler.c ****                     {
3376:Generated_Source\PSoC4/BLE_eventHandler.c ****                         CyBle_CtscDiscoverCharDescriptorsEventHandler(&discDescrInfo);
3377:Generated_Source\PSoC4/BLE_eventHandler.c ****                     }
3378:Generated_Source\PSoC4/BLE_eventHandler.c ****                 #endif /* CYBLE_CTS_CLIENT */
3379:Generated_Source\PSoC4/BLE_eventHandler.c **** 
3380:Generated_Source\PSoC4/BLE_eventHandler.c ****                 #ifdef CYBLE_CUSTOM_CLIENT
3381:Generated_Source\PSoC4/BLE_eventHandler.c ****                     if(cyBle_disCount == (uint8) CYBLE_SCDI_CUSTOM_CHARACTERISTICS)
 3625              		.loc 1 3381 0
 3626 00ec 154B     		ldr	r3, .L247+8
 3627 00ee 1B78     		ldrb	r3, [r3]
 3628 00f0 012B     		cmp	r3, #1
 3629 00f2 04D1     		bne	.L243
3382:Generated_Source\PSoC4/BLE_eventHandler.c ****                     {
3383:Generated_Source\PSoC4/BLE_eventHandler.c ****                         CyBle_CustomcDiscoverCharDescriptorsEventHandler(&discDescrInfo);
 3630              		.loc 1 3383 0
 3631 00f4 0823     		movs	r3, #8
 3632 00f6 FB18     		adds	r3, r7, r3
 3633 00f8 1800     		movs	r0, r3
 3634 00fa FFF7FEFF 		bl	CyBle_CustomcDiscoverCharDescriptorsEventHandler
 3635              	.L243:
3255:Generated_Source\PSoC4/BLE_eventHandler.c ****         {
 3636              		.loc 1 3255 0 discriminator 2
 3637 00fe 2423     		movs	r3, #36
 3638 0100 FB18     		adds	r3, r7, r3
 3639 0102 2422     		movs	r2, #36
 3640 0104 B918     		adds	r1, r7, r2
 3641 0106 2622     		movs	r2, #38
 3642 0108 BA18     		adds	r2, r7, r2
 3643 010a 0988     		ldrh	r1, [r1]
 3644 010c 1288     		ldrh	r2, [r2]
 3645 010e 8A18     		adds	r2, r1, r2
 3646 0110 1A80     		strh	r2, [r3]
 3647              	.L240:
3255:Generated_Source\PSoC4/BLE_eventHandler.c ****         {
 3648              		.loc 1 3255 0 is_stmt 0 discriminator 1
 3649 0112 2423     		movs	r3, #36
 3650 0114 FA18     		adds	r2, r7, r3
 3651 0116 1E23     		movs	r3, #30
 3652 0118 FB18     		adds	r3, r7, r3
 3653 011a 1288     		ldrh	r2, [r2]
 3654 011c 1B88     		ldrh	r3, [r3]
 3655 011e 9A42     		cmp	r2, r3
 3656 0120 A8D3     		bcc	.L245
3384:Generated_Source\PSoC4/BLE_eventHandler.c ****                     }
3385:Generated_Source\PSoC4/BLE_eventHandler.c ****                 #endif /* CYBLE_CUSTOM_CLIENT */
3386:Generated_Source\PSoC4/BLE_eventHandler.c ****                 
3387:Generated_Source\PSoC4/BLE_eventHandler.c ****                 #ifdef CYBLE_ESS_CLIENT
3388:Generated_Source\PSoC4/BLE_eventHandler.c ****                     if((cyBle_disCount >= (uint8) CYBLE_SCDI_ESS_DESCRIPTOR_VALUE_CHANGED) &&
3389:Generated_Source\PSoC4/BLE_eventHandler.c ****                         (cyBle_disCount <= (uint8) CYBLE_SCDI_ESS_END_CHAR))
3390:Generated_Source\PSoC4/BLE_eventHandler.c ****                     {
ARM GAS  C:\Users\run1009\AppData\Local\Temp\ccSZtXoF.s 			page 127


3391:Generated_Source\PSoC4/BLE_eventHandler.c ****                         CyBle_EsscDiscoverCharDescriptorsEventHandler(&discDescrInfo);
3392:Generated_Source\PSoC4/BLE_eventHandler.c ****                     }
3393:Generated_Source\PSoC4/BLE_eventHandler.c ****                 #endif /* CYBLE_ESS_CLIENT */
3394:Generated_Source\PSoC4/BLE_eventHandler.c **** 
3395:Generated_Source\PSoC4/BLE_eventHandler.c ****                 #ifdef CYBLE_GLS_CLIENT
3396:Generated_Source\PSoC4/BLE_eventHandler.c ****                     if((cyBle_disCount >= (uint8) CYBLE_SCDI_GLS_GLMT) &&
3397:Generated_Source\PSoC4/BLE_eventHandler.c ****                         (cyBle_disCount <= (uint8) CYBLE_SCDI_GLS_RACP))
3398:Generated_Source\PSoC4/BLE_eventHandler.c ****                     {
3399:Generated_Source\PSoC4/BLE_eventHandler.c ****                         CyBle_GlscDiscoverCharDescriptorsEventHandler(&discDescrInfo);
3400:Generated_Source\PSoC4/BLE_eventHandler.c ****                     }
3401:Generated_Source\PSoC4/BLE_eventHandler.c ****                 #endif /* CYBLE_GLS_CLIENT */
3402:Generated_Source\PSoC4/BLE_eventHandler.c **** 
3403:Generated_Source\PSoC4/BLE_eventHandler.c ****                 #ifdef CYBLE_HIDS_CLIENT
3404:Generated_Source\PSoC4/BLE_eventHandler.c ****                     if((cyBle_disCount >= (uint8) CYBLE_SCDI_HIDS_REPORT_MAP) &&
3405:Generated_Source\PSoC4/BLE_eventHandler.c ****                         (cyBle_disCount <= (uint8) CYBLE_SCDI_HIDS_REPORT_END))
3406:Generated_Source\PSoC4/BLE_eventHandler.c ****                     {
3407:Generated_Source\PSoC4/BLE_eventHandler.c ****                         CyBle_HidscDiscoverCharDescriptorsEventHandler(disServiceIndex, cyBle_disCo
3408:Generated_Source\PSoC4/BLE_eventHandler.c ****                     }
3409:Generated_Source\PSoC4/BLE_eventHandler.c ****                 #endif /* CYBLE_HIDS_CLIENT */
3410:Generated_Source\PSoC4/BLE_eventHandler.c **** 
3411:Generated_Source\PSoC4/BLE_eventHandler.c ****                 #ifdef CYBLE_HPS_CLIENT
3412:Generated_Source\PSoC4/BLE_eventHandler.c ****                     if(cyBle_disCount == (uint8) CYBLE_SCDI_HPS_STATUS_CODE)
3413:Generated_Source\PSoC4/BLE_eventHandler.c ****                     {
3414:Generated_Source\PSoC4/BLE_eventHandler.c ****                         CyBle_HpscDiscoverCharDescriptorsEventHandler(&discDescrInfo);
3415:Generated_Source\PSoC4/BLE_eventHandler.c ****                     }
3416:Generated_Source\PSoC4/BLE_eventHandler.c ****                 #endif /* CYBLE_HPS_CLIENT */
3417:Generated_Source\PSoC4/BLE_eventHandler.c ****                 
3418:Generated_Source\PSoC4/BLE_eventHandler.c ****                 #ifdef CYBLE_HRS_CLIENT
3419:Generated_Source\PSoC4/BLE_eventHandler.c ****                     if(cyBle_disCount == (uint8) CYBLE_SCDI_HRS_HRM)
3420:Generated_Source\PSoC4/BLE_eventHandler.c ****                     {
3421:Generated_Source\PSoC4/BLE_eventHandler.c ****                         CyBle_HrscDiscoverCharDescriptorsEventHandler(&discDescrInfo);
3422:Generated_Source\PSoC4/BLE_eventHandler.c ****                     }
3423:Generated_Source\PSoC4/BLE_eventHandler.c ****                 #endif /* CYBLE_HRS_CLIENT */
3424:Generated_Source\PSoC4/BLE_eventHandler.c **** 
3425:Generated_Source\PSoC4/BLE_eventHandler.c ****                 #ifdef CYBLE_HTS_CLIENT
3426:Generated_Source\PSoC4/BLE_eventHandler.c ****                     if((cyBle_disCount >= (uint8) CYBLE_SCDI_HTS_TEMP_MEASURE) && 
3427:Generated_Source\PSoC4/BLE_eventHandler.c ****                        (cyBle_disCount <= (uint8) CYBLE_SCDI_HTS_MEASURE_INTERVAL))
3428:Generated_Source\PSoC4/BLE_eventHandler.c ****                     {
3429:Generated_Source\PSoC4/BLE_eventHandler.c ****                         uint8 charIdx = cyBle_disCount - CYBLE_SCDI_HTS_TEMP_MEASURE;
3430:Generated_Source\PSoC4/BLE_eventHandler.c ****                         CyBle_HtscDiscoverCharDescriptorsEventHandler((CYBLE_HTS_CHAR_INDEX_T)charI
3431:Generated_Source\PSoC4/BLE_eventHandler.c ****                     }
3432:Generated_Source\PSoC4/BLE_eventHandler.c ****                 #endif /* CYBLE_HTS_CLIENT */
3433:Generated_Source\PSoC4/BLE_eventHandler.c ****                 #ifdef CYBLE_IPS_CLIENT
3434:Generated_Source\PSoC4/BLE_eventHandler.c ****                         if((cyBle_disCount >= (uint8) CYBLE_SCDI_IPS_LATITUDE) && 
3435:Generated_Source\PSoC4/BLE_eventHandler.c ****                            (cyBle_disCount <= (uint8) CYBLE_SCDI_IPS_LOCATION_NAME))
3436:Generated_Source\PSoC4/BLE_eventHandler.c ****                         {
3437:Generated_Source\PSoC4/BLE_eventHandler.c ****                             uint8 charIdx = (cyBle_disCount - CYBLE_SCDI_IPS_LATITUDE) + 1u;
3438:Generated_Source\PSoC4/BLE_eventHandler.c ****                             CyBle_IpscDiscoverCharDescriptorsEventHandler((CYBLE_IPS_CHAR_INDEX_T)c
3439:Generated_Source\PSoC4/BLE_eventHandler.c ****                         }
3440:Generated_Source\PSoC4/BLE_eventHandler.c ****                 #endif /* CYBLE_IPS_CLIENT */
3441:Generated_Source\PSoC4/BLE_eventHandler.c ****                 #ifdef CYBLE_LNS_CLIENT
3442:Generated_Source\PSoC4/BLE_eventHandler.c ****                     if((cyBle_disCount >= (uint8) CYBLE_SCDI_LNS_LS) && 
3443:Generated_Source\PSoC4/BLE_eventHandler.c ****                        (cyBle_disCount <= (uint8) CYBLE_SCDI_LNS_NV))
3444:Generated_Source\PSoC4/BLE_eventHandler.c ****                     {
3445:Generated_Source\PSoC4/BLE_eventHandler.c ****                         CyBle_LnscDiscoverCharDescriptorsEventHandler(&discDescrInfo);
3446:Generated_Source\PSoC4/BLE_eventHandler.c ****                     }
3447:Generated_Source\PSoC4/BLE_eventHandler.c ****                 #endif /* CYBLE_LNS_CLIENT */
ARM GAS  C:\Users\run1009\AppData\Local\Temp\ccSZtXoF.s 			page 128


3448:Generated_Source\PSoC4/BLE_eventHandler.c ****                 
3449:Generated_Source\PSoC4/BLE_eventHandler.c ****                 #ifdef CYBLE_PASS_CLIENT
3450:Generated_Source\PSoC4/BLE_eventHandler.c ****                     if((cyBle_disCount == (uint8) CYBLE_SCDI_PASS_AS) || 
3451:Generated_Source\PSoC4/BLE_eventHandler.c ****                         (cyBle_disCount == (uint8) CYBLE_SCDI_PASS_RS))
3452:Generated_Source\PSoC4/BLE_eventHandler.c ****                     {
3453:Generated_Source\PSoC4/BLE_eventHandler.c ****                         CyBle_PasscDiscoverCharDescriptorsEventHandler(&discDescrInfo);
3454:Generated_Source\PSoC4/BLE_eventHandler.c ****                     }
3455:Generated_Source\PSoC4/BLE_eventHandler.c ****                 #endif /* CYBLE_PASS_CLIENT */
3456:Generated_Source\PSoC4/BLE_eventHandler.c ****                 
3457:Generated_Source\PSoC4/BLE_eventHandler.c ****                 #ifdef CYBLE_PLXS_CLIENT
3458:Generated_Source\PSoC4/BLE_eventHandler.c ****                     if((cyBle_disCount == (uint8) CYBLE_SCDI_PLXS_SPOT_CHECK_MEASUREMENT) || 
3459:Generated_Source\PSoC4/BLE_eventHandler.c ****                        (cyBle_disCount == (uint8) CYBLE_SCDI_PLXS_CONTINUOUS_MEASUREMENT) || 
3460:Generated_Source\PSoC4/BLE_eventHandler.c ****                        (cyBle_disCount == (uint8) CYBLE_SCDI_PLXS_RECORD_ACCESS_CONTROL_POINT) )
3461:Generated_Source\PSoC4/BLE_eventHandler.c ****                     {
3462:Generated_Source\PSoC4/BLE_eventHandler.c ****                         CyBle_PlxscDiscoverCharDescriptorsEventHandler(&discDescrInfo);
3463:Generated_Source\PSoC4/BLE_eventHandler.c ****                     }
3464:Generated_Source\PSoC4/BLE_eventHandler.c ****                 #endif /* CYBLE_PLXS_CLIENT */
3465:Generated_Source\PSoC4/BLE_eventHandler.c **** 
3466:Generated_Source\PSoC4/BLE_eventHandler.c ****                 #ifdef CYBLE_RSCS_CLIENT
3467:Generated_Source\PSoC4/BLE_eventHandler.c ****                     if((cyBle_disCount >= (uint8) CYBLE_SCDI_RSCS_RSC_MEASUREMENT) && 
3468:Generated_Source\PSoC4/BLE_eventHandler.c ****                        (cyBle_disCount <= (uint8) CYBLE_SCDI_RSCS_SC_CONTROL_POINT))
3469:Generated_Source\PSoC4/BLE_eventHandler.c ****                     {
3470:Generated_Source\PSoC4/BLE_eventHandler.c ****                         if(cyBle_disCount == (uint8) CYBLE_SCDI_RSCS_RSC_MEASUREMENT)
3471:Generated_Source\PSoC4/BLE_eventHandler.c ****                         {
3472:Generated_Source\PSoC4/BLE_eventHandler.c ****                             /* The CCC descriptor of RSC Measurement is currently discovering */
3473:Generated_Source\PSoC4/BLE_eventHandler.c ****                             CyBle_RscscDiscoverCharDescriptorsEventHandler(CYBLE_RSCS_RSC_MEASUREME
3474:Generated_Source\PSoC4/BLE_eventHandler.c ****                         }
3475:Generated_Source\PSoC4/BLE_eventHandler.c ****                         else if(cyBle_disCount == (uint8) CYBLE_SCDI_RSCS_SC_CONTROL_POINT)
3476:Generated_Source\PSoC4/BLE_eventHandler.c ****                         {
3477:Generated_Source\PSoC4/BLE_eventHandler.c ****                             /* The CCC descriptor of SC Control Point is currently discovering */
3478:Generated_Source\PSoC4/BLE_eventHandler.c ****                             CyBle_RscscDiscoverCharDescriptorsEventHandler(CYBLE_RSCS_SC_CONTROL_PO
3479:Generated_Source\PSoC4/BLE_eventHandler.c ****                         }
3480:Generated_Source\PSoC4/BLE_eventHandler.c ****                         else
3481:Generated_Source\PSoC4/BLE_eventHandler.c ****                         {
3482:Generated_Source\PSoC4/BLE_eventHandler.c ****                             /* No other descriptors are present for RSCS */
3483:Generated_Source\PSoC4/BLE_eventHandler.c ****                         }
3484:Generated_Source\PSoC4/BLE_eventHandler.c ****                     }
3485:Generated_Source\PSoC4/BLE_eventHandler.c ****                 #endif /* CYBLE_RSCS_CLIENT */
3486:Generated_Source\PSoC4/BLE_eventHandler.c **** 
3487:Generated_Source\PSoC4/BLE_eventHandler.c ****                 #ifdef CYBLE_SCPS_CLIENT
3488:Generated_Source\PSoC4/BLE_eventHandler.c ****                     if(cyBle_disCount == (uint8) CYBLE_SCDI_SCPS_SCAN_REFRESH)
3489:Generated_Source\PSoC4/BLE_eventHandler.c ****                     {
3490:Generated_Source\PSoC4/BLE_eventHandler.c ****                         CyBle_ScpscDiscoverCharDescriptorsEventHandler(&discDescrInfo);
3491:Generated_Source\PSoC4/BLE_eventHandler.c ****                     }
3492:Generated_Source\PSoC4/BLE_eventHandler.c ****                 #endif /* CYBLE_SCPS_CLIENT */
3493:Generated_Source\PSoC4/BLE_eventHandler.c ****                 
3494:Generated_Source\PSoC4/BLE_eventHandler.c ****                 #ifdef CYBLE_TPS_CLIENT
3495:Generated_Source\PSoC4/BLE_eventHandler.c ****                     if(cyBle_disCount == (uint8) CYBLE_SCDI_TPS_TX_PWR_LEVEL)
3496:Generated_Source\PSoC4/BLE_eventHandler.c ****                     {
3497:Generated_Source\PSoC4/BLE_eventHandler.c ****                         CyBle_TpscDiscoverCharDescriptorsEventHandler(&discDescrInfo);
3498:Generated_Source\PSoC4/BLE_eventHandler.c ****                     }
3499:Generated_Source\PSoC4/BLE_eventHandler.c ****                 #endif /* CYBLE_TPS_CLIENT */
3500:Generated_Source\PSoC4/BLE_eventHandler.c ****                 
3501:Generated_Source\PSoC4/BLE_eventHandler.c ****                 #ifdef CYBLE_UDS_CLIENT
3502:Generated_Source\PSoC4/BLE_eventHandler.c ****                     if((cyBle_disCount == (uint8) CYBLE_SCDI_UDS_DCI) || 
3503:Generated_Source\PSoC4/BLE_eventHandler.c ****                         (cyBle_disCount == (uint8) CYBLE_SCDI_UDS_UCP))
3504:Generated_Source\PSoC4/BLE_eventHandler.c ****                     {
ARM GAS  C:\Users\run1009\AppData\Local\Temp\ccSZtXoF.s 			page 129


3505:Generated_Source\PSoC4/BLE_eventHandler.c ****                         CyBle_UdscDiscoverCharDescriptorsEventHandler(&discDescrInfo);
3506:Generated_Source\PSoC4/BLE_eventHandler.c ****                     }
3507:Generated_Source\PSoC4/BLE_eventHandler.c ****                 #endif /* CYBLE_UDS_CLIENT */
3508:Generated_Source\PSoC4/BLE_eventHandler.c ****                 #ifdef CYBLE_WPTS_CLIENT
3509:Generated_Source\PSoC4/BLE_eventHandler.c ****                     if(cyBle_disCount == (uint8) CYBLE_SCDI_WPTS_PRU_ALERT)
3510:Generated_Source\PSoC4/BLE_eventHandler.c ****                     {
3511:Generated_Source\PSoC4/BLE_eventHandler.c ****                         CyBle_WptscDiscoverCharDescriptorsEventHandler(&discDescrInfo);
3512:Generated_Source\PSoC4/BLE_eventHandler.c ****                     }
3513:Generated_Source\PSoC4/BLE_eventHandler.c ****                 #endif /* CYBLE_WPTS_CLIENT */
3514:Generated_Source\PSoC4/BLE_eventHandler.c ****                 #ifdef CYBLE_WSS_CLIENT
3515:Generated_Source\PSoC4/BLE_eventHandler.c ****                     if((cyBle_disCount >= (uint8) CYBLE_SCDI_WSS_WEIGHT_SCALE_FEATURE) &&
3516:Generated_Source\PSoC4/BLE_eventHandler.c ****                         (cyBle_disCount <= (uint8) CYBLE_SCDI_WSS_WEIGHT_WEIGHT_MEASUREMENT))
3517:Generated_Source\PSoC4/BLE_eventHandler.c ****                     {
3518:Generated_Source\PSoC4/BLE_eventHandler.c ****                         CyBle_WsscDiscoverCharDescriptorsEventHandler(&discDescrInfo);
3519:Generated_Source\PSoC4/BLE_eventHandler.c ****                     }
3520:Generated_Source\PSoC4/BLE_eventHandler.c ****                 #endif /* CYBLE_WSS_CLIENT */
3521:Generated_Source\PSoC4/BLE_eventHandler.c ****             }
3522:Generated_Source\PSoC4/BLE_eventHandler.c ****         }
3523:Generated_Source\PSoC4/BLE_eventHandler.c ****         /* The sub-procedure is complete when an Error Response is received and the
3524:Generated_Source\PSoC4/BLE_eventHandler.c ****            Error Code is set to an Attribute Not Found or the Find Information Response has
3525:Generated_Source\PSoC4/BLE_eventHandler.c ****            an Attribute Handle that is equal to the Ending Handle of the request in this
3526:Generated_Source\PSoC4/BLE_eventHandler.c ****            case CYBLE_EVT_GATTC_LONG_PROCEDURE_END event is generated by stack. */
3527:Generated_Source\PSoC4/BLE_eventHandler.c ****         
3528:Generated_Source\PSoC4/BLE_eventHandler.c ****         cyBle_eventHandlerFlag &= (uint8)~CYBLE_CALLBACK;
 3657              		.loc 1 3528 0 is_stmt 1
 3658 0122 074B     		ldr	r3, .L247+4
 3659 0124 1B78     		ldrb	r3, [r3]
 3660 0126 DBB2     		uxtb	r3, r3
 3661 0128 0122     		movs	r2, #1
 3662 012a 9343     		bics	r3, r2
 3663 012c DAB2     		uxtb	r2, r3
 3664 012e 044B     		ldr	r3, .L247+4
 3665 0130 1A70     		strb	r2, [r3]
 3666              	.L246:
3529:Generated_Source\PSoC4/BLE_eventHandler.c ****     }
3530:Generated_Source\PSoC4/BLE_eventHandler.c **** }
 3667              		.loc 1 3530 0
 3668 0132 C046     		nop
 3669 0134 BD46     		mov	sp, r7
 3670 0136 0AB0     		add	sp, sp, #40
 3671              		@ sp needed
 3672 0138 80BD     		pop	{r7, pc}
 3673              	.L248:
 3674 013a C046     		.align	2
 3675              	.L247:
 3676 013c 00000000 		.word	cyBle_clientState
 3677 0140 00000000 		.word	cyBle_eventHandlerFlag
 3678 0144 00000000 		.word	cyBle_disCount
 3679              		.cfi_endproc
 3680              	.LFE22:
 3681              		.size	CyBle_FindInfoEventHandler, .-CyBle_FindInfoEventHandler
 3682              		.section	.text.CyBle_NextCharDscrDiscovery,"ax",%progbits
 3683              		.align	2
 3684              		.global	CyBle_NextCharDscrDiscovery
 3685              		.code	16
 3686              		.thumb_func
 3687              		.type	CyBle_NextCharDscrDiscovery, %function
ARM GAS  C:\Users\run1009\AppData\Local\Temp\ccSZtXoF.s 			page 130


 3688              	CyBle_NextCharDscrDiscovery:
 3689              	.LFB23:
3531:Generated_Source\PSoC4/BLE_eventHandler.c **** 
3532:Generated_Source\PSoC4/BLE_eventHandler.c **** 
3533:Generated_Source\PSoC4/BLE_eventHandler.c **** /****************************************************************************** 
3534:Generated_Source\PSoC4/BLE_eventHandler.c **** * Function Name: CyBle_NextCharDscrDiscovery
3535:Generated_Source\PSoC4/BLE_eventHandler.c **** ***************************************************************************//**
3536:Generated_Source\PSoC4/BLE_eventHandler.c **** *  Looks for a handle range for the current descriptor (pointed by
3537:Generated_Source\PSoC4/BLE_eventHandler.c **** *   cyBle_disCount). If the current range is invalid (any of start or end
3538:Generated_Source\PSoC4/BLE_eventHandler.c **** *   handles is invalid), then increment the cyBle_disCount and check
3539:Generated_Source\PSoC4/BLE_eventHandler.c **** *   the next descriptor range and does so until a valid range is caught or the 
3540:Generated_Source\PSoC4/BLE_eventHandler.c **** *   end of the descriptor set is reached.
3541:Generated_Source\PSoC4/BLE_eventHandler.c **** * 
3542:Generated_Source\PSoC4/BLE_eventHandler.c **** *  \param incrementIndex: Not zero value indicates that characteristic index should be 
3543:Generated_Source\PSoC4/BLE_eventHandler.c **** *                         incremented.
3544:Generated_Source\PSoC4/BLE_eventHandler.c **** * 
3545:Generated_Source\PSoC4/BLE_eventHandler.c **** * \return
3546:Generated_Source\PSoC4/BLE_eventHandler.c **** *  None.
3547:Generated_Source\PSoC4/BLE_eventHandler.c **** * 
3548:Generated_Source\PSoC4/BLE_eventHandler.c **** ******************************************************************************/
3549:Generated_Source\PSoC4/BLE_eventHandler.c **** void CyBle_NextCharDscrDiscovery(uint8 incrementIndex)
3550:Generated_Source\PSoC4/BLE_eventHandler.c **** {
 3690              		.loc 1 3550 0
 3691              		.cfi_startproc
 3692              		@ args = 0, pretend = 0, frame = 16
 3693              		@ frame_needed = 1, uses_anonymous_args = 0
 3694 0000 80B5     		push	{r7, lr}
 3695              		.cfi_def_cfa_offset 8
 3696              		.cfi_offset 7, -8
 3697              		.cfi_offset 14, -4
 3698 0002 84B0     		sub	sp, sp, #16
 3699              		.cfi_def_cfa_offset 24
 3700 0004 00AF     		add	r7, sp, #0
 3701              		.cfi_def_cfa_register 7
 3702 0006 0200     		movs	r2, r0
 3703 0008 FB1D     		adds	r3, r7, #7
 3704 000a 1A70     		strb	r2, [r3]
3551:Generated_Source\PSoC4/BLE_eventHandler.c ****     CYBLE_GATTC_FIND_INFO_REQ_T charRange = {CYBLE_GATT_INVALID_ATTR_HANDLE_VALUE, CYBLE_GATT_INVAL
 3705              		.loc 1 3551 0
 3706 000c 0C23     		movs	r3, #12
 3707 000e FB18     		adds	r3, r7, r3
 3708 0010 0022     		movs	r2, #0
 3709 0012 1A80     		strh	r2, [r3]
 3710 0014 0C23     		movs	r3, #12
 3711 0016 FB18     		adds	r3, r7, r3
 3712 0018 0022     		movs	r2, #0
 3713 001a 5A80     		strh	r2, [r3, #2]
 3714              	.L257:
3552:Generated_Source\PSoC4/BLE_eventHandler.c **** 
3553:Generated_Source\PSoC4/BLE_eventHandler.c ****     do
3554:Generated_Source\PSoC4/BLE_eventHandler.c ****     {
3555:Generated_Source\PSoC4/BLE_eventHandler.c ****     #ifdef CYBLE_CUSTOM_CLIENT
3556:Generated_Source\PSoC4/BLE_eventHandler.c ****         /* Do not increment main index until custom service is discovered */
3557:Generated_Source\PSoC4/BLE_eventHandler.c ****         if(cyBle_disCount != ((uint8)CYBLE_SCDI_CUSTOM_CHARACTERISTICS))
 3715              		.loc 1 3557 0
 3716 001c 4A4B     		ldr	r3, .L262
 3717 001e 1B78     		ldrb	r3, [r3]
ARM GAS  C:\Users\run1009\AppData\Local\Temp\ccSZtXoF.s 			page 131


 3718 0020 012B     		cmp	r3, #1
 3719 0022 17D0     		beq	.L250
3558:Generated_Source\PSoC4/BLE_eventHandler.c ****     #endif /* CYBLE_CUSTOM_CLIENT */
3559:Generated_Source\PSoC4/BLE_eventHandler.c ****         {
3560:Generated_Source\PSoC4/BLE_eventHandler.c ****             if(incrementIndex != CYBLE_DISCOVERY_INIT)
 3720              		.loc 1 3560 0
 3721 0024 FB1D     		adds	r3, r7, #7
 3722 0026 1B78     		ldrb	r3, [r3]
 3723 0028 002B     		cmp	r3, #0
 3724 002a 0DD0     		beq	.L251
3561:Generated_Source\PSoC4/BLE_eventHandler.c ****             {
3562:Generated_Source\PSoC4/BLE_eventHandler.c ****             #ifdef CYBLE_HIDS_CLIENT
3563:Generated_Source\PSoC4/BLE_eventHandler.c ****                 #if(CYBLE_HIDSC_SERVICE_COUNT > 1u)
3564:Generated_Source\PSoC4/BLE_eventHandler.c ****                     if((cyBle_disCount == CYBLE_SCDI_HIDS_REPORT_END) && 
3565:Generated_Source\PSoC4/BLE_eventHandler.c ****                        (disServiceIndex < (CYBLE_HIDSC_SERVICE_COUNT - 1u)))
3566:Generated_Source\PSoC4/BLE_eventHandler.c ****                     {
3567:Generated_Source\PSoC4/BLE_eventHandler.c ****                         disServiceIndex++;      /* Discover descriptors for next HID service */
3568:Generated_Source\PSoC4/BLE_eventHandler.c ****                         /* Set characteristic index to first characteristic of HID service */
3569:Generated_Source\PSoC4/BLE_eventHandler.c ****                         cyBle_disCount = CYBLE_SCDI_HIDS_REPORT_MAP;
3570:Generated_Source\PSoC4/BLE_eventHandler.c ****                     }
3571:Generated_Source\PSoC4/BLE_eventHandler.c ****                     else
3572:Generated_Source\PSoC4/BLE_eventHandler.c ****                     {
3573:Generated_Source\PSoC4/BLE_eventHandler.c ****                         cyBle_disCount++;
3574:Generated_Source\PSoC4/BLE_eventHandler.c ****                     }
3575:Generated_Source\PSoC4/BLE_eventHandler.c ****                 #else
3576:Generated_Source\PSoC4/BLE_eventHandler.c ****                     cyBle_disCount++;
3577:Generated_Source\PSoC4/BLE_eventHandler.c ****                 #endif /* CYBLE_HIDSC_SERVICE_COUNT > 1u) */
3578:Generated_Source\PSoC4/BLE_eventHandler.c ****             #else
3579:Generated_Source\PSoC4/BLE_eventHandler.c ****                 cyBle_disCount++;
 3725              		.loc 1 3579 0
 3726 002c 464B     		ldr	r3, .L262
 3727 002e 1B78     		ldrb	r3, [r3]
 3728 0030 0133     		adds	r3, r3, #1
 3729 0032 DAB2     		uxtb	r2, r3
 3730 0034 444B     		ldr	r3, .L262
 3731 0036 1A70     		strb	r2, [r3]
3580:Generated_Source\PSoC4/BLE_eventHandler.c ****             #endif /* CYBLE_HIDS_CLIENT */
3581:Generated_Source\PSoC4/BLE_eventHandler.c ****             #ifdef CYBLE_CUSTOM_CLIENT
3582:Generated_Source\PSoC4/BLE_eventHandler.c ****                 if(cyBle_disCount == ((uint8)CYBLE_SCDI_CUSTOM_CHARACTERISTICS))
 3732              		.loc 1 3582 0
 3733 0038 434B     		ldr	r3, .L262
 3734 003a 1B78     		ldrb	r3, [r3]
 3735 003c 012B     		cmp	r3, #1
 3736 003e 09D1     		bne	.L250
3583:Generated_Source\PSoC4/BLE_eventHandler.c ****                 {   /* Start descriptors discovery for custom service */
3584:Generated_Source\PSoC4/BLE_eventHandler.c ****                     incrementIndex = CYBLE_DISCOVERY_INIT;
 3737              		.loc 1 3584 0
 3738 0040 FB1D     		adds	r3, r7, #7
 3739 0042 0022     		movs	r2, #0
 3740 0044 1A70     		strb	r2, [r3]
 3741 0046 05E0     		b	.L250
 3742              	.L251:
3585:Generated_Source\PSoC4/BLE_eventHandler.c ****                 }
3586:Generated_Source\PSoC4/BLE_eventHandler.c ****             #endif /* CYBLE_CUSTOM_CLIENT */
3587:Generated_Source\PSoC4/BLE_eventHandler.c ****             }
3588:Generated_Source\PSoC4/BLE_eventHandler.c ****             else    /* Increment index in following loop */
3589:Generated_Source\PSoC4/BLE_eventHandler.c ****             {
ARM GAS  C:\Users\run1009\AppData\Local\Temp\ccSZtXoF.s 			page 132


3590:Generated_Source\PSoC4/BLE_eventHandler.c ****                 cyBle_disCount = 0u;
 3743              		.loc 1 3590 0
 3744 0048 3F4B     		ldr	r3, .L262
 3745 004a 0022     		movs	r2, #0
 3746 004c 1A70     		strb	r2, [r3]
3591:Generated_Source\PSoC4/BLE_eventHandler.c ****                 incrementIndex = 1u;
 3747              		.loc 1 3591 0
 3748 004e FB1D     		adds	r3, r7, #7
 3749 0050 0122     		movs	r2, #1
 3750 0052 1A70     		strb	r2, [r3]
 3751              	.L250:
3592:Generated_Source\PSoC4/BLE_eventHandler.c ****             }
3593:Generated_Source\PSoC4/BLE_eventHandler.c ****         }
3594:Generated_Source\PSoC4/BLE_eventHandler.c ****     #ifdef CYBLE_CUSTOM_CLIENT
3595:Generated_Source\PSoC4/BLE_eventHandler.c ****         if(cyBle_disCount == ((uint8)CYBLE_SCDI_CUSTOM_CHARACTERISTICS))
 3752              		.loc 1 3595 0
 3753 0054 3C4B     		ldr	r3, .L262
 3754 0056 1B78     		ldrb	r3, [r3]
 3755 0058 012B     		cmp	r3, #1
 3756 005a 0CD1     		bne	.L253
3596:Generated_Source\PSoC4/BLE_eventHandler.c ****         {
3597:Generated_Source\PSoC4/BLE_eventHandler.c ****             charRange = CyBle_CustomcGetCharRange(incrementIndex);
 3757              		.loc 1 3597 0
 3758 005c FB1D     		adds	r3, r7, #7
 3759 005e 1B78     		ldrb	r3, [r3]
 3760 0060 1800     		movs	r0, r3
 3761 0062 FFF7FEFF 		bl	CyBle_CustomcGetCharRange
 3762 0066 0300     		movs	r3, r0
 3763 0068 1A00     		movs	r2, r3
 3764 006a 0C23     		movs	r3, #12
 3765 006c FB18     		adds	r3, r7, r3
 3766 006e 1A60     		str	r2, [r3]
3598:Generated_Source\PSoC4/BLE_eventHandler.c ****             incrementIndex = CYBLE_DISCOVERY_CONTINUE;
 3767              		.loc 1 3598 0
 3768 0070 FB1D     		adds	r3, r7, #7
 3769 0072 0122     		movs	r2, #1
 3770 0074 1A70     		strb	r2, [r3]
 3771              	.L253:
3599:Generated_Source\PSoC4/BLE_eventHandler.c ****         }
3600:Generated_Source\PSoC4/BLE_eventHandler.c ****         /* When custom service is done cyBle_disCount will be incremented */
3601:Generated_Source\PSoC4/BLE_eventHandler.c ****         if(cyBle_disCount != ((uint8)CYBLE_SCDI_CUSTOM_CHARACTERISTICS))
 3772              		.loc 1 3601 0
 3773 0076 344B     		ldr	r3, .L262
 3774 0078 1B78     		ldrb	r3, [r3]
 3775 007a 012B     		cmp	r3, #1
 3776 007c 06D0     		beq	.L254
3602:Generated_Source\PSoC4/BLE_eventHandler.c ****     #endif /* CYBLE_CUSTOM_CLIENT */
3603:Generated_Source\PSoC4/BLE_eventHandler.c ****         {
3604:Generated_Source\PSoC4/BLE_eventHandler.c ****             charRange = CyBle_GetCharRange();
 3777              		.loc 1 3604 0
 3778 007e FFF7FEFF 		bl	CyBle_GetCharRange
 3779 0082 0300     		movs	r3, r0
 3780 0084 1A00     		movs	r2, r3
 3781 0086 0C23     		movs	r3, #12
 3782 0088 FB18     		adds	r3, r7, r3
 3783 008a 1A60     		str	r2, [r3]
 3784              	.L254:
ARM GAS  C:\Users\run1009\AppData\Local\Temp\ccSZtXoF.s 			page 133


3605:Generated_Source\PSoC4/BLE_eventHandler.c ****         }
3606:Generated_Source\PSoC4/BLE_eventHandler.c ****     /* Skip not existing characteristics and characteristics out of discovery range */
3607:Generated_Source\PSoC4/BLE_eventHandler.c ****     }while(((charRange.startHandle <= cyBle_gattcDiscoveryRange.startHandle) || 
 3785              		.loc 1 3607 0
 3786 008c 0C23     		movs	r3, #12
 3787 008e FB18     		adds	r3, r7, r3
 3788 0090 1A88     		ldrh	r2, [r3]
 3789 0092 2E4B     		ldr	r3, .L262+4
 3790 0094 1B88     		ldrh	r3, [r3]
3608:Generated_Source\PSoC4/BLE_eventHandler.c ****             (charRange.startHandle > cyBle_gattcDiscoveryRange.endHandle) ||
3609:Generated_Source\PSoC4/BLE_eventHandler.c ****             (charRange.endHandle < cyBle_gattcDiscoveryRange.startHandle) ||
3610:Generated_Source\PSoC4/BLE_eventHandler.c ****             (charRange.startHandle > charRange.endHandle)) && (cyBle_disCount < (uint8) CYBLE_SCDI_
 3791              		.loc 1 3610 0
 3792 0096 9A42     		cmp	r2, r3
 3793 0098 15D9     		bls	.L255
3608:Generated_Source\PSoC4/BLE_eventHandler.c ****             (charRange.startHandle > cyBle_gattcDiscoveryRange.endHandle) ||
 3794              		.loc 1 3608 0
 3795 009a 0C23     		movs	r3, #12
 3796 009c FB18     		adds	r3, r7, r3
 3797 009e 1A88     		ldrh	r2, [r3]
 3798 00a0 2A4B     		ldr	r3, .L262+4
 3799 00a2 5B88     		ldrh	r3, [r3, #2]
3607:Generated_Source\PSoC4/BLE_eventHandler.c ****             (charRange.startHandle > cyBle_gattcDiscoveryRange.endHandle) ||
 3800              		.loc 1 3607 0
 3801 00a4 9A42     		cmp	r2, r3
 3802 00a6 0ED8     		bhi	.L255
3609:Generated_Source\PSoC4/BLE_eventHandler.c ****             (charRange.startHandle > charRange.endHandle)) && (cyBle_disCount < (uint8) CYBLE_SCDI_
 3803              		.loc 1 3609 0
 3804 00a8 0C23     		movs	r3, #12
 3805 00aa FB18     		adds	r3, r7, r3
 3806 00ac 5A88     		ldrh	r2, [r3, #2]
 3807 00ae 274B     		ldr	r3, .L262+4
 3808 00b0 1B88     		ldrh	r3, [r3]
3608:Generated_Source\PSoC4/BLE_eventHandler.c ****             (charRange.startHandle > cyBle_gattcDiscoveryRange.endHandle) ||
 3809              		.loc 1 3608 0
 3810 00b2 9A42     		cmp	r2, r3
 3811 00b4 07D3     		bcc	.L255
 3812              		.loc 1 3610 0
 3813 00b6 0C23     		movs	r3, #12
 3814 00b8 FB18     		adds	r3, r7, r3
 3815 00ba 1A88     		ldrh	r2, [r3]
 3816 00bc 0C23     		movs	r3, #12
 3817 00be FB18     		adds	r3, r7, r3
 3818 00c0 5B88     		ldrh	r3, [r3, #2]
3609:Generated_Source\PSoC4/BLE_eventHandler.c ****             (charRange.startHandle > charRange.endHandle)) && (cyBle_disCount < (uint8) CYBLE_SCDI_
 3819              		.loc 1 3609 0
 3820 00c2 9A42     		cmp	r2, r3
 3821 00c4 03D9     		bls	.L256
 3822              	.L255:
 3823              		.loc 1 3610 0 discriminator 1
 3824 00c6 204B     		ldr	r3, .L262
 3825 00c8 1B78     		ldrb	r3, [r3]
 3826 00ca 012B     		cmp	r3, #1
 3827 00cc A6D9     		bls	.L257
 3828              	.L256:
3611:Generated_Source\PSoC4/BLE_eventHandler.c **** 
3612:Generated_Source\PSoC4/BLE_eventHandler.c ****     if(cyBle_disCount < (uint8) CYBLE_SCDI_COUNT)
ARM GAS  C:\Users\run1009\AppData\Local\Temp\ccSZtXoF.s 			page 134


 3829              		.loc 1 3612 0
 3830 00ce 1E4B     		ldr	r3, .L262
 3831 00d0 1B78     		ldrb	r3, [r3]
 3832 00d2 012B     		cmp	r3, #1
 3833 00d4 21D8     		bhi	.L258
3613:Generated_Source\PSoC4/BLE_eventHandler.c ****     {
3614:Generated_Source\PSoC4/BLE_eventHandler.c ****         if(CYBLE_ERROR_OK != CyBle_GattcDiscoverAllCharacteristicDescriptors(cyBle_connHandle, &cha
 3834              		.loc 1 3614 0
 3835 00d6 0C23     		movs	r3, #12
 3836 00d8 F918     		adds	r1, r7, r3
 3837 00da 1D4B     		ldr	r3, .L262+8
 3838 00dc 1A78     		ldrb	r2, [r3]
 3839 00de 5B78     		ldrb	r3, [r3, #1]
 3840 00e0 1B02     		lsls	r3, r3, #8
 3841 00e2 1A43     		orrs	r2, r3
 3842 00e4 0023     		movs	r3, #0
 3843 00e6 1204     		lsls	r2, r2, #16
 3844 00e8 120C     		lsrs	r2, r2, #16
 3845 00ea 1B0C     		lsrs	r3, r3, #16
 3846 00ec 1B04     		lsls	r3, r3, #16
 3847 00ee 1343     		orrs	r3, r2
 3848 00f0 1800     		movs	r0, r3
 3849 00f2 FFF7FEFF 		bl	CyBle_GattcDiscoverAllCharacteristicDescriptors
 3850 00f6 031E     		subs	r3, r0, #0
 3851 00f8 21D0     		beq	.L261
3615:Generated_Source\PSoC4/BLE_eventHandler.c ****         {
3616:Generated_Source\PSoC4/BLE_eventHandler.c ****             CyBle_ApplCallback(CYBLE_EVT_GATTC_DESCR_DISCOVERY_FAILED, NULL);
 3852              		.loc 1 3616 0
 3853 00fa 164B     		ldr	r3, .L262+12
 3854 00fc 1B68     		ldr	r3, [r3]
 3855 00fe 8522     		movs	r2, #133
 3856 0100 5200     		lsls	r2, r2, #1
 3857 0102 0021     		movs	r1, #0
 3858 0104 1000     		movs	r0, r2
 3859 0106 9847     		blx	r3
3617:Generated_Source\PSoC4/BLE_eventHandler.c ****             cyBle_eventHandlerFlag &= (uint8)~CYBLE_AUTO_DISCOVERY;
 3860              		.loc 1 3617 0
 3861 0108 134B     		ldr	r3, .L262+16
 3862 010a 1B78     		ldrb	r3, [r3]
 3863 010c DBB2     		uxtb	r3, r3
 3864 010e 0222     		movs	r2, #2
 3865 0110 9343     		bics	r3, r2
 3866 0112 DAB2     		uxtb	r2, r3
 3867 0114 104B     		ldr	r3, .L262+16
 3868 0116 1A70     		strb	r2, [r3]
3618:Generated_Source\PSoC4/BLE_eventHandler.c ****         }
3619:Generated_Source\PSoC4/BLE_eventHandler.c ****     }
3620:Generated_Source\PSoC4/BLE_eventHandler.c ****     else /* Discovery done */
3621:Generated_Source\PSoC4/BLE_eventHandler.c ****     {
3622:Generated_Source\PSoC4/BLE_eventHandler.c ****         CyBle_SetClientState(CYBLE_CLIENT_STATE_DISCOVERED);
3623:Generated_Source\PSoC4/BLE_eventHandler.c ****         CyBle_ApplCallback(CYBLE_EVT_GATTC_DISCOVERY_COMPLETE, NULL);
3624:Generated_Source\PSoC4/BLE_eventHandler.c ****         cyBle_eventHandlerFlag &= (uint8)~CYBLE_AUTO_DISCOVERY;
3625:Generated_Source\PSoC4/BLE_eventHandler.c ****     }
3626:Generated_Source\PSoC4/BLE_eventHandler.c **** }
 3869              		.loc 1 3626 0
 3870 0118 11E0     		b	.L261
 3871              	.L258:
ARM GAS  C:\Users\run1009\AppData\Local\Temp\ccSZtXoF.s 			page 135


3622:Generated_Source\PSoC4/BLE_eventHandler.c ****         CyBle_ApplCallback(CYBLE_EVT_GATTC_DISCOVERY_COMPLETE, NULL);
 3872              		.loc 1 3622 0
 3873 011a 104B     		ldr	r3, .L262+20
 3874 011c 0522     		movs	r2, #5
 3875 011e 1A70     		strb	r2, [r3]
3623:Generated_Source\PSoC4/BLE_eventHandler.c ****         cyBle_eventHandlerFlag &= (uint8)~CYBLE_AUTO_DISCOVERY;
 3876              		.loc 1 3623 0
 3877 0120 0C4B     		ldr	r3, .L262+12
 3878 0122 1B68     		ldr	r3, [r3]
 3879 0124 8922     		movs	r2, #137
 3880 0126 5200     		lsls	r2, r2, #1
 3881 0128 0021     		movs	r1, #0
 3882 012a 1000     		movs	r0, r2
 3883 012c 9847     		blx	r3
3624:Generated_Source\PSoC4/BLE_eventHandler.c ****     }
 3884              		.loc 1 3624 0
 3885 012e 0A4B     		ldr	r3, .L262+16
 3886 0130 1B78     		ldrb	r3, [r3]
 3887 0132 DBB2     		uxtb	r3, r3
 3888 0134 0222     		movs	r2, #2
 3889 0136 9343     		bics	r3, r2
 3890 0138 DAB2     		uxtb	r2, r3
 3891 013a 074B     		ldr	r3, .L262+16
 3892 013c 1A70     		strb	r2, [r3]
 3893              	.L261:
 3894              		.loc 1 3626 0
 3895 013e C046     		nop
 3896 0140 BD46     		mov	sp, r7
 3897 0142 04B0     		add	sp, sp, #16
 3898              		@ sp needed
 3899 0144 80BD     		pop	{r7, pc}
 3900              	.L263:
 3901 0146 C046     		.align	2
 3902              	.L262:
 3903 0148 00000000 		.word	cyBle_disCount
 3904 014c 00000000 		.word	cyBle_gattcDiscoveryRange
 3905 0150 00000000 		.word	cyBle_connHandle
 3906 0154 00000000 		.word	CyBle_ApplCallback
 3907 0158 00000000 		.word	cyBle_eventHandlerFlag
 3908 015c 00000000 		.word	cyBle_clientState
 3909              		.cfi_endproc
 3910              	.LFE23:
 3911              		.size	CyBle_NextCharDscrDiscovery, .-CyBle_NextCharDscrDiscovery
 3912              		.section	.text.CyBle_LongProcedureEndEventHandler,"ax",%progbits
 3913              		.align	2
 3914              		.global	CyBle_LongProcedureEndEventHandler
 3915              		.code	16
 3916              		.thumb_func
 3917              		.type	CyBle_LongProcedureEndEventHandler, %function
 3918              	CyBle_LongProcedureEndEventHandler:
 3919              	.LFB24:
3627:Generated_Source\PSoC4/BLE_eventHandler.c **** 
3628:Generated_Source\PSoC4/BLE_eventHandler.c **** 
3629:Generated_Source\PSoC4/BLE_eventHandler.c **** /****************************************************************************** 
3630:Generated_Source\PSoC4/BLE_eventHandler.c **** * Function Name: CyBle_LongProcedureEndEventHandler
3631:Generated_Source\PSoC4/BLE_eventHandler.c **** ***************************************************************************//**
3632:Generated_Source\PSoC4/BLE_eventHandler.c **** * 
ARM GAS  C:\Users\run1009\AppData\Local\Temp\ccSZtXoF.s 			page 136


3633:Generated_Source\PSoC4/BLE_eventHandler.c **** *  Handles the Long Procedure End Event during an automatic server discovery
3634:Generated_Source\PSoC4/BLE_eventHandler.c **** *  process.
3635:Generated_Source\PSoC4/BLE_eventHandler.c **** * 
3636:Generated_Source\PSoC4/BLE_eventHandler.c **** *   \param eventParam:  the event parameters for an Error Response
3637:Generated_Source\PSoC4/BLE_eventHandler.c **** * 
3638:Generated_Source\PSoC4/BLE_eventHandler.c **** * \return
3639:Generated_Source\PSoC4/BLE_eventHandler.c **** *  None
3640:Generated_Source\PSoC4/BLE_eventHandler.c **** * 
3641:Generated_Source\PSoC4/BLE_eventHandler.c **** ******************************************************************************/
3642:Generated_Source\PSoC4/BLE_eventHandler.c **** void CyBle_LongProcedureEndEventHandler(void)
3643:Generated_Source\PSoC4/BLE_eventHandler.c **** {
 3920              		.loc 1 3643 0
 3921              		.cfi_startproc
 3922              		@ args = 0, pretend = 0, frame = 0
 3923              		@ frame_needed = 1, uses_anonymous_args = 0
 3924 0000 80B5     		push	{r7, lr}
 3925              		.cfi_def_cfa_offset 8
 3926              		.cfi_offset 7, -8
 3927              		.cfi_offset 14, -4
 3928 0002 00AF     		add	r7, sp, #0
 3929              		.cfi_def_cfa_register 7
3644:Generated_Source\PSoC4/BLE_eventHandler.c ****     if((cyBle_eventHandlerFlag & CYBLE_AUTO_DISCOVERY) != 0u)
 3930              		.loc 1 3644 0
 3931 0004 244B     		ldr	r3, .L273
 3932 0006 1B78     		ldrb	r3, [r3]
 3933 0008 DBB2     		uxtb	r3, r3
 3934 000a 1A00     		movs	r2, r3
 3935 000c 0223     		movs	r3, #2
 3936 000e 1340     		ands	r3, r2
 3937 0010 3FD0     		beq	.L272
3645:Generated_Source\PSoC4/BLE_eventHandler.c ****     {
3646:Generated_Source\PSoC4/BLE_eventHandler.c ****         switch(CyBle_GetClientState())
 3938              		.loc 1 3646 0
 3939 0012 224B     		ldr	r3, .L273+4
 3940 0014 1B78     		ldrb	r3, [r3]
 3941 0016 022B     		cmp	r3, #2
 3942 0018 17D0     		beq	.L267
 3943 001a 02DC     		bgt	.L268
 3944 001c 012B     		cmp	r3, #1
 3945 001e 05D0     		beq	.L269
3647:Generated_Source\PSoC4/BLE_eventHandler.c ****         {
3648:Generated_Source\PSoC4/BLE_eventHandler.c ****         case CYBLE_CLIENT_STATE_SRVC_DISCOVERING:
3649:Generated_Source\PSoC4/BLE_eventHandler.c ****         #if(CYBLE_STACK_MODE_DEBUG)
3650:Generated_Source\PSoC4/BLE_eventHandler.c ****             CyBle_ApplCallback(CYBLE_EVT_GATTC_SRVC_DISCOVERY_COMPLETE, NULL);
3651:Generated_Source\PSoC4/BLE_eventHandler.c ****         #endif /* CYBLE_STACK_MODE_DEBUG */            
3652:Generated_Source\PSoC4/BLE_eventHandler.c ****             CyBle_SetClientState(CYBLE_CLIENT_STATE_INCL_DISCOVERING);
3653:Generated_Source\PSoC4/BLE_eventHandler.c ****             CyBle_NextInclDiscovery(CYBLE_DISCOVERY_INIT);
3654:Generated_Source\PSoC4/BLE_eventHandler.c ****             /* Do not propagate this event to application level during automatic discovery procedur
3655:Generated_Source\PSoC4/BLE_eventHandler.c ****             cyBle_eventHandlerFlag &= (uint8)~CYBLE_CALLBACK;
3656:Generated_Source\PSoC4/BLE_eventHandler.c ****             break;
3657:Generated_Source\PSoC4/BLE_eventHandler.c **** 
3658:Generated_Source\PSoC4/BLE_eventHandler.c ****         case CYBLE_CLIENT_STATE_INCL_DISCOVERING:
3659:Generated_Source\PSoC4/BLE_eventHandler.c ****             CyBle_NextInclDiscovery(CYBLE_DISCOVERY_CONTINUE);
3660:Generated_Source\PSoC4/BLE_eventHandler.c ****             cyBle_eventHandlerFlag &= (uint8)~CYBLE_CALLBACK;
3661:Generated_Source\PSoC4/BLE_eventHandler.c ****             break;
3662:Generated_Source\PSoC4/BLE_eventHandler.c **** 
3663:Generated_Source\PSoC4/BLE_eventHandler.c ****         case CYBLE_CLIENT_STATE_CHAR_DISCOVERING:
ARM GAS  C:\Users\run1009\AppData\Local\Temp\ccSZtXoF.s 			page 137


3664:Generated_Source\PSoC4/BLE_eventHandler.c ****             CyBle_NextCharDiscovery(CYBLE_DISCOVERY_CONTINUE);
3665:Generated_Source\PSoC4/BLE_eventHandler.c ****             cyBle_eventHandlerFlag &= (uint8)~CYBLE_CALLBACK;
3666:Generated_Source\PSoC4/BLE_eventHandler.c ****             break;
3667:Generated_Source\PSoC4/BLE_eventHandler.c **** 
3668:Generated_Source\PSoC4/BLE_eventHandler.c ****         case CYBLE_CLIENT_STATE_DESCR_DISCOVERING:
3669:Generated_Source\PSoC4/BLE_eventHandler.c ****             CyBle_NextCharDscrDiscovery(CYBLE_DISCOVERY_CONTINUE);
3670:Generated_Source\PSoC4/BLE_eventHandler.c ****             cyBle_eventHandlerFlag &= (uint8)~CYBLE_CALLBACK;
3671:Generated_Source\PSoC4/BLE_eventHandler.c ****             break;
3672:Generated_Source\PSoC4/BLE_eventHandler.c ****             
3673:Generated_Source\PSoC4/BLE_eventHandler.c ****         default:
3674:Generated_Source\PSoC4/BLE_eventHandler.c ****             break;
 3946              		.loc 1 3674 0
 3947 0020 37E0     		b	.L265
 3948              	.L268:
3646:Generated_Source\PSoC4/BLE_eventHandler.c ****         {
 3949              		.loc 1 3646 0
 3950 0022 032B     		cmp	r3, #3
 3951 0024 1DD0     		beq	.L270
 3952 0026 042B     		cmp	r3, #4
 3953 0028 27D0     		beq	.L271
 3954              		.loc 1 3674 0
 3955 002a 32E0     		b	.L265
 3956              	.L269:
3652:Generated_Source\PSoC4/BLE_eventHandler.c ****             CyBle_NextInclDiscovery(CYBLE_DISCOVERY_INIT);
 3957              		.loc 1 3652 0
 3958 002c 1B4B     		ldr	r3, .L273+4
 3959 002e 0222     		movs	r2, #2
 3960 0030 1A70     		strb	r2, [r3]
3653:Generated_Source\PSoC4/BLE_eventHandler.c ****             /* Do not propagate this event to application level during automatic discovery procedur
 3961              		.loc 1 3653 0
 3962 0032 0020     		movs	r0, #0
 3963 0034 FFF7FEFF 		bl	CyBle_NextInclDiscovery
3655:Generated_Source\PSoC4/BLE_eventHandler.c ****             break;
 3964              		.loc 1 3655 0
 3965 0038 174B     		ldr	r3, .L273
 3966 003a 1B78     		ldrb	r3, [r3]
 3967 003c DBB2     		uxtb	r3, r3
 3968 003e 0122     		movs	r2, #1
 3969 0040 9343     		bics	r3, r2
 3970 0042 DAB2     		uxtb	r2, r3
 3971 0044 144B     		ldr	r3, .L273
 3972 0046 1A70     		strb	r2, [r3]
3656:Generated_Source\PSoC4/BLE_eventHandler.c **** 
 3973              		.loc 1 3656 0
 3974 0048 23E0     		b	.L265
 3975              	.L267:
3659:Generated_Source\PSoC4/BLE_eventHandler.c ****             cyBle_eventHandlerFlag &= (uint8)~CYBLE_CALLBACK;
 3976              		.loc 1 3659 0
 3977 004a 0120     		movs	r0, #1
 3978 004c FFF7FEFF 		bl	CyBle_NextInclDiscovery
3660:Generated_Source\PSoC4/BLE_eventHandler.c ****             break;
 3979              		.loc 1 3660 0
 3980 0050 114B     		ldr	r3, .L273
 3981 0052 1B78     		ldrb	r3, [r3]
 3982 0054 DBB2     		uxtb	r3, r3
 3983 0056 0122     		movs	r2, #1
 3984 0058 9343     		bics	r3, r2
ARM GAS  C:\Users\run1009\AppData\Local\Temp\ccSZtXoF.s 			page 138


 3985 005a DAB2     		uxtb	r2, r3
 3986 005c 0E4B     		ldr	r3, .L273
 3987 005e 1A70     		strb	r2, [r3]
3661:Generated_Source\PSoC4/BLE_eventHandler.c **** 
 3988              		.loc 1 3661 0
 3989 0060 17E0     		b	.L265
 3990              	.L270:
3664:Generated_Source\PSoC4/BLE_eventHandler.c ****             cyBle_eventHandlerFlag &= (uint8)~CYBLE_CALLBACK;
 3991              		.loc 1 3664 0
 3992 0062 0120     		movs	r0, #1
 3993 0064 FFF7FEFF 		bl	CyBle_NextCharDiscovery
3665:Generated_Source\PSoC4/BLE_eventHandler.c ****             break;
 3994              		.loc 1 3665 0
 3995 0068 0B4B     		ldr	r3, .L273
 3996 006a 1B78     		ldrb	r3, [r3]
 3997 006c DBB2     		uxtb	r3, r3
 3998 006e 0122     		movs	r2, #1
 3999 0070 9343     		bics	r3, r2
 4000 0072 DAB2     		uxtb	r2, r3
 4001 0074 084B     		ldr	r3, .L273
 4002 0076 1A70     		strb	r2, [r3]
3666:Generated_Source\PSoC4/BLE_eventHandler.c **** 
 4003              		.loc 1 3666 0
 4004 0078 0BE0     		b	.L265
 4005              	.L271:
3669:Generated_Source\PSoC4/BLE_eventHandler.c ****             cyBle_eventHandlerFlag &= (uint8)~CYBLE_CALLBACK;
 4006              		.loc 1 3669 0
 4007 007a 0120     		movs	r0, #1
 4008 007c FFF7FEFF 		bl	CyBle_NextCharDscrDiscovery
3670:Generated_Source\PSoC4/BLE_eventHandler.c ****             break;
 4009              		.loc 1 3670 0
 4010 0080 054B     		ldr	r3, .L273
 4011 0082 1B78     		ldrb	r3, [r3]
 4012 0084 DBB2     		uxtb	r3, r3
 4013 0086 0122     		movs	r2, #1
 4014 0088 9343     		bics	r3, r2
 4015 008a DAB2     		uxtb	r2, r3
 4016 008c 024B     		ldr	r3, .L273
 4017 008e 1A70     		strb	r2, [r3]
3671:Generated_Source\PSoC4/BLE_eventHandler.c ****             
 4018              		.loc 1 3671 0
 4019 0090 C046     		nop
 4020              	.L265:
 4021              	.L272:
3675:Generated_Source\PSoC4/BLE_eventHandler.c ****         }
3676:Generated_Source\PSoC4/BLE_eventHandler.c ****     }
3677:Generated_Source\PSoC4/BLE_eventHandler.c **** }
 4022              		.loc 1 3677 0
 4023 0092 C046     		nop
 4024 0094 BD46     		mov	sp, r7
 4025              		@ sp needed
 4026 0096 80BD     		pop	{r7, pc}
 4027              	.L274:
 4028              		.align	2
 4029              	.L273:
 4030 0098 00000000 		.word	cyBle_eventHandlerFlag
 4031 009c 00000000 		.word	cyBle_clientState
ARM GAS  C:\Users\run1009\AppData\Local\Temp\ccSZtXoF.s 			page 139


 4032              		.cfi_endproc
 4033              	.LFE24:
 4034              		.size	CyBle_LongProcedureEndEventHandler, .-CyBle_LongProcedureEndEventHandler
 4035              		.section	.text.CyBle_ErrorResponseEventHandler,"ax",%progbits
 4036              		.align	2
 4037              		.global	CyBle_ErrorResponseEventHandler
 4038              		.code	16
 4039              		.thumb_func
 4040              		.type	CyBle_ErrorResponseEventHandler, %function
 4041              	CyBle_ErrorResponseEventHandler:
 4042              	.LFB25:
3678:Generated_Source\PSoC4/BLE_eventHandler.c **** 
3679:Generated_Source\PSoC4/BLE_eventHandler.c **** 
3680:Generated_Source\PSoC4/BLE_eventHandler.c **** /****************************************************************************** 
3681:Generated_Source\PSoC4/BLE_eventHandler.c **** * Function Name: CyBle_ErrorResponseEventHandler
3682:Generated_Source\PSoC4/BLE_eventHandler.c **** ***************************************************************************//**
3683:Generated_Source\PSoC4/BLE_eventHandler.c **** * 
3684:Generated_Source\PSoC4/BLE_eventHandler.c **** *  Handles the Error Response Event during an automatic server discovery
3685:Generated_Source\PSoC4/BLE_eventHandler.c **** *  process.
3686:Generated_Source\PSoC4/BLE_eventHandler.c **** * 
3687:Generated_Source\PSoC4/BLE_eventHandler.c **** *   \param eventParam:  the event parameters for an Error Response
3688:Generated_Source\PSoC4/BLE_eventHandler.c **** * 
3689:Generated_Source\PSoC4/BLE_eventHandler.c **** * \return
3690:Generated_Source\PSoC4/BLE_eventHandler.c **** *  None
3691:Generated_Source\PSoC4/BLE_eventHandler.c **** * 
3692:Generated_Source\PSoC4/BLE_eventHandler.c **** ******************************************************************************/
3693:Generated_Source\PSoC4/BLE_eventHandler.c **** void CyBle_ErrorResponseEventHandler(const CYBLE_GATTC_ERR_RSP_PARAM_T *eventParam)
3694:Generated_Source\PSoC4/BLE_eventHandler.c **** {
 4043              		.loc 1 3694 0
 4044              		.cfi_startproc
 4045              		@ args = 0, pretend = 0, frame = 8
 4046              		@ frame_needed = 1, uses_anonymous_args = 0
 4047 0000 80B5     		push	{r7, lr}
 4048              		.cfi_def_cfa_offset 8
 4049              		.cfi_offset 7, -8
 4050              		.cfi_offset 14, -4
 4051 0002 82B0     		sub	sp, sp, #8
 4052              		.cfi_def_cfa_offset 16
 4053 0004 00AF     		add	r7, sp, #0
 4054              		.cfi_def_cfa_register 7
 4055 0006 7860     		str	r0, [r7, #4]
3695:Generated_Source\PSoC4/BLE_eventHandler.c ****     if(((cyBle_eventHandlerFlag & CYBLE_AUTO_DISCOVERY) != 0u) &&
 4056              		.loc 1 3695 0
 4057 0008 084B     		ldr	r3, .L278
 4058 000a 1B78     		ldrb	r3, [r3]
 4059 000c DBB2     		uxtb	r3, r3
 4060 000e 1A00     		movs	r2, r3
 4061 0010 0223     		movs	r3, #2
 4062 0012 1340     		ands	r3, r2
 4063 0014 05D0     		beq	.L277
3696:Generated_Source\PSoC4/BLE_eventHandler.c ****         (eventParam->errorCode == CYBLE_GATT_ERR_ATTRIBUTE_NOT_FOUND))
 4064              		.loc 1 3696 0 discriminator 1
 4065 0016 7B68     		ldr	r3, [r7, #4]
 4066 0018 9B79     		ldrb	r3, [r3, #6]
3695:Generated_Source\PSoC4/BLE_eventHandler.c ****     if(((cyBle_eventHandlerFlag & CYBLE_AUTO_DISCOVERY) != 0u) &&
 4067              		.loc 1 3695 0 discriminator 1
 4068 001a 0A2B     		cmp	r3, #10
ARM GAS  C:\Users\run1009\AppData\Local\Temp\ccSZtXoF.s 			page 140


 4069 001c 01D1     		bne	.L277
3697:Generated_Source\PSoC4/BLE_eventHandler.c ****     {
3698:Generated_Source\PSoC4/BLE_eventHandler.c ****         CyBle_LongProcedureEndEventHandler();
 4070              		.loc 1 3698 0
 4071 001e FFF7FEFF 		bl	CyBle_LongProcedureEndEventHandler
 4072              	.L277:
3699:Generated_Source\PSoC4/BLE_eventHandler.c ****     }
3700:Generated_Source\PSoC4/BLE_eventHandler.c ****     else
3701:Generated_Source\PSoC4/BLE_eventHandler.c ****     {
3702:Generated_Source\PSoC4/BLE_eventHandler.c ****         #ifdef CYBLE_AIOS_CLIENT
3703:Generated_Source\PSoC4/BLE_eventHandler.c ****             if((cyBle_eventHandlerFlag & CYBLE_CALLBACK) != 0u)
3704:Generated_Source\PSoC4/BLE_eventHandler.c ****             {
3705:Generated_Source\PSoC4/BLE_eventHandler.c ****                 CyBle_AioscErrorResponseEventHandler(eventParam);
3706:Generated_Source\PSoC4/BLE_eventHandler.c ****             }
3707:Generated_Source\PSoC4/BLE_eventHandler.c ****         #endif /* CYBLE_AIOS_CLIENT */
3708:Generated_Source\PSoC4/BLE_eventHandler.c ****         #ifdef CYBLE_ANCS_CLIENT
3709:Generated_Source\PSoC4/BLE_eventHandler.c ****             CyBle_AncscErrorResponseEventHandler(eventParam);
3710:Generated_Source\PSoC4/BLE_eventHandler.c ****         #endif /* CYBLE_ANCS_CLIENT */    
3711:Generated_Source\PSoC4/BLE_eventHandler.c ****         #ifdef CYBLE_ANS_CLIENT
3712:Generated_Source\PSoC4/BLE_eventHandler.c ****             if((cyBle_eventHandlerFlag & CYBLE_CALLBACK) != 0u)
3713:Generated_Source\PSoC4/BLE_eventHandler.c ****             {
3714:Generated_Source\PSoC4/BLE_eventHandler.c ****                 CyBle_AnscErrorResponseEventHandler(eventParam);
3715:Generated_Source\PSoC4/BLE_eventHandler.c ****             }
3716:Generated_Source\PSoC4/BLE_eventHandler.c ****         #endif /* CYBLE_ANS_CLIENT */
3717:Generated_Source\PSoC4/BLE_eventHandler.c ****         #ifdef CYBLE_BAS_CLIENT
3718:Generated_Source\PSoC4/BLE_eventHandler.c ****             if((cyBle_eventHandlerFlag & CYBLE_CALLBACK) != 0u)
3719:Generated_Source\PSoC4/BLE_eventHandler.c ****             {
3720:Generated_Source\PSoC4/BLE_eventHandler.c ****                 CyBle_BascErrorResponseEventHandler(eventParam);
3721:Generated_Source\PSoC4/BLE_eventHandler.c ****             }
3722:Generated_Source\PSoC4/BLE_eventHandler.c ****         #endif /* CYBLE_BAS_CLIENT */
3723:Generated_Source\PSoC4/BLE_eventHandler.c **** 		#ifdef CYBLE_BCS_CLIENT
3724:Generated_Source\PSoC4/BLE_eventHandler.c ****             if((cyBle_eventHandlerFlag & CYBLE_CALLBACK) != 0u)
3725:Generated_Source\PSoC4/BLE_eventHandler.c ****             {
3726:Generated_Source\PSoC4/BLE_eventHandler.c ****                 CyBle_BcscErrorResponseEventHandler(eventParam);
3727:Generated_Source\PSoC4/BLE_eventHandler.c ****             }
3728:Generated_Source\PSoC4/BLE_eventHandler.c ****         #endif /* CYBLE_BCS_CLIENT */
3729:Generated_Source\PSoC4/BLE_eventHandler.c ****         #ifdef CYBLE_BLS_CLIENT
3730:Generated_Source\PSoC4/BLE_eventHandler.c ****             if((cyBle_eventHandlerFlag & CYBLE_CALLBACK) != 0u)
3731:Generated_Source\PSoC4/BLE_eventHandler.c ****             {
3732:Generated_Source\PSoC4/BLE_eventHandler.c ****                 CyBle_BlscErrorResponseEventHandler(eventParam);
3733:Generated_Source\PSoC4/BLE_eventHandler.c ****             }
3734:Generated_Source\PSoC4/BLE_eventHandler.c ****         #endif /* CYBLE_BLS_CLIENT */
3735:Generated_Source\PSoC4/BLE_eventHandler.c ****         #ifdef CYBLE_BMS_CLIENT
3736:Generated_Source\PSoC4/BLE_eventHandler.c ****             if((cyBle_eventHandlerFlag & CYBLE_CALLBACK) != 0u)
3737:Generated_Source\PSoC4/BLE_eventHandler.c ****             {
3738:Generated_Source\PSoC4/BLE_eventHandler.c ****                 CyBle_BmscErrorResponseEventHandler(eventParam);
3739:Generated_Source\PSoC4/BLE_eventHandler.c ****             }
3740:Generated_Source\PSoC4/BLE_eventHandler.c ****         #endif /* CYBLE_BMS_CLIENT */
3741:Generated_Source\PSoC4/BLE_eventHandler.c ****         #ifdef CYBLE_CGMS_CLIENT
3742:Generated_Source\PSoC4/BLE_eventHandler.c ****             if((cyBle_eventHandlerFlag & CYBLE_CALLBACK) != 0u)
3743:Generated_Source\PSoC4/BLE_eventHandler.c ****             {
3744:Generated_Source\PSoC4/BLE_eventHandler.c ****                 CyBle_CgmscErrorResponseEventHandler(eventParam);
3745:Generated_Source\PSoC4/BLE_eventHandler.c ****             }
3746:Generated_Source\PSoC4/BLE_eventHandler.c ****         #endif /* CYBLE_CGMS_CLIENT */
3747:Generated_Source\PSoC4/BLE_eventHandler.c ****         #ifdef CYBLE_CPS_CLIENT
3748:Generated_Source\PSoC4/BLE_eventHandler.c ****             if((cyBle_eventHandlerFlag & CYBLE_CALLBACK) != 0u)
3749:Generated_Source\PSoC4/BLE_eventHandler.c ****             {
ARM GAS  C:\Users\run1009\AppData\Local\Temp\ccSZtXoF.s 			page 141


3750:Generated_Source\PSoC4/BLE_eventHandler.c ****                 CyBle_CpscErrorResponseEventHandler(eventParam);
3751:Generated_Source\PSoC4/BLE_eventHandler.c ****             }
3752:Generated_Source\PSoC4/BLE_eventHandler.c ****         #endif /* CYBLE_CPS_CLIENT */
3753:Generated_Source\PSoC4/BLE_eventHandler.c ****         #ifdef CYBLE_CSCS_CLIENT
3754:Generated_Source\PSoC4/BLE_eventHandler.c ****             if((cyBle_eventHandlerFlag & CYBLE_CALLBACK) != 0u)
3755:Generated_Source\PSoC4/BLE_eventHandler.c ****             {
3756:Generated_Source\PSoC4/BLE_eventHandler.c ****                 CyBle_CscscErrorResponseEventHandler(eventParam);
3757:Generated_Source\PSoC4/BLE_eventHandler.c ****             }
3758:Generated_Source\PSoC4/BLE_eventHandler.c ****         #endif /* CYBLE_CSCS_CLIENT */
3759:Generated_Source\PSoC4/BLE_eventHandler.c ****         #ifdef CYBLE_CTS_CLIENT
3760:Generated_Source\PSoC4/BLE_eventHandler.c ****             if((cyBle_eventHandlerFlag & CYBLE_CALLBACK) != 0u)
3761:Generated_Source\PSoC4/BLE_eventHandler.c ****             {
3762:Generated_Source\PSoC4/BLE_eventHandler.c ****                 CyBle_CtscErrorResponseEventHandler(eventParam);
3763:Generated_Source\PSoC4/BLE_eventHandler.c ****             }
3764:Generated_Source\PSoC4/BLE_eventHandler.c ****         #endif /* CYBLE_CTS_CLIENT */
3765:Generated_Source\PSoC4/BLE_eventHandler.c ****         #ifdef CYBLE_DIS_CLIENT
3766:Generated_Source\PSoC4/BLE_eventHandler.c ****             if((cyBle_eventHandlerFlag & CYBLE_CALLBACK) != 0u)
3767:Generated_Source\PSoC4/BLE_eventHandler.c ****             {
3768:Generated_Source\PSoC4/BLE_eventHandler.c ****                 CyBle_DiscErrorResponseEventHandler(eventParam);
3769:Generated_Source\PSoC4/BLE_eventHandler.c ****             }
3770:Generated_Source\PSoC4/BLE_eventHandler.c ****         #endif /* CYBLE_DIS_CLIENT */
3771:Generated_Source\PSoC4/BLE_eventHandler.c ****         #ifdef CYBLE_ESS_CLIENT
3772:Generated_Source\PSoC4/BLE_eventHandler.c ****             if((cyBle_eventHandlerFlag & CYBLE_CALLBACK) != 0u)
3773:Generated_Source\PSoC4/BLE_eventHandler.c ****             {
3774:Generated_Source\PSoC4/BLE_eventHandler.c ****                 CyBle_EsscErrorResponseEventHandler(eventParam);
3775:Generated_Source\PSoC4/BLE_eventHandler.c ****             }
3776:Generated_Source\PSoC4/BLE_eventHandler.c ****         #endif /* CYBLE_ESS_CLIENT */
3777:Generated_Source\PSoC4/BLE_eventHandler.c ****         #ifdef CYBLE_GLS_CLIENT
3778:Generated_Source\PSoC4/BLE_eventHandler.c ****             if((cyBle_eventHandlerFlag & CYBLE_CALLBACK) != 0u)
3779:Generated_Source\PSoC4/BLE_eventHandler.c ****             {
3780:Generated_Source\PSoC4/BLE_eventHandler.c ****                 CyBle_GlscErrorResponseEventHandler(eventParam);
3781:Generated_Source\PSoC4/BLE_eventHandler.c ****             }
3782:Generated_Source\PSoC4/BLE_eventHandler.c ****         #endif /* CYBLE_GLS_CLIENT */
3783:Generated_Source\PSoC4/BLE_eventHandler.c ****         #ifdef CYBLE_HIDS_CLIENT
3784:Generated_Source\PSoC4/BLE_eventHandler.c ****             if((cyBle_eventHandlerFlag & CYBLE_CALLBACK) != 0u)
3785:Generated_Source\PSoC4/BLE_eventHandler.c ****             {
3786:Generated_Source\PSoC4/BLE_eventHandler.c ****                 CyBle_HidscErrorResponseEventHandler(eventParam);
3787:Generated_Source\PSoC4/BLE_eventHandler.c ****             }
3788:Generated_Source\PSoC4/BLE_eventHandler.c ****         #endif /* CYBLE_HIDS_CLIENT */
3789:Generated_Source\PSoC4/BLE_eventHandler.c ****         #ifdef CYBLE_HPS_CLIENT
3790:Generated_Source\PSoC4/BLE_eventHandler.c ****             if((cyBle_eventHandlerFlag & CYBLE_CALLBACK) != 0u)
3791:Generated_Source\PSoC4/BLE_eventHandler.c ****             {
3792:Generated_Source\PSoC4/BLE_eventHandler.c ****                 CyBle_HpscErrorResponseEventHandler(eventParam);
3793:Generated_Source\PSoC4/BLE_eventHandler.c ****             }
3794:Generated_Source\PSoC4/BLE_eventHandler.c ****         #endif /* CYBLE_HPS_CLIENT */
3795:Generated_Source\PSoC4/BLE_eventHandler.c ****         #ifdef CYBLE_HRS_CLIENT
3796:Generated_Source\PSoC4/BLE_eventHandler.c ****             if((cyBle_eventHandlerFlag & CYBLE_CALLBACK) != 0u)
3797:Generated_Source\PSoC4/BLE_eventHandler.c ****             {
3798:Generated_Source\PSoC4/BLE_eventHandler.c ****                 CyBle_HrscErrorResponseEventHandler(eventParam);
3799:Generated_Source\PSoC4/BLE_eventHandler.c ****             }
3800:Generated_Source\PSoC4/BLE_eventHandler.c ****         #endif /* CYBLE_HRS_CLIENT */
3801:Generated_Source\PSoC4/BLE_eventHandler.c ****         #ifdef CYBLE_HTS_CLIENT
3802:Generated_Source\PSoC4/BLE_eventHandler.c ****             if((cyBle_eventHandlerFlag & CYBLE_CALLBACK) != 0u)
3803:Generated_Source\PSoC4/BLE_eventHandler.c ****             {
3804:Generated_Source\PSoC4/BLE_eventHandler.c ****                 CyBle_HtscErrorResponseEventHandler(eventParam);
3805:Generated_Source\PSoC4/BLE_eventHandler.c ****             }
3806:Generated_Source\PSoC4/BLE_eventHandler.c ****         #endif /* CYBLE_HTS_CLIENT */
ARM GAS  C:\Users\run1009\AppData\Local\Temp\ccSZtXoF.s 			page 142


3807:Generated_Source\PSoC4/BLE_eventHandler.c ****         #ifdef CYBLE_IPS_CLIENT
3808:Generated_Source\PSoC4/BLE_eventHandler.c ****             if((cyBle_eventHandlerFlag & CYBLE_CALLBACK) != 0u)
3809:Generated_Source\PSoC4/BLE_eventHandler.c ****             {
3810:Generated_Source\PSoC4/BLE_eventHandler.c ****                 CyBle_IpscErrorResponseEventHandler(eventParam);
3811:Generated_Source\PSoC4/BLE_eventHandler.c ****             }
3812:Generated_Source\PSoC4/BLE_eventHandler.c ****         #endif /* CYBLE_IPS_CLIENT */
3813:Generated_Source\PSoC4/BLE_eventHandler.c ****         #ifdef CYBLE_RSCS_CLIENT
3814:Generated_Source\PSoC4/BLE_eventHandler.c ****             if((cyBle_eventHandlerFlag & CYBLE_CALLBACK) != 0u)
3815:Generated_Source\PSoC4/BLE_eventHandler.c ****             {
3816:Generated_Source\PSoC4/BLE_eventHandler.c ****                 CyBle_RscscErrorResponseEventHandler(eventParam);
3817:Generated_Source\PSoC4/BLE_eventHandler.c ****             }
3818:Generated_Source\PSoC4/BLE_eventHandler.c ****         #endif /* CYBLE_RSCS_CLIENT */
3819:Generated_Source\PSoC4/BLE_eventHandler.c ****         #ifdef CYBLE_SCPS_CLIENT
3820:Generated_Source\PSoC4/BLE_eventHandler.c ****             if((cyBle_eventHandlerFlag & CYBLE_CALLBACK) != 0u)
3821:Generated_Source\PSoC4/BLE_eventHandler.c ****             {
3822:Generated_Source\PSoC4/BLE_eventHandler.c ****                 CyBle_ScpscErrorResponseEventHandler(eventParam);
3823:Generated_Source\PSoC4/BLE_eventHandler.c ****             }
3824:Generated_Source\PSoC4/BLE_eventHandler.c ****         #endif /* CYBLE_SCPS_CLIENT */
3825:Generated_Source\PSoC4/BLE_eventHandler.c ****         #ifdef CYBLE_LLS_CLIENT
3826:Generated_Source\PSoC4/BLE_eventHandler.c ****             if((cyBle_eventHandlerFlag & CYBLE_CALLBACK) != 0u)
3827:Generated_Source\PSoC4/BLE_eventHandler.c ****             {
3828:Generated_Source\PSoC4/BLE_eventHandler.c ****                 CyBle_LlscErrorResponseEventHandler(eventParam);
3829:Generated_Source\PSoC4/BLE_eventHandler.c ****             }
3830:Generated_Source\PSoC4/BLE_eventHandler.c ****         #endif /* CYBLE_LLS_CLIENT */
3831:Generated_Source\PSoC4/BLE_eventHandler.c ****         #ifdef CYBLE_LNS_CLIENT
3832:Generated_Source\PSoC4/BLE_eventHandler.c ****             if((cyBle_eventHandlerFlag & CYBLE_CALLBACK) != 0u)
3833:Generated_Source\PSoC4/BLE_eventHandler.c ****             {
3834:Generated_Source\PSoC4/BLE_eventHandler.c ****                 CyBle_LnscErrorResponseEventHandler(eventParam);
3835:Generated_Source\PSoC4/BLE_eventHandler.c ****             }
3836:Generated_Source\PSoC4/BLE_eventHandler.c ****         #endif /* CYBLE_LNS_CLIENT */
3837:Generated_Source\PSoC4/BLE_eventHandler.c ****         #ifdef CYBLE_PASS_CLIENT
3838:Generated_Source\PSoC4/BLE_eventHandler.c ****             if((cyBle_eventHandlerFlag & CYBLE_CALLBACK) != 0u)
3839:Generated_Source\PSoC4/BLE_eventHandler.c ****             {
3840:Generated_Source\PSoC4/BLE_eventHandler.c ****                 CyBle_PasscErrorResponseEventHandler(eventParam);
3841:Generated_Source\PSoC4/BLE_eventHandler.c ****             }
3842:Generated_Source\PSoC4/BLE_eventHandler.c ****         #endif /* CYBLE_PASS_CLIENT */
3843:Generated_Source\PSoC4/BLE_eventHandler.c ****         #ifdef CYBLE_PLXS_CLIENT
3844:Generated_Source\PSoC4/BLE_eventHandler.c ****             if((cyBle_eventHandlerFlag & CYBLE_CALLBACK) != 0u)
3845:Generated_Source\PSoC4/BLE_eventHandler.c ****             {
3846:Generated_Source\PSoC4/BLE_eventHandler.c ****                 CyBle_PlxscErrorResponseEventHandler(eventParam);
3847:Generated_Source\PSoC4/BLE_eventHandler.c ****             }
3848:Generated_Source\PSoC4/BLE_eventHandler.c ****         #endif /* CYBLE_PLXS_CLIENT */
3849:Generated_Source\PSoC4/BLE_eventHandler.c ****         #ifdef CYBLE_TPS_CLIENT
3850:Generated_Source\PSoC4/BLE_eventHandler.c ****             if((cyBle_eventHandlerFlag & CYBLE_CALLBACK) != 0u)
3851:Generated_Source\PSoC4/BLE_eventHandler.c ****             {
3852:Generated_Source\PSoC4/BLE_eventHandler.c ****                 CyBle_TpscErrorResponseEventHandler(eventParam);
3853:Generated_Source\PSoC4/BLE_eventHandler.c ****             }
3854:Generated_Source\PSoC4/BLE_eventHandler.c ****         #endif /* CYBLE_TPS_CLIENT */
3855:Generated_Source\PSoC4/BLE_eventHandler.c ****         #ifdef CYBLE_UDS_CLIENT
3856:Generated_Source\PSoC4/BLE_eventHandler.c ****             if((cyBle_eventHandlerFlag & CYBLE_CALLBACK) != 0u)
3857:Generated_Source\PSoC4/BLE_eventHandler.c ****             {
3858:Generated_Source\PSoC4/BLE_eventHandler.c ****                 CyBle_UdscErrorResponseEventHandler(eventParam);
3859:Generated_Source\PSoC4/BLE_eventHandler.c ****             }
3860:Generated_Source\PSoC4/BLE_eventHandler.c ****         #endif /* CYBLE_UDS_CLIENT */
3861:Generated_Source\PSoC4/BLE_eventHandler.c ****         #ifdef CYBLE_WPTS_CLIENT
3862:Generated_Source\PSoC4/BLE_eventHandler.c ****             if((cyBle_eventHandlerFlag & CYBLE_CALLBACK) != 0u)
3863:Generated_Source\PSoC4/BLE_eventHandler.c ****             {
ARM GAS  C:\Users\run1009\AppData\Local\Temp\ccSZtXoF.s 			page 143


3864:Generated_Source\PSoC4/BLE_eventHandler.c ****                 CyBle_WptscErrorResponseEventHandler(eventParam);
3865:Generated_Source\PSoC4/BLE_eventHandler.c ****             }
3866:Generated_Source\PSoC4/BLE_eventHandler.c ****         #endif /* CYBLE_WPTS_CLIENT */
3867:Generated_Source\PSoC4/BLE_eventHandler.c ****         #ifdef CYBLE_WSS_CLIENT
3868:Generated_Source\PSoC4/BLE_eventHandler.c ****             if((cyBle_eventHandlerFlag & CYBLE_CALLBACK) != 0u)
3869:Generated_Source\PSoC4/BLE_eventHandler.c ****             {
3870:Generated_Source\PSoC4/BLE_eventHandler.c ****                 CyBle_WsscErrorResponseEventHandler(eventParam);
3871:Generated_Source\PSoC4/BLE_eventHandler.c ****             }
3872:Generated_Source\PSoC4/BLE_eventHandler.c ****         #endif /* CYBLE_WSS_CLIENT */
3873:Generated_Source\PSoC4/BLE_eventHandler.c ****     }
3874:Generated_Source\PSoC4/BLE_eventHandler.c **** }
 4073              		.loc 1 3874 0
 4074 0022 C046     		nop
 4075 0024 BD46     		mov	sp, r7
 4076 0026 02B0     		add	sp, sp, #8
 4077              		@ sp needed
 4078 0028 80BD     		pop	{r7, pc}
 4079              	.L279:
 4080 002a C046     		.align	2
 4081              	.L278:
 4082 002c 00000000 		.word	cyBle_eventHandlerFlag
 4083              		.cfi_endproc
 4084              	.LFE25:
 4085              		.size	CyBle_ErrorResponseEventHandler, .-CyBle_ErrorResponseEventHandler
 4086              		.bss
 4087              		.align	2
 4088              	gPrepWriteReqMem.6802:
 4089 0018 00000000 		.space	8
 4089      00000000 
 4090              		.text
 4091              	.Letext0:
 4092              		.file 2 "c:\\program files (x86)\\cypress\\psoc creator\\4.2\\psoc creator\\import\\gnu\\arm\\5.4.
 4093              		.file 3 "c:\\program files (x86)\\cypress\\psoc creator\\4.2\\psoc creator\\import\\gnu\\arm\\5.4.
 4094              		.file 4 "Generated_Source\\PSoC4\\cytypes.h"
 4095              		.file 5 "Generated_Source\\PSoC4\\BLE_Stack.h"
 4096              		.file 6 "Generated_Source\\PSoC4\\BLE_StackHostMain.h"
 4097              		.file 7 "Generated_Source\\PSoC4\\BLE_StackGap.h"
 4098              		.file 8 "Generated_Source\\PSoC4\\BLE_StackGatt.h"
 4099              		.file 9 "Generated_Source\\PSoC4\\BLE_StackGattServer.h"
 4100              		.file 10 "Generated_Source\\PSoC4\\BLE_StackGattClient.h"
 4101              		.file 11 "Generated_Source\\PSoC4\\BLE.h"
 4102              		.file 12 "Generated_Source\\PSoC4\\BLE_gatt.h"
 4103              		.file 13 "Generated_Source\\PSoC4\\BLE_eventHandler.h"
 4104              		.section	.debug_info,"",%progbits
 4105              	.Ldebug_info0:
 4106 0000 051F0000 		.4byte	0x1f05
 4107 0004 0400     		.2byte	0x4
 4108 0006 00000000 		.4byte	.Ldebug_abbrev0
 4109 000a 04       		.byte	0x4
 4110 000b 01       		.uleb128 0x1
 4111 000c 80200000 		.4byte	.LASF728
 4112 0010 0C       		.byte	0xc
 4113 0011 874E0000 		.4byte	.LASF729
 4114 0015 182A0000 		.4byte	.LASF730
 4115 0019 00000000 		.4byte	.Ldebug_ranges0+0
 4116 001d 00000000 		.4byte	0
 4117 0021 00000000 		.4byte	.Ldebug_line0
ARM GAS  C:\Users\run1009\AppData\Local\Temp\ccSZtXoF.s 			page 144


 4118 0025 02       		.uleb128 0x2
 4119 0026 01       		.byte	0x1
 4120 0027 06       		.byte	0x6
 4121 0028 FA110000 		.4byte	.LASF0
 4122 002c 02       		.uleb128 0x2
 4123 002d 01       		.byte	0x1
 4124 002e 08       		.byte	0x8
 4125 002f B6130000 		.4byte	.LASF1
 4126 0033 02       		.uleb128 0x2
 4127 0034 02       		.byte	0x2
 4128 0035 05       		.byte	0x5
 4129 0036 2B440000 		.4byte	.LASF2
 4130 003a 02       		.uleb128 0x2
 4131 003b 02       		.byte	0x2
 4132 003c 07       		.byte	0x7
 4133 003d F14D0000 		.4byte	.LASF3
 4134 0041 02       		.uleb128 0x2
 4135 0042 04       		.byte	0x4
 4136 0043 05       		.byte	0x5
 4137 0044 A20D0000 		.4byte	.LASF4
 4138 0048 03       		.uleb128 0x3
 4139 0049 B2290000 		.4byte	.LASF9
 4140 004d 02       		.byte	0x2
 4141 004e 41       		.byte	0x41
 4142 004f 53000000 		.4byte	0x53
 4143 0053 02       		.uleb128 0x2
 4144 0054 04       		.byte	0x4
 4145 0055 07       		.byte	0x7
 4146 0056 9B230000 		.4byte	.LASF5
 4147 005a 02       		.uleb128 0x2
 4148 005b 08       		.byte	0x8
 4149 005c 05       		.byte	0x5
 4150 005d A52A0000 		.4byte	.LASF6
 4151 0061 02       		.uleb128 0x2
 4152 0062 08       		.byte	0x8
 4153 0063 07       		.byte	0x7
 4154 0064 373A0000 		.4byte	.LASF7
 4155 0068 04       		.uleb128 0x4
 4156 0069 04       		.byte	0x4
 4157 006a 05       		.byte	0x5
 4158 006b 696E7400 		.ascii	"int\000"
 4159 006f 02       		.uleb128 0x2
 4160 0070 04       		.byte	0x4
 4161 0071 07       		.byte	0x7
 4162 0072 02300000 		.4byte	.LASF8
 4163 0076 03       		.uleb128 0x3
 4164 0077 E64B0000 		.4byte	.LASF10
 4165 007b 03       		.byte	0x3
 4166 007c 30       		.byte	0x30
 4167 007d 48000000 		.4byte	0x48
 4168 0081 05       		.uleb128 0x5
 4169 0082 6B430000 		.4byte	.LASF11
 4170 0086 04       		.byte	0x4
 4171 0087 E401     		.2byte	0x1e4
 4172 0089 2C000000 		.4byte	0x2c
 4173 008d 05       		.uleb128 0x5
 4174 008e 8C510000 		.4byte	.LASF12
ARM GAS  C:\Users\run1009\AppData\Local\Temp\ccSZtXoF.s 			page 145


 4175 0092 04       		.byte	0x4
 4176 0093 E501     		.2byte	0x1e5
 4177 0095 3A000000 		.4byte	0x3a
 4178 0099 05       		.uleb128 0x5
 4179 009a B7030000 		.4byte	.LASF13
 4180 009e 04       		.byte	0x4
 4181 009f E601     		.2byte	0x1e6
 4182 00a1 53000000 		.4byte	0x53
 4183 00a5 02       		.uleb128 0x2
 4184 00a6 04       		.byte	0x4
 4185 00a7 04       		.byte	0x4
 4186 00a8 622E0000 		.4byte	.LASF14
 4187 00ac 02       		.uleb128 0x2
 4188 00ad 08       		.byte	0x8
 4189 00ae 04       		.byte	0x4
 4190 00af 062C0000 		.4byte	.LASF15
 4191 00b3 02       		.uleb128 0x2
 4192 00b4 01       		.byte	0x1
 4193 00b5 08       		.byte	0x8
 4194 00b6 B8160000 		.4byte	.LASF16
 4195 00ba 06       		.uleb128 0x6
 4196 00bb 81000000 		.4byte	0x81
 4197 00bf 02       		.uleb128 0x2
 4198 00c0 08       		.byte	0x8
 4199 00c1 04       		.byte	0x4
 4200 00c2 23360000 		.4byte	.LASF17
 4201 00c6 02       		.uleb128 0x2
 4202 00c7 04       		.byte	0x4
 4203 00c8 07       		.byte	0x7
 4204 00c9 BF000000 		.4byte	.LASF18
 4205 00cd 07       		.uleb128 0x7
 4206 00ce 04       		.byte	0x4
 4207 00cf 08       		.uleb128 0x8
 4208 00d0 04       		.byte	0x4
 4209 00d1 D5000000 		.4byte	0xd5
 4210 00d5 09       		.uleb128 0x9
 4211 00d6 E5000000 		.4byte	0xe5
 4212 00da 0A       		.uleb128 0xa
 4213 00db 99000000 		.4byte	0x99
 4214 00df 0A       		.uleb128 0xa
 4215 00e0 CD000000 		.4byte	0xcd
 4216 00e4 00       		.byte	0
 4217 00e5 0B       		.uleb128 0xb
 4218 00e6 01       		.byte	0x1
 4219 00e7 2C000000 		.4byte	0x2c
 4220 00eb 05       		.byte	0x5
 4221 00ec 3501     		.2byte	0x135
 4222 00ee A3020000 		.4byte	0x2a3
 4223 00f2 0C       		.uleb128 0xc
 4224 00f3 B7170000 		.4byte	.LASF19
 4225 00f7 00       		.byte	0
 4226 00f8 0C       		.uleb128 0xc
 4227 00f9 A30E0000 		.4byte	.LASF20
 4228 00fd 01       		.byte	0x1
 4229 00fe 0C       		.uleb128 0xc
 4230 00ff 6C3A0000 		.4byte	.LASF21
 4231 0103 02       		.byte	0x2
ARM GAS  C:\Users\run1009\AppData\Local\Temp\ccSZtXoF.s 			page 146


 4232 0104 0C       		.uleb128 0xc
 4233 0105 A5120000 		.4byte	.LASF22
 4234 0109 03       		.byte	0x3
 4235 010a 0C       		.uleb128 0xc
 4236 010b 964F0000 		.4byte	.LASF23
 4237 010f 04       		.byte	0x4
 4238 0110 0C       		.uleb128 0xc
 4239 0111 FE250000 		.4byte	.LASF24
 4240 0115 05       		.byte	0x5
 4241 0116 0C       		.uleb128 0xc
 4242 0117 BF360000 		.4byte	.LASF25
 4243 011b 06       		.byte	0x6
 4244 011c 0C       		.uleb128 0xc
 4245 011d ED460000 		.4byte	.LASF26
 4246 0121 20       		.byte	0x20
 4247 0122 0C       		.uleb128 0xc
 4248 0123 7C090000 		.4byte	.LASF27
 4249 0127 21       		.byte	0x21
 4250 0128 0C       		.uleb128 0xc
 4251 0129 B3280000 		.4byte	.LASF28
 4252 012d 22       		.byte	0x22
 4253 012e 0C       		.uleb128 0xc
 4254 012f 3E340000 		.4byte	.LASF29
 4255 0133 23       		.byte	0x23
 4256 0134 0C       		.uleb128 0xc
 4257 0135 F6210000 		.4byte	.LASF30
 4258 0139 24       		.byte	0x24
 4259 013a 0C       		.uleb128 0xc
 4260 013b 59220000 		.4byte	.LASF31
 4261 013f 25       		.byte	0x25
 4262 0140 0C       		.uleb128 0xc
 4263 0141 82420000 		.4byte	.LASF32
 4264 0145 26       		.byte	0x26
 4265 0146 0C       		.uleb128 0xc
 4266 0147 15030000 		.4byte	.LASF33
 4267 014b 27       		.byte	0x27
 4268 014c 0C       		.uleb128 0xc
 4269 014d DA500000 		.4byte	.LASF34
 4270 0151 28       		.byte	0x28
 4271 0152 0C       		.uleb128 0xc
 4272 0153 B4370000 		.4byte	.LASF35
 4273 0157 29       		.byte	0x29
 4274 0158 0C       		.uleb128 0xc
 4275 0159 51270000 		.4byte	.LASF36
 4276 015d 2A       		.byte	0x2a
 4277 015e 0C       		.uleb128 0xc
 4278 015f 30330000 		.4byte	.LASF37
 4279 0163 2B       		.byte	0x2b
 4280 0164 0C       		.uleb128 0xc
 4281 0165 6C4C0000 		.4byte	.LASF38
 4282 0169 2C       		.byte	0x2c
 4283 016a 0C       		.uleb128 0xc
 4284 016b B1010000 		.4byte	.LASF39
 4285 016f 2D       		.byte	0x2d
 4286 0170 0C       		.uleb128 0xc
 4287 0171 A2430000 		.4byte	.LASF40
 4288 0175 2E       		.byte	0x2e
ARM GAS  C:\Users\run1009\AppData\Local\Temp\ccSZtXoF.s 			page 147


 4289 0176 0C       		.uleb128 0xc
 4290 0177 120B0000 		.4byte	.LASF41
 4291 017b 2F       		.byte	0x2f
 4292 017c 0C       		.uleb128 0xc
 4293 017d 72160000 		.4byte	.LASF42
 4294 0181 30       		.byte	0x30
 4295 0182 0C       		.uleb128 0xc
 4296 0183 402D0000 		.4byte	.LASF43
 4297 0187 31       		.byte	0x31
 4298 0188 0C       		.uleb128 0xc
 4299 0189 07180000 		.4byte	.LASF44
 4300 018d 32       		.byte	0x32
 4301 018e 0C       		.uleb128 0xc
 4302 018f F9140000 		.4byte	.LASF45
 4303 0193 33       		.byte	0x33
 4304 0194 0C       		.uleb128 0xc
 4305 0195 20150000 		.4byte	.LASF46
 4306 0199 34       		.byte	0x34
 4307 019a 0C       		.uleb128 0xc
 4308 019b CE480000 		.4byte	.LASF47
 4309 019f 35       		.byte	0x35
 4310 01a0 0C       		.uleb128 0xc
 4311 01a1 8F0A0000 		.4byte	.LASF48
 4312 01a5 36       		.byte	0x36
 4313 01a6 0C       		.uleb128 0xc
 4314 01a7 1D390000 		.4byte	.LASF49
 4315 01ab 37       		.byte	0x37
 4316 01ac 0C       		.uleb128 0xc
 4317 01ad 3B450000 		.4byte	.LASF50
 4318 01b1 40       		.byte	0x40
 4319 01b2 0C       		.uleb128 0xc
 4320 01b3 55030000 		.4byte	.LASF51
 4321 01b7 41       		.byte	0x41
 4322 01b8 0C       		.uleb128 0xc
 4323 01b9 AB4F0000 		.4byte	.LASF52
 4324 01bd 42       		.byte	0x42
 4325 01be 0C       		.uleb128 0xc
 4326 01bf 4D380000 		.4byte	.LASF53
 4327 01c3 43       		.byte	0x43
 4328 01c4 0C       		.uleb128 0xc
 4329 01c5 C4130000 		.4byte	.LASF54
 4330 01c9 44       		.byte	0x44
 4331 01ca 0C       		.uleb128 0xc
 4332 01cb 26130000 		.4byte	.LASF55
 4333 01cf 45       		.byte	0x45
 4334 01d0 0C       		.uleb128 0xc
 4335 01d1 923F0000 		.4byte	.LASF56
 4336 01d5 46       		.byte	0x46
 4337 01d6 0C       		.uleb128 0xc
 4338 01d7 743F0000 		.4byte	.LASF57
 4339 01db 47       		.byte	0x47
 4340 01dc 0C       		.uleb128 0xc
 4341 01dd 26160000 		.4byte	.LASF58
 4342 01e1 48       		.byte	0x48
 4343 01e2 0C       		.uleb128 0xc
 4344 01e3 D3340000 		.4byte	.LASF59
 4345 01e7 49       		.byte	0x49
ARM GAS  C:\Users\run1009\AppData\Local\Temp\ccSZtXoF.s 			page 148


 4346 01e8 0C       		.uleb128 0xc
 4347 01e9 81180000 		.4byte	.LASF60
 4348 01ed 4A       		.byte	0x4a
 4349 01ee 0C       		.uleb128 0xc
 4350 01ef 2E170000 		.4byte	.LASF61
 4351 01f3 4B       		.byte	0x4b
 4352 01f4 0C       		.uleb128 0xc
 4353 01f5 CE330000 		.4byte	.LASF62
 4354 01f9 4C       		.byte	0x4c
 4355 01fa 0C       		.uleb128 0xc
 4356 01fb 71410000 		.4byte	.LASF63
 4357 01ff 4D       		.byte	0x4d
 4358 0200 0C       		.uleb128 0xc
 4359 0201 1C0D0000 		.4byte	.LASF64
 4360 0205 4E       		.byte	0x4e
 4361 0206 0C       		.uleb128 0xc
 4362 0207 0F300000 		.4byte	.LASF65
 4363 020b 4F       		.byte	0x4f
 4364 020c 0C       		.uleb128 0xc
 4365 020d CE460000 		.4byte	.LASF66
 4366 0211 50       		.byte	0x50
 4367 0212 0C       		.uleb128 0xc
 4368 0213 0A190000 		.4byte	.LASF67
 4369 0217 51       		.byte	0x51
 4370 0218 0C       		.uleb128 0xc
 4371 0219 5B090000 		.4byte	.LASF68
 4372 021d 52       		.byte	0x52
 4373 021e 0C       		.uleb128 0xc
 4374 021f 5C4B0000 		.4byte	.LASF69
 4375 0223 53       		.byte	0x53
 4376 0224 0C       		.uleb128 0xc
 4377 0225 1C510000 		.4byte	.LASF70
 4378 0229 54       		.byte	0x54
 4379 022a 0C       		.uleb128 0xc
 4380 022b 13070000 		.4byte	.LASF71
 4381 022f 55       		.byte	0x55
 4382 0230 0C       		.uleb128 0xc
 4383 0231 551A0000 		.4byte	.LASF72
 4384 0235 56       		.byte	0x56
 4385 0236 0C       		.uleb128 0xc
 4386 0237 0E2F0000 		.4byte	.LASF73
 4387 023b 57       		.byte	0x57
 4388 023c 0C       		.uleb128 0xc
 4389 023d 9B500000 		.4byte	.LASF74
 4390 0241 58       		.byte	0x58
 4391 0242 0C       		.uleb128 0xc
 4392 0243 074D0000 		.4byte	.LASF75
 4393 0247 70       		.byte	0x70
 4394 0248 0C       		.uleb128 0xc
 4395 0249 D71F0000 		.4byte	.LASF76
 4396 024d 71       		.byte	0x71
 4397 024e 0C       		.uleb128 0xc
 4398 024f 35110000 		.4byte	.LASF77
 4399 0253 72       		.byte	0x72
 4400 0254 0C       		.uleb128 0xc
 4401 0255 B0460000 		.4byte	.LASF78
 4402 0259 73       		.byte	0x73
ARM GAS  C:\Users\run1009\AppData\Local\Temp\ccSZtXoF.s 			page 149


 4403 025a 0C       		.uleb128 0xc
 4404 025b 40350000 		.4byte	.LASF79
 4405 025f 74       		.byte	0x74
 4406 0260 0C       		.uleb128 0xc
 4407 0261 EC270000 		.4byte	.LASF80
 4408 0265 75       		.byte	0x75
 4409 0266 0C       		.uleb128 0xc
 4410 0267 05160000 		.4byte	.LASF81
 4411 026b 76       		.byte	0x76
 4412 026c 0C       		.uleb128 0xc
 4413 026d 603B0000 		.4byte	.LASF82
 4414 0271 77       		.byte	0x77
 4415 0272 0C       		.uleb128 0xc
 4416 0273 37070000 		.4byte	.LASF83
 4417 0277 78       		.byte	0x78
 4418 0278 0C       		.uleb128 0xc
 4419 0279 7F0D0000 		.4byte	.LASF84
 4420 027d 79       		.byte	0x79
 4421 027e 0C       		.uleb128 0xc
 4422 027f 0F500000 		.4byte	.LASF85
 4423 0283 7A       		.byte	0x7a
 4424 0284 0C       		.uleb128 0xc
 4425 0285 522C0000 		.4byte	.LASF86
 4426 0289 FA       		.byte	0xfa
 4427 028a 0C       		.uleb128 0xc
 4428 028b 6D4A0000 		.4byte	.LASF87
 4429 028f FB       		.byte	0xfb
 4430 0290 0C       		.uleb128 0xc
 4431 0291 24200000 		.4byte	.LASF88
 4432 0295 FC       		.byte	0xfc
 4433 0296 0C       		.uleb128 0xc
 4434 0297 0B360000 		.4byte	.LASF89
 4435 029b FD       		.byte	0xfd
 4436 029c 0C       		.uleb128 0xc
 4437 029d 22330000 		.4byte	.LASF90
 4438 02a1 FF       		.byte	0xff
 4439 02a2 00       		.byte	0
 4440 02a3 0B       		.uleb128 0xb
 4441 02a4 02       		.byte	0x2
 4442 02a5 3A000000 		.4byte	0x3a
 4443 02a9 05       		.byte	0x5
 4444 02aa EA03     		.2byte	0x3ea
 4445 02ac 82030000 		.4byte	0x382
 4446 02b0 0C       		.uleb128 0xc
 4447 02b1 D1120000 		.4byte	.LASF91
 4448 02b5 00       		.byte	0
 4449 02b6 0C       		.uleb128 0xc
 4450 02b7 DA1B0000 		.4byte	.LASF92
 4451 02bb 01       		.byte	0x1
 4452 02bc 0C       		.uleb128 0xc
 4453 02bd 784F0000 		.4byte	.LASF93
 4454 02c1 02       		.byte	0x2
 4455 02c2 0C       		.uleb128 0xc
 4456 02c3 A91D0000 		.4byte	.LASF94
 4457 02c7 03       		.byte	0x3
 4458 02c8 0C       		.uleb128 0xc
 4459 02c9 F2220000 		.4byte	.LASF95
ARM GAS  C:\Users\run1009\AppData\Local\Temp\ccSZtXoF.s 			page 150


 4460 02cd 04       		.byte	0x4
 4461 02ce 0C       		.uleb128 0xc
 4462 02cf C52B0000 		.4byte	.LASF96
 4463 02d3 05       		.byte	0x5
 4464 02d4 0C       		.uleb128 0xc
 4465 02d5 044A0000 		.4byte	.LASF97
 4466 02d9 06       		.byte	0x6
 4467 02da 0C       		.uleb128 0xc
 4468 02db 64180000 		.4byte	.LASF98
 4469 02df 07       		.byte	0x7
 4470 02e0 0C       		.uleb128 0xc
 4471 02e1 CB2D0000 		.4byte	.LASF99
 4472 02e5 08       		.byte	0x8
 4473 02e6 0C       		.uleb128 0xc
 4474 02e7 DA470000 		.4byte	.LASF100
 4475 02eb 09       		.byte	0x9
 4476 02ec 0C       		.uleb128 0xc
 4477 02ed B7510000 		.4byte	.LASF101
 4478 02f1 0A       		.byte	0xa
 4479 02f2 0C       		.uleb128 0xc
 4480 02f3 F2090000 		.4byte	.LASF102
 4481 02f7 0B       		.byte	0xb
 4482 02f8 0C       		.uleb128 0xc
 4483 02f9 CF4B0000 		.4byte	.LASF103
 4484 02fd 0C       		.byte	0xc
 4485 02fe 0C       		.uleb128 0xc
 4486 02ff 13320000 		.4byte	.LASF104
 4487 0303 0D       		.byte	0xd
 4488 0304 0C       		.uleb128 0xc
 4489 0305 9E250000 		.4byte	.LASF105
 4490 0309 0E       		.byte	0xe
 4491 030a 0C       		.uleb128 0xc
 4492 030b A02B0000 		.4byte	.LASF106
 4493 030f 0F       		.byte	0xf
 4494 0310 0C       		.uleb128 0xc
 4495 0311 46060000 		.4byte	.LASF107
 4496 0315 10       		.byte	0x10
 4497 0316 0C       		.uleb128 0xc
 4498 0317 A72D0000 		.4byte	.LASF108
 4499 031b 11       		.byte	0x11
 4500 031c 0C       		.uleb128 0xc
 4501 031d B60E0000 		.4byte	.LASF109
 4502 0321 12       		.byte	0x12
 4503 0322 0C       		.uleb128 0xc
 4504 0323 D2110000 		.4byte	.LASF110
 4505 0327 13       		.byte	0x13
 4506 0328 0C       		.uleb128 0xc
 4507 0329 0D2C0000 		.4byte	.LASF111
 4508 032d 27       		.byte	0x27
 4509 032e 0C       		.uleb128 0xc
 4510 032f C32E0000 		.4byte	.LASF112
 4511 0333 28       		.byte	0x28
 4512 0334 0C       		.uleb128 0xc
 4513 0335 BC060000 		.4byte	.LASF113
 4514 0339 29       		.byte	0x29
 4515 033a 0C       		.uleb128 0xc
 4516 033b A5440000 		.4byte	.LASF114
ARM GAS  C:\Users\run1009\AppData\Local\Temp\ccSZtXoF.s 			page 151


 4517 033f 2A       		.byte	0x2a
 4518 0340 0C       		.uleb128 0xc
 4519 0341 41240000 		.4byte	.LASF115
 4520 0345 2B       		.byte	0x2b
 4521 0346 0C       		.uleb128 0xc
 4522 0347 A53C0000 		.4byte	.LASF116
 4523 034b 2C       		.byte	0x2c
 4524 034c 0C       		.uleb128 0xc
 4525 034d 01410000 		.4byte	.LASF117
 4526 0351 2D       		.byte	0x2d
 4527 0352 0C       		.uleb128 0xc
 4528 0353 BE1B0000 		.4byte	.LASF118
 4529 0357 FE       		.byte	0xfe
 4530 0358 0C       		.uleb128 0xc
 4531 0359 A41F0000 		.4byte	.LASF119
 4532 035d FF       		.byte	0xff
 4533 035e 0D       		.uleb128 0xd
 4534 035f 7D340000 		.4byte	.LASF120
 4535 0363 0001     		.2byte	0x100
 4536 0365 0D       		.uleb128 0xd
 4537 0366 64340000 		.4byte	.LASF121
 4538 036a 0101     		.2byte	0x101
 4539 036c 0D       		.uleb128 0xd
 4540 036d 1D100000 		.4byte	.LASF122
 4541 0371 0201     		.2byte	0x102
 4542 0373 0D       		.uleb128 0xd
 4543 0374 E23A0000 		.4byte	.LASF123
 4544 0378 0301     		.2byte	0x103
 4545 037a 0D       		.uleb128 0xd
 4546 037b 9A220000 		.4byte	.LASF124
 4547 037f 0401     		.2byte	0x104
 4548 0381 00       		.byte	0
 4549 0382 05       		.uleb128 0x5
 4550 0383 8C4A0000 		.4byte	.LASF125
 4551 0387 05       		.byte	0x5
 4552 0388 5C04     		.2byte	0x45c
 4553 038a A3020000 		.4byte	0x2a3
 4554 038e 0B       		.uleb128 0xb
 4555 038f 01       		.byte	0x1
 4556 0390 2C000000 		.4byte	0x2c
 4557 0394 05       		.byte	0x5
 4558 0395 9504     		.2byte	0x495
 4559 0397 D2030000 		.4byte	0x3d2
 4560 039b 0C       		.uleb128 0xc
 4561 039c 06120000 		.4byte	.LASF126
 4562 03a0 01       		.byte	0x1
 4563 03a1 0C       		.uleb128 0xc
 4564 03a2 710C0000 		.4byte	.LASF127
 4565 03a6 02       		.byte	0x2
 4566 03a7 0C       		.uleb128 0xc
 4567 03a8 66360000 		.4byte	.LASF128
 4568 03ac 03       		.byte	0x3
 4569 03ad 0C       		.uleb128 0xc
 4570 03ae D20A0000 		.4byte	.LASF129
 4571 03b2 04       		.byte	0x4
 4572 03b3 0C       		.uleb128 0xc
 4573 03b4 BD160000 		.4byte	.LASF130
ARM GAS  C:\Users\run1009\AppData\Local\Temp\ccSZtXoF.s 			page 152


 4574 03b8 05       		.byte	0x5
 4575 03b9 0C       		.uleb128 0xc
 4576 03ba 26240000 		.4byte	.LASF131
 4577 03be 06       		.byte	0x6
 4578 03bf 0C       		.uleb128 0xc
 4579 03c0 1E4A0000 		.4byte	.LASF132
 4580 03c4 07       		.byte	0x7
 4581 03c5 0C       		.uleb128 0xc
 4582 03c6 84230000 		.4byte	.LASF133
 4583 03ca 08       		.byte	0x8
 4584 03cb 0C       		.uleb128 0xc
 4585 03cc 992C0000 		.4byte	.LASF134
 4586 03d0 09       		.byte	0x9
 4587 03d1 00       		.byte	0
 4588 03d2 05       		.uleb128 0x5
 4589 03d3 FF280000 		.4byte	.LASF135
 4590 03d7 05       		.byte	0x5
 4591 03d8 AC04     		.2byte	0x4ac
 4592 03da 8E030000 		.4byte	0x38e
 4593 03de 0B       		.uleb128 0xb
 4594 03df 01       		.byte	0x1
 4595 03e0 2C000000 		.4byte	0x2c
 4596 03e4 05       		.byte	0x5
 4597 03e5 B004     		.2byte	0x4b0
 4598 03e7 FE030000 		.4byte	0x3fe
 4599 03eb 0C       		.uleb128 0xc
 4600 03ec 354A0000 		.4byte	.LASF136
 4601 03f0 00       		.byte	0
 4602 03f1 0C       		.uleb128 0xc
 4603 03f2 BD300000 		.4byte	.LASF137
 4604 03f6 01       		.byte	0x1
 4605 03f7 0C       		.uleb128 0xc
 4606 03f8 F24C0000 		.4byte	.LASF138
 4607 03fc 02       		.byte	0x2
 4608 03fd 00       		.byte	0
 4609 03fe 05       		.uleb128 0x5
 4610 03ff E0120000 		.4byte	.LASF139
 4611 0403 05       		.byte	0x5
 4612 0404 B704     		.2byte	0x4b7
 4613 0406 DE030000 		.4byte	0x3de
 4614 040a 0E       		.uleb128 0xe
 4615 040b 02       		.byte	0x2
 4616 040c 05       		.byte	0x5
 4617 040d BA04     		.2byte	0x4ba
 4618 040f 2E040000 		.4byte	0x42e
 4619 0413 0F       		.uleb128 0xf
 4620 0414 5D040000 		.4byte	.LASF140
 4621 0418 05       		.byte	0x5
 4622 0419 BD04     		.2byte	0x4bd
 4623 041b D2030000 		.4byte	0x3d2
 4624 041f 00       		.byte	0
 4625 0420 0F       		.uleb128 0xf
 4626 0421 EC100000 		.4byte	.LASF141
 4627 0425 05       		.byte	0x5
 4628 0426 BF04     		.2byte	0x4bf
 4629 0428 FE030000 		.4byte	0x3fe
 4630 042c 01       		.byte	0x1
ARM GAS  C:\Users\run1009\AppData\Local\Temp\ccSZtXoF.s 			page 153


 4631 042d 00       		.byte	0
 4632 042e 05       		.uleb128 0x5
 4633 042f D24C0000 		.4byte	.LASF142
 4634 0433 05       		.byte	0x5
 4635 0434 C004     		.2byte	0x4c0
 4636 0436 0A040000 		.4byte	0x40a
 4637 043a 0B       		.uleb128 0xb
 4638 043b 01       		.byte	0x1
 4639 043c 2C000000 		.4byte	0x2c
 4640 0440 05       		.byte	0x5
 4641 0441 EA04     		.2byte	0x4ea
 4642 0443 54040000 		.4byte	0x454
 4643 0447 0C       		.uleb128 0xc
 4644 0448 98390000 		.4byte	.LASF143
 4645 044c 00       		.byte	0
 4646 044d 0C       		.uleb128 0xc
 4647 044e 8F240000 		.4byte	.LASF144
 4648 0452 01       		.byte	0x1
 4649 0453 00       		.byte	0
 4650 0454 05       		.uleb128 0x5
 4651 0455 6F4D0000 		.4byte	.LASF145
 4652 0459 05       		.byte	0x5
 4653 045a F104     		.2byte	0x4f1
 4654 045c 3A040000 		.4byte	0x43a
 4655 0460 0E       		.uleb128 0xe
 4656 0461 08       		.byte	0x8
 4657 0462 05       		.byte	0x5
 4658 0463 F404     		.2byte	0x4f4
 4659 0465 91040000 		.4byte	0x491
 4660 0469 0F       		.uleb128 0xf
 4661 046a 92020000 		.4byte	.LASF146
 4662 046e 05       		.byte	0x5
 4663 046f F704     		.2byte	0x4f7
 4664 0471 54040000 		.4byte	0x454
 4665 0475 00       		.byte	0
 4666 0476 0F       		.uleb128 0xf
 4667 0477 90220000 		.4byte	.LASF147
 4668 047b 05       		.byte	0x5
 4669 047c FC04     		.2byte	0x4fc
 4670 047e 81000000 		.4byte	0x81
 4671 0482 01       		.byte	0x1
 4672 0483 0F       		.uleb128 0xf
 4673 0484 D6150000 		.4byte	.LASF148
 4674 0488 05       		.byte	0x5
 4675 0489 0405     		.2byte	0x504
 4676 048b CD000000 		.4byte	0xcd
 4677 048f 04       		.byte	0x4
 4678 0490 00       		.byte	0
 4679 0491 05       		.uleb128 0x5
 4680 0492 F62A0000 		.4byte	.LASF149
 4681 0496 05       		.byte	0x5
 4682 0497 0605     		.2byte	0x506
 4683 0499 60040000 		.4byte	0x460
 4684 049d 0E       		.uleb128 0xe
 4685 049e 07       		.byte	0x7
 4686 049f 05       		.byte	0x5
 4687 04a0 2A05     		.2byte	0x52a
ARM GAS  C:\Users\run1009\AppData\Local\Temp\ccSZtXoF.s 			page 154


 4688 04a2 C1040000 		.4byte	0x4c1
 4689 04a6 0F       		.uleb128 0xf
 4690 04a7 49490000 		.4byte	.LASF150
 4691 04ab 05       		.byte	0x5
 4692 04ac 2D05     		.2byte	0x52d
 4693 04ae C1040000 		.4byte	0x4c1
 4694 04b2 00       		.byte	0
 4695 04b3 0F       		.uleb128 0xf
 4696 04b4 CE070000 		.4byte	.LASF151
 4697 04b8 05       		.byte	0x5
 4698 04b9 2F05     		.2byte	0x52f
 4699 04bb 81000000 		.4byte	0x81
 4700 04bf 06       		.byte	0x6
 4701 04c0 00       		.byte	0
 4702 04c1 10       		.uleb128 0x10
 4703 04c2 81000000 		.4byte	0x81
 4704 04c6 D1040000 		.4byte	0x4d1
 4705 04ca 11       		.uleb128 0x11
 4706 04cb C6000000 		.4byte	0xc6
 4707 04cf 05       		.byte	0x5
 4708 04d0 00       		.byte	0
 4709 04d1 05       		.uleb128 0x5
 4710 04d2 9A3D0000 		.4byte	.LASF152
 4711 04d6 05       		.byte	0x5
 4712 04d7 3005     		.2byte	0x530
 4713 04d9 9D040000 		.4byte	0x49d
 4714 04dd 08       		.uleb128 0x8
 4715 04de 04       		.byte	0x4
 4716 04df 81000000 		.4byte	0x81
 4717 04e3 12       		.uleb128 0x12
 4718 04e4 01       		.byte	0x1
 4719 04e5 2C000000 		.4byte	0x2c
 4720 04e9 06       		.byte	0x6
 4721 04ea 2F       		.byte	0x2f
 4722 04eb 08050000 		.4byte	0x508
 4723 04ef 0C       		.uleb128 0xc
 4724 04f0 C73D0000 		.4byte	.LASF153
 4725 04f4 01       		.byte	0x1
 4726 04f5 0C       		.uleb128 0xc
 4727 04f6 E03C0000 		.4byte	.LASF154
 4728 04fa 02       		.byte	0x2
 4729 04fb 0C       		.uleb128 0xc
 4730 04fc D74F0000 		.4byte	.LASF155
 4731 0500 03       		.byte	0x3
 4732 0501 0C       		.uleb128 0xc
 4733 0502 183F0000 		.4byte	.LASF156
 4734 0506 04       		.byte	0x4
 4735 0507 00       		.byte	0
 4736 0508 03       		.uleb128 0x3
 4737 0509 D3070000 		.4byte	.LASF157
 4738 050d 06       		.byte	0x6
 4739 050e 3C       		.byte	0x3c
 4740 050f E3040000 		.4byte	0x4e3
 4741 0513 0B       		.uleb128 0xb
 4742 0514 01       		.byte	0x1
 4743 0515 2C000000 		.4byte	0x2c
 4744 0519 07       		.byte	0x7
ARM GAS  C:\Users\run1009\AppData\Local\Temp\ccSZtXoF.s 			page 155


 4745 051a 0801     		.2byte	0x108
 4746 051c 3F050000 		.4byte	0x53f
 4747 0520 0C       		.uleb128 0xc
 4748 0521 290E0000 		.4byte	.LASF158
 4749 0525 00       		.byte	0
 4750 0526 0C       		.uleb128 0xc
 4751 0527 3F0E0000 		.4byte	.LASF159
 4752 052b 01       		.byte	0x1
 4753 052c 0C       		.uleb128 0xc
 4754 052d 550E0000 		.4byte	.LASF160
 4755 0531 02       		.byte	0x2
 4756 0532 0C       		.uleb128 0xc
 4757 0533 6B0E0000 		.4byte	.LASF161
 4758 0537 03       		.byte	0x3
 4759 0538 0C       		.uleb128 0xc
 4760 0539 0B1A0000 		.4byte	.LASF162
 4761 053d 0F       		.byte	0xf
 4762 053e 00       		.byte	0
 4763 053f 0B       		.uleb128 0xb
 4764 0540 01       		.byte	0x1
 4765 0541 2C000000 		.4byte	0x2c
 4766 0545 07       		.byte	0x7
 4767 0546 2701     		.2byte	0x127
 4768 0548 6B050000 		.4byte	0x56b
 4769 054c 0C       		.uleb128 0xc
 4770 054d 490A0000 		.4byte	.LASF163
 4771 0551 00       		.byte	0
 4772 0552 0C       		.uleb128 0xc
 4773 0553 2A4C0000 		.4byte	.LASF164
 4774 0557 01       		.byte	0x1
 4775 0558 0C       		.uleb128 0xc
 4776 0559 82170000 		.4byte	.LASF165
 4777 055d 02       		.byte	0x2
 4778 055e 0C       		.uleb128 0xc
 4779 055f 34030000 		.4byte	.LASF166
 4780 0563 03       		.byte	0x3
 4781 0564 0C       		.uleb128 0xc
 4782 0565 55450000 		.4byte	.LASF167
 4783 0569 04       		.byte	0x4
 4784 056a 00       		.byte	0
 4785 056b 0B       		.uleb128 0xb
 4786 056c 01       		.byte	0x1
 4787 056d 2C000000 		.4byte	0x2c
 4788 0571 07       		.byte	0x7
 4789 0572 3D01     		.2byte	0x13d
 4790 0574 E5050000 		.4byte	0x5e5
 4791 0578 0C       		.uleb128 0xc
 4792 0579 9A370000 		.4byte	.LASF168
 4793 057d 00       		.byte	0
 4794 057e 0C       		.uleb128 0xc
 4795 057f D40B0000 		.4byte	.LASF169
 4796 0583 01       		.byte	0x1
 4797 0584 0C       		.uleb128 0xc
 4798 0585 CD380000 		.4byte	.LASF170
 4799 0589 02       		.byte	0x2
 4800 058a 0C       		.uleb128 0xc
 4801 058b F3240000 		.4byte	.LASF171
ARM GAS  C:\Users\run1009\AppData\Local\Temp\ccSZtXoF.s 			page 156


 4802 058f 03       		.byte	0x3
 4803 0590 0C       		.uleb128 0xc
 4804 0591 F00F0000 		.4byte	.LASF172
 4805 0595 04       		.byte	0x4
 4806 0596 0C       		.uleb128 0xc
 4807 0597 CA3E0000 		.4byte	.LASF173
 4808 059b 05       		.byte	0x5
 4809 059c 0C       		.uleb128 0xc
 4810 059d BD290000 		.4byte	.LASF174
 4811 05a1 06       		.byte	0x6
 4812 05a2 0C       		.uleb128 0xc
 4813 05a3 C8240000 		.4byte	.LASF175
 4814 05a7 07       		.byte	0x7
 4815 05a8 0C       		.uleb128 0xc
 4816 05a9 8F080000 		.4byte	.LASF176
 4817 05ad 08       		.byte	0x8
 4818 05ae 0C       		.uleb128 0xc
 4819 05af C5270000 		.4byte	.LASF177
 4820 05b3 09       		.byte	0x9
 4821 05b4 0C       		.uleb128 0xc
 4822 05b5 A3150000 		.4byte	.LASF178
 4823 05b9 0A       		.byte	0xa
 4824 05ba 0C       		.uleb128 0xc
 4825 05bb D7280000 		.4byte	.LASF179
 4826 05bf 0B       		.byte	0xb
 4827 05c0 0C       		.uleb128 0xc
 4828 05c1 FB4B0000 		.4byte	.LASF180
 4829 05c5 0C       		.byte	0xc
 4830 05c6 0C       		.uleb128 0xc
 4831 05c7 791D0000 		.4byte	.LASF181
 4832 05cb 0D       		.byte	0xd
 4833 05cc 0C       		.uleb128 0xc
 4834 05cd 4D130000 		.4byte	.LASF182
 4835 05d1 0E       		.byte	0xe
 4836 05d2 0C       		.uleb128 0xc
 4837 05d3 9A020000 		.4byte	.LASF183
 4838 05d7 0F       		.byte	0xf
 4839 05d8 0C       		.uleb128 0xc
 4840 05d9 41080000 		.4byte	.LASF184
 4841 05dd 15       		.byte	0x15
 4842 05de 0C       		.uleb128 0xc
 4843 05df FD1F0000 		.4byte	.LASF185
 4844 05e3 18       		.byte	0x18
 4845 05e4 00       		.byte	0
 4846 05e5 05       		.uleb128 0x5
 4847 05e6 AF330000 		.4byte	.LASF186
 4848 05ea 07       		.byte	0x7
 4849 05eb 7D01     		.2byte	0x17d
 4850 05ed 6B050000 		.4byte	0x56b
 4851 05f1 0E       		.uleb128 0xe
 4852 05f2 05       		.byte	0x5
 4853 05f3 07       		.byte	0x7
 4854 05f4 C601     		.2byte	0x1c6
 4855 05f6 3C060000 		.4byte	0x63c
 4856 05fa 0F       		.uleb128 0xf
 4857 05fb 0D2B0000 		.4byte	.LASF187
 4858 05ff 07       		.byte	0x7
ARM GAS  C:\Users\run1009\AppData\Local\Temp\ccSZtXoF.s 			page 157


 4859 0600 D001     		.2byte	0x1d0
 4860 0602 81000000 		.4byte	0x81
 4861 0606 00       		.byte	0
 4862 0607 0F       		.uleb128 0xf
 4863 0608 D72F0000 		.4byte	.LASF188
 4864 060c 07       		.byte	0x7
 4865 060d D601     		.2byte	0x1d6
 4866 060f 81000000 		.4byte	0x81
 4867 0613 01       		.byte	0x1
 4868 0614 0F       		.uleb128 0xf
 4869 0615 28010000 		.4byte	.LASF189
 4870 0619 07       		.byte	0x7
 4871 061a DD01     		.2byte	0x1dd
 4872 061c 81000000 		.4byte	0x81
 4873 0620 02       		.byte	0x2
 4874 0621 0F       		.uleb128 0xf
 4875 0622 35440000 		.4byte	.LASF190
 4876 0626 07       		.byte	0x7
 4877 0627 E101     		.2byte	0x1e1
 4878 0629 E5050000 		.4byte	0x5e5
 4879 062d 03       		.byte	0x3
 4880 062e 0F       		.uleb128 0xf
 4881 062f 5F410000 		.4byte	.LASF191
 4882 0633 07       		.byte	0x7
 4883 0634 EB01     		.2byte	0x1eb
 4884 0636 81000000 		.4byte	0x81
 4885 063a 04       		.byte	0x4
 4886 063b 00       		.byte	0
 4887 063c 05       		.uleb128 0x5
 4888 063d 6C170000 		.4byte	.LASF192
 4889 0641 07       		.byte	0x7
 4890 0642 ED01     		.2byte	0x1ed
 4891 0644 F1050000 		.4byte	0x5f1
 4892 0648 10       		.uleb128 0x10
 4893 0649 81000000 		.4byte	0x81
 4894 064d 58060000 		.4byte	0x658
 4895 0651 11       		.uleb128 0x11
 4896 0652 C6000000 		.4byte	0xc6
 4897 0656 0F       		.byte	0xf
 4898 0657 00       		.byte	0
 4899 0658 0E       		.uleb128 0xe
 4900 0659 08       		.byte	0x8
 4901 065a 07       		.byte	0x7
 4902 065b 7203     		.2byte	0x372
 4903 065d 96060000 		.4byte	0x696
 4904 0661 0F       		.uleb128 0xf
 4905 0662 1F240000 		.4byte	.LASF193
 4906 0666 07       		.byte	0x7
 4907 0667 7803     		.2byte	0x378
 4908 0669 81000000 		.4byte	0x81
 4909 066d 00       		.byte	0
 4910 066e 0F       		.uleb128 0xf
 4911 066f E84D0000 		.4byte	.LASF194
 4912 0673 07       		.byte	0x7
 4913 0674 7E03     		.2byte	0x37e
 4914 0676 8D000000 		.4byte	0x8d
 4915 067a 02       		.byte	0x2
ARM GAS  C:\Users\run1009\AppData\Local\Temp\ccSZtXoF.s 			page 158


 4916 067b 0F       		.uleb128 0xf
 4917 067c EF4B0000 		.4byte	.LASF195
 4918 0680 07       		.byte	0x7
 4919 0681 8303     		.2byte	0x383
 4920 0683 8D000000 		.4byte	0x8d
 4921 0687 04       		.byte	0x4
 4922 0688 0F       		.uleb128 0xf
 4923 0689 C94F0000 		.4byte	.LASF196
 4924 068d 07       		.byte	0x7
 4925 068e 8903     		.2byte	0x389
 4926 0690 8D000000 		.4byte	0x8d
 4927 0694 06       		.byte	0x6
 4928 0695 00       		.byte	0
 4929 0696 05       		.uleb128 0x5
 4930 0697 D9390000 		.4byte	.LASF197
 4931 069b 07       		.byte	0x7
 4932 069c 8B03     		.2byte	0x38b
 4933 069e 58060000 		.4byte	0x658
 4934 06a2 12       		.uleb128 0x12
 4935 06a3 01       		.byte	0x1
 4936 06a4 2C000000 		.4byte	0x2c
 4937 06a8 08       		.byte	0x8
 4938 06a9 49       		.byte	0x49
 4939 06aa 5D070000 		.4byte	0x75d
 4940 06ae 0C       		.uleb128 0xc
 4941 06af A91B0000 		.4byte	.LASF198
 4942 06b3 01       		.byte	0x1
 4943 06b4 0C       		.uleb128 0xc
 4944 06b5 4B180000 		.4byte	.LASF199
 4945 06b9 02       		.byte	0x2
 4946 06ba 0C       		.uleb128 0xc
 4947 06bb BD0C0000 		.4byte	.LASF200
 4948 06bf 03       		.byte	0x3
 4949 06c0 0C       		.uleb128 0xc
 4950 06c1 8C120000 		.4byte	.LASF201
 4951 06c5 04       		.byte	0x4
 4952 06c6 0C       		.uleb128 0xc
 4953 06c7 B4380000 		.4byte	.LASF202
 4954 06cb 05       		.byte	0x5
 4955 06cc 0C       		.uleb128 0xc
 4956 06cd 2F360000 		.4byte	.LASF203
 4957 06d1 06       		.byte	0x6
 4958 06d2 0C       		.uleb128 0xc
 4959 06d3 810E0000 		.4byte	.LASF204
 4960 06d7 07       		.byte	0x7
 4961 06d8 0C       		.uleb128 0xc
 4962 06d9 24350000 		.4byte	.LASF205
 4963 06dd 08       		.byte	0x8
 4964 06de 0C       		.uleb128 0xc
 4965 06df D3080000 		.4byte	.LASF206
 4966 06e3 09       		.byte	0x9
 4967 06e4 0C       		.uleb128 0xc
 4968 06e5 AD230000 		.4byte	.LASF207
 4969 06e9 0A       		.byte	0xa
 4970 06ea 0C       		.uleb128 0xc
 4971 06eb C3490000 		.4byte	.LASF208
 4972 06ef 0B       		.byte	0xb
ARM GAS  C:\Users\run1009\AppData\Local\Temp\ccSZtXoF.s 			page 159


 4973 06f0 0C       		.uleb128 0xc
 4974 06f1 AE3D0000 		.4byte	.LASF209
 4975 06f5 0C       		.byte	0xc
 4976 06f6 0C       		.uleb128 0xc
 4977 06f7 63110000 		.4byte	.LASF210
 4978 06fb 0D       		.byte	0xd
 4979 06fc 0C       		.uleb128 0xc
 4980 06fd 96340000 		.4byte	.LASF211
 4981 0701 0E       		.byte	0xe
 4982 0702 0C       		.uleb128 0xc
 4983 0703 97070000 		.4byte	.LASF212
 4984 0707 0F       		.byte	0xf
 4985 0708 0C       		.uleb128 0xc
 4986 0709 E94E0000 		.4byte	.LASF213
 4987 070d 10       		.byte	0x10
 4988 070e 0C       		.uleb128 0xc
 4989 070f D5220000 		.4byte	.LASF214
 4990 0713 11       		.byte	0x11
 4991 0714 0C       		.uleb128 0xc
 4992 0715 16440000 		.4byte	.LASF215
 4993 0719 12       		.byte	0x12
 4994 071a 0C       		.uleb128 0xc
 4995 071b F4160000 		.4byte	.LASF216
 4996 071f 13       		.byte	0x13
 4997 0720 0C       		.uleb128 0xc
 4998 0721 A2030000 		.4byte	.LASF217
 4999 0725 52       		.byte	0x52
 5000 0726 0C       		.uleb128 0xc
 5001 0727 03060000 		.4byte	.LASF218
 5002 072b 16       		.byte	0x16
 5003 072c 0C       		.uleb128 0xc
 5004 072d 38320000 		.4byte	.LASF219
 5005 0731 17       		.byte	0x17
 5006 0732 0C       		.uleb128 0xc
 5007 0733 904C0000 		.4byte	.LASF220
 5008 0737 18       		.byte	0x18
 5009 0738 0C       		.uleb128 0xc
 5010 0739 871F0000 		.4byte	.LASF221
 5011 073d 19       		.byte	0x19
 5012 073e 0C       		.uleb128 0xc
 5013 073f 3A250000 		.4byte	.LASF222
 5014 0743 1B       		.byte	0x1b
 5015 0744 0C       		.uleb128 0xc
 5016 0745 06140000 		.4byte	.LASF223
 5017 0749 1D       		.byte	0x1d
 5018 074a 0C       		.uleb128 0xc
 5019 074b 50010000 		.4byte	.LASF224
 5020 074f 1E       		.byte	0x1e
 5021 0750 0C       		.uleb128 0xc
 5022 0751 D91E0000 		.4byte	.LASF225
 5023 0755 D2       		.byte	0xd2
 5024 0756 0C       		.uleb128 0xc
 5025 0757 B73A0000 		.4byte	.LASF226
 5026 075b FF       		.byte	0xff
 5027 075c 00       		.byte	0
 5028 075d 03       		.uleb128 0x3
 5029 075e F40D0000 		.4byte	.LASF227
ARM GAS  C:\Users\run1009\AppData\Local\Temp\ccSZtXoF.s 			page 160


 5030 0762 08       		.byte	0x8
 5031 0763 A1       		.byte	0xa1
 5032 0764 A2060000 		.4byte	0x6a2
 5033 0768 12       		.uleb128 0x12
 5034 0769 01       		.byte	0x1
 5035 076a 2C000000 		.4byte	0x2c
 5036 076e 08       		.byte	0x8
 5037 076f A5       		.byte	0xa5
 5038 0770 5F080000 		.4byte	0x85f
 5039 0774 0C       		.uleb128 0xc
 5040 0775 7F3B0000 		.4byte	.LASF228
 5041 0779 00       		.byte	0
 5042 077a 0C       		.uleb128 0xc
 5043 077b 4E3A0000 		.4byte	.LASF229
 5044 077f 01       		.byte	0x1
 5045 0780 0C       		.uleb128 0xc
 5046 0781 BC050000 		.4byte	.LASF230
 5047 0785 02       		.byte	0x2
 5048 0786 0C       		.uleb128 0xc
 5049 0787 B24D0000 		.4byte	.LASF231
 5050 078b 03       		.byte	0x3
 5051 078c 0C       		.uleb128 0xc
 5052 078d D50F0000 		.4byte	.LASF232
 5053 0791 04       		.byte	0x4
 5054 0792 0C       		.uleb128 0xc
 5055 0793 2E300000 		.4byte	.LASF233
 5056 0797 05       		.byte	0x5
 5057 0798 0C       		.uleb128 0xc
 5058 0799 16450000 		.4byte	.LASF234
 5059 079d 06       		.byte	0x6
 5060 079e 0C       		.uleb128 0xc
 5061 079f 06350000 		.4byte	.LASF235
 5062 07a3 07       		.byte	0x7
 5063 07a4 0C       		.uleb128 0xc
 5064 07a5 622F0000 		.4byte	.LASF236
 5065 07a9 08       		.byte	0x8
 5066 07aa 0C       		.uleb128 0xc
 5067 07ab 562B0000 		.4byte	.LASF237
 5068 07af 09       		.byte	0x9
 5069 07b0 0C       		.uleb128 0xc
 5070 07b1 8B320000 		.4byte	.LASF238
 5071 07b5 0A       		.byte	0xa
 5072 07b6 0C       		.uleb128 0xc
 5073 07b7 83190000 		.4byte	.LASF239
 5074 07bb 0B       		.byte	0xb
 5075 07bc 0C       		.uleb128 0xc
 5076 07bd 702C0000 		.4byte	.LASF240
 5077 07c1 0C       		.byte	0xc
 5078 07c2 0C       		.uleb128 0xc
 5079 07c3 95110000 		.4byte	.LASF241
 5080 07c7 0D       		.byte	0xd
 5081 07c8 0C       		.uleb128 0xc
 5082 07c9 E9170000 		.4byte	.LASF242
 5083 07cd 0E       		.byte	0xe
 5084 07ce 0C       		.uleb128 0xc
 5085 07cf 044E0000 		.4byte	.LASF243
 5086 07d3 0F       		.byte	0xf
ARM GAS  C:\Users\run1009\AppData\Local\Temp\ccSZtXoF.s 			page 161


 5087 07d4 0C       		.uleb128 0xc
 5088 07d5 20060000 		.4byte	.LASF244
 5089 07d9 10       		.byte	0x10
 5090 07da 0C       		.uleb128 0xc
 5091 07db DE050000 		.4byte	.LASF245
 5092 07df 11       		.byte	0x11
 5093 07e0 0C       		.uleb128 0xc
 5094 07e1 EA070000 		.4byte	.LASF246
 5095 07e5 80       		.byte	0x80
 5096 07e6 0C       		.uleb128 0xc
 5097 07e7 29190000 		.4byte	.LASF247
 5098 07eb 80       		.byte	0x80
 5099 07ec 0C       		.uleb128 0xc
 5100 07ed AE210000 		.4byte	.LASF248
 5101 07f1 80       		.byte	0x80
 5102 07f2 0C       		.uleb128 0xc
 5103 07f3 C2440000 		.4byte	.LASF249
 5104 07f7 80       		.byte	0x80
 5105 07f8 0C       		.uleb128 0xc
 5106 07f9 F23C0000 		.4byte	.LASF250
 5107 07fd 80       		.byte	0x80
 5108 07fe 0C       		.uleb128 0xc
 5109 07ff 61310000 		.4byte	.LASF251
 5110 0803 80       		.byte	0x80
 5111 0804 0C       		.uleb128 0xc
 5112 0805 3B230000 		.4byte	.LASF252
 5113 0809 80       		.byte	0x80
 5114 080a 0C       		.uleb128 0xc
 5115 080b CE170000 		.4byte	.LASF253
 5116 080f 80       		.byte	0x80
 5117 0810 0C       		.uleb128 0xc
 5118 0811 391F0000 		.4byte	.LASF254
 5119 0815 81       		.byte	0x81
 5120 0816 0C       		.uleb128 0xc
 5121 0817 20400000 		.4byte	.LASF255
 5122 081b 81       		.byte	0x81
 5123 081c 0C       		.uleb128 0xc
 5124 081d 64000000 		.4byte	.LASF256
 5125 0821 81       		.byte	0x81
 5126 0822 0C       		.uleb128 0xc
 5127 0823 6A0F0000 		.4byte	.LASF257
 5128 0827 81       		.byte	0x81
 5129 0828 0C       		.uleb128 0xc
 5130 0829 6A0B0000 		.4byte	.LASF258
 5131 082d 82       		.byte	0x82
 5132 082e 0C       		.uleb128 0xc
 5133 082f 50490000 		.4byte	.LASF259
 5134 0833 A0       		.byte	0xa0
 5135 0834 0C       		.uleb128 0xc
 5136 0835 1A260000 		.4byte	.LASF260
 5137 0839 A0       		.byte	0xa0
 5138 083a 0C       		.uleb128 0xc
 5139 083b FE0B0000 		.4byte	.LASF261
 5140 083f A1       		.byte	0xa1
 5141 0840 0C       		.uleb128 0xc
 5142 0841 B4470000 		.4byte	.LASF262
 5143 0845 A2       		.byte	0xa2
ARM GAS  C:\Users\run1009\AppData\Local\Temp\ccSZtXoF.s 			page 162


 5144 0846 0C       		.uleb128 0xc
 5145 0847 C11A0000 		.4byte	.LASF263
 5146 084b A3       		.byte	0xa3
 5147 084c 0C       		.uleb128 0xc
 5148 084d FC120000 		.4byte	.LASF264
 5149 0851 FD       		.byte	0xfd
 5150 0852 0C       		.uleb128 0xc
 5151 0853 EF2C0000 		.4byte	.LASF265
 5152 0857 FE       		.byte	0xfe
 5153 0858 0C       		.uleb128 0xc
 5154 0859 BE350000 		.4byte	.LASF266
 5155 085d FF       		.byte	0xff
 5156 085e 00       		.byte	0
 5157 085f 05       		.uleb128 0x5
 5158 0860 9E470000 		.4byte	.LASF267
 5159 0864 08       		.byte	0x8
 5160 0865 5F01     		.2byte	0x15f
 5161 0867 68070000 		.4byte	0x768
 5162 086b 05       		.uleb128 0x5
 5163 086c AA270000 		.4byte	.LASF268
 5164 0870 08       		.byte	0x8
 5165 0871 6D01     		.2byte	0x16d
 5166 0873 8D000000 		.4byte	0x8d
 5167 0877 0E       		.uleb128 0xe
 5168 0878 10       		.byte	0x10
 5169 0879 08       		.byte	0x8
 5170 087a 7001     		.2byte	0x170
 5171 087c 8E080000 		.4byte	0x88e
 5172 0880 0F       		.uleb128 0xf
 5173 0881 933B0000 		.4byte	.LASF269
 5174 0885 08       		.byte	0x8
 5175 0886 7301     		.2byte	0x173
 5176 0888 48060000 		.4byte	0x648
 5177 088c 00       		.byte	0
 5178 088d 00       		.byte	0
 5179 088e 05       		.uleb128 0x5
 5180 088f C7250000 		.4byte	.LASF270
 5181 0893 08       		.byte	0x8
 5182 0894 7401     		.2byte	0x174
 5183 0896 77080000 		.4byte	0x877
 5184 089a 13       		.uleb128 0x13
 5185 089b 10       		.byte	0x10
 5186 089c 08       		.byte	0x8
 5187 089d 7701     		.2byte	0x177
 5188 089f BC080000 		.4byte	0x8bc
 5189 08a3 14       		.uleb128 0x14
 5190 08a4 1A3C0000 		.4byte	.LASF271
 5191 08a8 08       		.byte	0x8
 5192 08a9 7A01     		.2byte	0x17a
 5193 08ab 6B080000 		.4byte	0x86b
 5194 08af 14       		.uleb128 0x14
 5195 08b0 D1370000 		.4byte	.LASF272
 5196 08b4 08       		.byte	0x8
 5197 08b5 7D01     		.2byte	0x17d
 5198 08b7 8E080000 		.4byte	0x88e
 5199 08bb 00       		.byte	0
 5200 08bc 05       		.uleb128 0x5
ARM GAS  C:\Users\run1009\AppData\Local\Temp\ccSZtXoF.s 			page 163


 5201 08bd F6510000 		.4byte	.LASF273
 5202 08c1 08       		.byte	0x8
 5203 08c2 7F01     		.2byte	0x17f
 5204 08c4 9A080000 		.4byte	0x89a
 5205 08c8 05       		.uleb128 0x5
 5206 08c9 FC3A0000 		.4byte	.LASF274
 5207 08cd 08       		.byte	0x8
 5208 08ce 8901     		.2byte	0x189
 5209 08d0 8D000000 		.4byte	0x8d
 5210 08d4 0E       		.uleb128 0xe
 5211 08d5 02       		.byte	0x2
 5212 08d6 08       		.byte	0x8
 5213 08d7 9301     		.2byte	0x193
 5214 08d9 F8080000 		.4byte	0x8f8
 5215 08dd 0F       		.uleb128 0xf
 5216 08de 470B0000 		.4byte	.LASF275
 5217 08e2 08       		.byte	0x8
 5218 08e3 9A01     		.2byte	0x19a
 5219 08e5 81000000 		.4byte	0x81
 5220 08e9 00       		.byte	0
 5221 08ea 0F       		.uleb128 0xf
 5222 08eb 724F0000 		.4byte	.LASF276
 5223 08ef 08       		.byte	0x8
 5224 08f0 A001     		.2byte	0x1a0
 5225 08f2 81000000 		.4byte	0x81
 5226 08f6 01       		.byte	0x1
 5227 08f7 00       		.byte	0
 5228 08f8 05       		.uleb128 0x5
 5229 08f9 BB090000 		.4byte	.LASF277
 5230 08fd 08       		.byte	0x8
 5231 08fe A201     		.2byte	0x1a2
 5232 0900 D4080000 		.4byte	0x8d4
 5233 0904 0E       		.uleb128 0xe
 5234 0905 08       		.byte	0x8
 5235 0906 08       		.byte	0x8
 5236 0907 BE01     		.2byte	0x1be
 5237 0909 35090000 		.4byte	0x935
 5238 090d 15       		.uleb128 0x15
 5239 090e 76616C00 		.ascii	"val\000"
 5240 0912 08       		.byte	0x8
 5241 0913 C101     		.2byte	0x1c1
 5242 0915 DD040000 		.4byte	0x4dd
 5243 0919 00       		.byte	0
 5244 091a 15       		.uleb128 0x15
 5245 091b 6C656E00 		.ascii	"len\000"
 5246 091f 08       		.byte	0x8
 5247 0920 C401     		.2byte	0x1c4
 5248 0922 8D000000 		.4byte	0x8d
 5249 0926 04       		.byte	0x4
 5250 0927 0F       		.uleb128 0xf
 5251 0928 B14E0000 		.4byte	.LASF278
 5252 092c 08       		.byte	0x8
 5253 092d CB01     		.2byte	0x1cb
 5254 092f 8D000000 		.4byte	0x8d
 5255 0933 06       		.byte	0x6
 5256 0934 00       		.byte	0
 5257 0935 05       		.uleb128 0x5
ARM GAS  C:\Users\run1009\AppData\Local\Temp\ccSZtXoF.s 			page 164


 5258 0936 5A070000 		.4byte	.LASF279
 5259 093a 08       		.byte	0x8
 5260 093b CD01     		.2byte	0x1cd
 5261 093d 04090000 		.4byte	0x904
 5262 0941 0E       		.uleb128 0xe
 5263 0942 0C       		.byte	0xc
 5264 0943 08       		.byte	0x8
 5265 0944 D001     		.2byte	0x1d0
 5266 0946 65090000 		.4byte	0x965
 5267 094a 0F       		.uleb128 0xf
 5268 094b 933B0000 		.4byte	.LASF269
 5269 094f 08       		.byte	0x8
 5270 0950 D301     		.2byte	0x1d3
 5271 0952 35090000 		.4byte	0x935
 5272 0956 00       		.byte	0
 5273 0957 0F       		.uleb128 0xf
 5274 0958 8C2F0000 		.4byte	.LASF280
 5275 095c 08       		.byte	0x8
 5276 095d D601     		.2byte	0x1d6
 5277 095f C8080000 		.4byte	0x8c8
 5278 0963 08       		.byte	0x8
 5279 0964 00       		.byte	0
 5280 0965 05       		.uleb128 0x5
 5281 0966 9A100000 		.4byte	.LASF281
 5282 096a 08       		.byte	0x8
 5283 096b D801     		.2byte	0x1d8
 5284 096d 41090000 		.4byte	0x941
 5285 0971 0E       		.uleb128 0xe
 5286 0972 04       		.byte	0x4
 5287 0973 08       		.byte	0x8
 5288 0974 DB01     		.2byte	0x1db
 5289 0976 95090000 		.4byte	0x995
 5290 097a 0F       		.uleb128 0xf
 5291 097b A2210000 		.4byte	.LASF282
 5292 097f 08       		.byte	0x8
 5293 0980 DE01     		.2byte	0x1de
 5294 0982 C8080000 		.4byte	0x8c8
 5295 0986 00       		.byte	0
 5296 0987 0F       		.uleb128 0xf
 5297 0988 9F4A0000 		.4byte	.LASF283
 5298 098c 08       		.byte	0x8
 5299 098d E101     		.2byte	0x1e1
 5300 098f C8080000 		.4byte	0x8c8
 5301 0993 02       		.byte	0x2
 5302 0994 00       		.byte	0
 5303 0995 05       		.uleb128 0x5
 5304 0996 76450000 		.4byte	.LASF284
 5305 099a 08       		.byte	0x8
 5306 099b E301     		.2byte	0x1e3
 5307 099d 71090000 		.4byte	0x971
 5308 09a1 0E       		.uleb128 0xe
 5309 09a2 04       		.byte	0x4
 5310 09a3 08       		.byte	0x8
 5311 09a4 E601     		.2byte	0x1e6
 5312 09a6 C5090000 		.4byte	0x9c5
 5313 09aa 0F       		.uleb128 0xf
 5314 09ab 363E0000 		.4byte	.LASF285
ARM GAS  C:\Users\run1009\AppData\Local\Temp\ccSZtXoF.s 			page 165


 5315 09af 08       		.byte	0x8
 5316 09b0 E901     		.2byte	0x1e9
 5317 09b2 F8080000 		.4byte	0x8f8
 5318 09b6 00       		.byte	0
 5319 09b7 15       		.uleb128 0x15
 5320 09b8 6D747500 		.ascii	"mtu\000"
 5321 09bc 08       		.byte	0x8
 5322 09bd EC01     		.2byte	0x1ec
 5323 09bf 8D000000 		.4byte	0x8d
 5324 09c3 02       		.byte	0x2
 5325 09c4 00       		.byte	0
 5326 09c5 05       		.uleb128 0x5
 5327 09c6 7E300000 		.4byte	.LASF286
 5328 09ca 08       		.byte	0x8
 5329 09cb EE01     		.2byte	0x1ee
 5330 09cd A1090000 		.4byte	0x9a1
 5331 09d1 0E       		.uleb128 0xe
 5332 09d2 08       		.byte	0x8
 5333 09d3 08       		.byte	0x8
 5334 09d4 FC01     		.2byte	0x1fc
 5335 09d6 020A0000 		.4byte	0xa02
 5336 09da 0F       		.uleb128 0xf
 5337 09db 1E380000 		.4byte	.LASF287
 5338 09df 08       		.byte	0x8
 5339 09e0 0102     		.2byte	0x201
 5340 09e2 DD040000 		.4byte	0x4dd
 5341 09e6 00       		.byte	0
 5342 09e7 0F       		.uleb128 0xf
 5343 09e8 283B0000 		.4byte	.LASF288
 5344 09ec 08       		.byte	0x8
 5345 09ed 0602     		.2byte	0x206
 5346 09ef 8D000000 		.4byte	0x8d
 5347 09f3 04       		.byte	0x4
 5348 09f4 0F       		.uleb128 0xf
 5349 09f5 CE1D0000 		.4byte	.LASF289
 5350 09f9 08       		.byte	0x8
 5351 09fa 0D02     		.2byte	0x20d
 5352 09fc 8D000000 		.4byte	0x8d
 5353 0a00 06       		.byte	0x6
 5354 0a01 00       		.byte	0
 5355 0a02 05       		.uleb128 0x5
 5356 0a03 09270000 		.4byte	.LASF290
 5357 0a07 08       		.byte	0x8
 5358 0a08 0F02     		.2byte	0x20f
 5359 0a0a D1090000 		.4byte	0x9d1
 5360 0a0e 16       		.uleb128 0x16
 5361 0a0f 04       		.byte	0x4
 5362 0a10 09       		.byte	0x9
 5363 0a11 3A       		.byte	0x3a
 5364 0a12 3B0A0000 		.4byte	0xa3b
 5365 0a16 17       		.uleb128 0x17
 5366 0a17 8C2F0000 		.4byte	.LASF280
 5367 0a1b 09       		.byte	0x9
 5368 0a1c 3D       		.byte	0x3d
 5369 0a1d C8080000 		.4byte	0x8c8
 5370 0a21 00       		.byte	0
 5371 0a22 17       		.uleb128 0x17
ARM GAS  C:\Users\run1009\AppData\Local\Temp\ccSZtXoF.s 			page 166


 5372 0a23 5B2F0000 		.4byte	.LASF291
 5373 0a27 09       		.byte	0x9
 5374 0a28 43       		.byte	0x43
 5375 0a29 81000000 		.4byte	0x81
 5376 0a2d 02       		.byte	0x2
 5377 0a2e 17       		.uleb128 0x17
 5378 0a2f 86150000 		.4byte	.LASF292
 5379 0a33 09       		.byte	0x9
 5380 0a34 46       		.byte	0x46
 5381 0a35 5F080000 		.4byte	0x85f
 5382 0a39 03       		.byte	0x3
 5383 0a3a 00       		.byte	0
 5384 0a3b 03       		.uleb128 0x3
 5385 0a3c 9E130000 		.4byte	.LASF293
 5386 0a40 09       		.byte	0x9
 5387 0a41 48       		.byte	0x48
 5388 0a42 0E0A0000 		.4byte	0xa0e
 5389 0a46 16       		.uleb128 0x16
 5390 0a47 10       		.byte	0x10
 5391 0a48 09       		.byte	0x9
 5392 0a49 8A       		.byte	0x8a
 5393 0a4a 670A0000 		.4byte	0xa67
 5394 0a4e 17       		.uleb128 0x17
 5395 0a4f 363E0000 		.4byte	.LASF285
 5396 0a53 09       		.byte	0x9
 5397 0a54 8D       		.byte	0x8d
 5398 0a55 F8080000 		.4byte	0x8f8
 5399 0a59 00       		.byte	0
 5400 0a5a 17       		.uleb128 0x17
 5401 0a5b 023E0000 		.4byte	.LASF294
 5402 0a5f 09       		.byte	0x9
 5403 0a60 90       		.byte	0x90
 5404 0a61 65090000 		.4byte	0x965
 5405 0a65 04       		.byte	0x4
 5406 0a66 00       		.byte	0
 5407 0a67 03       		.uleb128 0x3
 5408 0a68 E42F0000 		.4byte	.LASF295
 5409 0a6c 09       		.byte	0x9
 5410 0a6d 92       		.byte	0x92
 5411 0a6e 460A0000 		.4byte	0xa46
 5412 0a72 16       		.uleb128 0x16
 5413 0a73 08       		.byte	0x8
 5414 0a74 0A       		.byte	0xa
 5415 0a75 30       		.byte	0x30
 5416 0a76 AB0A0000 		.4byte	0xaab
 5417 0a7a 17       		.uleb128 0x17
 5418 0a7b 363E0000 		.4byte	.LASF285
 5419 0a7f 0A       		.byte	0xa
 5420 0a80 33       		.byte	0x33
 5421 0a81 F8080000 		.4byte	0x8f8
 5422 0a85 00       		.byte	0
 5423 0a86 17       		.uleb128 0x17
 5424 0a87 E82C0000 		.4byte	.LASF296
 5425 0a8b 0A       		.byte	0xa
 5426 0a8c 36       		.byte	0x36
 5427 0a8d 5D070000 		.4byte	0x75d
 5428 0a91 02       		.byte	0x2
ARM GAS  C:\Users\run1009\AppData\Local\Temp\ccSZtXoF.s 			page 167


 5429 0a92 17       		.uleb128 0x17
 5430 0a93 8C2F0000 		.4byte	.LASF280
 5431 0a97 0A       		.byte	0xa
 5432 0a98 39       		.byte	0x39
 5433 0a99 C8080000 		.4byte	0x8c8
 5434 0a9d 04       		.byte	0x4
 5435 0a9e 17       		.uleb128 0x17
 5436 0a9f 86150000 		.4byte	.LASF292
 5437 0aa3 0A       		.byte	0xa
 5438 0aa4 3C       		.byte	0x3c
 5439 0aa5 5F080000 		.4byte	0x85f
 5440 0aa9 06       		.byte	0x6
 5441 0aaa 00       		.byte	0
 5442 0aab 03       		.uleb128 0x3
 5443 0aac 893C0000 		.4byte	.LASF297
 5444 0ab0 0A       		.byte	0xa
 5445 0ab1 3E       		.byte	0x3e
 5446 0ab2 720A0000 		.4byte	0xa72
 5447 0ab6 03       		.uleb128 0x3
 5448 0ab7 014B0000 		.4byte	.LASF298
 5449 0abb 0A       		.byte	0xa
 5450 0abc 52       		.byte	0x52
 5451 0abd 95090000 		.4byte	0x995
 5452 0ac1 16       		.uleb128 0x16
 5453 0ac2 0C       		.byte	0xc
 5454 0ac3 0A       		.byte	0xa
 5455 0ac4 80       		.byte	0x80
 5456 0ac5 E20A0000 		.4byte	0xae2
 5457 0ac9 17       		.uleb128 0x17
 5458 0aca 363E0000 		.4byte	.LASF285
 5459 0ace 0A       		.byte	0xa
 5460 0acf 83       		.byte	0x83
 5461 0ad0 F8080000 		.4byte	0x8f8
 5462 0ad4 00       		.byte	0
 5463 0ad5 17       		.uleb128 0x17
 5464 0ad6 933B0000 		.4byte	.LASF269
 5465 0ada 0A       		.byte	0xa
 5466 0adb 86       		.byte	0x86
 5467 0adc 35090000 		.4byte	0x935
 5468 0ae0 04       		.byte	0x4
 5469 0ae1 00       		.byte	0
 5470 0ae2 03       		.uleb128 0x3
 5471 0ae3 B8450000 		.4byte	.LASF299
 5472 0ae7 0A       		.byte	0xa
 5473 0ae8 88       		.byte	0x88
 5474 0ae9 C10A0000 		.4byte	0xac1
 5475 0aed 16       		.uleb128 0x16
 5476 0aee 10       		.byte	0x10
 5477 0aef 0A       		.byte	0xa
 5478 0af0 8B       		.byte	0x8b
 5479 0af1 0E0B0000 		.4byte	0xb0e
 5480 0af5 17       		.uleb128 0x17
 5481 0af6 363E0000 		.4byte	.LASF285
 5482 0afa 0A       		.byte	0xa
 5483 0afb 8E       		.byte	0x8e
 5484 0afc F8080000 		.4byte	0x8f8
 5485 0b00 00       		.byte	0
ARM GAS  C:\Users\run1009\AppData\Local\Temp\ccSZtXoF.s 			page 168


 5486 0b01 17       		.uleb128 0x17
 5487 0b02 023E0000 		.4byte	.LASF294
 5488 0b06 0A       		.byte	0xa
 5489 0b07 91       		.byte	0x91
 5490 0b08 65090000 		.4byte	0x965
 5491 0b0c 04       		.byte	0x4
 5492 0b0d 00       		.byte	0
 5493 0b0e 03       		.uleb128 0x3
 5494 0b0f 36090000 		.4byte	.LASF300
 5495 0b13 0A       		.byte	0xa
 5496 0b14 93       		.byte	0x93
 5497 0b15 ED0A0000 		.4byte	0xaed
 5498 0b19 03       		.uleb128 0x3
 5499 0b1a D93B0000 		.4byte	.LASF301
 5500 0b1e 0A       		.byte	0xa
 5501 0b1f 96       		.byte	0x96
 5502 0b20 0E0B0000 		.4byte	0xb0e
 5503 0b24 16       		.uleb128 0x16
 5504 0b25 08       		.byte	0x8
 5505 0b26 0A       		.byte	0xa
 5506 0b27 99       		.byte	0x99
 5507 0b28 510B0000 		.4byte	0xb51
 5508 0b2c 17       		.uleb128 0x17
 5509 0b2d 601E0000 		.4byte	.LASF302
 5510 0b31 0A       		.byte	0xa
 5511 0b32 9C       		.byte	0x9c
 5512 0b33 DD040000 		.4byte	0x4dd
 5513 0b37 00       		.byte	0
 5514 0b38 17       		.uleb128 0x17
 5515 0b39 A13A0000 		.4byte	.LASF303
 5516 0b3d 0A       		.byte	0xa
 5517 0b3e 9F       		.byte	0x9f
 5518 0b3f 8D000000 		.4byte	0x8d
 5519 0b43 04       		.byte	0x4
 5520 0b44 17       		.uleb128 0x17
 5521 0b45 EA4C0000 		.4byte	.LASF304
 5522 0b49 0A       		.byte	0xa
 5523 0b4a A2       		.byte	0xa2
 5524 0b4b 8D000000 		.4byte	0x8d
 5525 0b4f 06       		.byte	0x6
 5526 0b50 00       		.byte	0
 5527 0b51 03       		.uleb128 0x3
 5528 0b52 862D0000 		.4byte	.LASF305
 5529 0b56 0A       		.byte	0xa
 5530 0b57 A3       		.byte	0xa3
 5531 0b58 240B0000 		.4byte	0xb24
 5532 0b5c 16       		.uleb128 0x16
 5533 0b5d 0C       		.byte	0xc
 5534 0b5e 0A       		.byte	0xa
 5535 0b5f A7       		.byte	0xa7
 5536 0b60 7D0B0000 		.4byte	0xb7d
 5537 0b64 17       		.uleb128 0x17
 5538 0b65 363E0000 		.4byte	.LASF285
 5539 0b69 0A       		.byte	0xa
 5540 0b6a AA       		.byte	0xaa
 5541 0b6b F8080000 		.4byte	0x8f8
 5542 0b6f 00       		.byte	0
ARM GAS  C:\Users\run1009\AppData\Local\Temp\ccSZtXoF.s 			page 169


 5543 0b70 17       		.uleb128 0x17
 5544 0b71 28280000 		.4byte	.LASF306
 5545 0b75 0A       		.byte	0xa
 5546 0b76 AD       		.byte	0xad
 5547 0b77 510B0000 		.4byte	0xb51
 5548 0b7b 04       		.byte	0x4
 5549 0b7c 00       		.byte	0
 5550 0b7d 03       		.uleb128 0x3
 5551 0b7e B1220000 		.4byte	.LASF307
 5552 0b82 0A       		.byte	0xa
 5553 0b83 AF       		.byte	0xaf
 5554 0b84 5C0B0000 		.4byte	0xb5c
 5555 0b88 03       		.uleb128 0x3
 5556 0b89 8B410000 		.4byte	.LASF308
 5557 0b8d 0A       		.byte	0xa
 5558 0b8e B2       		.byte	0xb2
 5559 0b8f 7D0B0000 		.4byte	0xb7d
 5560 0b93 16       		.uleb128 0x16
 5561 0b94 08       		.byte	0x8
 5562 0b95 0A       		.byte	0xa
 5563 0b96 C3       		.byte	0xc3
 5564 0b97 B40B0000 		.4byte	0xbb4
 5565 0b9b 17       		.uleb128 0x17
 5566 0b9c 05330000 		.4byte	.LASF309
 5567 0ba0 0A       		.byte	0xa
 5568 0ba1 C7       		.byte	0xc7
 5569 0ba2 DD040000 		.4byte	0x4dd
 5570 0ba6 00       		.byte	0
 5571 0ba7 17       		.uleb128 0x17
 5572 0ba8 DC210000 		.4byte	.LASF310
 5573 0bac 0A       		.byte	0xa
 5574 0bad CA       		.byte	0xca
 5575 0bae 8D000000 		.4byte	0x8d
 5576 0bb2 04       		.byte	0x4
 5577 0bb3 00       		.byte	0
 5578 0bb4 03       		.uleb128 0x3
 5579 0bb5 8D140000 		.4byte	.LASF311
 5580 0bb9 0A       		.byte	0xa
 5581 0bba CC       		.byte	0xcc
 5582 0bbb 930B0000 		.4byte	0xb93
 5583 0bbf 16       		.uleb128 0x16
 5584 0bc0 10       		.byte	0x10
 5585 0bc1 0A       		.byte	0xa
 5586 0bc2 CF       		.byte	0xcf
 5587 0bc3 EC0B0000 		.4byte	0xbec
 5588 0bc7 17       		.uleb128 0x17
 5589 0bc8 363E0000 		.4byte	.LASF285
 5590 0bcc 0A       		.byte	0xa
 5591 0bcd D2       		.byte	0xd2
 5592 0bce F8080000 		.4byte	0x8f8
 5593 0bd2 00       		.byte	0
 5594 0bd3 17       		.uleb128 0x17
 5595 0bd4 D23A0000 		.4byte	.LASF312
 5596 0bd8 0A       		.byte	0xa
 5597 0bd9 D5       		.byte	0xd5
 5598 0bda B40B0000 		.4byte	0xbb4
 5599 0bde 04       		.byte	0x4
ARM GAS  C:\Users\run1009\AppData\Local\Temp\ccSZtXoF.s 			page 170


 5600 0bdf 17       		.uleb128 0x17
 5601 0be0 CB150000 		.4byte	.LASF313
 5602 0be4 0A       		.byte	0xa
 5603 0be5 D8       		.byte	0xd8
 5604 0be6 81000000 		.4byte	0x81
 5605 0bea 0C       		.byte	0xc
 5606 0beb 00       		.byte	0
 5607 0bec 03       		.uleb128 0x3
 5608 0bed 81360000 		.4byte	.LASF314
 5609 0bf1 0A       		.byte	0xa
 5610 0bf2 DA       		.byte	0xda
 5611 0bf3 BF0B0000 		.4byte	0xbbf
 5612 0bf7 05       		.uleb128 0x5
 5613 0bf8 EF080000 		.4byte	.LASF315
 5614 0bfc 0B       		.byte	0xb
 5615 0bfd 0302     		.2byte	0x203
 5616 0bff CF000000 		.4byte	0xcf
 5617 0c03 16       		.uleb128 0x16
 5618 0c04 06       		.byte	0x6
 5619 0c05 0C       		.byte	0xc
 5620 0c06 50       		.byte	0x50
 5621 0c07 240C0000 		.4byte	0xc24
 5622 0c0b 17       		.uleb128 0x17
 5623 0c0c 7B440000 		.4byte	.LASF316
 5624 0c10 0C       		.byte	0xc
 5625 0c11 52       		.byte	0x52
 5626 0c12 95090000 		.4byte	0x995
 5627 0c16 00       		.byte	0
 5628 0c17 17       		.uleb128 0x17
 5629 0c18 DF2F0000 		.4byte	.LASF317
 5630 0c1c 0C       		.byte	0xc
 5631 0c1d 53       		.byte	0x53
 5632 0c1e 8D000000 		.4byte	0x8d
 5633 0c22 04       		.byte	0x4
 5634 0c23 00       		.byte	0
 5635 0c24 03       		.uleb128 0x3
 5636 0c25 4A310000 		.4byte	.LASF318
 5637 0c29 0C       		.byte	0xc
 5638 0c2a 54       		.byte	0x54
 5639 0c2b 030C0000 		.4byte	0xc03
 5640 0c2f 16       		.uleb128 0x16
 5641 0c30 16       		.byte	0x16
 5642 0c31 0C       		.byte	0xc
 5643 0c32 57       		.byte	0x57
 5644 0c33 5C0C0000 		.4byte	0xc5c
 5645 0c37 17       		.uleb128 0x17
 5646 0c38 7B440000 		.4byte	.LASF316
 5647 0c3c 0C       		.byte	0xc
 5648 0c3d 59       		.byte	0x59
 5649 0c3e 95090000 		.4byte	0x995
 5650 0c42 00       		.byte	0
 5651 0c43 17       		.uleb128 0x17
 5652 0c44 DF2F0000 		.4byte	.LASF317
 5653 0c48 0C       		.byte	0xc
 5654 0c49 5A       		.byte	0x5a
 5655 0c4a BC080000 		.4byte	0x8bc
 5656 0c4e 04       		.byte	0x4
ARM GAS  C:\Users\run1009\AppData\Local\Temp\ccSZtXoF.s 			page 171


 5657 0c4f 17       		.uleb128 0x17
 5658 0c50 CB150000 		.4byte	.LASF313
 5659 0c54 0C       		.byte	0xc
 5660 0c55 5B       		.byte	0x5b
 5661 0c56 81000000 		.4byte	0x81
 5662 0c5a 14       		.byte	0x14
 5663 0c5b 00       		.byte	0
 5664 0c5c 03       		.uleb128 0x3
 5665 0c5d 500B0000 		.4byte	.LASF319
 5666 0c61 0C       		.byte	0xc
 5667 0c62 5C       		.byte	0x5c
 5668 0c63 2F0C0000 		.4byte	0xc2f
 5669 0c67 16       		.uleb128 0x16
 5670 0c68 18       		.byte	0x18
 5671 0c69 0C       		.byte	0xc
 5672 0c6a 5F       		.byte	0x5f
 5673 0c6b A00C0000 		.4byte	0xca0
 5674 0c6f 17       		.uleb128 0x17
 5675 0c70 471A0000 		.4byte	.LASF320
 5676 0c74 0C       		.byte	0xc
 5677 0c75 61       		.byte	0x61
 5678 0c76 C8080000 		.4byte	0x8c8
 5679 0c7a 00       		.byte	0
 5680 0c7b 17       		.uleb128 0x17
 5681 0c7c 511B0000 		.4byte	.LASF321
 5682 0c80 0C       		.byte	0xc
 5683 0c81 62       		.byte	0x62
 5684 0c82 95090000 		.4byte	0x995
 5685 0c86 02       		.byte	0x2
 5686 0c87 17       		.uleb128 0x17
 5687 0c88 DF2F0000 		.4byte	.LASF317
 5688 0c8c 0C       		.byte	0xc
 5689 0c8d 63       		.byte	0x63
 5690 0c8e BC080000 		.4byte	0x8bc
 5691 0c92 06       		.byte	0x6
 5692 0c93 17       		.uleb128 0x17
 5693 0c94 CB150000 		.4byte	.LASF313
 5694 0c98 0C       		.byte	0xc
 5695 0c99 64       		.byte	0x64
 5696 0c9a 81000000 		.4byte	0x81
 5697 0c9e 16       		.byte	0x16
 5698 0c9f 00       		.byte	0
 5699 0ca0 03       		.uleb128 0x3
 5700 0ca1 73210000 		.4byte	.LASF322
 5701 0ca5 0C       		.byte	0xc
 5702 0ca6 65       		.byte	0x65
 5703 0ca7 670C0000 		.4byte	0xc67
 5704 0cab 16       		.uleb128 0x16
 5705 0cac 18       		.byte	0x18
 5706 0cad 0C       		.byte	0xc
 5707 0cae 68       		.byte	0x68
 5708 0caf F00C0000 		.4byte	0xcf0
 5709 0cb3 17       		.uleb128 0x17
 5710 0cb4 A83A0000 		.4byte	.LASF323
 5711 0cb8 0C       		.byte	0xc
 5712 0cb9 6A       		.byte	0x6a
 5713 0cba C8080000 		.4byte	0x8c8
ARM GAS  C:\Users\run1009\AppData\Local\Temp\ccSZtXoF.s 			page 172


 5714 0cbe 00       		.byte	0
 5715 0cbf 17       		.uleb128 0x17
 5716 0cc0 5B3E0000 		.4byte	.LASF324
 5717 0cc4 0C       		.byte	0xc
 5718 0cc5 6B       		.byte	0x6b
 5719 0cc6 81000000 		.4byte	0x81
 5720 0cca 02       		.byte	0x2
 5721 0ccb 17       		.uleb128 0x17
 5722 0ccc 67520000 		.4byte	.LASF325
 5723 0cd0 0C       		.byte	0xc
 5724 0cd1 6C       		.byte	0x6c
 5725 0cd2 C8080000 		.4byte	0x8c8
 5726 0cd6 04       		.byte	0x4
 5727 0cd7 17       		.uleb128 0x17
 5728 0cd8 DF2F0000 		.4byte	.LASF317
 5729 0cdc 0C       		.byte	0xc
 5730 0cdd 6D       		.byte	0x6d
 5731 0cde BC080000 		.4byte	0x8bc
 5732 0ce2 06       		.byte	0x6
 5733 0ce3 17       		.uleb128 0x17
 5734 0ce4 CB150000 		.4byte	.LASF313
 5735 0ce8 0C       		.byte	0xc
 5736 0ce9 6E       		.byte	0x6e
 5737 0cea 81000000 		.4byte	0x81
 5738 0cee 16       		.byte	0x16
 5739 0cef 00       		.byte	0
 5740 0cf0 03       		.uleb128 0x3
 5741 0cf1 F4350000 		.4byte	.LASF326
 5742 0cf5 0C       		.byte	0xc
 5743 0cf6 6F       		.byte	0x6f
 5744 0cf7 AB0C0000 		.4byte	0xcab
 5745 0cfb 16       		.uleb128 0x16
 5746 0cfc 04       		.byte	0x4
 5747 0cfd 0C       		.byte	0xc
 5748 0cfe 72       		.byte	0x72
 5749 0cff 1C0D0000 		.4byte	0xd1c
 5750 0d03 17       		.uleb128 0x17
 5751 0d04 5B3E0000 		.4byte	.LASF324
 5752 0d08 0C       		.byte	0xc
 5753 0d09 75       		.byte	0x75
 5754 0d0a 81000000 		.4byte	0x81
 5755 0d0e 00       		.byte	0
 5756 0d0f 17       		.uleb128 0x17
 5757 0d10 67520000 		.4byte	.LASF325
 5758 0d14 0C       		.byte	0xc
 5759 0d15 78       		.byte	0x78
 5760 0d16 C8080000 		.4byte	0x8c8
 5761 0d1a 02       		.byte	0x2
 5762 0d1b 00       		.byte	0
 5763 0d1c 03       		.uleb128 0x3
 5764 0d1d 23250000 		.4byte	.LASF327
 5765 0d21 0C       		.byte	0xc
 5766 0d22 79       		.byte	0x79
 5767 0d23 FB0C0000 		.4byte	0xcfb
 5768 0d27 16       		.uleb128 0x16
 5769 0d28 16       		.byte	0x16
 5770 0d29 0C       		.byte	0xc
ARM GAS  C:\Users\run1009\AppData\Local\Temp\ccSZtXoF.s 			page 173


 5771 0d2a 7C       		.byte	0x7c
 5772 0d2b 600D0000 		.4byte	0xd60
 5773 0d2f 17       		.uleb128 0x17
 5774 0d30 363E0000 		.4byte	.LASF285
 5775 0d34 0C       		.byte	0xc
 5776 0d35 7E       		.byte	0x7e
 5777 0d36 F8080000 		.4byte	0x8f8
 5778 0d3a 00       		.byte	0
 5779 0d3b 17       		.uleb128 0x17
 5780 0d3c 3B0B0000 		.4byte	.LASF328
 5781 0d40 0C       		.byte	0xc
 5782 0d41 7F       		.byte	0x7f
 5783 0d42 C8080000 		.4byte	0x8c8
 5784 0d46 02       		.byte	0x2
 5785 0d47 17       		.uleb128 0x17
 5786 0d48 DF2F0000 		.4byte	.LASF317
 5787 0d4c 0C       		.byte	0xc
 5788 0d4d 80       		.byte	0x80
 5789 0d4e BC080000 		.4byte	0x8bc
 5790 0d52 04       		.byte	0x4
 5791 0d53 17       		.uleb128 0x17
 5792 0d54 CB150000 		.4byte	.LASF313
 5793 0d58 0C       		.byte	0xc
 5794 0d59 81       		.byte	0x81
 5795 0d5a 81000000 		.4byte	0x81
 5796 0d5e 14       		.byte	0x14
 5797 0d5f 00       		.byte	0
 5798 0d60 03       		.uleb128 0x3
 5799 0d61 8A210000 		.4byte	.LASF329
 5800 0d65 0C       		.byte	0xc
 5801 0d66 82       		.byte	0x82
 5802 0d67 270D0000 		.4byte	0xd27
 5803 0d6b 16       		.uleb128 0x16
 5804 0d6c 06       		.byte	0x6
 5805 0d6d 0C       		.byte	0xc
 5806 0d6e 94       		.byte	0x94
 5807 0d6f 8C0D0000 		.4byte	0xd8c
 5808 0d73 17       		.uleb128 0x17
 5809 0d74 93030000 		.4byte	.LASF330
 5810 0d78 0C       		.byte	0xc
 5811 0d79 96       		.byte	0x96
 5812 0d7a 1C0D0000 		.4byte	0xd1c
 5813 0d7e 00       		.byte	0
 5814 0d7f 17       		.uleb128 0x17
 5815 0d80 BB4E0000 		.4byte	.LASF331
 5816 0d84 0C       		.byte	0xc
 5817 0d85 97       		.byte	0x97
 5818 0d86 C8080000 		.4byte	0x8c8
 5819 0d8a 04       		.byte	0x4
 5820 0d8b 00       		.byte	0
 5821 0d8c 03       		.uleb128 0x3
 5822 0d8d 5D150000 		.4byte	.LASF332
 5823 0d91 0C       		.byte	0xc
 5824 0d92 98       		.byte	0x98
 5825 0d93 6B0D0000 		.4byte	0xd6b
 5826 0d97 12       		.uleb128 0x12
 5827 0d98 02       		.byte	0x2
ARM GAS  C:\Users\run1009\AppData\Local\Temp\ccSZtXoF.s 			page 174


 5828 0d99 3A000000 		.4byte	0x3a
 5829 0d9d 0D       		.byte	0xd
 5830 0d9e B1       		.byte	0xb1
 5831 0d9f AE150000 		.4byte	0x15ae
 5832 0da3 0D       		.uleb128 0xd
 5833 0da4 D6310000 		.4byte	.LASF333
 5834 0da8 0001     		.2byte	0x100
 5835 0daa 0D       		.uleb128 0xd
 5836 0dab 33500000 		.4byte	.LASF334
 5837 0daf 0101     		.2byte	0x101
 5838 0db1 0D       		.uleb128 0xd
 5839 0db2 213C0000 		.4byte	.LASF335
 5840 0db6 0201     		.2byte	0x102
 5841 0db8 0D       		.uleb128 0xd
 5842 0db9 E94F0000 		.4byte	.LASF336
 5843 0dbd 0301     		.2byte	0x103
 5844 0dbf 0D       		.uleb128 0xd
 5845 0dc0 143A0000 		.4byte	.LASF337
 5846 0dc4 0401     		.2byte	0x104
 5847 0dc6 0D       		.uleb128 0xd
 5848 0dc7 57440000 		.4byte	.LASF338
 5849 0dcb 0501     		.2byte	0x105
 5850 0dcd 0D       		.uleb128 0xd
 5851 0dce 6B150000 		.4byte	.LASF339
 5852 0dd2 0601     		.2byte	0x106
 5853 0dd4 0D       		.uleb128 0xd
 5854 0dd5 3D460000 		.4byte	.LASF340
 5855 0dd9 0701     		.2byte	0x107
 5856 0ddb 0D       		.uleb128 0xd
 5857 0ddc 8C4D0000 		.4byte	.LASF341
 5858 0de0 0801     		.2byte	0x108
 5859 0de2 0D       		.uleb128 0xd
 5860 0de3 ED060000 		.4byte	.LASF342
 5861 0de7 0901     		.2byte	0x109
 5862 0de9 0D       		.uleb128 0xd
 5863 0dea D3030000 		.4byte	.LASF343
 5864 0dee 0A01     		.2byte	0x10a
 5865 0df0 0D       		.uleb128 0xd
 5866 0df1 2D3D0000 		.4byte	.LASF344
 5867 0df5 0B01     		.2byte	0x10b
 5868 0df7 0D       		.uleb128 0xd
 5869 0df8 5E0D0000 		.4byte	.LASF345
 5870 0dfc 0C01     		.2byte	0x10c
 5871 0dfe 0D       		.uleb128 0xd
 5872 0dff FC370000 		.4byte	.LASF346
 5873 0e03 0D01     		.2byte	0x10d
 5874 0e05 0D       		.uleb128 0xd
 5875 0e06 B3040000 		.4byte	.LASF347
 5876 0e0a 0E01     		.2byte	0x10e
 5877 0e0c 0D       		.uleb128 0xd
 5878 0e0d 89010000 		.4byte	.LASF348
 5879 0e11 0F01     		.2byte	0x10f
 5880 0e13 0D       		.uleb128 0xd
 5881 0e14 93090000 		.4byte	.LASF349
 5882 0e18 1001     		.2byte	0x110
 5883 0e1a 0D       		.uleb128 0xd
 5884 0e1b 114F0000 		.4byte	.LASF350
ARM GAS  C:\Users\run1009\AppData\Local\Temp\ccSZtXoF.s 			page 175


 5885 0e1f 1101     		.2byte	0x111
 5886 0e21 0D       		.uleb128 0xd
 5887 0e22 DE4A0000 		.4byte	.LASF351
 5888 0e26 1201     		.2byte	0x112
 5889 0e28 0D       		.uleb128 0xd
 5890 0e29 A31C0000 		.4byte	.LASF352
 5891 0e2d 1301     		.2byte	0x113
 5892 0e2f 0D       		.uleb128 0xd
 5893 0e30 E1520000 		.4byte	.LASF353
 5894 0e34 1401     		.2byte	0x114
 5895 0e36 0D       		.uleb128 0xd
 5896 0e37 3D3B0000 		.4byte	.LASF354
 5897 0e3b 1501     		.2byte	0x115
 5898 0e3d 0D       		.uleb128 0xd
 5899 0e3e 76100000 		.4byte	.LASF355
 5900 0e42 1601     		.2byte	0x116
 5901 0e44 0D       		.uleb128 0xd
 5902 0e45 D5450000 		.4byte	.LASF356
 5903 0e49 1701     		.2byte	0x117
 5904 0e4b 0D       		.uleb128 0xd
 5905 0e4c 123D0000 		.4byte	.LASF357
 5906 0e50 1801     		.2byte	0x118
 5907 0e52 0D       		.uleb128 0xd
 5908 0e53 8E480000 		.4byte	.LASF358
 5909 0e57 1901     		.2byte	0x119
 5910 0e59 0D       		.uleb128 0xd
 5911 0e5a DA010000 		.4byte	.LASF359
 5912 0e5e 1A01     		.2byte	0x11a
 5913 0e60 0D       		.uleb128 0xd
 5914 0e61 74240000 		.4byte	.LASF360
 5915 0e65 1B01     		.2byte	0x11b
 5916 0e67 0D       		.uleb128 0xd
 5917 0e68 D8360000 		.4byte	.LASF361
 5918 0e6c 1C01     		.2byte	0x11c
 5919 0e6e 0D       		.uleb128 0xd
 5920 0e6f 81440000 		.4byte	.LASF362
 5921 0e73 1D01     		.2byte	0x11d
 5922 0e75 0D       		.uleb128 0xd
 5923 0e76 B0410000 		.4byte	.LASF363
 5924 0e7a 1E01     		.2byte	0x11e
 5925 0e7c 0D       		.uleb128 0xd
 5926 0e7d 8F310000 		.4byte	.LASF364
 5927 0e81 1F01     		.2byte	0x11f
 5928 0e83 0D       		.uleb128 0xd
 5929 0e84 4D170000 		.4byte	.LASF365
 5930 0e88 2001     		.2byte	0x120
 5931 0e8a 0D       		.uleb128 0xd
 5932 0e8b 4D160000 		.4byte	.LASF366
 5933 0e8f 2101     		.2byte	0x121
 5934 0e91 0D       		.uleb128 0xd
 5935 0e92 103E0000 		.4byte	.LASF367
 5936 0e96 2201     		.2byte	0x122
 5937 0e98 0D       		.uleb128 0xd
 5938 0e99 F6040000 		.4byte	.LASF368
 5939 0e9d 2301     		.2byte	0x123
 5940 0e9f 0D       		.uleb128 0xd
 5941 0ea0 F2420000 		.4byte	.LASF369
ARM GAS  C:\Users\run1009\AppData\Local\Temp\ccSZtXoF.s 			page 176


 5942 0ea4 2401     		.2byte	0x124
 5943 0ea6 0D       		.uleb128 0xd
 5944 0ea7 93510000 		.4byte	.LASF370
 5945 0eab 2501     		.2byte	0x125
 5946 0ead 0D       		.uleb128 0xd
 5947 0eae 372F0000 		.4byte	.LASF371
 5948 0eb2 2601     		.2byte	0x126
 5949 0eb4 0D       		.uleb128 0xd
 5950 0eb5 121C0000 		.4byte	.LASF372
 5951 0eb9 2701     		.2byte	0x127
 5952 0ebb 0D       		.uleb128 0xd
 5953 0ebc FA450000 		.4byte	.LASF373
 5954 0ec0 2801     		.2byte	0x128
 5955 0ec2 0D       		.uleb128 0xd
 5956 0ec3 6A330000 		.4byte	.LASF374
 5957 0ec7 2901     		.2byte	0x129
 5958 0ec9 0D       		.uleb128 0xd
 5959 0eca 28520000 		.4byte	.LASF375
 5960 0ece 2A01     		.2byte	0x12a
 5961 0ed0 0D       		.uleb128 0xd
 5962 0ed1 85460000 		.4byte	.LASF376
 5963 0ed5 2B01     		.2byte	0x12b
 5964 0ed7 0D       		.uleb128 0xd
 5965 0ed8 BE500000 		.4byte	.LASF377
 5966 0edc 2C01     		.2byte	0x12c
 5967 0ede 0D       		.uleb128 0xd
 5968 0edf 7C250000 		.4byte	.LASF378
 5969 0ee3 2D01     		.2byte	0x12d
 5970 0ee5 0D       		.uleb128 0xd
 5971 0ee6 2B4E0000 		.4byte	.LASF379
 5972 0eea 2E01     		.2byte	0x12e
 5973 0eec 0D       		.uleb128 0xd
 5974 0eed 99050000 		.4byte	.LASF380
 5975 0ef1 2F01     		.2byte	0x12f
 5976 0ef3 0D       		.uleb128 0xd
 5977 0ef4 52390000 		.4byte	.LASF381
 5978 0ef8 3001     		.2byte	0x130
 5979 0efa 0D       		.uleb128 0xd
 5980 0efb 3E260000 		.4byte	.LASF382
 5981 0eff 3101     		.2byte	0x131
 5982 0f01 0D       		.uleb128 0xd
 5983 0f02 663E0000 		.4byte	.LASF383
 5984 0f06 3201     		.2byte	0x132
 5985 0f08 0D       		.uleb128 0xd
 5986 0f09 7E370000 		.4byte	.LASF384
 5987 0f0d 3301     		.2byte	0x133
 5988 0f0f 0D       		.uleb128 0xd
 5989 0f10 0B490000 		.4byte	.LASF385
 5990 0f14 3401     		.2byte	0x134
 5991 0f16 0D       		.uleb128 0xd
 5992 0f17 69120000 		.4byte	.LASF386
 5993 0f1b 3501     		.2byte	0x135
 5994 0f1d 0D       		.uleb128 0xd
 5995 0f1e 19460000 		.4byte	.LASF387
 5996 0f22 3601     		.2byte	0x136
 5997 0f24 0D       		.uleb128 0xd
 5998 0f25 171F0000 		.4byte	.LASF388
ARM GAS  C:\Users\run1009\AppData\Local\Temp\ccSZtXoF.s 			page 177


 5999 0f29 3701     		.2byte	0x137
 6000 0f2b 0D       		.uleb128 0xd
 6001 0f2c EC0E0000 		.4byte	.LASF389
 6002 0f30 3801     		.2byte	0x138
 6003 0f32 0D       		.uleb128 0xd
 6004 0f33 1F040000 		.4byte	.LASF390
 6005 0f37 3901     		.2byte	0x139
 6006 0f39 0D       		.uleb128 0xd
 6007 0f3a 43040000 		.4byte	.LASF391
 6008 0f3e 3A01     		.2byte	0x13a
 6009 0f40 0D       		.uleb128 0xd
 6010 0f41 C8000000 		.4byte	.LASF392
 6011 0f45 3B01     		.2byte	0x13b
 6012 0f47 0D       		.uleb128 0xd
 6013 0f48 22120000 		.4byte	.LASF393
 6014 0f4c 3C01     		.2byte	0x13c
 6015 0f4e 0D       		.uleb128 0xd
 6016 0f4f 55500000 		.4byte	.LASF394
 6017 0f53 3D01     		.2byte	0x13d
 6018 0f55 0D       		.uleb128 0xd
 6019 0f56 6D080000 		.4byte	.LASF395
 6020 0f5a 3E01     		.2byte	0x13e
 6021 0f5c 0D       		.uleb128 0xd
 6022 0f5d 9A300000 		.4byte	.LASF396
 6023 0f61 3F01     		.2byte	0x13f
 6024 0f63 0D       		.uleb128 0xd
 6025 0f64 AA420000 		.4byte	.LASF397
 6026 0f68 4001     		.2byte	0x140
 6027 0f6a 0D       		.uleb128 0xd
 6028 0f6b 611B0000 		.4byte	.LASF398
 6029 0f6f 4101     		.2byte	0x141
 6030 0f71 0D       		.uleb128 0xd
 6031 0f72 55320000 		.4byte	.LASF399
 6032 0f76 4201     		.2byte	0x142
 6033 0f78 0D       		.uleb128 0xd
 6034 0f79 6A1E0000 		.4byte	.LASF400
 6035 0f7d 4301     		.2byte	0x143
 6036 0f7f 0D       		.uleb128 0xd
 6037 0f80 B7080000 		.4byte	.LASF401
 6038 0f84 4401     		.2byte	0x144
 6039 0f86 0D       		.uleb128 0xd
 6040 0f87 F3020000 		.4byte	.LASF402
 6041 0f8b 4501     		.2byte	0x145
 6042 0f8d 0D       		.uleb128 0xd
 6043 0f8e 4E0C0000 		.4byte	.LASF403
 6044 0f92 4601     		.2byte	0x146
 6045 0f94 0D       		.uleb128 0xd
 6046 0f95 B53B0000 		.4byte	.LASF404
 6047 0f99 4701     		.2byte	0x147
 6048 0f9b 0D       		.uleb128 0xd
 6049 0f9c 3D440000 		.4byte	.LASF405
 6050 0fa0 4801     		.2byte	0x148
 6051 0fa2 0D       		.uleb128 0xd
 6052 0fa3 B00A0000 		.4byte	.LASF406
 6053 0fa7 4901     		.2byte	0x149
 6054 0fa9 0D       		.uleb128 0xd
 6055 0faa 5E350000 		.4byte	.LASF407
ARM GAS  C:\Users\run1009\AppData\Local\Temp\ccSZtXoF.s 			page 178


 6056 0fae 4A01     		.2byte	0x14a
 6057 0fb0 0D       		.uleb128 0xd
 6058 0fb1 4A4A0000 		.4byte	.LASF408
 6059 0fb5 4B01     		.2byte	0x14b
 6060 0fb7 0D       		.uleb128 0xd
 6061 0fb8 E32B0000 		.4byte	.LASF409
 6062 0fbc 4C01     		.2byte	0x14c
 6063 0fbe 0D       		.uleb128 0xd
 6064 0fbf A94A0000 		.4byte	.LASF410
 6065 0fc3 4D01     		.2byte	0x14d
 6066 0fc5 0D       		.uleb128 0xd
 6067 0fc6 900B0000 		.4byte	.LASF411
 6068 0fca 4E01     		.2byte	0x14e
 6069 0fcc 0D       		.uleb128 0xd
 6070 0fcd 38150000 		.4byte	.LASF412
 6071 0fd1 4F01     		.2byte	0x14f
 6072 0fd3 0D       		.uleb128 0xd
 6073 0fd4 2D4D0000 		.4byte	.LASF413
 6074 0fd8 5001     		.2byte	0x150
 6075 0fda 0D       		.uleb128 0xd
 6076 0fdb 1D4B0000 		.4byte	.LASF414
 6077 0fdf 5101     		.2byte	0x151
 6078 0fe1 0D       		.uleb128 0xd
 6079 0fe2 EA000000 		.4byte	.LASF415
 6080 0fe6 5201     		.2byte	0x152
 6081 0fe8 0D       		.uleb128 0xd
 6082 0fe9 F9440000 		.4byte	.LASF416
 6083 0fed 5301     		.2byte	0x153
 6084 0fef 0D       		.uleb128 0xd
 6085 0ff0 7A270000 		.4byte	.LASF417
 6086 0ff4 5401     		.2byte	0x154
 6087 0ff6 0D       		.uleb128 0xd
 6088 0ff7 47430000 		.4byte	.LASF418
 6089 0ffb 5501     		.2byte	0x155
 6090 0ffd 0D       		.uleb128 0xd
 6091 0ffe D93F0000 		.4byte	.LASF419
 6092 1002 5601     		.2byte	0x156
 6093 1004 0D       		.uleb128 0xd
 6094 1005 03520000 		.4byte	.LASF420
 6095 1009 5701     		.2byte	0x157
 6096 100b 0D       		.uleb128 0xd
 6097 100c A63E0000 		.4byte	.LASF421
 6098 1010 5801     		.2byte	0x158
 6099 1012 0D       		.uleb128 0xd
 6100 1013 22140000 		.4byte	.LASF422
 6101 1017 5901     		.2byte	0x159
 6102 1019 0D       		.uleb128 0xd
 6103 101a D60C0000 		.4byte	.LASF423
 6104 101e 5A01     		.2byte	0x15a
 6105 1020 0D       		.uleb128 0xd
 6106 1021 9A0C0000 		.4byte	.LASF424
 6107 1025 5B01     		.2byte	0x15b
 6108 1027 0D       		.uleb128 0xd
 6109 1028 E2130000 		.4byte	.LASF425
 6110 102c 5C01     		.2byte	0x15c
 6111 102e 0D       		.uleb128 0xd
 6112 102f 31290000 		.4byte	.LASF426
ARM GAS  C:\Users\run1009\AppData\Local\Temp\ccSZtXoF.s 			page 179


 6113 1033 5D01     		.2byte	0x15d
 6114 1035 0D       		.uleb128 0xd
 6115 1036 504F0000 		.4byte	.LASF427
 6116 103a 5E01     		.2byte	0x15e
 6117 103c 0D       		.uleb128 0xd
 6118 103d 821A0000 		.4byte	.LASF428
 6119 1041 5F01     		.2byte	0x15f
 6120 1043 0D       		.uleb128 0xd
 6121 1044 993B0000 		.4byte	.LASF429
 6122 1048 6001     		.2byte	0x160
 6123 104a 0D       		.uleb128 0xd
 6124 104b EC340000 		.4byte	.LASF430
 6125 104f 6101     		.2byte	0x161
 6126 1051 0D       		.uleb128 0xd
 6127 1052 19020000 		.4byte	.LASF431
 6128 1056 6201     		.2byte	0x162
 6129 1058 0D       		.uleb128 0xd
 6130 1059 C2260000 		.4byte	.LASF432
 6131 105d 6301     		.2byte	0x163
 6132 105f 0D       		.uleb128 0xd
 6133 1060 05010000 		.4byte	.LASF433
 6134 1064 6401     		.2byte	0x164
 6135 1066 0D       		.uleb128 0xd
 6136 1067 3A0D0000 		.4byte	.LASF434
 6137 106b 6501     		.2byte	0x165
 6138 106d 0D       		.uleb128 0xd
 6139 106e 7D4B0000 		.4byte	.LASF435
 6140 1072 6601     		.2byte	0x166
 6141 1074 0D       		.uleb128 0xd
 6142 1075 211E0000 		.4byte	.LASF436
 6143 1079 6701     		.2byte	0x167
 6144 107b 0D       		.uleb128 0xd
 6145 107c C81C0000 		.4byte	.LASF437
 6146 1080 6801     		.2byte	0x168
 6147 1082 0D       		.uleb128 0xd
 6148 1083 6D070000 		.4byte	.LASF438
 6149 1087 6901     		.2byte	0x169
 6150 1089 0D       		.uleb128 0xd
 6151 108a D00D0000 		.4byte	.LASF439
 6152 108e 6A01     		.2byte	0x16a
 6153 1090 0D       		.uleb128 0xd
 6154 1091 4B210000 		.4byte	.LASF440
 6155 1095 6B01     		.2byte	0x16b
 6156 1097 0D       		.uleb128 0xd
 6157 1098 0D280000 		.4byte	.LASF441
 6158 109c 6C01     		.2byte	0x16c
 6159 109e 0D       		.uleb128 0xd
 6160 109f 120A0000 		.4byte	.LASF442
 6161 10a3 6D01     		.2byte	0x16d
 6162 10a5 0D       		.uleb128 0xd
 6163 10a6 00090000 		.4byte	.LASF443
 6164 10aa 6E01     		.2byte	0x16e
 6165 10ac 0D       		.uleb128 0xd
 6166 10ad 3B020000 		.4byte	.LASF444
 6167 10b1 6F01     		.2byte	0x16f
 6168 10b3 0D       		.uleb128 0xd
 6169 10b4 3E2E0000 		.4byte	.LASF445
ARM GAS  C:\Users\run1009\AppData\Local\Temp\ccSZtXoF.s 			page 180


 6170 10b8 7001     		.2byte	0x170
 6171 10ba 0D       		.uleb128 0xd
 6172 10bb 68510000 		.4byte	.LASF446
 6173 10bf 7101     		.2byte	0x171
 6174 10c1 0D       		.uleb128 0xd
 6175 10c2 5B200000 		.4byte	.LASF447
 6176 10c6 7201     		.2byte	0x172
 6177 10c8 0D       		.uleb128 0xd
 6178 10c9 EE1C0000 		.4byte	.LASF448
 6179 10cd 7301     		.2byte	0x173
 6180 10cf 0D       		.uleb128 0xd
 6181 10d0 59300000 		.4byte	.LASF449
 6182 10d4 7401     		.2byte	0x174
 6183 10d6 0D       		.uleb128 0xd
 6184 10d7 45470000 		.4byte	.LASF450
 6185 10db 7501     		.2byte	0x175
 6186 10dd 0D       		.uleb128 0xd
 6187 10de 6D3C0000 		.4byte	.LASF451
 6188 10e2 7601     		.2byte	0x176
 6189 10e4 0D       		.uleb128 0xd
 6190 10e5 91040000 		.4byte	.LASF452
 6191 10e9 7701     		.2byte	0x177
 6192 10eb 0D       		.uleb128 0xd
 6193 10ec 7E3A0000 		.4byte	.LASF453
 6194 10f0 7801     		.2byte	0x178
 6195 10f2 0D       		.uleb128 0xd
 6196 10f3 A5190000 		.4byte	.LASF454
 6197 10f7 7901     		.2byte	0x179
 6198 10f9 0D       		.uleb128 0xd
 6199 10fa 84260000 		.4byte	.LASF455
 6200 10fe 7A01     		.2byte	0x17a
 6201 1100 0D       		.uleb128 0xd
 6202 1101 62260000 		.4byte	.LASF456
 6203 1105 7B01     		.2byte	0x17b
 6204 1107 0D       		.uleb128 0xd
 6205 1108 AA480000 		.4byte	.LASF457
 6206 110c 7C01     		.2byte	0x17c
 6207 110e 0D       		.uleb128 0xd
 6208 110f E31A0000 		.4byte	.LASF458
 6209 1113 7D01     		.2byte	0x17d
 6210 1115 0D       		.uleb128 0xd
 6211 1116 042E0000 		.4byte	.LASF459
 6212 111a 7E01     		.2byte	0x17e
 6213 111c 0D       		.uleb128 0xd
 6214 111d 2F2C0000 		.4byte	.LASF460
 6215 1121 7F01     		.2byte	0x17f
 6216 1123 0D       		.uleb128 0xd
 6217 1124 1E310000 		.4byte	.LASF461
 6218 1128 8001     		.2byte	0x180
 6219 112a 0D       		.uleb128 0xd
 6220 112b 45410000 		.4byte	.LASF462
 6221 112f 8101     		.2byte	0x181
 6222 1131 0D       		.uleb128 0xd
 6223 1132 E92D0000 		.4byte	.LASF463
 6224 1136 8201     		.2byte	0x182
 6225 1138 0D       		.uleb128 0xd
 6226 1139 A72E0000 		.4byte	.LASF464
ARM GAS  C:\Users\run1009\AppData\Local\Temp\ccSZtXoF.s 			page 181


 6227 113d 8301     		.2byte	0x183
 6228 113f 0D       		.uleb128 0xd
 6229 1140 F81B0000 		.4byte	.LASF465
 6230 1144 8401     		.2byte	0x184
 6231 1146 0D       		.uleb128 0xd
 6232 1147 F6100000 		.4byte	.LASF466
 6233 114b 8501     		.2byte	0x185
 6234 114d 0D       		.uleb128 0xd
 6235 114e 95450000 		.4byte	.LASF467
 6236 1152 8601     		.2byte	0x186
 6237 1154 0D       		.uleb128 0xd
 6238 1155 36220000 		.4byte	.LASF468
 6239 1159 8701     		.2byte	0x187
 6240 115b 0D       		.uleb128 0xd
 6241 115c 460F0000 		.4byte	.LASF469
 6242 1160 8801     		.2byte	0x188
 6243 1162 0D       		.uleb128 0xd
 6244 1163 63460000 		.4byte	.LASF470
 6245 1167 8901     		.2byte	0x189
 6246 1169 0D       		.uleb128 0xd
 6247 116a BD3C0000 		.4byte	.LASF471
 6248 116e 8A01     		.2byte	0x18a
 6249 1170 0D       		.uleb128 0xd
 6250 1171 B5390000 		.4byte	.LASF472
 6251 1175 8B01     		.2byte	0x18b
 6252 1177 0D       		.uleb128 0xd
 6253 1178 B9100000 		.4byte	.LASF473
 6254 117c 8C01     		.2byte	0x18c
 6255 117e 0D       		.uleb128 0xd
 6256 117f C3020000 		.4byte	.LASF474
 6257 1183 8D01     		.2byte	0x18d
 6258 1185 0D       		.uleb128 0xd
 6259 1186 DA350000 		.4byte	.LASF475
 6260 118a 8E01     		.2byte	0x18e
 6261 118c 0D       		.uleb128 0xd
 6262 118d 364F0000 		.4byte	.LASF476
 6263 1191 8F01     		.2byte	0x18f
 6264 1193 0D       		.uleb128 0xd
 6265 1194 2D490000 		.4byte	.LASF477
 6266 1198 9001     		.2byte	0x190
 6267 119a 0D       		.uleb128 0xd
 6268 119b D4410000 		.4byte	.LASF478
 6269 119f 9101     		.2byte	0x191
 6270 11a1 0D       		.uleb128 0xd
 6271 11a2 70030000 		.4byte	.LASF479
 6272 11a6 9201     		.2byte	0x192
 6273 11a8 0D       		.uleb128 0xd
 6274 11a9 28180000 		.4byte	.LASF480
 6275 11ad 9301     		.2byte	0x193
 6276 11af 0D       		.uleb128 0xd
 6277 11b0 384B0000 		.4byte	.LASF481
 6278 11b4 9401     		.2byte	0x194
 6279 11b6 0D       		.uleb128 0xd
 6280 11b7 73520000 		.4byte	.LASF482
 6281 11bb 9501     		.2byte	0x195
 6282 11bd 0D       		.uleb128 0xd
 6283 11be E82E0000 		.4byte	.LASF483
ARM GAS  C:\Users\run1009\AppData\Local\Temp\ccSZtXoF.s 			page 182


 6284 11c2 9601     		.2byte	0x196
 6285 11c4 0D       		.uleb128 0xd
 6286 11c5 FC500000 		.4byte	.LASF484
 6287 11c9 9701     		.2byte	0x197
 6288 11cb 0D       		.uleb128 0xd
 6289 11cc 852E0000 		.4byte	.LASF485
 6290 11d0 9801     		.2byte	0x198
 6291 11d2 0D       		.uleb128 0xd
 6292 11d3 BA110000 		.4byte	.LASF486
 6293 11d7 9901     		.2byte	0x199
 6294 11d9 0D       		.uleb128 0xd
 6295 11da 73220000 		.4byte	.LASF487
 6296 11de 9A01     		.2byte	0x19a
 6297 11e0 0D       		.uleb128 0xd
 6298 11e1 F51E0000 		.4byte	.LASF488
 6299 11e5 9B01     		.2byte	0x19b
 6300 11e7 0D       		.uleb128 0xd
 6301 11e8 18110000 		.4byte	.LASF489
 6302 11ec 9C01     		.2byte	0x19c
 6303 11ee 0D       		.uleb128 0xd
 6304 11ef FD3F0000 		.4byte	.LASF490
 6305 11f3 9D01     		.2byte	0x19d
 6306 11f5 0D       		.uleb128 0xd
 6307 11f6 60230000 		.4byte	.LASF491
 6308 11fa 9E01     		.2byte	0x19e
 6309 11fc 0D       		.uleb128 0xd
 6310 11fd 38370000 		.4byte	.LASF492
 6311 1201 9F01     		.2byte	0x19f
 6312 1203 0D       		.uleb128 0xd
 6313 1204 50050000 		.4byte	.LASF493
 6314 1208 A001     		.2byte	0x1a0
 6315 120a 0D       		.uleb128 0xd
 6316 120b 652A0000 		.4byte	.LASF494
 6317 120f A101     		.2byte	0x1a1
 6318 1211 0D       		.uleb128 0xd
 6319 1212 6B380000 		.4byte	.LASF495
 6320 1216 A201     		.2byte	0x1a2
 6321 1218 0D       		.uleb128 0xd
 6322 1219 841E0000 		.4byte	.LASF496
 6323 121d A301     		.2byte	0x1a3
 6324 121f 0D       		.uleb128 0xd
 6325 1220 15290000 		.4byte	.LASF497
 6326 1224 A401     		.2byte	0x1a4
 6327 1226 0D       		.uleb128 0xd
 6328 1227 7E2B0000 		.4byte	.LASF498
 6329 122b A501     		.2byte	0x1a5
 6330 122d 0D       		.uleb128 0xd
 6331 122e 22470000 		.4byte	.LASF499
 6332 1232 A601     		.2byte	0x1a6
 6333 1234 0D       		.uleb128 0xd
 6334 1235 851B0000 		.4byte	.LASF500
 6335 1239 A701     		.2byte	0x1a7
 6336 123b 0D       		.uleb128 0xd
 6337 123c C64E0000 		.4byte	.LASF501
 6338 1240 A801     		.2byte	0x1a8
 6339 1242 0D       		.uleb128 0xd
 6340 1243 9C1A0000 		.4byte	.LASF502
ARM GAS  C:\Users\run1009\AppData\Local\Temp\ccSZtXoF.s 			page 183


 6341 1247 A901     		.2byte	0x1a9
 6342 1249 0D       		.uleb128 0xd
 6343 124a 5B1C0000 		.4byte	.LASF503
 6344 124e AA01     		.2byte	0x1aa
 6345 1250 0D       		.uleb128 0xd
 6346 1251 2C530000 		.4byte	.LASF504
 6347 1255 AB01     		.2byte	0x1ab
 6348 1257 0D       		.uleb128 0xd
 6349 1258 A3360000 		.4byte	.LASF505
 6350 125c AC01     		.2byte	0x1ac
 6351 125e 0D       		.uleb128 0xd
 6352 125f 5C370000 		.4byte	.LASF506
 6353 1263 AD01     		.2byte	0x1ad
 6354 1265 0D       		.uleb128 0xd
 6355 1266 CF090000 		.4byte	.LASF507
 6356 126a AE01     		.2byte	0x1ae
 6357 126c 0D       		.uleb128 0xd
 6358 126d E41D0000 		.4byte	.LASF508
 6359 1271 AF01     		.2byte	0x1af
 6360 1273 0D       		.uleb128 0xd
 6361 1274 DD400000 		.4byte	.LASF509
 6362 1278 B001     		.2byte	0x1b0
 6363 127a 0D       		.uleb128 0xd
 6364 127b B10F0000 		.4byte	.LASF510
 6365 127f B101     		.2byte	0x1b1
 6366 1281 0D       		.uleb128 0xd
 6367 1282 3F000000 		.4byte	.LASF511
 6368 1286 B201     		.2byte	0x1b2
 6369 1288 0D       		.uleb128 0xd
 6370 1289 EF470000 		.4byte	.LASF512
 6371 128d B301     		.2byte	0x1b3
 6372 128f 0D       		.uleb128 0xd
 6373 1290 9F180000 		.4byte	.LASF513
 6374 1294 B401     		.2byte	0x1b4
 6375 1296 0D       		.uleb128 0xd
 6376 1297 BD520000 		.4byte	.LASF514
 6377 129b B501     		.2byte	0x1b5
 6378 129d 0D       		.uleb128 0xd
 6379 129e E4250000 		.4byte	.LASF515
 6380 12a2 B601     		.2byte	0x1b6
 6381 12a4 0D       		.uleb128 0xd
 6382 12a5 892A0000 		.4byte	.LASF516
 6383 12a9 B701     		.2byte	0x1b7
 6384 12ab 0D       		.uleb128 0xd
 6385 12ac 4D520000 		.4byte	.LASF517
 6386 12b0 B801     		.2byte	0x1b8
 6387 12b2 0D       		.uleb128 0xd
 6388 12b3 71430000 		.4byte	.LASF518
 6389 12b7 B901     		.2byte	0x1b9
 6390 12b9 0D       		.uleb128 0xd
 6391 12ba AE320000 		.4byte	.LASF519
 6392 12be BA01     		.2byte	0x1ba
 6393 12c0 0D       		.uleb128 0xd
 6394 12c1 81350000 		.4byte	.LASF520
 6395 12c5 BB01     		.2byte	0x1bb
 6396 12c7 0D       		.uleb128 0xd
 6397 12c8 484C0000 		.4byte	.LASF521
ARM GAS  C:\Users\run1009\AppData\Local\Temp\ccSZtXoF.s 			page 184


 6398 12cc BC01     		.2byte	0x1bc
 6399 12ce 0D       		.uleb128 0xd
 6400 12cf 01240000 		.4byte	.LASF522
 6401 12d3 BD01     		.2byte	0x1bd
 6402 12d5 0D       		.uleb128 0xd
 6403 12d6 660A0000 		.4byte	.LASF523
 6404 12da BE01     		.2byte	0x1be
 6405 12dc 0D       		.uleb128 0xd
 6406 12dd E3150000 		.4byte	.LASF524
 6407 12e1 BF01     		.2byte	0x1bf
 6408 12e3 0D       		.uleb128 0xd
 6409 12e4 3D510000 		.4byte	.LASF525
 6410 12e8 C001     		.2byte	0x1c0
 6411 12ea 0D       		.uleb128 0xd
 6412 12eb 8E0F0000 		.4byte	.LASF526
 6413 12ef C101     		.2byte	0x1c1
 6414 12f1 0D       		.uleb128 0xd
 6415 12f2 C1230000 		.4byte	.LASF527
 6416 12f6 C201     		.2byte	0x1c2
 6417 12f8 0D       		.uleb128 0xd
 6418 12f9 8E290000 		.4byte	.LASF528
 6419 12fd C301     		.2byte	0x1c3
 6420 12ff 0D       		.uleb128 0xd
 6421 1300 ED190000 		.4byte	.LASF529
 6422 1304 C401     		.2byte	0x1c4
 6423 1306 0D       		.uleb128 0xd
 6424 1307 81470000 		.4byte	.LASF530
 6425 130b C501     		.2byte	0x1c5
 6426 130d 0D       		.uleb128 0xd
 6427 130e 5E020000 		.4byte	.LASF531
 6428 1312 C601     		.2byte	0x1c6
 6429 1314 0D       		.uleb128 0xd
 6430 1315 642D0000 		.4byte	.LASF532
 6431 1319 C701     		.2byte	0x1c7
 6432 131b 0D       		.uleb128 0xd
 6433 131c D7490000 		.4byte	.LASF533
 6434 1320 C801     		.2byte	0x1c8
 6435 1322 0D       		.uleb128 0xd
 6436 1323 783D0000 		.4byte	.LASF534
 6437 1327 C901     		.2byte	0x1c9
 6438 1329 0D       		.uleb128 0xd
 6439 132a 6E040000 		.4byte	.LASF535
 6440 132e CA01     		.2byte	0x1ca
 6441 1330 0D       		.uleb128 0xd
 6442 1331 F9380000 		.4byte	.LASF536
 6443 1335 CB01     		.2byte	0x1cb
 6444 1337 0D       		.uleb128 0xd
 6445 1338 F80C0000 		.4byte	.LASF537
 6446 133c CC01     		.2byte	0x1cc
 6447 133e 0D       		.uleb128 0xd
 6448 133f AB0D0000 		.4byte	.LASF538
 6449 1343 CD01     		.2byte	0x1cd
 6450 1345 0D       		.uleb128 0xd
 6451 1346 2B410000 		.4byte	.LASF539
 6452 134a CE01     		.2byte	0x1ce
 6453 134c 0D       		.uleb128 0xd
 6454 134d B4070000 		.4byte	.LASF540
ARM GAS  C:\Users\run1009\AppData\Local\Temp\ccSZtXoF.s 			page 185


 6455 1351 CF01     		.2byte	0x1cf
 6456 1353 0D       		.uleb128 0xd
 6457 1354 FE3B0000 		.4byte	.LASF541
 6458 1358 D001     		.2byte	0x1d0
 6459 135a 0D       		.uleb128 0xd
 6460 135b 76390000 		.4byte	.LASF542
 6461 135f D101     		.2byte	0x1d1
 6462 1361 0D       		.uleb128 0xd
 6463 1362 B41F0000 		.4byte	.LASF543
 6464 1366 D201     		.2byte	0x1d2
 6465 1368 0D       		.uleb128 0xd
 6466 1369 4E4E0000 		.4byte	.LASF544
 6467 136d D301     		.2byte	0x1d3
 6468 136f 0D       		.uleb128 0xd
 6469 1370 1C2D0000 		.4byte	.LASF545
 6470 1374 D401     		.2byte	0x1d4
 6471 1376 0D       		.uleb128 0xd
 6472 1377 D9370000 		.4byte	.LASF546
 6473 137b D501     		.2byte	0x1d5
 6474 137d 0D       		.uleb128 0xd
 6475 137e DD3D0000 		.4byte	.LASF547
 6476 1382 D601     		.2byte	0x1d6
 6477 1384 0D       		.uleb128 0xd
 6478 1385 B33F0000 		.4byte	.LASF548
 6479 1389 D701     		.2byte	0x1d7
 6480 138b 0D       		.uleb128 0xd
 6481 138c A7260000 		.4byte	.LASF549
 6482 1390 D801     		.2byte	0x1d8
 6483 1392 0D       		.uleb128 0xd
 6484 1393 7F000000 		.4byte	.LASF550
 6485 1397 D901     		.2byte	0x1d9
 6486 1399 0D       		.uleb128 0xd
 6487 139a 1E080000 		.4byte	.LASF551
 6488 139e DA01     		.2byte	0x1da
 6489 13a0 0D       		.uleb128 0xd
 6490 13a1 12220000 		.4byte	.LASF552
 6491 13a5 DB01     		.2byte	0x1db
 6492 13a7 0D       		.uleb128 0xd
 6493 13a8 C6430000 		.4byte	.LASF553
 6494 13ac DC01     		.2byte	0x1dc
 6495 13ae 0D       		.uleb128 0xd
 6496 13af 8B3E0000 		.4byte	.LASF554
 6497 13b3 DD01     		.2byte	0x1dd
 6498 13b5 0D       		.uleb128 0xd
 6499 13b6 09170000 		.4byte	.LASF555
 6500 13ba DE01     		.2byte	0x1de
 6501 13bc 0D       		.uleb128 0xd
 6502 13bd 56250000 		.4byte	.LASF556
 6503 13c1 DF01     		.2byte	0x1df
 6504 13c3 0D       		.uleb128 0xd
 6505 13c4 9C000000 		.4byte	.LASF557
 6506 13c8 E001     		.2byte	0x1e0
 6507 13ca 0D       		.uleb128 0xd
 6508 13cb 51280000 		.4byte	.LASF558
 6509 13cf E101     		.2byte	0x1e1
 6510 13d1 0D       		.uleb128 0xd
 6511 13d2 D3300000 		.4byte	.LASF559
ARM GAS  C:\Users\run1009\AppData\Local\Temp\ccSZtXoF.s 			page 186


 6512 13d6 E201     		.2byte	0x1e2
 6513 13d8 0D       		.uleb128 0xd
 6514 13d9 22000000 		.4byte	.LASF560
 6515 13dd E301     		.2byte	0x1e3
 6516 13df 0D       		.uleb128 0xd
 6517 13e0 11050000 		.4byte	.LASF561
 6518 13e4 E401     		.2byte	0x1e4
 6519 13e6 0D       		.uleb128 0xd
 6520 13e7 28210000 		.4byte	.LASF562
 6521 13eb E501     		.2byte	0x1e5
 6522 13ed 0D       		.uleb128 0xd
 6523 13ee E5260000 		.4byte	.LASF563
 6524 13f2 E601     		.2byte	0x1e6
 6525 13f4 0D       		.uleb128 0xd
 6526 13f5 98060000 		.4byte	.LASF564
 6527 13f9 E701     		.2byte	0x1e7
 6528 13fb 0D       		.uleb128 0xd
 6529 13fc F3290000 		.4byte	.LASF565
 6530 1400 E801     		.2byte	0x1e8
 6531 1402 0D       		.uleb128 0xd
 6532 1403 27430000 		.4byte	.LASF566
 6533 1407 E901     		.2byte	0x1e9
 6534 1409 0D       		.uleb128 0xd
 6535 140a D1510000 		.4byte	.LASF567
 6536 140e EA01     		.2byte	0x1ea
 6537 1410 0D       		.uleb128 0xd
 6538 1411 15230000 		.4byte	.LASF568
 6539 1415 EB01     		.2byte	0x1eb
 6540 1417 0D       		.uleb128 0xd
 6541 1418 2A380000 		.4byte	.LASF569
 6542 141c EC01     		.2byte	0x1ec
 6543 141e 0D       		.uleb128 0xd
 6544 141f 3A1D0000 		.4byte	.LASF570
 6545 1423 ED01     		.2byte	0x1ed
 6546 1425 0D       		.uleb128 0xd
 6547 1426 FB360000 		.4byte	.LASF571
 6548 142a EE01     		.2byte	0x1ee
 6549 142c 0D       		.uleb128 0xd
 6550 142d DB040000 		.4byte	.LASF572
 6551 1431 EF01     		.2byte	0x1ef
 6552 1433 0D       		.uleb128 0xd
 6553 1434 65420000 		.4byte	.LASF573
 6554 1438 F001     		.2byte	0x1f0
 6555 143a 0D       		.uleb128 0xd
 6556 143b 72140000 		.4byte	.LASF574
 6557 143f F101     		.2byte	0x1f1
 6558 1441 0D       		.uleb128 0xd
 6559 1442 75280000 		.4byte	.LASF575
 6560 1446 F201     		.2byte	0x1f2
 6561 1448 0D       		.uleb128 0xd
 6562 1449 371C0000 		.4byte	.LASF576
 6563 144d F301     		.2byte	0x1f3
 6564 144f 0D       		.uleb128 0xd
 6565 1450 A14B0000 		.4byte	.LASF577
 6566 1454 F401     		.2byte	0x1f4
 6567 1456 0D       		.uleb128 0xd
 6568 1457 FA030000 		.4byte	.LASF578
ARM GAS  C:\Users\run1009\AppData\Local\Temp\ccSZtXoF.s 			page 187


 6569 145b F501     		.2byte	0x1f5
 6570 145d 0D       		.uleb128 0xd
 6571 145e 31010000 		.4byte	.LASF579
 6572 1462 F601     		.2byte	0x1f6
 6573 1464 0D       		.uleb128 0xd
 6574 1465 C2180000 		.4byte	.LASF580
 6575 1469 F701     		.2byte	0x1f7
 6576 146b 0D       		.uleb128 0xd
 6577 146c 98520000 		.4byte	.LASF581
 6578 1470 F801     		.2byte	0x1f8
 6579 1472 0D       		.uleb128 0xd
 6580 1473 F8300000 		.4byte	.LASF582
 6581 1477 F901     		.2byte	0x1f9
 6582 1479 0D       		.uleb128 0xd
 6583 147a 82490000 		.4byte	.LASF583
 6584 147e FA01     		.2byte	0x1fa
 6585 1480 0D       		.uleb128 0xd
 6586 1481 682E0000 		.4byte	.LASF584
 6587 1485 FB01     		.2byte	0x1fb
 6588 1487 0D       		.uleb128 0xd
 6589 1488 B9400000 		.4byte	.LASF585
 6590 148c FC01     		.2byte	0x1fc
 6591 148e 0D       		.uleb128 0xd
 6592 148f 93160000 		.4byte	.LASF586
 6593 1493 FD01     		.2byte	0x1fd
 6594 1495 0D       		.uleb128 0xd
 6595 1496 75050000 		.4byte	.LASF587
 6596 149a FE01     		.2byte	0x1fe
 6597 149c 0D       		.uleb128 0xd
 6598 149d 94400000 		.4byte	.LASF588
 6599 14a1 FF01     		.2byte	0x1ff
 6600 14a3 0D       		.uleb128 0xd
 6601 14a4 D8160000 		.4byte	.LASF589
 6602 14a8 0002     		.2byte	0x200
 6603 14aa 0D       		.uleb128 0xd
 6604 14ab D42A0000 		.4byte	.LASF590
 6605 14af 0102     		.2byte	0x201
 6606 14b1 0D       		.uleb128 0xd
 6607 14b2 F53E0000 		.4byte	.LASF591
 6608 14b6 0202     		.2byte	0x202
 6609 14b8 0D       		.uleb128 0xd
 6610 14b9 7F1C0000 		.4byte	.LASF592
 6611 14bd 0302     		.2byte	0x203
 6612 14bf 0D       		.uleb128 0xd
 6613 14c0 5F470000 		.4byte	.LASF593
 6614 14c4 0402     		.2byte	0x204
 6615 14c6 0D       		.uleb128 0xd
 6616 14c7 241A0000 		.4byte	.LASF594
 6617 14cb 0502     		.2byte	0x205
 6618 14cd 0D       		.uleb128 0xd
 6619 14ce 050E0000 		.4byte	.LASF595
 6620 14d2 0602     		.2byte	0x206
 6621 14d4 0D       		.uleb128 0xd
 6622 14d5 90380000 		.4byte	.LASF596
 6623 14d9 0702     		.2byte	0x207
 6624 14db 0D       		.uleb128 0xd
 6625 14dc 36200000 		.4byte	.LASF597
ARM GAS  C:\Users\run1009\AppData\Local\Temp\ccSZtXoF.s 			page 188


 6626 14e0 0802     		.2byte	0x208
 6627 14e2 0D       		.uleb128 0xd
 6628 14e3 51100000 		.4byte	.LASF598
 6629 14e7 0902     		.2byte	0x209
 6630 14e9 0D       		.uleb128 0xd
 6631 14ea 0E210000 		.4byte	.LASF599
 6632 14ee 0A02     		.2byte	0x20a
 6633 14f0 0D       		.uleb128 0xd
 6634 14f1 2F0A0000 		.4byte	.LASF600
 6635 14f5 0B02     		.2byte	0x20b
 6636 14f7 0D       		.uleb128 0xd
 6637 14f8 972F0000 		.4byte	.LASF601
 6638 14fc 0C02     		.2byte	0x20c
 6639 14fe 0D       		.uleb128 0xd
 6640 14ff 00000000 		.4byte	.LASF602
 6641 1503 0D02     		.2byte	0x20d
 6642 1505 0D       		.uleb128 0xd
 6643 1506 E8330000 		.4byte	.LASF603
 6644 150a 0E02     		.2byte	0x20e
 6645 150c 0D       		.uleb128 0xd
 6646 150d 6B480000 		.4byte	.LASF604
 6647 1511 0F02     		.2byte	0x20f
 6648 1513 0D       		.uleb128 0xd
 6649 1514 2C050000 		.4byte	.LASF605
 6650 1518 1002     		.2byte	0x210
 6651 151a 0D       		.uleb128 0xd
 6652 151b 563F0000 		.4byte	.LASF606
 6653 151f 1102     		.2byte	0x211
 6654 1521 0D       		.uleb128 0xd
 6655 1522 AE2C0000 		.4byte	.LASF607
 6656 1526 1202     		.2byte	0x212
 6657 1528 0D       		.uleb128 0xd
 6658 1529 081B0000 		.4byte	.LASF608
 6659 152d 1302     		.2byte	0x213
 6660 152f 0D       		.uleb128 0xd
 6661 1530 A5240000 		.4byte	.LASF609
 6662 1534 1402     		.2byte	0x214
 6663 1536 0D       		.uleb128 0xd
 6664 1537 D5140000 		.4byte	.LASF610
 6665 153b 1502     		.2byte	0x215
 6666 153d 0D       		.uleb128 0xd
 6667 153e 07530000 		.4byte	.LASF611
 6668 1542 1602     		.2byte	0x216
 6669 1544 0D       		.uleb128 0xd
 6670 1545 5E1D0000 		.4byte	.LASF612
 6671 1549 1702     		.2byte	0x217
 6672 154b 0D       		.uleb128 0xd
 6673 154c 6C010000 		.4byte	.LASF613
 6674 1550 1802     		.2byte	0x218
 6675 1552 0D       		.uleb128 0xd
 6676 1553 23340000 		.4byte	.LASF614
 6677 1557 1902     		.2byte	0x219
 6678 1559 0D       		.uleb128 0xd
 6679 155a B32F0000 		.4byte	.LASF615
 6680 155e 1A02     		.2byte	0x21a
 6681 1560 0D       		.uleb128 0xd
 6682 1561 641F0000 		.4byte	.LASF616
ARM GAS  C:\Users\run1009\AppData\Local\Temp\ccSZtXoF.s 			page 189


 6683 1565 1B02     		.2byte	0x21b
 6684 1567 0D       		.uleb128 0xd
 6685 1568 CE420000 		.4byte	.LASF617
 6686 156c 1C02     		.2byte	0x21c
 6687 156e 0D       		.uleb128 0xd
 6688 156f AD4C0000 		.4byte	.LASF618
 6689 1573 1D02     		.2byte	0x21d
 6690 1575 0D       		.uleb128 0xd
 6691 1576 F7010000 		.4byte	.LASF619
 6692 157a 1E02     		.2byte	0x21e
 6693 157c 0D       		.uleb128 0xd
 6694 157d D1320000 		.4byte	.LASF620
 6695 1581 1F02     		.2byte	0x21f
 6696 1583 0D       		.uleb128 0xd
 6697 1584 5F190000 		.4byte	.LASF621
 6698 1588 2002     		.2byte	0x220
 6699 158a 0D       		.uleb128 0xd
 6700 158b F9310000 		.4byte	.LASF622
 6701 158f 2102     		.2byte	0x221
 6702 1591 0D       		.uleb128 0xd
 6703 1592 79500000 		.4byte	.LASF623
 6704 1596 2202     		.2byte	0x222
 6705 1598 0D       		.uleb128 0xd
 6706 1599 B2140000 		.4byte	.LASF624
 6707 159d 2302     		.2byte	0x223
 6708 159f 0D       		.uleb128 0xd
 6709 15a0 45120000 		.4byte	.LASF625
 6710 15a4 2402     		.2byte	0x224
 6711 15a6 0D       		.uleb128 0xd
 6712 15a7 A4350000 		.4byte	.LASF626
 6713 15ab 00E0     		.2byte	0xe000
 6714 15ad 00       		.byte	0
 6715 15ae 0B       		.uleb128 0xb
 6716 15af 01       		.byte	0x1
 6717 15b0 2C000000 		.4byte	0x2c
 6718 15b4 0D       		.byte	0xd
 6719 15b5 5A08     		.2byte	0x85a
 6720 15b7 E6150000 		.4byte	0x15e6
 6721 15bb 0C       		.uleb128 0xc
 6722 15bc 8A130000 		.4byte	.LASF627
 6723 15c0 00       		.byte	0
 6724 15c1 0C       		.uleb128 0xc
 6725 15c2 AA490000 		.4byte	.LASF628
 6726 15c6 01       		.byte	0x1
 6727 15c7 0C       		.uleb128 0xc
 6728 15c8 714E0000 		.4byte	.LASF629
 6729 15cc 02       		.byte	0x2
 6730 15cd 0C       		.uleb128 0xc
 6731 15ce FA0A0000 		.4byte	.LASF630
 6732 15d2 03       		.byte	0x3
 6733 15d3 0C       		.uleb128 0xc
 6734 15d4 D8060000 		.4byte	.LASF631
 6735 15d8 04       		.byte	0x4
 6736 15d9 0C       		.uleb128 0xc
 6737 15da A0170000 		.4byte	.LASF632
 6738 15de 05       		.byte	0x5
 6739 15df 0C       		.uleb128 0xc
ARM GAS  C:\Users\run1009\AppData\Local\Temp\ccSZtXoF.s 			page 190


 6740 15e0 7C110000 		.4byte	.LASF633
 6741 15e4 06       		.byte	0x6
 6742 15e5 00       		.byte	0
 6743 15e6 05       		.uleb128 0x5
 6744 15e7 063A0000 		.4byte	.LASF634
 6745 15eb 0D       		.byte	0xd
 6746 15ec 6808     		.2byte	0x868
 6747 15ee AE150000 		.4byte	0x15ae
 6748 15f2 0B       		.uleb128 0xb
 6749 15f3 01       		.byte	0x1
 6750 15f4 2C000000 		.4byte	0x2c
 6751 15f8 0D       		.byte	0xd
 6752 15f9 6E08     		.2byte	0x86e
 6753 15fb 36160000 		.4byte	0x1636
 6754 15ff 0C       		.uleb128 0xc
 6755 1600 5B3D0000 		.4byte	.LASF635
 6756 1604 00       		.byte	0
 6757 1605 0C       		.uleb128 0xc
 6758 1606 C9190000 		.4byte	.LASF636
 6759 160a 01       		.byte	0x1
 6760 160b 0C       		.uleb128 0xc
 6761 160c FD410000 		.4byte	.LASF637
 6762 1610 02       		.byte	0x2
 6763 1611 0C       		.uleb128 0xc
 6764 1612 74060000 		.4byte	.LASF638
 6765 1616 03       		.byte	0x3
 6766 1617 0C       		.uleb128 0xc
 6767 1618 6F400000 		.4byte	.LASF639
 6768 161c 04       		.byte	0x4
 6769 161d 0C       		.uleb128 0xc
 6770 161e 293F0000 		.4byte	.LASF640
 6771 1622 05       		.byte	0x5
 6772 1623 0C       		.uleb128 0xc
 6773 1624 8E330000 		.4byte	.LASF641
 6774 1628 06       		.byte	0x6
 6775 1629 0C       		.uleb128 0xc
 6776 162a 47140000 		.4byte	.LASF642
 6777 162e 07       		.byte	0x7
 6778 162f 0C       		.uleb128 0xc
 6779 1630 31280000 		.4byte	.LASF643
 6780 1634 08       		.byte	0x8
 6781 1635 00       		.byte	0
 6782 1636 05       		.uleb128 0x5
 6783 1637 51360000 		.4byte	.LASF644
 6784 163b 0D       		.byte	0xd
 6785 163c 7808     		.2byte	0x878
 6786 163e F2150000 		.4byte	0x15f2
 6787 1642 0E       		.uleb128 0xe
 6788 1643 0E       		.byte	0xe
 6789 1644 0D       		.byte	0xd
 6790 1645 8208     		.2byte	0x882
 6791 1647 A7160000 		.4byte	0x16a7
 6792 164b 0F       		.uleb128 0xf
 6793 164c D32C0000 		.4byte	.LASF645
 6794 1650 0D       		.byte	0xd
 6795 1651 8508     		.2byte	0x885
 6796 1653 C8080000 		.4byte	0x8c8
ARM GAS  C:\Users\run1009\AppData\Local\Temp\ccSZtXoF.s 			page 191


 6797 1657 00       		.byte	0
 6798 1658 0F       		.uleb128 0xf
 6799 1659 23370000 		.4byte	.LASF646
 6800 165d 0D       		.byte	0xd
 6801 165e 8708     		.2byte	0x887
 6802 1660 C8080000 		.4byte	0x8c8
 6803 1664 02       		.byte	0x2
 6804 1665 0F       		.uleb128 0xf
 6805 1666 391B0000 		.4byte	.LASF647
 6806 166a 0D       		.byte	0xd
 6807 166b 8A08     		.2byte	0x88a
 6808 166d C8080000 		.4byte	0x8c8
 6809 1671 04       		.byte	0x4
 6810 1672 0F       		.uleb128 0xf
 6811 1673 230F0000 		.4byte	.LASF648
 6812 1677 0D       		.byte	0xd
 6813 1678 8D08     		.2byte	0x88d
 6814 167a C8080000 		.4byte	0x8c8
 6815 167e 06       		.byte	0x6
 6816 167f 0F       		.uleb128 0xf
 6817 1680 0B340000 		.4byte	.LASF649
 6818 1684 0D       		.byte	0xd
 6819 1685 9008     		.2byte	0x890
 6820 1687 C8080000 		.4byte	0x8c8
 6821 168b 08       		.byte	0x8
 6822 168c 0F       		.uleb128 0xf
 6823 168d EB480000 		.4byte	.LASF650
 6824 1691 0D       		.byte	0xd
 6825 1692 9308     		.2byte	0x893
 6826 1694 C8080000 		.4byte	0x8c8
 6827 1698 0A       		.byte	0xa
 6828 1699 0F       		.uleb128 0xf
 6829 169a 51110000 		.4byte	.LASF651
 6830 169e 0D       		.byte	0xd
 6831 169f 9608     		.2byte	0x896
 6832 16a1 C8080000 		.4byte	0x8c8
 6833 16a5 0C       		.byte	0xc
 6834 16a6 00       		.byte	0
 6835 16a7 05       		.uleb128 0x5
 6836 16a8 8D0C0000 		.4byte	.LASF652
 6837 16ac 0D       		.byte	0xd
 6838 16ad 9708     		.2byte	0x897
 6839 16af 42160000 		.4byte	0x1642
 6840 16b3 0B       		.uleb128 0xb
 6841 16b4 01       		.byte	0x1
 6842 16b5 2C000000 		.4byte	0x2c
 6843 16b9 0D       		.byte	0xd
 6844 16ba 9D08     		.2byte	0x89d
 6845 16bc DF160000 		.4byte	0x16df
 6846 16c0 0C       		.uleb128 0xc
 6847 16c1 473F0000 		.4byte	.LASF653
 6848 16c5 00       		.byte	0
 6849 16c6 0C       		.uleb128 0xc
 6850 16c7 E6210000 		.4byte	.LASF654
 6851 16cb 01       		.byte	0x1
 6852 16cc 0C       		.uleb128 0xc
 6853 16cd D54D0000 		.4byte	.LASF655
ARM GAS  C:\Users\run1009\AppData\Local\Temp\ccSZtXoF.s 			page 192


 6854 16d1 02       		.byte	0x2
 6855 16d2 0C       		.uleb128 0xc
 6856 16d3 433C0000 		.4byte	.LASF656
 6857 16d7 03       		.byte	0x3
 6858 16d8 0C       		.uleb128 0xc
 6859 16d9 9F460000 		.4byte	.LASF657
 6860 16dd 04       		.byte	0x4
 6861 16de 00       		.byte	0
 6862 16df 0B       		.uleb128 0xb
 6863 16e0 01       		.byte	0x1
 6864 16e1 2C000000 		.4byte	0x2c
 6865 16e5 0D       		.byte	0xd
 6866 16e6 0F09     		.2byte	0x90f
 6867 16e8 FF160000 		.4byte	0x16ff
 6868 16ec 0C       		.uleb128 0xc
 6869 16ed 6E290000 		.4byte	.LASF658
 6870 16f1 00       		.byte	0
 6871 16f2 0C       		.uleb128 0xc
 6872 16f3 220C0000 		.4byte	.LASF659
 6873 16f7 01       		.byte	0x1
 6874 16f8 0C       		.uleb128 0xc
 6875 16f9 40100000 		.4byte	.LASF660
 6876 16fd 02       		.byte	0x2
 6877 16fe 00       		.byte	0
 6878 16ff 0E       		.uleb128 0xe
 6879 1700 0C       		.byte	0xc
 6880 1701 0D       		.byte	0xd
 6881 1702 A309     		.2byte	0x9a3
 6882 1704 57170000 		.4byte	0x1757
 6883 1708 0F       		.uleb128 0xf
 6884 1709 BE030000 		.4byte	.LASF661
 6885 170d 0D       		.byte	0xd
 6886 170e A609     		.2byte	0x9a6
 6887 1710 C8080000 		.4byte	0x8c8
 6888 1714 00       		.byte	0
 6889 1715 0F       		.uleb128 0xf
 6890 1716 D32C0000 		.4byte	.LASF645
 6891 171a 0D       		.byte	0xd
 6892 171b A809     		.2byte	0x9a8
 6893 171d C8080000 		.4byte	0x8c8
 6894 1721 02       		.byte	0x2
 6895 1722 0F       		.uleb128 0xf
 6896 1723 23370000 		.4byte	.LASF646
 6897 1727 0D       		.byte	0xd
 6898 1728 AA09     		.2byte	0x9aa
 6899 172a C8080000 		.4byte	0x8c8
 6900 172e 04       		.byte	0x4
 6901 172f 0F       		.uleb128 0xf
 6902 1730 0B340000 		.4byte	.LASF649
 6903 1734 0D       		.byte	0xd
 6904 1735 AD09     		.2byte	0x9ad
 6905 1737 C8080000 		.4byte	0x8c8
 6906 173b 06       		.byte	0x6
 6907 173c 0F       		.uleb128 0xf
 6908 173d EB480000 		.4byte	.LASF650
 6909 1741 0D       		.byte	0xd
 6910 1742 AF09     		.2byte	0x9af
ARM GAS  C:\Users\run1009\AppData\Local\Temp\ccSZtXoF.s 			page 193


 6911 1744 C8080000 		.4byte	0x8c8
 6912 1748 08       		.byte	0x8
 6913 1749 0F       		.uleb128 0xf
 6914 174a 51110000 		.4byte	.LASF651
 6915 174e 0D       		.byte	0xd
 6916 174f B109     		.2byte	0x9b1
 6917 1751 C8080000 		.4byte	0x8c8
 6918 1755 0A       		.byte	0xa
 6919 1756 00       		.byte	0
 6920 1757 05       		.uleb128 0x5
 6921 1758 4E3D0000 		.4byte	.LASF662
 6922 175c 0D       		.byte	0xd
 6923 175d B209     		.2byte	0x9b2
 6924 175f FF160000 		.4byte	0x16ff
 6925 1763 18       		.uleb128 0x18
 6926 1764 7C020000 		.4byte	.LASF665
 6927 1768 01       		.byte	0x1
 6928 1769 FB       		.byte	0xfb
 6929 176a 00000000 		.4byte	.LFB2
 6930 176e 74000000 		.4byte	.LFE2-.LFB2
 6931 1772 01       		.uleb128 0x1
 6932 1773 9C       		.byte	0x9c
 6933 1774 AE170000 		.4byte	0x17ae
 6934 1778 19       		.uleb128 0x19
 6935 1779 E8020000 		.4byte	.LASF667
 6936 177d 01       		.byte	0x1
 6937 177e FB       		.byte	0xfb
 6938 177f AE170000 		.4byte	0x17ae
 6939 1783 02       		.uleb128 0x2
 6940 1784 91       		.byte	0x91
 6941 1785 64       		.sleb128 -28
 6942 1786 1A       		.uleb128 0x1a
 6943 1787 844D0000 		.4byte	.LASF663
 6944 178b 01       		.byte	0x1
 6945 178c FD       		.byte	0xfd
 6946 178d 5F080000 		.4byte	0x85f
 6947 1791 02       		.uleb128 0x2
 6948 1792 91       		.byte	0x91
 6949 1793 6F       		.sleb128 -17
 6950 1794 1B       		.uleb128 0x1b
 6951 1795 30000000 		.4byte	.LBB2
 6952 1799 2C000000 		.4byte	.LBE2-.LBB2
 6953 179d 1C       		.uleb128 0x1c
 6954 179e CC310000 		.4byte	.LASF664
 6955 17a2 01       		.byte	0x1
 6956 17a3 B701     		.2byte	0x1b7
 6957 17a5 3B0A0000 		.4byte	0xa3b
 6958 17a9 02       		.uleb128 0x2
 6959 17aa 91       		.byte	0x91
 6960 17ab 68       		.sleb128 -24
 6961 17ac 00       		.byte	0
 6962 17ad 00       		.byte	0
 6963 17ae 08       		.uleb128 0x8
 6964 17af 04       		.byte	0x4
 6965 17b0 670A0000 		.4byte	0xa67
 6966 17b4 1D       		.uleb128 0x1d
 6967 17b5 262E0000 		.4byte	.LASF666
ARM GAS  C:\Users\run1009\AppData\Local\Temp\ccSZtXoF.s 			page 194


 6968 17b9 01       		.byte	0x1
 6969 17ba D401     		.2byte	0x1d4
 6970 17bc 00000000 		.4byte	.LFB3
 6971 17c0 10000000 		.4byte	.LFE3-.LFB3
 6972 17c4 01       		.uleb128 0x1
 6973 17c5 9C       		.byte	0x9c
 6974 17c6 DA170000 		.4byte	0x17da
 6975 17ca 1E       		.uleb128 0x1e
 6976 17cb E8020000 		.4byte	.LASF667
 6977 17cf 01       		.byte	0x1
 6978 17d0 D401     		.2byte	0x1d4
 6979 17d2 DA170000 		.4byte	0x17da
 6980 17d6 02       		.uleb128 0x2
 6981 17d7 91       		.byte	0x91
 6982 17d8 74       		.sleb128 -12
 6983 17d9 00       		.byte	0
 6984 17da 08       		.uleb128 0x8
 6985 17db 04       		.byte	0x4
 6986 17dc E0170000 		.4byte	0x17e0
 6987 17e0 1F       		.uleb128 0x1f
 6988 17e1 F8080000 		.4byte	0x8f8
 6989 17e5 1D       		.uleb128 0x1d
 6990 17e6 40420000 		.4byte	.LASF668
 6991 17ea 01       		.byte	0x1
 6992 17eb 4F02     		.2byte	0x24f
 6993 17ed 00000000 		.4byte	.LFB4
 6994 17f1 10000000 		.4byte	.LFE4-.LFB4
 6995 17f5 01       		.uleb128 0x1
 6996 17f6 9C       		.byte	0x9c
 6997 17f7 0B180000 		.4byte	0x180b
 6998 17fb 1E       		.uleb128 0x1e
 6999 17fc E8020000 		.4byte	.LASF667
 7000 1800 01       		.byte	0x1
 7001 1801 4F02     		.2byte	0x24f
 7002 1803 DA170000 		.4byte	0x17da
 7003 1807 02       		.uleb128 0x2
 7004 1808 91       		.byte	0x91
 7005 1809 74       		.sleb128 -12
 7006 180a 00       		.byte	0
 7007 180b 1D       		.uleb128 0x1d
 7008 180c 21420000 		.4byte	.LASF669
 7009 1810 01       		.byte	0x1
 7010 1811 1F03     		.2byte	0x31f
 7011 1813 00000000 		.4byte	.LFB5
 7012 1817 10000000 		.4byte	.LFE5-.LFB5
 7013 181b 01       		.uleb128 0x1
 7014 181c 9C       		.byte	0x9c
 7015 181d 31180000 		.4byte	0x1831
 7016 1821 1E       		.uleb128 0x1e
 7017 1822 E8020000 		.4byte	.LASF667
 7018 1826 01       		.byte	0x1
 7019 1827 1F03     		.2byte	0x31f
 7020 1829 31180000 		.4byte	0x1831
 7021 182d 02       		.uleb128 0x2
 7022 182e 91       		.byte	0x91
 7023 182f 74       		.sleb128 -12
 7024 1830 00       		.byte	0
ARM GAS  C:\Users\run1009\AppData\Local\Temp\ccSZtXoF.s 			page 195


 7025 1831 08       		.uleb128 0x8
 7026 1832 04       		.byte	0x4
 7027 1833 0E0B0000 		.4byte	0xb0e
 7028 1837 1D       		.uleb128 0x1d
 7029 1838 E4230000 		.4byte	.LASF670
 7030 183c 01       		.byte	0x1
 7031 183d B703     		.2byte	0x3b7
 7032 183f 00000000 		.4byte	.LFB6
 7033 1843 10000000 		.4byte	.LFE6-.LFB6
 7034 1847 01       		.uleb128 0x1
 7035 1848 9C       		.byte	0x9c
 7036 1849 5D180000 		.4byte	0x185d
 7037 184d 1E       		.uleb128 0x1e
 7038 184e E8020000 		.4byte	.LASF667
 7039 1852 01       		.byte	0x1
 7040 1853 B703     		.2byte	0x3b7
 7041 1855 5D180000 		.4byte	0x185d
 7042 1859 02       		.uleb128 0x2
 7043 185a 91       		.byte	0x91
 7044 185b 74       		.sleb128 -12
 7045 185c 00       		.byte	0
 7046 185d 08       		.uleb128 0x8
 7047 185e 04       		.byte	0x4
 7048 185f 190B0000 		.4byte	0xb19
 7049 1863 20       		.uleb128 0x20
 7050 1864 B50B0000 		.4byte	.LASF671
 7051 1868 01       		.byte	0x1
 7052 1869 2104     		.2byte	0x421
 7053 186b 00000000 		.4byte	.LFB7
 7054 186f 0C010000 		.4byte	.LFE7-.LFB7
 7055 1873 01       		.uleb128 0x1
 7056 1874 9C       		.byte	0x9c
 7057 1875 A2180000 		.4byte	0x18a2
 7058 1879 1E       		.uleb128 0x1e
 7059 187a E8020000 		.4byte	.LASF667
 7060 187e 01       		.byte	0x1
 7061 187f 2104     		.2byte	0x421
 7062 1881 A2180000 		.4byte	0x18a2
 7063 1885 02       		.uleb128 0x2
 7064 1886 91       		.byte	0x91
 7065 1887 5C       		.sleb128 -36
 7066 1888 1B       		.uleb128 0x1b
 7067 1889 18000000 		.4byte	.LBB3
 7068 188d CE000000 		.4byte	.LBE3-.LBB3
 7069 1891 1C       		.uleb128 0x1c
 7070 1892 62400000 		.4byte	.LASF672
 7071 1896 01       		.byte	0x1
 7072 1897 2804     		.2byte	0x428
 7073 1899 5C0C0000 		.4byte	0xc5c
 7074 189d 02       		.uleb128 0x2
 7075 189e 91       		.byte	0x91
 7076 189f 60       		.sleb128 -32
 7077 18a0 00       		.byte	0
 7078 18a1 00       		.byte	0
 7079 18a2 08       		.uleb128 0x8
 7080 18a3 04       		.byte	0x4
 7081 18a4 E20A0000 		.4byte	0xae2
ARM GAS  C:\Users\run1009\AppData\Local\Temp\ccSZtXoF.s 			page 196


 7082 18a8 20       		.uleb128 0x20
 7083 18a9 26480000 		.4byte	.LASF673
 7084 18ad 01       		.byte	0x1
 7085 18ae 1005     		.2byte	0x510
 7086 18b0 00000000 		.4byte	.LFB8
 7087 18b4 0C010000 		.4byte	.LFE8-.LFB8
 7088 18b8 01       		.uleb128 0x1
 7089 18b9 9C       		.byte	0x9c
 7090 18ba E7180000 		.4byte	0x18e7
 7091 18be 1E       		.uleb128 0x1e
 7092 18bf E8020000 		.4byte	.LASF667
 7093 18c3 01       		.byte	0x1
 7094 18c4 1005     		.2byte	0x510
 7095 18c6 A2180000 		.4byte	0x18a2
 7096 18ca 02       		.uleb128 0x2
 7097 18cb 91       		.byte	0x91
 7098 18cc 5C       		.sleb128 -36
 7099 18cd 1B       		.uleb128 0x1b
 7100 18ce 18000000 		.4byte	.LBB4
 7101 18d2 CE000000 		.4byte	.LBE4-.LBB4
 7102 18d6 1C       		.uleb128 0x1c
 7103 18d7 62400000 		.4byte	.LASF672
 7104 18db 01       		.byte	0x1
 7105 18dc 1705     		.2byte	0x517
 7106 18de 5C0C0000 		.4byte	0xc5c
 7107 18e2 02       		.uleb128 0x2
 7108 18e3 91       		.byte	0x91
 7109 18e4 60       		.sleb128 -32
 7110 18e5 00       		.byte	0
 7111 18e6 00       		.byte	0
 7112 18e7 21       		.uleb128 0x21
 7113 18e8 B32A0000 		.4byte	.LASF675
 7114 18ec 01       		.byte	0x1
 7115 18ed 4D05     		.2byte	0x54d
 7116 18ef 00000000 		.4byte	.LFB9
 7117 18f3 34000000 		.4byte	.LFE9-.LFB9
 7118 18f7 01       		.uleb128 0x1
 7119 18f8 9C       		.byte	0x9c
 7120 18f9 20       		.uleb128 0x20
 7121 18fa 413E0000 		.4byte	.LASF674
 7122 18fe 01       		.byte	0x1
 7123 18ff 8505     		.2byte	0x585
 7124 1901 00000000 		.4byte	.LFB10
 7125 1905 BC000000 		.4byte	.LFE10-.LFB10
 7126 1909 01       		.uleb128 0x1
 7127 190a 9C       		.byte	0x9c
 7128 190b 1F190000 		.4byte	0x191f
 7129 190f 1E       		.uleb128 0x1e
 7130 1910 E8020000 		.4byte	.LASF667
 7131 1914 01       		.byte	0x1
 7132 1915 8505     		.2byte	0x585
 7133 1917 1F190000 		.4byte	0x191f
 7134 191b 02       		.uleb128 0x2
 7135 191c 91       		.byte	0x91
 7136 191d 74       		.sleb128 -12
 7137 191e 00       		.byte	0
 7138 191f 08       		.uleb128 0x8
ARM GAS  C:\Users\run1009\AppData\Local\Temp\ccSZtXoF.s 			page 197


 7139 1920 04       		.byte	0x4
 7140 1921 25190000 		.4byte	0x1925
 7141 1925 1F       		.uleb128 0x1f
 7142 1926 08050000 		.4byte	0x508
 7143 192a 21       		.uleb128 0x21
 7144 192b 52290000 		.4byte	.LASF676
 7145 192f 01       		.byte	0x1
 7146 1930 BD05     		.2byte	0x5bd
 7147 1932 00000000 		.4byte	.LFB11
 7148 1936 0A000000 		.4byte	.LFE11-.LFB11
 7149 193a 01       		.uleb128 0x1
 7150 193b 9C       		.byte	0x9c
 7151 193c 22       		.uleb128 0x22
 7152 193d 4F330000 		.4byte	.LASF731
 7153 1941 01       		.byte	0x1
 7154 1942 E905     		.2byte	0x5e9
 7155 1944 81000000 		.4byte	0x81
 7156 1948 00000000 		.4byte	.LFB12
 7157 194c 60000000 		.4byte	.LFE12-.LFB12
 7158 1950 01       		.uleb128 0x1
 7159 1951 9C       		.byte	0x9c
 7160 1952 82190000 		.4byte	0x1982
 7161 1956 1E       		.uleb128 0x1e
 7162 1957 E5180000 		.4byte	.LASF677
 7163 195b 01       		.byte	0x1
 7164 195c E905     		.2byte	0x5e9
 7165 195e 82190000 		.4byte	0x1982
 7166 1962 02       		.uleb128 0x2
 7167 1963 91       		.byte	0x91
 7168 1964 6C       		.sleb128 -20
 7169 1965 23       		.uleb128 0x23
 7170 1966 6900     		.ascii	"i\000"
 7171 1968 01       		.byte	0x1
 7172 1969 EB05     		.2byte	0x5eb
 7173 196b 81000000 		.4byte	0x81
 7174 196f 02       		.uleb128 0x2
 7175 1970 91       		.byte	0x91
 7176 1971 77       		.sleb128 -9
 7177 1972 1C       		.uleb128 0x1c
 7178 1973 ED0A0000 		.4byte	.LASF678
 7179 1977 01       		.byte	0x1
 7180 1978 EC05     		.2byte	0x5ec
 7181 197a 81000000 		.4byte	0x81
 7182 197e 02       		.uleb128 0x2
 7183 197f 91       		.byte	0x91
 7184 1980 76       		.sleb128 -10
 7185 1981 00       		.byte	0
 7186 1982 08       		.uleb128 0x8
 7187 1983 04       		.byte	0x4
 7188 1984 88190000 		.4byte	0x1988
 7189 1988 1F       		.uleb128 0x1f
 7190 1989 D1040000 		.4byte	0x4d1
 7191 198d 1D       		.uleb128 0x1d
 7192 198e EB430000 		.4byte	.LASF679
 7193 1992 01       		.byte	0x1
 7194 1993 0D06     		.2byte	0x60d
 7195 1995 00000000 		.4byte	.LFB13
ARM GAS  C:\Users\run1009\AppData\Local\Temp\ccSZtXoF.s 			page 198


 7196 1999 14000000 		.4byte	.LFE13-.LFB13
 7197 199d 01       		.uleb128 0x1
 7198 199e 9C       		.byte	0x9c
 7199 199f B3190000 		.4byte	0x19b3
 7200 19a3 1E       		.uleb128 0x1e
 7201 19a4 79490000 		.4byte	.LASF680
 7202 19a8 01       		.byte	0x1
 7203 19a9 0D06     		.2byte	0x60d
 7204 19ab 8D000000 		.4byte	0x8d
 7205 19af 02       		.uleb128 0x2
 7206 19b0 91       		.byte	0x91
 7207 19b1 76       		.sleb128 -10
 7208 19b2 00       		.byte	0
 7209 19b3 1D       		.uleb128 0x1d
 7210 19b4 121D0000 		.4byte	.LASF681
 7211 19b8 01       		.byte	0x1
 7212 19b9 2706     		.2byte	0x627
 7213 19bb 00000000 		.4byte	.LFB14
 7214 19bf 10000000 		.4byte	.LFE14-.LFB14
 7215 19c3 01       		.uleb128 0x1
 7216 19c4 9C       		.byte	0x9c
 7217 19c5 D9190000 		.4byte	0x19d9
 7218 19c9 1E       		.uleb128 0x1e
 7219 19ca E8020000 		.4byte	.LASF667
 7220 19ce 01       		.byte	0x1
 7221 19cf 2706     		.2byte	0x627
 7222 19d1 D9190000 		.4byte	0x19d9
 7223 19d5 02       		.uleb128 0x2
 7224 19d6 91       		.byte	0x91
 7225 19d7 74       		.sleb128 -12
 7226 19d8 00       		.byte	0
 7227 19d9 08       		.uleb128 0x8
 7228 19da 04       		.byte	0x4
 7229 19db DF190000 		.4byte	0x19df
 7230 19df 1F       		.uleb128 0x1f
 7231 19e0 96060000 		.4byte	0x696
 7232 19e4 24       		.uleb128 0x24
 7233 19e5 BE120000 		.4byte	.LASF690
 7234 19e9 01       		.byte	0x1
 7235 19ea 4106     		.2byte	0x641
 7236 19ec 00000000 		.4byte	.LFB15
 7237 19f0 B0040000 		.4byte	.LFE15-.LFB15
 7238 19f4 01       		.uleb128 0x1
 7239 19f5 9C       		.byte	0x9c
 7240 19f6 DF1A0000 		.4byte	0x1adf
 7241 19fa 1E       		.uleb128 0x1e
 7242 19fb C54B0000 		.4byte	.LASF682
 7243 19ff 01       		.byte	0x1
 7244 1a00 4106     		.2byte	0x641
 7245 1a02 81000000 		.4byte	0x81
 7246 1a06 02       		.uleb128 0x2
 7247 1a07 91       		.byte	0x91
 7248 1a08 5F       		.sleb128 -33
 7249 1a09 1E       		.uleb128 0x1e
 7250 1a0a E8020000 		.4byte	.LASF667
 7251 1a0e 01       		.byte	0x1
 7252 1a0f 4106     		.2byte	0x641
ARM GAS  C:\Users\run1009\AppData\Local\Temp\ccSZtXoF.s 			page 199


 7253 1a11 CD000000 		.4byte	0xcd
 7254 1a15 02       		.uleb128 0x2
 7255 1a16 91       		.byte	0x91
 7256 1a17 58       		.sleb128 -40
 7257 1a18 25       		.uleb128 0x25
 7258 1a19 32000000 		.4byte	.LBB5
 7259 1a1d 3E000000 		.4byte	.LBE5-.LBB5
 7260 1a21 351A0000 		.4byte	0x1a35
 7261 1a25 1C       		.uleb128 0x1c
 7262 1a26 183B0000 		.4byte	.LASF683
 7263 1a2a 01       		.byte	0x1
 7264 1a2b 4E06     		.2byte	0x64e
 7265 1a2d 2E040000 		.4byte	0x42e
 7266 1a31 02       		.uleb128 0x2
 7267 1a32 91       		.byte	0x91
 7268 1a33 68       		.sleb128 -24
 7269 1a34 00       		.byte	0
 7270 1a35 25       		.uleb128 0x25
 7271 1a36 A2000000 		.4byte	.LBB6
 7272 1a3a 52000000 		.4byte	.LBE6-.LBB6
 7273 1a3e 521A0000 		.4byte	0x1a52
 7274 1a42 1C       		.uleb128 0x1c
 7275 1a43 FA490000 		.4byte	.LASF684
 7276 1a47 01       		.byte	0x1
 7277 1a48 7706     		.2byte	0x677
 7278 1a4a 99000000 		.4byte	0x99
 7279 1a4e 02       		.uleb128 0x2
 7280 1a4f 91       		.byte	0x91
 7281 1a50 70       		.sleb128 -16
 7282 1a51 00       		.byte	0
 7283 1a52 25       		.uleb128 0x25
 7284 1a53 16010000 		.4byte	.LBB7
 7285 1a57 1A000000 		.4byte	.LBE7-.LBB7
 7286 1a5b 6F1A0000 		.4byte	0x1a6f
 7287 1a5f 1C       		.uleb128 0x1c
 7288 1a60 F6410000 		.4byte	.LASF685
 7289 1a64 01       		.byte	0x1
 7290 1a65 8F06     		.2byte	0x68f
 7291 1a67 DF1A0000 		.4byte	0x1adf
 7292 1a6b 02       		.uleb128 0x2
 7293 1a6c 91       		.byte	0x91
 7294 1a6d 64       		.sleb128 -28
 7295 1a6e 00       		.byte	0
 7296 1a6f 25       		.uleb128 0x25
 7297 1a70 4C010000 		.4byte	.LBB8
 7298 1a74 3E000000 		.4byte	.LBE8-.LBB8
 7299 1a78 A81A0000 		.4byte	0x1aa8
 7300 1a7c 1C       		.uleb128 0x1c
 7301 1a7d 90070000 		.4byte	.LASF686
 7302 1a81 01       		.byte	0x1
 7303 1a82 A706     		.2byte	0x6a7
 7304 1a84 EF1A0000 		.4byte	0x1aef
 7305 1a88 02       		.uleb128 0x2
 7306 1a89 91       		.byte	0x91
 7307 1a8a 6C       		.sleb128 -20
 7308 1a8b 1B       		.uleb128 0x1b
 7309 1a8c 62010000 		.4byte	.LBB9
ARM GAS  C:\Users\run1009\AppData\Local\Temp\ccSZtXoF.s 			page 200


 7310 1a90 18000000 		.4byte	.LBE9-.LBB9
 7311 1a94 1C       		.uleb128 0x1c
 7312 1a95 7A320000 		.4byte	.LASF687
 7313 1a99 01       		.byte	0x1
 7314 1a9a AE06     		.2byte	0x6ae
 7315 1a9c 020A0000 		.4byte	0xa02
 7316 1aa0 05       		.uleb128 0x5
 7317 1aa1 03       		.byte	0x3
 7318 1aa2 18000000 		.4byte	gPrepWriteReqMem.6802
 7319 1aa6 00       		.byte	0
 7320 1aa7 00       		.byte	0
 7321 1aa8 25       		.uleb128 0x25
 7322 1aa9 AA010000 		.4byte	.LBB10
 7323 1aad 40000000 		.4byte	.LBE10-.LBB10
 7324 1ab1 C51A0000 		.4byte	0x1ac5
 7325 1ab5 1C       		.uleb128 0x1c
 7326 1ab6 41400000 		.4byte	.LASF688
 7327 1aba 01       		.byte	0x1
 7328 1abb D006     		.2byte	0x6d0
 7329 1abd 82030000 		.4byte	0x382
 7330 1ac1 02       		.uleb128 0x2
 7331 1ac2 91       		.byte	0x91
 7332 1ac3 62       		.sleb128 -30
 7333 1ac4 00       		.byte	0
 7334 1ac5 1B       		.uleb128 0x1b
 7335 1ac6 4C030000 		.4byte	.LBB11
 7336 1aca 7C000000 		.4byte	.LBE11-.LBB11
 7337 1ace 1C       		.uleb128 0x1c
 7338 1acf B7270000 		.4byte	.LASF689
 7339 1ad3 01       		.byte	0x1
 7340 1ad4 8D07     		.2byte	0x78d
 7341 1ad6 8D000000 		.4byte	0x8d
 7342 1ada 02       		.uleb128 0x2
 7343 1adb 91       		.byte	0x91
 7344 1adc 76       		.sleb128 -10
 7345 1add 00       		.byte	0
 7346 1ade 00       		.byte	0
 7347 1adf 10       		.uleb128 0x10
 7348 1ae0 81000000 		.4byte	0x81
 7349 1ae4 EF1A0000 		.4byte	0x1aef
 7350 1ae8 11       		.uleb128 0x11
 7351 1ae9 C6000000 		.4byte	0xc6
 7352 1aed 01       		.byte	0x1
 7353 1aee 00       		.byte	0
 7354 1aef 08       		.uleb128 0x8
 7355 1af0 04       		.byte	0x4
 7356 1af1 91040000 		.4byte	0x491
 7357 1af5 24       		.uleb128 0x24
 7358 1af6 9E1E0000 		.4byte	.LASF691
 7359 1afa 01       		.byte	0x1
 7360 1afb A108     		.2byte	0x8a1
 7361 1afd 00000000 		.4byte	.LFB16
 7362 1b01 00020000 		.4byte	.LFE16-.LFB16
 7363 1b05 01       		.uleb128 0x1
 7364 1b06 9C       		.byte	0x9c
 7365 1b07 711B0000 		.4byte	0x1b71
 7366 1b0b 1E       		.uleb128 0x1e
ARM GAS  C:\Users\run1009\AppData\Local\Temp\ccSZtXoF.s 			page 201


 7367 1b0c E8020000 		.4byte	.LASF667
 7368 1b10 01       		.byte	0x1
 7369 1b11 A108     		.2byte	0x8a1
 7370 1b13 711B0000 		.4byte	0x1b71
 7371 1b17 02       		.uleb128 0x2
 7372 1b18 91       		.byte	0x91
 7373 1b19 64       		.sleb128 -28
 7374 1b1a 23       		.uleb128 0x23
 7375 1b1b 6A00     		.ascii	"j\000"
 7376 1b1d 01       		.byte	0x1
 7377 1b1e A308     		.2byte	0x8a3
 7378 1b20 8D000000 		.4byte	0x8d
 7379 1b24 02       		.uleb128 0x2
 7380 1b25 91       		.byte	0x91
 7381 1b26 76       		.sleb128 -10
 7382 1b27 1C       		.uleb128 0x1c
 7383 1b28 064F0000 		.4byte	.LASF692
 7384 1b2c 01       		.byte	0x1
 7385 1b2d A408     		.2byte	0x8a4
 7386 1b2f 8D000000 		.4byte	0x8d
 7387 1b33 02       		.uleb128 0x2
 7388 1b34 91       		.byte	0x91
 7389 1b35 6A       		.sleb128 -22
 7390 1b36 1C       		.uleb128 0x1c
 7391 1b37 4B400000 		.4byte	.LASF693
 7392 1b3b 01       		.byte	0x1
 7393 1b3c A508     		.2byte	0x8a5
 7394 1b3e 8D000000 		.4byte	0x8d
 7395 1b42 02       		.uleb128 0x2
 7396 1b43 91       		.byte	0x91
 7397 1b44 68       		.sleb128 -24
 7398 1b45 23       		.uleb128 0x23
 7399 1b46 6900     		.ascii	"i\000"
 7400 1b48 01       		.byte	0x1
 7401 1b49 A608     		.2byte	0x8a6
 7402 1b4b 8D000000 		.4byte	0x8d
 7403 1b4f 02       		.uleb128 0x2
 7404 1b50 91       		.byte	0x91
 7405 1b51 74       		.sleb128 -12
 7406 1b52 1C       		.uleb128 0x1c
 7407 1b53 62400000 		.4byte	.LASF672
 7408 1b57 01       		.byte	0x1
 7409 1b58 A708     		.2byte	0x8a7
 7410 1b5a 771B0000 		.4byte	0x1b77
 7411 1b5e 02       		.uleb128 0x2
 7412 1b5f 91       		.byte	0x91
 7413 1b60 6C       		.sleb128 -20
 7414 1b61 1C       		.uleb128 0x1c
 7415 1b62 45310000 		.4byte	.LASF694
 7416 1b66 01       		.byte	0x1
 7417 1b67 A808     		.2byte	0x8a8
 7418 1b69 81000000 		.4byte	0x81
 7419 1b6d 02       		.uleb128 0x2
 7420 1b6e 91       		.byte	0x91
 7421 1b6f 73       		.sleb128 -13
 7422 1b70 00       		.byte	0
 7423 1b71 08       		.uleb128 0x8
ARM GAS  C:\Users\run1009\AppData\Local\Temp\ccSZtXoF.s 			page 202


 7424 1b72 04       		.byte	0x4
 7425 1b73 7D0B0000 		.4byte	0xb7d
 7426 1b77 08       		.uleb128 0x8
 7427 1b78 04       		.byte	0x4
 7428 1b79 5C0C0000 		.4byte	0xc5c
 7429 1b7d 24       		.uleb128 0x24
 7430 1b7e B4310000 		.4byte	.LASF695
 7431 1b82 01       		.byte	0x1
 7432 1b83 0309     		.2byte	0x903
 7433 1b85 00000000 		.4byte	.LFB17
 7434 1b89 08010000 		.4byte	.LFE17-.LFB17
 7435 1b8d 01       		.uleb128 0x1
 7436 1b8e 9C       		.byte	0x9c
 7437 1b8f A31B0000 		.4byte	0x1ba3
 7438 1b93 1E       		.uleb128 0x1e
 7439 1b94 DD100000 		.4byte	.LASF696
 7440 1b98 01       		.byte	0x1
 7441 1b99 0309     		.2byte	0x903
 7442 1b9b 81000000 		.4byte	0x81
 7443 1b9f 02       		.uleb128 0x2
 7444 1ba0 91       		.byte	0x91
 7445 1ba1 77       		.sleb128 -9
 7446 1ba2 00       		.byte	0
 7447 1ba3 20       		.uleb128 0x20
 7448 1ba4 162B0000 		.4byte	.LASF697
 7449 1ba8 01       		.byte	0x1
 7450 1ba9 3B09     		.2byte	0x93b
 7451 1bab 00000000 		.4byte	.LFB18
 7452 1baf 68010000 		.4byte	.LFE18-.LFB18
 7453 1bb3 01       		.uleb128 0x1
 7454 1bb4 9C       		.byte	0x9c
 7455 1bb5 C91B0000 		.4byte	0x1bc9
 7456 1bb9 1E       		.uleb128 0x1e
 7457 1bba 9D270000 		.4byte	.LASF698
 7458 1bbe 01       		.byte	0x1
 7459 1bbf 3B09     		.2byte	0x93b
 7460 1bc1 C91B0000 		.4byte	0x1bc9
 7461 1bc5 02       		.uleb128 0x2
 7462 1bc6 91       		.byte	0x91
 7463 1bc7 74       		.sleb128 -12
 7464 1bc8 00       		.byte	0
 7465 1bc9 08       		.uleb128 0x8
 7466 1bca 04       		.byte	0x4
 7467 1bcb F00C0000 		.4byte	0xcf0
 7468 1bcf 24       		.uleb128 0x24
 7469 1bd0 BC1E0000 		.4byte	.LASF699
 7470 1bd4 01       		.byte	0x1
 7471 1bd5 6E09     		.2byte	0x96e
 7472 1bd7 00000000 		.4byte	.LFB19
 7473 1bdb C8030000 		.4byte	.LFE19-.LFB19
 7474 1bdf 01       		.uleb128 0x1
 7475 1be0 9C       		.byte	0x9c
 7476 1be1 741C0000 		.4byte	0x1c74
 7477 1be5 1E       		.uleb128 0x1e
 7478 1be6 E8020000 		.4byte	.LASF667
 7479 1bea 01       		.byte	0x1
 7480 1beb 6E09     		.2byte	0x96e
ARM GAS  C:\Users\run1009\AppData\Local\Temp\ccSZtXoF.s 			page 203


 7481 1bed 741C0000 		.4byte	0x1c74
 7482 1bf1 03       		.uleb128 0x3
 7483 1bf2 91       		.byte	0x91
 7484 1bf3 AC7F     		.sleb128 -84
 7485 1bf5 1C       		.uleb128 0x1c
 7486 1bf6 064F0000 		.4byte	.LASF692
 7487 1bfa 01       		.byte	0x1
 7488 1bfb 7009     		.2byte	0x970
 7489 1bfd 8D000000 		.4byte	0x8d
 7490 1c01 02       		.uleb128 0x2
 7491 1c02 91       		.byte	0x91
 7492 1c03 66       		.sleb128 -26
 7493 1c04 1C       		.uleb128 0x1c
 7494 1c05 4B400000 		.4byte	.LASF693
 7495 1c09 01       		.byte	0x1
 7496 1c0a 7109     		.2byte	0x971
 7497 1c0c 8D000000 		.4byte	0x8d
 7498 1c10 02       		.uleb128 0x2
 7499 1c11 91       		.byte	0x91
 7500 1c12 64       		.sleb128 -28
 7501 1c13 23       		.uleb128 0x23
 7502 1c14 6900     		.ascii	"i\000"
 7503 1c16 01       		.byte	0x1
 7504 1c17 7209     		.2byte	0x972
 7505 1c19 8D000000 		.4byte	0x8d
 7506 1c1d 02       		.uleb128 0x2
 7507 1c1e 91       		.byte	0x91
 7508 1c1f 6E       		.sleb128 -18
 7509 1c20 23       		.uleb128 0x23
 7510 1c21 6A00     		.ascii	"j\000"
 7511 1c23 01       		.byte	0x1
 7512 1c24 7209     		.2byte	0x972
 7513 1c26 8D000000 		.4byte	0x8d
 7514 1c2a 02       		.uleb128 0x2
 7515 1c2b 91       		.byte	0x91
 7516 1c2c 6C       		.sleb128 -20
 7517 1c2d 1C       		.uleb128 0x1c
 7518 1c2e 3F430000 		.4byte	.LASF700
 7519 1c32 01       		.byte	0x1
 7520 1c33 7309     		.2byte	0x973
 7521 1c35 DD040000 		.4byte	0x4dd
 7522 1c39 02       		.uleb128 0x2
 7523 1c3a 91       		.byte	0x91
 7524 1c3b 68       		.sleb128 -24
 7525 1c3c 25       		.uleb128 0x25
 7526 1c3d 3C000000 		.4byte	.LBB12
 7527 1c41 8E010000 		.4byte	.LBE12-.LBB12
 7528 1c45 591C0000 		.4byte	0x1c59
 7529 1c49 1C       		.uleb128 0x1c
 7530 1c4a 9D270000 		.4byte	.LASF698
 7531 1c4e 01       		.byte	0x1
 7532 1c4f 7E09     		.2byte	0x97e
 7533 1c51 F00C0000 		.4byte	0xcf0
 7534 1c55 02       		.uleb128 0x2
 7535 1c56 91       		.byte	0x91
 7536 1c57 4C       		.sleb128 -52
 7537 1c58 00       		.byte	0
ARM GAS  C:\Users\run1009\AppData\Local\Temp\ccSZtXoF.s 			page 204


 7538 1c59 1B       		.uleb128 0x1b
 7539 1c5a D6010000 		.4byte	.LBB13
 7540 1c5e E6010000 		.4byte	.LBE13-.LBB13
 7541 1c62 1C       		.uleb128 0x1c
 7542 1c63 D7250000 		.4byte	.LASF701
 7543 1c67 01       		.byte	0x1
 7544 1c68 6B0A     		.2byte	0xa6b
 7545 1c6a A00C0000 		.4byte	0xca0
 7546 1c6e 03       		.uleb128 0x3
 7547 1c6f 91       		.byte	0x91
 7548 1c70 B47F     		.sleb128 -76
 7549 1c72 00       		.byte	0
 7550 1c73 00       		.byte	0
 7551 1c74 08       		.uleb128 0x8
 7552 1c75 04       		.byte	0x4
 7553 1c76 880B0000 		.4byte	0xb88
 7554 1c7a 24       		.uleb128 0x24
 7555 1c7b 0F430000 		.4byte	.LASF702
 7556 1c7f 01       		.byte	0x1
 7557 1c80 D50A     		.2byte	0xad5
 7558 1c82 00000000 		.4byte	.LFB20
 7559 1c86 08010000 		.4byte	.LFE20-.LFB20
 7560 1c8a 01       		.uleb128 0x1
 7561 1c8b 9C       		.byte	0x9c
 7562 1c8c A01C0000 		.4byte	0x1ca0
 7563 1c90 1E       		.uleb128 0x1e
 7564 1c91 DD100000 		.4byte	.LASF696
 7565 1c95 01       		.byte	0x1
 7566 1c96 D50A     		.2byte	0xad5
 7567 1c98 81000000 		.4byte	0x81
 7568 1c9c 02       		.uleb128 0x2
 7569 1c9d 91       		.byte	0x91
 7570 1c9e 77       		.sleb128 -9
 7571 1c9f 00       		.byte	0
 7572 1ca0 26       		.uleb128 0x26
 7573 1ca1 90150000 		.4byte	.LASF732
 7574 1ca5 01       		.byte	0x1
 7575 1ca6 0B0B     		.2byte	0xb0b
 7576 1ca8 95090000 		.4byte	0x995
 7577 1cac 00000000 		.4byte	.LFB21
 7578 1cb0 64000000 		.4byte	.LFE21-.LFB21
 7579 1cb4 01       		.uleb128 0x1
 7580 1cb5 9C       		.byte	0x9c
 7581 1cb6 CA1C0000 		.4byte	0x1cca
 7582 1cba 1C       		.uleb128 0x1c
 7583 1cbb 440C0000 		.4byte	.LASF703
 7584 1cbf 01       		.byte	0x1
 7585 1cc0 0D0B     		.2byte	0xb0d
 7586 1cc2 95090000 		.4byte	0x995
 7587 1cc6 02       		.uleb128 0x2
 7588 1cc7 91       		.byte	0x91
 7589 1cc8 70       		.sleb128 -16
 7590 1cc9 00       		.byte	0
 7591 1cca 24       		.uleb128 0x24
 7592 1ccb 98280000 		.4byte	.LASF704
 7593 1ccf 01       		.byte	0x1
 7594 1cd0 9B0C     		.2byte	0xc9b
ARM GAS  C:\Users\run1009\AppData\Local\Temp\ccSZtXoF.s 			page 205


 7595 1cd2 00000000 		.4byte	.LFB22
 7596 1cd6 48010000 		.4byte	.LFE22-.LFB22
 7597 1cda 01       		.uleb128 0x1
 7598 1cdb 9C       		.byte	0x9c
 7599 1cdc 391D0000 		.4byte	0x1d39
 7600 1ce0 1E       		.uleb128 0x1e
 7601 1ce1 E8020000 		.4byte	.LASF667
 7602 1ce5 01       		.byte	0x1
 7603 1ce6 9B0C     		.2byte	0xc9b
 7604 1ce8 391D0000 		.4byte	0x1d39
 7605 1cec 02       		.uleb128 0x2
 7606 1ced 91       		.byte	0x91
 7607 1cee 54       		.sleb128 -44
 7608 1cef 1C       		.uleb128 0x1c
 7609 1cf0 064F0000 		.4byte	.LASF692
 7610 1cf4 01       		.byte	0x1
 7611 1cf5 9D0C     		.2byte	0xc9d
 7612 1cf7 8D000000 		.4byte	0x8d
 7613 1cfb 02       		.uleb128 0x2
 7614 1cfc 91       		.byte	0x91
 7615 1cfd 76       		.sleb128 -10
 7616 1cfe 1C       		.uleb128 0x1c
 7617 1cff 4B400000 		.4byte	.LASF693
 7618 1d03 01       		.byte	0x1
 7619 1d04 9E0C     		.2byte	0xc9e
 7620 1d06 8D000000 		.4byte	0x8d
 7621 1d0a 02       		.uleb128 0x2
 7622 1d0b 91       		.byte	0x91
 7623 1d0c 6E       		.sleb128 -18
 7624 1d0d 23       		.uleb128 0x23
 7625 1d0e 6900     		.ascii	"i\000"
 7626 1d10 01       		.byte	0x1
 7627 1d11 9F0C     		.2byte	0xc9f
 7628 1d13 8D000000 		.4byte	0x8d
 7629 1d17 02       		.uleb128 0x2
 7630 1d18 91       		.byte	0x91
 7631 1d19 74       		.sleb128 -12
 7632 1d1a 1C       		.uleb128 0x1c
 7633 1d1b 3F430000 		.4byte	.LASF700
 7634 1d1f 01       		.byte	0x1
 7635 1d20 A00C     		.2byte	0xca0
 7636 1d22 DD040000 		.4byte	0x4dd
 7637 1d26 02       		.uleb128 0x2
 7638 1d27 91       		.byte	0x91
 7639 1d28 70       		.sleb128 -16
 7640 1d29 1C       		.uleb128 0x1c
 7641 1d2a 380F0000 		.4byte	.LASF705
 7642 1d2e 01       		.byte	0x1
 7643 1d2f A30C     		.2byte	0xca3
 7644 1d31 600D0000 		.4byte	0xd60
 7645 1d35 02       		.uleb128 0x2
 7646 1d36 91       		.byte	0x91
 7647 1d37 58       		.sleb128 -40
 7648 1d38 00       		.byte	0
 7649 1d39 08       		.uleb128 0x8
 7650 1d3a 04       		.byte	0x4
 7651 1d3b EC0B0000 		.4byte	0xbec
ARM GAS  C:\Users\run1009\AppData\Local\Temp\ccSZtXoF.s 			page 206


 7652 1d3f 24       		.uleb128 0x24
 7653 1d40 534D0000 		.4byte	.LASF706
 7654 1d44 01       		.byte	0x1
 7655 1d45 DD0D     		.2byte	0xddd
 7656 1d47 00000000 		.4byte	.LFB23
 7657 1d4b 60010000 		.4byte	.LFE23-.LFB23
 7658 1d4f 01       		.uleb128 0x1
 7659 1d50 9C       		.byte	0x9c
 7660 1d51 741D0000 		.4byte	0x1d74
 7661 1d55 1E       		.uleb128 0x1e
 7662 1d56 DD100000 		.4byte	.LASF696
 7663 1d5a 01       		.byte	0x1
 7664 1d5b DD0D     		.2byte	0xddd
 7665 1d5d 81000000 		.4byte	0x81
 7666 1d61 02       		.uleb128 0x2
 7667 1d62 91       		.byte	0x91
 7668 1d63 6F       		.sleb128 -17
 7669 1d64 1C       		.uleb128 0x1c
 7670 1d65 440C0000 		.4byte	.LASF703
 7671 1d69 01       		.byte	0x1
 7672 1d6a DF0D     		.2byte	0xddf
 7673 1d6c B60A0000 		.4byte	0xab6
 7674 1d70 02       		.uleb128 0x2
 7675 1d71 91       		.byte	0x91
 7676 1d72 74       		.sleb128 -12
 7677 1d73 00       		.byte	0
 7678 1d74 27       		.uleb128 0x27
 7679 1d75 2E270000 		.4byte	.LASF733
 7680 1d79 01       		.byte	0x1
 7681 1d7a 3A0E     		.2byte	0xe3a
 7682 1d7c 00000000 		.4byte	.LFB24
 7683 1d80 A0000000 		.4byte	.LFE24-.LFB24
 7684 1d84 01       		.uleb128 0x1
 7685 1d85 9C       		.byte	0x9c
 7686 1d86 24       		.uleb128 0x24
 7687 1d87 B3340000 		.4byte	.LASF707
 7688 1d8b 01       		.byte	0x1
 7689 1d8c 6D0E     		.2byte	0xe6d
 7690 1d8e 00000000 		.4byte	.LFB25
 7691 1d92 30000000 		.4byte	.LFE25-.LFB25
 7692 1d96 01       		.uleb128 0x1
 7693 1d97 9C       		.byte	0x9c
 7694 1d98 AC1D0000 		.4byte	0x1dac
 7695 1d9c 1E       		.uleb128 0x1e
 7696 1d9d E8020000 		.4byte	.LASF667
 7697 1da1 01       		.byte	0x1
 7698 1da2 6D0E     		.2byte	0xe6d
 7699 1da4 AC1D0000 		.4byte	0x1dac
 7700 1da8 02       		.uleb128 0x2
 7701 1da9 91       		.byte	0x91
 7702 1daa 74       		.sleb128 -12
 7703 1dab 00       		.byte	0
 7704 1dac 08       		.uleb128 0x8
 7705 1dad 04       		.byte	0x4
 7706 1dae B21D0000 		.4byte	0x1db2
 7707 1db2 1F       		.uleb128 0x1f
 7708 1db3 AB0A0000 		.4byte	0xaab
ARM GAS  C:\Users\run1009\AppData\Local\Temp\ccSZtXoF.s 			page 207


 7709 1db7 1A       		.uleb128 0x1a
 7710 1db8 D90E0000 		.4byte	.LASF708
 7711 1dbc 01       		.byte	0x1
 7712 1dbd 60       		.byte	0x60
 7713 1dbe A00C0000 		.4byte	0xca0
 7714 1dc2 05       		.uleb128 0x5
 7715 1dc3 03       		.byte	0x3
 7716 1dc4 00000000 		.4byte	cyBle_discInclInfo
 7717 1dc8 28       		.uleb128 0x28
 7718 1dc9 5A3C0000 		.4byte	.LASF709
 7719 1dcd 0B       		.byte	0xb
 7720 1dce 9C02     		.2byte	0x29c
 7721 1dd0 F70B0000 		.4byte	0xbf7
 7722 1dd4 10       		.uleb128 0x10
 7723 1dd5 81000000 		.4byte	0x81
 7724 1dd9 E51D0000 		.4byte	0x1de5
 7725 1ddd 29       		.uleb128 0x29
 7726 1dde C6000000 		.4byte	0xc6
 7727 1de2 1B0B     		.2byte	0xb1b
 7728 1de4 00       		.byte	0
 7729 1de5 28       		.uleb128 0x28
 7730 1de6 11480000 		.4byte	.LASF710
 7731 1dea 0B       		.byte	0xb
 7732 1deb A102     		.2byte	0x2a1
 7733 1ded D41D0000 		.4byte	0x1dd4
 7734 1df1 2A       		.uleb128 0x2a
 7735 1df2 F3180000 		.4byte	.LASF711
 7736 1df6 01       		.byte	0x1
 7737 1df7 3D       		.byte	0x3d
 7738 1df8 BA000000 		.4byte	0xba
 7739 1dfc 05       		.uleb128 0x5
 7740 1dfd 03       		.byte	0x3
 7741 1dfe 00000000 		.4byte	cyBle_eventHandlerFlag
 7742 1e02 28       		.uleb128 0x28
 7743 1e03 0F0F0000 		.4byte	.LASF712
 7744 1e07 0B       		.byte	0xb
 7745 1e08 A402     		.2byte	0x2a4
 7746 1e0a D1040000 		.4byte	0x4d1
 7747 1e0e 28       		.uleb128 0x28
 7748 1e0f 071E0000 		.4byte	.LASF713
 7749 1e13 0B       		.byte	0xb
 7750 1e14 A502     		.2byte	0x2a5
 7751 1e16 1A1E0000 		.4byte	0x1e1a
 7752 1e1a 08       		.uleb128 0x8
 7753 1e1b 04       		.byte	0x4
 7754 1e1c D1040000 		.4byte	0x4d1
 7755 1e20 2A       		.uleb128 0x2a
 7756 1e21 93430000 		.4byte	.LASF714
 7757 1e25 01       		.byte	0x1
 7758 1e26 E3       		.byte	0xe3
 7759 1e27 3C060000 		.4byte	0x63c
 7760 1e2b 05       		.uleb128 0x5
 7761 1e2c 03       		.byte	0x3
 7762 1e2d 00000000 		.4byte	cyBle_authInfo
 7763 1e31 28       		.uleb128 0x28
 7764 1e32 0A330000 		.4byte	.LASF715
 7765 1e36 0B       		.byte	0xb
ARM GAS  C:\Users\run1009\AppData\Local\Temp\ccSZtXoF.s 			page 208


 7766 1e37 AE02     		.2byte	0x2ae
 7767 1e39 8D000000 		.4byte	0x8d
 7768 1e3d 2B       		.uleb128 0x2b
 7769 1e3e 6A100000 		.4byte	.LASF716
 7770 1e42 0C       		.byte	0xc
 7771 1e43 FB       		.byte	0xfb
 7772 1e44 8C0D0000 		.4byte	0xd8c
 7773 1e48 2B       		.uleb128 0x2b
 7774 1e49 461E0000 		.4byte	.LASF717
 7775 1e4d 0C       		.byte	0xc
 7776 1e4e FC       		.byte	0xfc
 7777 1e4f 95090000 		.4byte	0x995
 7778 1e53 28       		.uleb128 0x28
 7779 1e54 56400000 		.4byte	.LASF718
 7780 1e58 0D       		.byte	0xd
 7781 1e59 B30A     		.2byte	0xab3
 7782 1e5b E6150000 		.4byte	0x15e6
 7783 1e5f 2A       		.uleb128 0x2a
 7784 1e60 11470000 		.4byte	.LASF719
 7785 1e64 01       		.byte	0x1
 7786 1e65 3B       		.byte	0x3b
 7787 1e66 F8080000 		.4byte	0x8f8
 7788 1e6a 05       		.uleb128 0x5
 7789 1e6b 03       		.byte	0x3
 7790 1e6c 00000000 		.4byte	cyBle_connHandle
 7791 1e70 2A       		.uleb128 0x2a
 7792 1e71 CD4A0000 		.4byte	.LASF720
 7793 1e75 01       		.byte	0x1
 7794 1e76 3E       		.byte	0x3e
 7795 1e77 BA000000 		.4byte	0xba
 7796 1e7b 05       		.uleb128 0x5
 7797 1e7c 03       		.byte	0x3
 7798 1e7d 00000000 		.4byte	cyBle_busyStatus
 7799 1e81 2A       		.uleb128 0x2a
 7800 1e82 2E1B0000 		.4byte	.LASF721
 7801 1e86 01       		.byte	0x1
 7802 1e87 40       		.byte	0x40
 7803 1e88 921E0000 		.4byte	0x1e92
 7804 1e8c 05       		.uleb128 0x5
 7805 1e8d 03       		.byte	0x3
 7806 1e8e 00000000 		.4byte	cyBle_gaps
 7807 1e92 1F       		.uleb128 0x1f
 7808 1e93 57170000 		.4byte	0x1757
 7809 1e97 2A       		.uleb128 0x2a
 7810 1e98 4D480000 		.4byte	.LASF722
 7811 1e9c 01       		.byte	0x1
 7812 1e9d 4C       		.byte	0x4c
 7813 1e9e 81000000 		.4byte	0x81
 7814 1ea2 05       		.uleb128 0x5
 7815 1ea3 03       		.byte	0x3
 7816 1ea4 00000000 		.4byte	cyBle_advertisingIntervalType
 7817 1ea8 2A       		.uleb128 0x2a
 7818 1ea9 1B090000 		.4byte	.LASF723
 7819 1ead 01       		.byte	0x1
 7820 1eae 50       		.byte	0x50
 7821 1eaf 81000000 		.4byte	0x81
 7822 1eb3 05       		.uleb128 0x5
ARM GAS  C:\Users\run1009\AppData\Local\Temp\ccSZtXoF.s 			page 209


 7823 1eb4 03       		.byte	0x3
 7824 1eb5 00000000 		.4byte	cyBle_scanningIntervalType
 7825 1eb9 28       		.uleb128 0x28
 7826 1eba 442B0000 		.4byte	.LASF724
 7827 1ebe 0D       		.byte	0xd
 7828 1ebf C70A     		.2byte	0xac7
 7829 1ec1 36160000 		.4byte	0x1636
 7830 1ec5 2A       		.uleb128 0x2a
 7831 1ec6 800A0000 		.4byte	.LASF725
 7832 1eca 01       		.byte	0x1
 7833 1ecb 5A       		.byte	0x5a
 7834 1ecc 81000000 		.4byte	0x81
 7835 1ed0 05       		.uleb128 0x5
 7836 1ed1 03       		.byte	0x3
 7837 1ed2 00000000 		.4byte	cyBle_disCount
 7838 1ed6 2A       		.uleb128 0x2a
 7839 1ed7 771A0000 		.4byte	.LASF726
 7840 1edb 01       		.byte	0x1
 7841 1edc DE       		.byte	0xde
 7842 1edd A7160000 		.4byte	0x16a7
 7843 1ee1 05       		.uleb128 0x5
 7844 1ee2 03       		.byte	0x3
 7845 1ee3 00000000 		.4byte	cyBle_gapc
 7846 1ee7 10       		.uleb128 0x10
 7847 1ee8 240C0000 		.4byte	0xc24
 7848 1eec F71E0000 		.4byte	0x1ef7
 7849 1ef0 11       		.uleb128 0x11
 7850 1ef1 C6000000 		.4byte	0xc6
 7851 1ef5 03       		.byte	0x3
 7852 1ef6 00       		.byte	0
 7853 1ef7 2A       		.uleb128 0x2a
 7854 1ef8 F4320000 		.4byte	.LASF727
 7855 1efc 01       		.byte	0x1
 7856 1efd 67       		.byte	0x67
 7857 1efe E71E0000 		.4byte	0x1ee7
 7858 1f02 05       		.uleb128 0x5
 7859 1f03 03       		.byte	0x3
 7860 1f04 00000000 		.4byte	cyBle_serverInfo
 7861 1f08 00       		.byte	0
 7862              		.section	.debug_abbrev,"",%progbits
 7863              	.Ldebug_abbrev0:
 7864 0000 01       		.uleb128 0x1
 7865 0001 11       		.uleb128 0x11
 7866 0002 01       		.byte	0x1
 7867 0003 25       		.uleb128 0x25
 7868 0004 0E       		.uleb128 0xe
 7869 0005 13       		.uleb128 0x13
 7870 0006 0B       		.uleb128 0xb
 7871 0007 03       		.uleb128 0x3
 7872 0008 0E       		.uleb128 0xe
 7873 0009 1B       		.uleb128 0x1b
 7874 000a 0E       		.uleb128 0xe
 7875 000b 55       		.uleb128 0x55
 7876 000c 17       		.uleb128 0x17
 7877 000d 11       		.uleb128 0x11
 7878 000e 01       		.uleb128 0x1
 7879 000f 10       		.uleb128 0x10
ARM GAS  C:\Users\run1009\AppData\Local\Temp\ccSZtXoF.s 			page 210


 7880 0010 17       		.uleb128 0x17
 7881 0011 00       		.byte	0
 7882 0012 00       		.byte	0
 7883 0013 02       		.uleb128 0x2
 7884 0014 24       		.uleb128 0x24
 7885 0015 00       		.byte	0
 7886 0016 0B       		.uleb128 0xb
 7887 0017 0B       		.uleb128 0xb
 7888 0018 3E       		.uleb128 0x3e
 7889 0019 0B       		.uleb128 0xb
 7890 001a 03       		.uleb128 0x3
 7891 001b 0E       		.uleb128 0xe
 7892 001c 00       		.byte	0
 7893 001d 00       		.byte	0
 7894 001e 03       		.uleb128 0x3
 7895 001f 16       		.uleb128 0x16
 7896 0020 00       		.byte	0
 7897 0021 03       		.uleb128 0x3
 7898 0022 0E       		.uleb128 0xe
 7899 0023 3A       		.uleb128 0x3a
 7900 0024 0B       		.uleb128 0xb
 7901 0025 3B       		.uleb128 0x3b
 7902 0026 0B       		.uleb128 0xb
 7903 0027 49       		.uleb128 0x49
 7904 0028 13       		.uleb128 0x13
 7905 0029 00       		.byte	0
 7906 002a 00       		.byte	0
 7907 002b 04       		.uleb128 0x4
 7908 002c 24       		.uleb128 0x24
 7909 002d 00       		.byte	0
 7910 002e 0B       		.uleb128 0xb
 7911 002f 0B       		.uleb128 0xb
 7912 0030 3E       		.uleb128 0x3e
 7913 0031 0B       		.uleb128 0xb
 7914 0032 03       		.uleb128 0x3
 7915 0033 08       		.uleb128 0x8
 7916 0034 00       		.byte	0
 7917 0035 00       		.byte	0
 7918 0036 05       		.uleb128 0x5
 7919 0037 16       		.uleb128 0x16
 7920 0038 00       		.byte	0
 7921 0039 03       		.uleb128 0x3
 7922 003a 0E       		.uleb128 0xe
 7923 003b 3A       		.uleb128 0x3a
 7924 003c 0B       		.uleb128 0xb
 7925 003d 3B       		.uleb128 0x3b
 7926 003e 05       		.uleb128 0x5
 7927 003f 49       		.uleb128 0x49
 7928 0040 13       		.uleb128 0x13
 7929 0041 00       		.byte	0
 7930 0042 00       		.byte	0
 7931 0043 06       		.uleb128 0x6
 7932 0044 35       		.uleb128 0x35
 7933 0045 00       		.byte	0
 7934 0046 49       		.uleb128 0x49
 7935 0047 13       		.uleb128 0x13
 7936 0048 00       		.byte	0
ARM GAS  C:\Users\run1009\AppData\Local\Temp\ccSZtXoF.s 			page 211


 7937 0049 00       		.byte	0
 7938 004a 07       		.uleb128 0x7
 7939 004b 0F       		.uleb128 0xf
 7940 004c 00       		.byte	0
 7941 004d 0B       		.uleb128 0xb
 7942 004e 0B       		.uleb128 0xb
 7943 004f 00       		.byte	0
 7944 0050 00       		.byte	0
 7945 0051 08       		.uleb128 0x8
 7946 0052 0F       		.uleb128 0xf
 7947 0053 00       		.byte	0
 7948 0054 0B       		.uleb128 0xb
 7949 0055 0B       		.uleb128 0xb
 7950 0056 49       		.uleb128 0x49
 7951 0057 13       		.uleb128 0x13
 7952 0058 00       		.byte	0
 7953 0059 00       		.byte	0
 7954 005a 09       		.uleb128 0x9
 7955 005b 15       		.uleb128 0x15
 7956 005c 01       		.byte	0x1
 7957 005d 27       		.uleb128 0x27
 7958 005e 19       		.uleb128 0x19
 7959 005f 01       		.uleb128 0x1
 7960 0060 13       		.uleb128 0x13
 7961 0061 00       		.byte	0
 7962 0062 00       		.byte	0
 7963 0063 0A       		.uleb128 0xa
 7964 0064 05       		.uleb128 0x5
 7965 0065 00       		.byte	0
 7966 0066 49       		.uleb128 0x49
 7967 0067 13       		.uleb128 0x13
 7968 0068 00       		.byte	0
 7969 0069 00       		.byte	0
 7970 006a 0B       		.uleb128 0xb
 7971 006b 04       		.uleb128 0x4
 7972 006c 01       		.byte	0x1
 7973 006d 0B       		.uleb128 0xb
 7974 006e 0B       		.uleb128 0xb
 7975 006f 49       		.uleb128 0x49
 7976 0070 13       		.uleb128 0x13
 7977 0071 3A       		.uleb128 0x3a
 7978 0072 0B       		.uleb128 0xb
 7979 0073 3B       		.uleb128 0x3b
 7980 0074 05       		.uleb128 0x5
 7981 0075 01       		.uleb128 0x1
 7982 0076 13       		.uleb128 0x13
 7983 0077 00       		.byte	0
 7984 0078 00       		.byte	0
 7985 0079 0C       		.uleb128 0xc
 7986 007a 28       		.uleb128 0x28
 7987 007b 00       		.byte	0
 7988 007c 03       		.uleb128 0x3
 7989 007d 0E       		.uleb128 0xe
 7990 007e 1C       		.uleb128 0x1c
 7991 007f 0B       		.uleb128 0xb
 7992 0080 00       		.byte	0
 7993 0081 00       		.byte	0
ARM GAS  C:\Users\run1009\AppData\Local\Temp\ccSZtXoF.s 			page 212


 7994 0082 0D       		.uleb128 0xd
 7995 0083 28       		.uleb128 0x28
 7996 0084 00       		.byte	0
 7997 0085 03       		.uleb128 0x3
 7998 0086 0E       		.uleb128 0xe
 7999 0087 1C       		.uleb128 0x1c
 8000 0088 05       		.uleb128 0x5
 8001 0089 00       		.byte	0
 8002 008a 00       		.byte	0
 8003 008b 0E       		.uleb128 0xe
 8004 008c 13       		.uleb128 0x13
 8005 008d 01       		.byte	0x1
 8006 008e 0B       		.uleb128 0xb
 8007 008f 0B       		.uleb128 0xb
 8008 0090 3A       		.uleb128 0x3a
 8009 0091 0B       		.uleb128 0xb
 8010 0092 3B       		.uleb128 0x3b
 8011 0093 05       		.uleb128 0x5
 8012 0094 01       		.uleb128 0x1
 8013 0095 13       		.uleb128 0x13
 8014 0096 00       		.byte	0
 8015 0097 00       		.byte	0
 8016 0098 0F       		.uleb128 0xf
 8017 0099 0D       		.uleb128 0xd
 8018 009a 00       		.byte	0
 8019 009b 03       		.uleb128 0x3
 8020 009c 0E       		.uleb128 0xe
 8021 009d 3A       		.uleb128 0x3a
 8022 009e 0B       		.uleb128 0xb
 8023 009f 3B       		.uleb128 0x3b
 8024 00a0 05       		.uleb128 0x5
 8025 00a1 49       		.uleb128 0x49
 8026 00a2 13       		.uleb128 0x13
 8027 00a3 38       		.uleb128 0x38
 8028 00a4 0B       		.uleb128 0xb
 8029 00a5 00       		.byte	0
 8030 00a6 00       		.byte	0
 8031 00a7 10       		.uleb128 0x10
 8032 00a8 01       		.uleb128 0x1
 8033 00a9 01       		.byte	0x1
 8034 00aa 49       		.uleb128 0x49
 8035 00ab 13       		.uleb128 0x13
 8036 00ac 01       		.uleb128 0x1
 8037 00ad 13       		.uleb128 0x13
 8038 00ae 00       		.byte	0
 8039 00af 00       		.byte	0
 8040 00b0 11       		.uleb128 0x11
 8041 00b1 21       		.uleb128 0x21
 8042 00b2 00       		.byte	0
 8043 00b3 49       		.uleb128 0x49
 8044 00b4 13       		.uleb128 0x13
 8045 00b5 2F       		.uleb128 0x2f
 8046 00b6 0B       		.uleb128 0xb
 8047 00b7 00       		.byte	0
 8048 00b8 00       		.byte	0
 8049 00b9 12       		.uleb128 0x12
 8050 00ba 04       		.uleb128 0x4
ARM GAS  C:\Users\run1009\AppData\Local\Temp\ccSZtXoF.s 			page 213


 8051 00bb 01       		.byte	0x1
 8052 00bc 0B       		.uleb128 0xb
 8053 00bd 0B       		.uleb128 0xb
 8054 00be 49       		.uleb128 0x49
 8055 00bf 13       		.uleb128 0x13
 8056 00c0 3A       		.uleb128 0x3a
 8057 00c1 0B       		.uleb128 0xb
 8058 00c2 3B       		.uleb128 0x3b
 8059 00c3 0B       		.uleb128 0xb
 8060 00c4 01       		.uleb128 0x1
 8061 00c5 13       		.uleb128 0x13
 8062 00c6 00       		.byte	0
 8063 00c7 00       		.byte	0
 8064 00c8 13       		.uleb128 0x13
 8065 00c9 17       		.uleb128 0x17
 8066 00ca 01       		.byte	0x1
 8067 00cb 0B       		.uleb128 0xb
 8068 00cc 0B       		.uleb128 0xb
 8069 00cd 3A       		.uleb128 0x3a
 8070 00ce 0B       		.uleb128 0xb
 8071 00cf 3B       		.uleb128 0x3b
 8072 00d0 05       		.uleb128 0x5
 8073 00d1 01       		.uleb128 0x1
 8074 00d2 13       		.uleb128 0x13
 8075 00d3 00       		.byte	0
 8076 00d4 00       		.byte	0
 8077 00d5 14       		.uleb128 0x14
 8078 00d6 0D       		.uleb128 0xd
 8079 00d7 00       		.byte	0
 8080 00d8 03       		.uleb128 0x3
 8081 00d9 0E       		.uleb128 0xe
 8082 00da 3A       		.uleb128 0x3a
 8083 00db 0B       		.uleb128 0xb
 8084 00dc 3B       		.uleb128 0x3b
 8085 00dd 05       		.uleb128 0x5
 8086 00de 49       		.uleb128 0x49
 8087 00df 13       		.uleb128 0x13
 8088 00e0 00       		.byte	0
 8089 00e1 00       		.byte	0
 8090 00e2 15       		.uleb128 0x15
 8091 00e3 0D       		.uleb128 0xd
 8092 00e4 00       		.byte	0
 8093 00e5 03       		.uleb128 0x3
 8094 00e6 08       		.uleb128 0x8
 8095 00e7 3A       		.uleb128 0x3a
 8096 00e8 0B       		.uleb128 0xb
 8097 00e9 3B       		.uleb128 0x3b
 8098 00ea 05       		.uleb128 0x5
 8099 00eb 49       		.uleb128 0x49
 8100 00ec 13       		.uleb128 0x13
 8101 00ed 38       		.uleb128 0x38
 8102 00ee 0B       		.uleb128 0xb
 8103 00ef 00       		.byte	0
 8104 00f0 00       		.byte	0
 8105 00f1 16       		.uleb128 0x16
 8106 00f2 13       		.uleb128 0x13
 8107 00f3 01       		.byte	0x1
ARM GAS  C:\Users\run1009\AppData\Local\Temp\ccSZtXoF.s 			page 214


 8108 00f4 0B       		.uleb128 0xb
 8109 00f5 0B       		.uleb128 0xb
 8110 00f6 3A       		.uleb128 0x3a
 8111 00f7 0B       		.uleb128 0xb
 8112 00f8 3B       		.uleb128 0x3b
 8113 00f9 0B       		.uleb128 0xb
 8114 00fa 01       		.uleb128 0x1
 8115 00fb 13       		.uleb128 0x13
 8116 00fc 00       		.byte	0
 8117 00fd 00       		.byte	0
 8118 00fe 17       		.uleb128 0x17
 8119 00ff 0D       		.uleb128 0xd
 8120 0100 00       		.byte	0
 8121 0101 03       		.uleb128 0x3
 8122 0102 0E       		.uleb128 0xe
 8123 0103 3A       		.uleb128 0x3a
 8124 0104 0B       		.uleb128 0xb
 8125 0105 3B       		.uleb128 0x3b
 8126 0106 0B       		.uleb128 0xb
 8127 0107 49       		.uleb128 0x49
 8128 0108 13       		.uleb128 0x13
 8129 0109 38       		.uleb128 0x38
 8130 010a 0B       		.uleb128 0xb
 8131 010b 00       		.byte	0
 8132 010c 00       		.byte	0
 8133 010d 18       		.uleb128 0x18
 8134 010e 2E       		.uleb128 0x2e
 8135 010f 01       		.byte	0x1
 8136 0110 03       		.uleb128 0x3
 8137 0111 0E       		.uleb128 0xe
 8138 0112 3A       		.uleb128 0x3a
 8139 0113 0B       		.uleb128 0xb
 8140 0114 3B       		.uleb128 0x3b
 8141 0115 0B       		.uleb128 0xb
 8142 0116 27       		.uleb128 0x27
 8143 0117 19       		.uleb128 0x19
 8144 0118 11       		.uleb128 0x11
 8145 0119 01       		.uleb128 0x1
 8146 011a 12       		.uleb128 0x12
 8147 011b 06       		.uleb128 0x6
 8148 011c 40       		.uleb128 0x40
 8149 011d 18       		.uleb128 0x18
 8150 011e 9642     		.uleb128 0x2116
 8151 0120 19       		.uleb128 0x19
 8152 0121 01       		.uleb128 0x1
 8153 0122 13       		.uleb128 0x13
 8154 0123 00       		.byte	0
 8155 0124 00       		.byte	0
 8156 0125 19       		.uleb128 0x19
 8157 0126 05       		.uleb128 0x5
 8158 0127 00       		.byte	0
 8159 0128 03       		.uleb128 0x3
 8160 0129 0E       		.uleb128 0xe
 8161 012a 3A       		.uleb128 0x3a
 8162 012b 0B       		.uleb128 0xb
 8163 012c 3B       		.uleb128 0x3b
 8164 012d 0B       		.uleb128 0xb
ARM GAS  C:\Users\run1009\AppData\Local\Temp\ccSZtXoF.s 			page 215


 8165 012e 49       		.uleb128 0x49
 8166 012f 13       		.uleb128 0x13
 8167 0130 02       		.uleb128 0x2
 8168 0131 18       		.uleb128 0x18
 8169 0132 00       		.byte	0
 8170 0133 00       		.byte	0
 8171 0134 1A       		.uleb128 0x1a
 8172 0135 34       		.uleb128 0x34
 8173 0136 00       		.byte	0
 8174 0137 03       		.uleb128 0x3
 8175 0138 0E       		.uleb128 0xe
 8176 0139 3A       		.uleb128 0x3a
 8177 013a 0B       		.uleb128 0xb
 8178 013b 3B       		.uleb128 0x3b
 8179 013c 0B       		.uleb128 0xb
 8180 013d 49       		.uleb128 0x49
 8181 013e 13       		.uleb128 0x13
 8182 013f 02       		.uleb128 0x2
 8183 0140 18       		.uleb128 0x18
 8184 0141 00       		.byte	0
 8185 0142 00       		.byte	0
 8186 0143 1B       		.uleb128 0x1b
 8187 0144 0B       		.uleb128 0xb
 8188 0145 01       		.byte	0x1
 8189 0146 11       		.uleb128 0x11
 8190 0147 01       		.uleb128 0x1
 8191 0148 12       		.uleb128 0x12
 8192 0149 06       		.uleb128 0x6
 8193 014a 00       		.byte	0
 8194 014b 00       		.byte	0
 8195 014c 1C       		.uleb128 0x1c
 8196 014d 34       		.uleb128 0x34
 8197 014e 00       		.byte	0
 8198 014f 03       		.uleb128 0x3
 8199 0150 0E       		.uleb128 0xe
 8200 0151 3A       		.uleb128 0x3a
 8201 0152 0B       		.uleb128 0xb
 8202 0153 3B       		.uleb128 0x3b
 8203 0154 05       		.uleb128 0x5
 8204 0155 49       		.uleb128 0x49
 8205 0156 13       		.uleb128 0x13
 8206 0157 02       		.uleb128 0x2
 8207 0158 18       		.uleb128 0x18
 8208 0159 00       		.byte	0
 8209 015a 00       		.byte	0
 8210 015b 1D       		.uleb128 0x1d
 8211 015c 2E       		.uleb128 0x2e
 8212 015d 01       		.byte	0x1
 8213 015e 03       		.uleb128 0x3
 8214 015f 0E       		.uleb128 0xe
 8215 0160 3A       		.uleb128 0x3a
 8216 0161 0B       		.uleb128 0xb
 8217 0162 3B       		.uleb128 0x3b
 8218 0163 05       		.uleb128 0x5
 8219 0164 27       		.uleb128 0x27
 8220 0165 19       		.uleb128 0x19
 8221 0166 11       		.uleb128 0x11
ARM GAS  C:\Users\run1009\AppData\Local\Temp\ccSZtXoF.s 			page 216


 8222 0167 01       		.uleb128 0x1
 8223 0168 12       		.uleb128 0x12
 8224 0169 06       		.uleb128 0x6
 8225 016a 40       		.uleb128 0x40
 8226 016b 18       		.uleb128 0x18
 8227 016c 9742     		.uleb128 0x2117
 8228 016e 19       		.uleb128 0x19
 8229 016f 01       		.uleb128 0x1
 8230 0170 13       		.uleb128 0x13
 8231 0171 00       		.byte	0
 8232 0172 00       		.byte	0
 8233 0173 1E       		.uleb128 0x1e
 8234 0174 05       		.uleb128 0x5
 8235 0175 00       		.byte	0
 8236 0176 03       		.uleb128 0x3
 8237 0177 0E       		.uleb128 0xe
 8238 0178 3A       		.uleb128 0x3a
 8239 0179 0B       		.uleb128 0xb
 8240 017a 3B       		.uleb128 0x3b
 8241 017b 05       		.uleb128 0x5
 8242 017c 49       		.uleb128 0x49
 8243 017d 13       		.uleb128 0x13
 8244 017e 02       		.uleb128 0x2
 8245 017f 18       		.uleb128 0x18
 8246 0180 00       		.byte	0
 8247 0181 00       		.byte	0
 8248 0182 1F       		.uleb128 0x1f
 8249 0183 26       		.uleb128 0x26
 8250 0184 00       		.byte	0
 8251 0185 49       		.uleb128 0x49
 8252 0186 13       		.uleb128 0x13
 8253 0187 00       		.byte	0
 8254 0188 00       		.byte	0
 8255 0189 20       		.uleb128 0x20
 8256 018a 2E       		.uleb128 0x2e
 8257 018b 01       		.byte	0x1
 8258 018c 03       		.uleb128 0x3
 8259 018d 0E       		.uleb128 0xe
 8260 018e 3A       		.uleb128 0x3a
 8261 018f 0B       		.uleb128 0xb
 8262 0190 3B       		.uleb128 0x3b
 8263 0191 05       		.uleb128 0x5
 8264 0192 27       		.uleb128 0x27
 8265 0193 19       		.uleb128 0x19
 8266 0194 11       		.uleb128 0x11
 8267 0195 01       		.uleb128 0x1
 8268 0196 12       		.uleb128 0x12
 8269 0197 06       		.uleb128 0x6
 8270 0198 40       		.uleb128 0x40
 8271 0199 18       		.uleb128 0x18
 8272 019a 9642     		.uleb128 0x2116
 8273 019c 19       		.uleb128 0x19
 8274 019d 01       		.uleb128 0x1
 8275 019e 13       		.uleb128 0x13
 8276 019f 00       		.byte	0
 8277 01a0 00       		.byte	0
 8278 01a1 21       		.uleb128 0x21
ARM GAS  C:\Users\run1009\AppData\Local\Temp\ccSZtXoF.s 			page 217


 8279 01a2 2E       		.uleb128 0x2e
 8280 01a3 00       		.byte	0
 8281 01a4 03       		.uleb128 0x3
 8282 01a5 0E       		.uleb128 0xe
 8283 01a6 3A       		.uleb128 0x3a
 8284 01a7 0B       		.uleb128 0xb
 8285 01a8 3B       		.uleb128 0x3b
 8286 01a9 05       		.uleb128 0x5
 8287 01aa 27       		.uleb128 0x27
 8288 01ab 19       		.uleb128 0x19
 8289 01ac 11       		.uleb128 0x11
 8290 01ad 01       		.uleb128 0x1
 8291 01ae 12       		.uleb128 0x12
 8292 01af 06       		.uleb128 0x6
 8293 01b0 40       		.uleb128 0x40
 8294 01b1 18       		.uleb128 0x18
 8295 01b2 9742     		.uleb128 0x2117
 8296 01b4 19       		.uleb128 0x19
 8297 01b5 00       		.byte	0
 8298 01b6 00       		.byte	0
 8299 01b7 22       		.uleb128 0x22
 8300 01b8 2E       		.uleb128 0x2e
 8301 01b9 01       		.byte	0x1
 8302 01ba 3F       		.uleb128 0x3f
 8303 01bb 19       		.uleb128 0x19
 8304 01bc 03       		.uleb128 0x3
 8305 01bd 0E       		.uleb128 0xe
 8306 01be 3A       		.uleb128 0x3a
 8307 01bf 0B       		.uleb128 0xb
 8308 01c0 3B       		.uleb128 0x3b
 8309 01c1 05       		.uleb128 0x5
 8310 01c2 27       		.uleb128 0x27
 8311 01c3 19       		.uleb128 0x19
 8312 01c4 49       		.uleb128 0x49
 8313 01c5 13       		.uleb128 0x13
 8314 01c6 11       		.uleb128 0x11
 8315 01c7 01       		.uleb128 0x1
 8316 01c8 12       		.uleb128 0x12
 8317 01c9 06       		.uleb128 0x6
 8318 01ca 40       		.uleb128 0x40
 8319 01cb 18       		.uleb128 0x18
 8320 01cc 9742     		.uleb128 0x2117
 8321 01ce 19       		.uleb128 0x19
 8322 01cf 01       		.uleb128 0x1
 8323 01d0 13       		.uleb128 0x13
 8324 01d1 00       		.byte	0
 8325 01d2 00       		.byte	0
 8326 01d3 23       		.uleb128 0x23
 8327 01d4 34       		.uleb128 0x34
 8328 01d5 00       		.byte	0
 8329 01d6 03       		.uleb128 0x3
 8330 01d7 08       		.uleb128 0x8
 8331 01d8 3A       		.uleb128 0x3a
 8332 01d9 0B       		.uleb128 0xb
 8333 01da 3B       		.uleb128 0x3b
 8334 01db 05       		.uleb128 0x5
 8335 01dc 49       		.uleb128 0x49
ARM GAS  C:\Users\run1009\AppData\Local\Temp\ccSZtXoF.s 			page 218


 8336 01dd 13       		.uleb128 0x13
 8337 01de 02       		.uleb128 0x2
 8338 01df 18       		.uleb128 0x18
 8339 01e0 00       		.byte	0
 8340 01e1 00       		.byte	0
 8341 01e2 24       		.uleb128 0x24
 8342 01e3 2E       		.uleb128 0x2e
 8343 01e4 01       		.byte	0x1
 8344 01e5 3F       		.uleb128 0x3f
 8345 01e6 19       		.uleb128 0x19
 8346 01e7 03       		.uleb128 0x3
 8347 01e8 0E       		.uleb128 0xe
 8348 01e9 3A       		.uleb128 0x3a
 8349 01ea 0B       		.uleb128 0xb
 8350 01eb 3B       		.uleb128 0x3b
 8351 01ec 05       		.uleb128 0x5
 8352 01ed 27       		.uleb128 0x27
 8353 01ee 19       		.uleb128 0x19
 8354 01ef 11       		.uleb128 0x11
 8355 01f0 01       		.uleb128 0x1
 8356 01f1 12       		.uleb128 0x12
 8357 01f2 06       		.uleb128 0x6
 8358 01f3 40       		.uleb128 0x40
 8359 01f4 18       		.uleb128 0x18
 8360 01f5 9642     		.uleb128 0x2116
 8361 01f7 19       		.uleb128 0x19
 8362 01f8 01       		.uleb128 0x1
 8363 01f9 13       		.uleb128 0x13
 8364 01fa 00       		.byte	0
 8365 01fb 00       		.byte	0
 8366 01fc 25       		.uleb128 0x25
 8367 01fd 0B       		.uleb128 0xb
 8368 01fe 01       		.byte	0x1
 8369 01ff 11       		.uleb128 0x11
 8370 0200 01       		.uleb128 0x1
 8371 0201 12       		.uleb128 0x12
 8372 0202 06       		.uleb128 0x6
 8373 0203 01       		.uleb128 0x1
 8374 0204 13       		.uleb128 0x13
 8375 0205 00       		.byte	0
 8376 0206 00       		.byte	0
 8377 0207 26       		.uleb128 0x26
 8378 0208 2E       		.uleb128 0x2e
 8379 0209 01       		.byte	0x1
 8380 020a 03       		.uleb128 0x3
 8381 020b 0E       		.uleb128 0xe
 8382 020c 3A       		.uleb128 0x3a
 8383 020d 0B       		.uleb128 0xb
 8384 020e 3B       		.uleb128 0x3b
 8385 020f 05       		.uleb128 0x5
 8386 0210 27       		.uleb128 0x27
 8387 0211 19       		.uleb128 0x19
 8388 0212 49       		.uleb128 0x49
 8389 0213 13       		.uleb128 0x13
 8390 0214 11       		.uleb128 0x11
 8391 0215 01       		.uleb128 0x1
 8392 0216 12       		.uleb128 0x12
ARM GAS  C:\Users\run1009\AppData\Local\Temp\ccSZtXoF.s 			page 219


 8393 0217 06       		.uleb128 0x6
 8394 0218 40       		.uleb128 0x40
 8395 0219 18       		.uleb128 0x18
 8396 021a 9742     		.uleb128 0x2117
 8397 021c 19       		.uleb128 0x19
 8398 021d 01       		.uleb128 0x1
 8399 021e 13       		.uleb128 0x13
 8400 021f 00       		.byte	0
 8401 0220 00       		.byte	0
 8402 0221 27       		.uleb128 0x27
 8403 0222 2E       		.uleb128 0x2e
 8404 0223 00       		.byte	0
 8405 0224 3F       		.uleb128 0x3f
 8406 0225 19       		.uleb128 0x19
 8407 0226 03       		.uleb128 0x3
 8408 0227 0E       		.uleb128 0xe
 8409 0228 3A       		.uleb128 0x3a
 8410 0229 0B       		.uleb128 0xb
 8411 022a 3B       		.uleb128 0x3b
 8412 022b 05       		.uleb128 0x5
 8413 022c 27       		.uleb128 0x27
 8414 022d 19       		.uleb128 0x19
 8415 022e 11       		.uleb128 0x11
 8416 022f 01       		.uleb128 0x1
 8417 0230 12       		.uleb128 0x12
 8418 0231 06       		.uleb128 0x6
 8419 0232 40       		.uleb128 0x40
 8420 0233 18       		.uleb128 0x18
 8421 0234 9642     		.uleb128 0x2116
 8422 0236 19       		.uleb128 0x19
 8423 0237 00       		.byte	0
 8424 0238 00       		.byte	0
 8425 0239 28       		.uleb128 0x28
 8426 023a 34       		.uleb128 0x34
 8427 023b 00       		.byte	0
 8428 023c 03       		.uleb128 0x3
 8429 023d 0E       		.uleb128 0xe
 8430 023e 3A       		.uleb128 0x3a
 8431 023f 0B       		.uleb128 0xb
 8432 0240 3B       		.uleb128 0x3b
 8433 0241 05       		.uleb128 0x5
 8434 0242 49       		.uleb128 0x49
 8435 0243 13       		.uleb128 0x13
 8436 0244 3F       		.uleb128 0x3f
 8437 0245 19       		.uleb128 0x19
 8438 0246 3C       		.uleb128 0x3c
 8439 0247 19       		.uleb128 0x19
 8440 0248 00       		.byte	0
 8441 0249 00       		.byte	0
 8442 024a 29       		.uleb128 0x29
 8443 024b 21       		.uleb128 0x21
 8444 024c 00       		.byte	0
 8445 024d 49       		.uleb128 0x49
 8446 024e 13       		.uleb128 0x13
 8447 024f 2F       		.uleb128 0x2f
 8448 0250 05       		.uleb128 0x5
 8449 0251 00       		.byte	0
ARM GAS  C:\Users\run1009\AppData\Local\Temp\ccSZtXoF.s 			page 220


 8450 0252 00       		.byte	0
 8451 0253 2A       		.uleb128 0x2a
 8452 0254 34       		.uleb128 0x34
 8453 0255 00       		.byte	0
 8454 0256 03       		.uleb128 0x3
 8455 0257 0E       		.uleb128 0xe
 8456 0258 3A       		.uleb128 0x3a
 8457 0259 0B       		.uleb128 0xb
 8458 025a 3B       		.uleb128 0x3b
 8459 025b 0B       		.uleb128 0xb
 8460 025c 49       		.uleb128 0x49
 8461 025d 13       		.uleb128 0x13
 8462 025e 3F       		.uleb128 0x3f
 8463 025f 19       		.uleb128 0x19
 8464 0260 02       		.uleb128 0x2
 8465 0261 18       		.uleb128 0x18
 8466 0262 00       		.byte	0
 8467 0263 00       		.byte	0
 8468 0264 2B       		.uleb128 0x2b
 8469 0265 34       		.uleb128 0x34
 8470 0266 00       		.byte	0
 8471 0267 03       		.uleb128 0x3
 8472 0268 0E       		.uleb128 0xe
 8473 0269 3A       		.uleb128 0x3a
 8474 026a 0B       		.uleb128 0xb
 8475 026b 3B       		.uleb128 0x3b
 8476 026c 0B       		.uleb128 0xb
 8477 026d 49       		.uleb128 0x49
 8478 026e 13       		.uleb128 0x13
 8479 026f 3F       		.uleb128 0x3f
 8480 0270 19       		.uleb128 0x19
 8481 0271 3C       		.uleb128 0x3c
 8482 0272 19       		.uleb128 0x19
 8483 0273 00       		.byte	0
 8484 0274 00       		.byte	0
 8485 0275 00       		.byte	0
 8486              		.section	.debug_aranges,"",%progbits
 8487 0000 D4000000 		.4byte	0xd4
 8488 0004 0200     		.2byte	0x2
 8489 0006 00000000 		.4byte	.Ldebug_info0
 8490 000a 04       		.byte	0x4
 8491 000b 00       		.byte	0
 8492 000c 0000     		.2byte	0
 8493 000e 0000     		.2byte	0
 8494 0010 00000000 		.4byte	.LFB2
 8495 0014 74000000 		.4byte	.LFE2-.LFB2
 8496 0018 00000000 		.4byte	.LFB3
 8497 001c 10000000 		.4byte	.LFE3-.LFB3
 8498 0020 00000000 		.4byte	.LFB4
 8499 0024 10000000 		.4byte	.LFE4-.LFB4
 8500 0028 00000000 		.4byte	.LFB5
 8501 002c 10000000 		.4byte	.LFE5-.LFB5
 8502 0030 00000000 		.4byte	.LFB6
 8503 0034 10000000 		.4byte	.LFE6-.LFB6
 8504 0038 00000000 		.4byte	.LFB7
 8505 003c 0C010000 		.4byte	.LFE7-.LFB7
 8506 0040 00000000 		.4byte	.LFB8
ARM GAS  C:\Users\run1009\AppData\Local\Temp\ccSZtXoF.s 			page 221


 8507 0044 0C010000 		.4byte	.LFE8-.LFB8
 8508 0048 00000000 		.4byte	.LFB9
 8509 004c 34000000 		.4byte	.LFE9-.LFB9
 8510 0050 00000000 		.4byte	.LFB10
 8511 0054 BC000000 		.4byte	.LFE10-.LFB10
 8512 0058 00000000 		.4byte	.LFB11
 8513 005c 0A000000 		.4byte	.LFE11-.LFB11
 8514 0060 00000000 		.4byte	.LFB12
 8515 0064 60000000 		.4byte	.LFE12-.LFB12
 8516 0068 00000000 		.4byte	.LFB13
 8517 006c 14000000 		.4byte	.LFE13-.LFB13
 8518 0070 00000000 		.4byte	.LFB14
 8519 0074 10000000 		.4byte	.LFE14-.LFB14
 8520 0078 00000000 		.4byte	.LFB15
 8521 007c B0040000 		.4byte	.LFE15-.LFB15
 8522 0080 00000000 		.4byte	.LFB16
 8523 0084 00020000 		.4byte	.LFE16-.LFB16
 8524 0088 00000000 		.4byte	.LFB17
 8525 008c 08010000 		.4byte	.LFE17-.LFB17
 8526 0090 00000000 		.4byte	.LFB18
 8527 0094 68010000 		.4byte	.LFE18-.LFB18
 8528 0098 00000000 		.4byte	.LFB19
 8529 009c C8030000 		.4byte	.LFE19-.LFB19
 8530 00a0 00000000 		.4byte	.LFB20
 8531 00a4 08010000 		.4byte	.LFE20-.LFB20
 8532 00a8 00000000 		.4byte	.LFB21
 8533 00ac 64000000 		.4byte	.LFE21-.LFB21
 8534 00b0 00000000 		.4byte	.LFB22
 8535 00b4 48010000 		.4byte	.LFE22-.LFB22
 8536 00b8 00000000 		.4byte	.LFB23
 8537 00bc 60010000 		.4byte	.LFE23-.LFB23
 8538 00c0 00000000 		.4byte	.LFB24
 8539 00c4 A0000000 		.4byte	.LFE24-.LFB24
 8540 00c8 00000000 		.4byte	.LFB25
 8541 00cc 30000000 		.4byte	.LFE25-.LFB25
 8542 00d0 00000000 		.4byte	0
 8543 00d4 00000000 		.4byte	0
 8544              		.section	.debug_ranges,"",%progbits
 8545              	.Ldebug_ranges0:
 8546 0000 00000000 		.4byte	.LFB2
 8547 0004 74000000 		.4byte	.LFE2
 8548 0008 00000000 		.4byte	.LFB3
 8549 000c 10000000 		.4byte	.LFE3
 8550 0010 00000000 		.4byte	.LFB4
 8551 0014 10000000 		.4byte	.LFE4
 8552 0018 00000000 		.4byte	.LFB5
 8553 001c 10000000 		.4byte	.LFE5
 8554 0020 00000000 		.4byte	.LFB6
 8555 0024 10000000 		.4byte	.LFE6
 8556 0028 00000000 		.4byte	.LFB7
 8557 002c 0C010000 		.4byte	.LFE7
 8558 0030 00000000 		.4byte	.LFB8
 8559 0034 0C010000 		.4byte	.LFE8
 8560 0038 00000000 		.4byte	.LFB9
 8561 003c 34000000 		.4byte	.LFE9
 8562 0040 00000000 		.4byte	.LFB10
 8563 0044 BC000000 		.4byte	.LFE10
ARM GAS  C:\Users\run1009\AppData\Local\Temp\ccSZtXoF.s 			page 222


 8564 0048 00000000 		.4byte	.LFB11
 8565 004c 0A000000 		.4byte	.LFE11
 8566 0050 00000000 		.4byte	.LFB12
 8567 0054 60000000 		.4byte	.LFE12
 8568 0058 00000000 		.4byte	.LFB13
 8569 005c 14000000 		.4byte	.LFE13
 8570 0060 00000000 		.4byte	.LFB14
 8571 0064 10000000 		.4byte	.LFE14
 8572 0068 00000000 		.4byte	.LFB15
 8573 006c B0040000 		.4byte	.LFE15
 8574 0070 00000000 		.4byte	.LFB16
 8575 0074 00020000 		.4byte	.LFE16
 8576 0078 00000000 		.4byte	.LFB17
 8577 007c 08010000 		.4byte	.LFE17
 8578 0080 00000000 		.4byte	.LFB18
 8579 0084 68010000 		.4byte	.LFE18
 8580 0088 00000000 		.4byte	.LFB19
 8581 008c C8030000 		.4byte	.LFE19
 8582 0090 00000000 		.4byte	.LFB20
 8583 0094 08010000 		.4byte	.LFE20
 8584 0098 00000000 		.4byte	.LFB21
 8585 009c 64000000 		.4byte	.LFE21
 8586 00a0 00000000 		.4byte	.LFB22
 8587 00a4 48010000 		.4byte	.LFE22
 8588 00a8 00000000 		.4byte	.LFB23
 8589 00ac 60010000 		.4byte	.LFE23
 8590 00b0 00000000 		.4byte	.LFB24
 8591 00b4 A0000000 		.4byte	.LFE24
 8592 00b8 00000000 		.4byte	.LFB25
 8593 00bc 30000000 		.4byte	.LFE25
 8594 00c0 00000000 		.4byte	0
 8595 00c4 00000000 		.4byte	0
 8596              		.section	.debug_line,"",%progbits
 8597              	.Ldebug_line0:
 8598 0000 89070000 		.section	.debug_str,"MS",%progbits,1
 8598      0200F401 
 8598      00000201 
 8598      FB0E0D00 
 8598      01010101 
 8599              	.LASF602:
 8600 0000 4359424C 		.ascii	"CYBLE_EVT_UDSC_READ_CHAR_RESPONSE\000"
 8600      455F4556 
 8600      545F5544 
 8600      53435F52 
 8600      4541445F 
 8601              	.LASF560:
 8602 0022 4359424C 		.ascii	"CYBLE_EVT_PLXSC_NOTIFICATION\000"
 8602      455F4556 
 8602      545F504C 
 8602      5853435F 
 8602      4E4F5449 
 8603              	.LASF511:
 8604 003f 4359424C 		.ascii	"CYBLE_EVT_HTSS_NOTIFICATION_DISABLED\000"
 8604      455F4556 
 8604      545F4854 
 8604      53535F4E 
 8604      4F544946 
ARM GAS  C:\Users\run1009\AppData\Local\Temp\ccSZtXoF.s 			page 223


 8605              	.LASF256:
 8606 0064 4359424C 		.ascii	"CYBLE_GATT_ERR_INVALID_CRC\000"
 8606      455F4741 
 8606      54545F45 
 8606      52525F49 
 8606      4E56414C 
 8607              	.LASF550:
 8608 007f 4359424C 		.ascii	"CYBLE_EVT_PASSC_NOTIFICATION\000"
 8608      455F4556 
 8608      545F5041 
 8608      5353435F 
 8608      4E4F5449 
 8609              	.LASF557:
 8610 009c 4359424C 		.ascii	"CYBLE_EVT_PLXSS_INDICATION_ENABLED\000"
 8610      455F4556 
 8610      545F504C 
 8610      5853535F 
 8610      494E4449 
 8611              	.LASF18:
 8612 00bf 73697A65 		.ascii	"sizetype\000"
 8612      74797065 
 8612      00
 8613              	.LASF392:
 8614 00c8 4359424C 		.ascii	"CYBLE_EVT_BCSC_READ_CHAR_RESPONSE\000"
 8614      455F4556 
 8614      545F4243 
 8614      53435F52 
 8614      4541445F 
 8615              	.LASF415:
 8616 00ea 4359424C 		.ascii	"CYBLE_EVT_CGMSC_INDICATION\000"
 8616      455F4556 
 8616      545F4347 
 8616      4D53435F 
 8616      494E4449 
 8617              	.LASF433:
 8618 0105 4359424C 		.ascii	"CYBLE_EVT_CPSC_READ_DESCR_RESPONSE\000"
 8618      455F4556 
 8618      545F4350 
 8618      53435F52 
 8618      4541445F 
 8619              	.LASF189:
 8620 0128 656B6579 		.ascii	"ekeySize\000"
 8620      53697A65 
 8620      00
 8621              	.LASF579:
 8622 0131 4359424C 		.ascii	"CYBLE_EVT_RTUSS_WRITE_CHAR_CMD\000"
 8622      455F4556 
 8622      545F5254 
 8622      5553535F 
 8622      57524954 
 8623              	.LASF224:
 8624 0150 4359424C 		.ascii	"CYBLE_GATT_HANDLE_VALUE_CNF\000"
 8624      455F4741 
 8624      54545F48 
 8624      414E444C 
 8624      455F5641 
 8625              	.LASF613:
ARM GAS  C:\Users\run1009\AppData\Local\Temp\ccSZtXoF.s 			page 224


 8626 016c 4359424C 		.ascii	"CYBLE_EVT_WPTSC_NOTIFICATION\000"
 8626      455F4556 
 8626      545F5750 
 8626      5453435F 
 8626      4E4F5449 
 8627              	.LASF348:
 8628 0189 4359424C 		.ascii	"CYBLE_EVT_GATTC_INCL_DISCOVERY_COMPLETE\000"
 8628      455F4556 
 8628      545F4741 
 8628      5454435F 
 8628      494E434C 
 8629              	.LASF39:
 8630 01b1 4359424C 		.ascii	"CYBLE_EVT_GAP_NUMERIC_COMPARISON_REQUEST\000"
 8630      455F4556 
 8630      545F4741 
 8630      505F4E55 
 8630      4D455249 
 8631              	.LASF359:
 8632 01da 4359424C 		.ascii	"CYBLE_EVT_AIOSC_NOTIFICATION\000"
 8632      455F4556 
 8632      545F4149 
 8632      4F53435F 
 8632      4E4F5449 
 8633              	.LASF619:
 8634 01f7 4359424C 		.ascii	"CYBLE_EVT_WSSS_INDICATION_ENABLED\000"
 8634      455F4556 
 8634      545F5753 
 8634      53535F49 
 8634      4E444943 
 8635              	.LASF431:
 8636 0219 4359424C 		.ascii	"CYBLE_EVT_CPSC_READ_CHAR_RESPONSE\000"
 8636      455F4556 
 8636      545F4350 
 8636      53435F52 
 8636      4541445F 
 8637              	.LASF444:
 8638 023b 4359424C 		.ascii	"CYBLE_EVT_CSCSC_READ_CHAR_RESPONSE\000"
 8638      455F4556 
 8638      545F4353 
 8638      4353435F 
 8638      52454144 
 8639              	.LASF531:
 8640 025e 4359424C 		.ascii	"CYBLE_EVT_LLSS_WRITE_CHAR_REQ\000"
 8640      455F4556 
 8640      545F4C4C 
 8640      53535F57 
 8640      52495445 
 8641              	.LASF665:
 8642 027c 4379426C 		.ascii	"CyBle_WriteReqHandler\000"
 8642      655F5772 
 8642      69746552 
 8642      65714861 
 8642      6E646C65 
 8643              	.LASF146:
 8644 0292 72657175 		.ascii	"request\000"
 8644      65737400 
 8645              	.LASF183:
ARM GAS  C:\Users\run1009\AppData\Local\Temp\ccSZtXoF.s 			page 225


 8646 029a 4359424C 		.ascii	"CYBLE_GAP_AUTH_ERROR_CODE_SPEC_MAX_VALUE\000"
 8646      455F4741 
 8646      505F4155 
 8646      54485F45 
 8646      52524F52 
 8647              	.LASF474:
 8648 02c3 4359424C 		.ascii	"CYBLE_EVT_GLSS_NOTIFICATION_DISABLED\000"
 8648      455F4556 
 8648      545F474C 
 8648      53535F4E 
 8648      4F544946 
 8649              	.LASF667:
 8650 02e8 6576656E 		.ascii	"eventParam\000"
 8650      74506172 
 8650      616D00
 8651              	.LASF402:
 8652 02f3 4359424C 		.ascii	"CYBLE_EVT_BLSC_READ_CHAR_RESPONSE\000"
 8652      455F4556 
 8652      545F424C 
 8652      53435F52 
 8652      4541445F 
 8653              	.LASF33:
 8654 0315 4359424C 		.ascii	"CYBLE_EVT_GAP_DEVICE_CONNECTED\000"
 8654      455F4556 
 8654      545F4741 
 8654      505F4445 
 8654      56494345 
 8655              	.LASF166:
 8656 0334 4359424C 		.ascii	"CYBLE_GAP_IOCAP_NOINPUT_NOOUTPUT\000"
 8656      455F4741 
 8656      505F494F 
 8656      4341505F 
 8656      4E4F494E 
 8657              	.LASF51:
 8658 0355 4359424C 		.ascii	"CYBLE_EVT_GATT_CONNECT_IND\000"
 8658      455F4556 
 8658      545F4741 
 8658      54545F43 
 8658      4F4E4E45 
 8659              	.LASF479:
 8660 0370 4359424C 		.ascii	"CYBLE_EVT_GLSC_WRITE_CHAR_RESPONSE\000"
 8660      455F4556 
 8660      545F474C 
 8660      53435F57 
 8660      52495445 
 8661              	.LASF330:
 8662 0393 73657276 		.ascii	"serviceChanged\000"
 8662      69636543 
 8662      68616E67 
 8662      656400
 8663              	.LASF217:
 8664 03a2 4359424C 		.ascii	"CYBLE_GATT_WRITE_CMD\000"
 8664      455F4741 
 8664      54545F57 
 8664      52495445 
 8664      5F434D44 
 8665              	.LASF13:
ARM GAS  C:\Users\run1009\AppData\Local\Temp\ccSZtXoF.s 			page 226


 8666 03b7 75696E74 		.ascii	"uint32\000"
 8666      333200
 8667              	.LASF661:
 8668 03be 67617053 		.ascii	"gapServiceCharHandle\000"
 8668      65727669 
 8668      63654368 
 8668      61724861 
 8668      6E646C65 
 8669              	.LASF343:
 8670 03d3 4359424C 		.ascii	"CYBLE_EVT_GATTC_DESCR_DISCOVERY_FAILED\000"
 8670      455F4556 
 8670      545F4741 
 8670      5454435F 
 8670      44455343 
 8671              	.LASF578:
 8672 03fa 4359424C 		.ascii	"CYBLE_EVT_RSCSC_WRITE_DESCR_RESPONSE\000"
 8672      455F4556 
 8672      545F5253 
 8672      4353435F 
 8672      57524954 
 8673              	.LASF390:
 8674 041f 4359424C 		.ascii	"CYBLE_EVT_BCSS_INDICATION_CONFIRMED\000"
 8674      455F4556 
 8674      545F4243 
 8674      53535F49 
 8674      4E444943 
 8675              	.LASF391:
 8676 0443 4359424C 		.ascii	"CYBLE_EVT_BCSC_INDICATION\000"
 8676      455F4556 
 8676      545F4243 
 8676      53435F49 
 8676      4E444943 
 8677              	.LASF140:
 8678 045d 626C6550 		.ascii	"blePwrLevelInDbm\000"
 8678      77724C65 
 8678      76656C49 
 8678      6E44626D 
 8678      00
 8679              	.LASF535:
 8680 046e 4359424C 		.ascii	"CYBLE_EVT_LNSS_INDICATION_DISABLED\000"
 8680      455F4556 
 8680      545F4C4E 
 8680      53535F49 
 8680      4E444943 
 8681              	.LASF452:
 8682 0491 4359424C 		.ascii	"CYBLE_EVT_CTSC_READ_CHAR_RESPONSE\000"
 8682      455F4556 
 8682      545F4354 
 8682      53435F52 
 8682      4541445F 
 8683              	.LASF347:
 8684 04b3 4359424C 		.ascii	"CYBLE_EVT_GATTC_SRVC_DISCOVERY_COMPLETE\000"
 8684      455F4556 
 8684      545F4741 
 8684      5454435F 
 8684      53525643 
 8685              	.LASF572:
ARM GAS  C:\Users\run1009\AppData\Local\Temp\ccSZtXoF.s 			page 227


 8686 04db 4359424C 		.ascii	"CYBLE_EVT_RSCSS_CHAR_WRITE\000"
 8686      455F4556 
 8686      545F5253 
 8686      4353535F 
 8686      43484152 
 8687              	.LASF368:
 8688 04f6 4359424C 		.ascii	"CYBLE_EVT_ANCSS_WRITE_CHAR\000"
 8688      455F4556 
 8688      545F414E 
 8688      4353535F 
 8688      57524954 
 8689              	.LASF561:
 8690 0511 4359424C 		.ascii	"CYBLE_EVT_PLXSC_INDICATION\000"
 8690      455F4556 
 8690      545F504C 
 8690      5853435F 
 8690      494E4449 
 8691              	.LASF605:
 8692 052c 4359424C 		.ascii	"CYBLE_EVT_UDSC_WRITE_DESCR_RESPONSE\000"
 8692      455F4556 
 8692      545F5544 
 8692      53435F57 
 8692      52495445 
 8693              	.LASF493:
 8694 0550 4359424C 		.ascii	"CYBLE_EVT_HIDSC_WRITE_DESCR_RESPONSE\000"
 8694      455F4556 
 8694      545F4849 
 8694      4453435F 
 8694      57524954 
 8695              	.LASF587:
 8696 0575 4359424C 		.ascii	"CYBLE_EVT_TPSS_NOTIFICATION_ENABLED\000"
 8696      455F4556 
 8696      545F5450 
 8696      53535F4E 
 8696      4F544946 
 8697              	.LASF380:
 8698 0599 4359424C 		.ascii	"CYBLE_EVT_ANSC_READ_DESCR_RESPONSE\000"
 8698      455F4556 
 8698      545F414E 
 8698      53435F52 
 8698      4541445F 
 8699              	.LASF230:
 8700 05bc 4359424C 		.ascii	"CYBLE_GATT_ERR_READ_NOT_PERMITTED\000"
 8700      455F4741 
 8700      54545F45 
 8700      52525F52 
 8700      4541445F 
 8701              	.LASF245:
 8702 05de 4359424C 		.ascii	"CYBLE_GATT_ERR_INSUFFICIENT_RESOURCE\000"
 8702      455F4741 
 8702      54545F45 
 8702      52525F49 
 8702      4E535546 
 8703              	.LASF218:
 8704 0603 4359424C 		.ascii	"CYBLE_GATT_PREPARE_WRITE_REQ\000"
 8704      455F4741 
 8704      54545F50 
ARM GAS  C:\Users\run1009\AppData\Local\Temp\ccSZtXoF.s 			page 228


 8704      52455041 
 8704      52455F57 
 8705              	.LASF244:
 8706 0620 4359424C 		.ascii	"CYBLE_GATT_ERR_UNSUPPORTED_GROUP_TYPE\000"
 8706      455F4741 
 8706      54545F45 
 8706      52525F55 
 8706      4E535550 
 8707              	.LASF107:
 8708 0646 4359424C 		.ascii	"CYBLE_ERROR_L2CAP_CONNECTION_ENTITY_NOT_FOUND\000"
 8708      455F4552 
 8708      524F525F 
 8708      4C324341 
 8708      505F434F 
 8709              	.LASF638:
 8710 0674 4359424C 		.ascii	"CYBLE_CLIENT_STATE_CHAR_DISCOVERING\000"
 8710      455F434C 
 8710      49454E54 
 8710      5F535441 
 8710      54455F43 
 8711              	.LASF564:
 8712 0698 4359424C 		.ascii	"CYBLE_EVT_PLXSC_READ_DESCR_RESPONSE\000"
 8712      455F4556 
 8712      545F504C 
 8712      5853435F 
 8712      52454144 
 8713              	.LASF113:
 8714 06bc 4359424C 		.ascii	"CYBLE_ERROR_MIC_AUTH_FAILED\000"
 8714      455F4552 
 8714      524F525F 
 8714      4D49435F 
 8714      41555448 
 8715              	.LASF631:
 8716 06d8 4359424C 		.ascii	"CYBLE_STATE_SCANNING\000"
 8716      455F5354 
 8716      4154455F 
 8716      5343414E 
 8716      4E494E47 
 8717              	.LASF342:
 8718 06ed 4359424C 		.ascii	"CYBLE_EVT_GATTC_CHAR_DISCOVERY_FAILED\000"
 8718      455F4556 
 8718      545F4741 
 8718      5454435F 
 8718      43484152 
 8719              	.LASF71:
 8720 0713 4359424C 		.ascii	"CYBLE_EVT_GATTS_DATA_SIGNED_CMD_REQ\000"
 8720      455F4556 
 8720      545F4741 
 8720      5454535F 
 8720      44415441 
 8721              	.LASF83:
 8722 0737 4359424C 		.ascii	"CYBLE_EVT_L2CAP_CBFC_RX_CREDIT_IND\000"
 8722      455F4556 
 8722      545F4C32 
 8722      4341505F 
 8722      43424643 
 8723              	.LASF279:
ARM GAS  C:\Users\run1009\AppData\Local\Temp\ccSZtXoF.s 			page 229


 8724 075a 4359424C 		.ascii	"CYBLE_GATT_VALUE_T\000"
 8724      455F4741 
 8724      54545F56 
 8724      414C5545 
 8724      5F5400
 8725              	.LASF438:
 8726 076d 4359424C 		.ascii	"CYBLE_EVT_CSCSS_INDICATION_ENABLED\000"
 8726      455F4556 
 8726      545F4353 
 8726      4353535F 
 8726      494E4449 
 8727              	.LASF686:
 8728 0790 6D656D52 		.ascii	"memReq\000"
 8728      657100
 8729              	.LASF212:
 8730 0797 4359424C 		.ascii	"CYBLE_GATT_READ_MULTIPLE_RSP\000"
 8730      455F4741 
 8730      54545F52 
 8730      4541445F 
 8730      4D554C54 
 8731              	.LASF540:
 8732 07b4 4359424C 		.ascii	"CYBLE_EVT_LNSC_INDICATION\000"
 8732      455F4556 
 8732      545F4C4E 
 8732      53435F49 
 8732      4E444943 
 8733              	.LASF151:
 8734 07ce 74797065 		.ascii	"type\000"
 8734      00
 8735              	.LASF157:
 8736 07d3 4359424C 		.ascii	"CYBLE_TO_REASON_CODE_T\000"
 8736      455F544F 
 8736      5F524541 
 8736      534F4E5F 
 8736      434F4445 
 8737              	.LASF246:
 8738 07ea 4359424C 		.ascii	"CYBLE_GATT_ERR_TRIGGER_CODITION_VALUE_NOT_SUPPORTED"
 8738      455F4741 
 8738      54545F45 
 8738      52525F54 
 8738      52494747 
 8739 081d 00       		.ascii	"\000"
 8740              	.LASF551:
 8741 081e 4359424C 		.ascii	"CYBLE_EVT_PASSC_READ_CHAR_RESPONSE\000"
 8741      455F4556 
 8741      545F5041 
 8741      5353435F 
 8741      52454144 
 8742              	.LASF184:
 8743 0841 4359424C 		.ascii	"CYBLE_GAP_AUTH_ERROR_AUTHENTICATION_TIMEOUT\000"
 8743      455F4741 
 8743      505F4155 
 8743      54485F45 
 8743      52524F52 
 8744              	.LASF395:
 8745 086d 4359424C 		.ascii	"CYBLE_EVT_BLSS_INDICATION_ENABLED\000"
 8745      455F4556 
ARM GAS  C:\Users\run1009\AppData\Local\Temp\ccSZtXoF.s 			page 230


 8745      545F424C 
 8745      53535F49 
 8745      4E444943 
 8746              	.LASF176:
 8747 088f 4359424C 		.ascii	"CYBLE_GAP_AUTH_ERROR_UNSPECIFIED_REASON\000"
 8747      455F4741 
 8747      505F4155 
 8747      54485F45 
 8747      52524F52 
 8748              	.LASF401:
 8749 08b7 4359424C 		.ascii	"CYBLE_EVT_BLSC_NOTIFICATION\000"
 8749      455F4556 
 8749      545F424C 
 8749      53435F4E 
 8749      4F544946 
 8750              	.LASF206:
 8751 08d3 4359424C 		.ascii	"CYBLE_GATT_READ_BY_TYPE_RSP\000"
 8751      455F4741 
 8751      54545F52 
 8751      4541445F 
 8751      42595F54 
 8752              	.LASF315:
 8753 08ef 4359424C 		.ascii	"CYBLE_CALLBACK_T\000"
 8753      455F4341 
 8753      4C4C4241 
 8753      434B5F54 
 8753      00
 8754              	.LASF443:
 8755 0900 4359424C 		.ascii	"CYBLE_EVT_CSCSC_INDICATION\000"
 8755      455F4556 
 8755      545F4353 
 8755      4353435F 
 8755      494E4449 
 8756              	.LASF723:
 8757 091b 6379426C 		.ascii	"cyBle_scanningIntervalType\000"
 8757      655F7363 
 8757      616E6E69 
 8757      6E67496E 
 8757      74657276 
 8758              	.LASF300:
 8759 0936 4359424C 		.ascii	"CYBLE_GATTC_HANDLE_VALUE_NTF_PARAM_T\000"
 8759      455F4741 
 8759      5454435F 
 8759      48414E44 
 8759      4C455F56 
 8760              	.LASF68:
 8761 095b 4359424C 		.ascii	"CYBLE_EVT_GATTC_HANDLE_VALUE_NTF\000"
 8761      455F4556 
 8761      545F4741 
 8761      5454435F 
 8761      48414E44 
 8762              	.LASF27:
 8763 097c 4359424C 		.ascii	"CYBLE_EVT_GAP_AUTH_REQ\000"
 8763      455F4556 
 8763      545F4741 
 8763      505F4155 
 8763      54485F52 
ARM GAS  C:\Users\run1009\AppData\Local\Temp\ccSZtXoF.s 			page 231


 8764              	.LASF349:
 8765 0993 4359424C 		.ascii	"CYBLE_EVT_GATTC_CHAR_DISCOVERY_COMPLETE\000"
 8765      455F4556 
 8765      545F4741 
 8765      5454435F 
 8765      43484152 
 8766              	.LASF277:
 8767 09bb 4359424C 		.ascii	"CYBLE_CONN_HANDLE_T\000"
 8767      455F434F 
 8767      4E4E5F48 
 8767      414E444C 
 8767      455F5400 
 8768              	.LASF507:
 8769 09cf 4359424C 		.ascii	"CYBLE_EVT_HRSC_WRITE_CHAR_RESPONSE\000"
 8769      455F4556 
 8769      545F4852 
 8769      53435F57 
 8769      52495445 
 8770              	.LASF102:
 8771 09f2 4359424C 		.ascii	"CYBLE_ERROR_BT_ON_NOT_COMPLETED\000"
 8771      455F4552 
 8771      524F525F 
 8771      42545F4F 
 8771      4E5F4E4F 
 8772              	.LASF442:
 8773 0a12 4359424C 		.ascii	"CYBLE_EVT_CSCSC_NOTIFICATION\000"
 8773      455F4556 
 8773      545F4353 
 8773      4353435F 
 8773      4E4F5449 
 8774              	.LASF600:
 8775 0a2f 4359424C 		.ascii	"CYBLE_EVT_UDSC_INDICATION\000"
 8775      455F4556 
 8775      545F5544 
 8775      53435F49 
 8775      4E444943 
 8776              	.LASF163:
 8777 0a49 4359424C 		.ascii	"CYBLE_GAP_IOCAP_DISPLAY_ONLY\000"
 8777      455F4741 
 8777      505F494F 
 8777      4341505F 
 8777      44495350 
 8778              	.LASF523:
 8779 0a66 4359424C 		.ascii	"CYBLE_EVT_IPSS_WRITE_CHAR\000"
 8779      455F4556 
 8779      545F4950 
 8779      53535F57 
 8779      52495445 
 8780              	.LASF725:
 8781 0a80 6379426C 		.ascii	"cyBle_disCount\000"
 8781      655F6469 
 8781      73436F75 
 8781      6E7400
 8782              	.LASF48:
 8783 0a8f 4359424C 		.ascii	"CYBLE_EVT_GAP_AUTH_REQ_REPLY_ERR\000"
 8783      455F4556 
 8783      545F4741 
ARM GAS  C:\Users\run1009\AppData\Local\Temp\ccSZtXoF.s 			page 232


 8783      505F4155 
 8783      54485F52 
 8784              	.LASF406:
 8785 0ab0 4359424C 		.ascii	"CYBLE_EVT_BMSC_READ_CHAR_RESPONSE\000"
 8785      455F4556 
 8785      545F424D 
 8785      53435F52 
 8785      4541445F 
 8786              	.LASF129:
 8787 0ad2 4359424C 		.ascii	"CYBLE_LL_PWR_LVL_NEG_3_DBM\000"
 8787      455F4C4C 
 8787      5F505752 
 8787      5F4C564C 
 8787      5F4E4547 
 8788              	.LASF678:
 8789 0aed 61646472 		.ascii	"addressValid\000"
 8789      65737356 
 8789      616C6964 
 8789      00
 8790              	.LASF630:
 8791 0afa 4359424C 		.ascii	"CYBLE_STATE_ADVERTISING\000"
 8791      455F5354 
 8791      4154455F 
 8791      41445645 
 8791      52544953 
 8792              	.LASF41:
 8793 0b12 4359424C 		.ascii	"CYBLE_EVT_GAP_OOB_GENERATED_NOTIFICATION\000"
 8793      455F4556 
 8793      545F4741 
 8793      505F4F4F 
 8793      425F4745 
 8794              	.LASF328:
 8795 0b3b 64657363 		.ascii	"descrHandle\000"
 8795      7248616E 
 8795      646C6500 
 8796              	.LASF275:
 8797 0b47 62644861 		.ascii	"bdHandle\000"
 8797      6E646C65 
 8797      00
 8798              	.LASF319:
 8799 0b50 4359424C 		.ascii	"CYBLE_DISC_SRVC128_INFO_T\000"
 8799      455F4449 
 8799      53435F53 
 8799      52564331 
 8799      32385F49 
 8800              	.LASF258:
 8801 0b6a 4359424C 		.ascii	"CYBLE_GATTS_ERR_NETWORK_NOT_AVAILABLE\000"
 8801      455F4741 
 8801      5454535F 
 8801      4552525F 
 8801      4E455457 
 8802              	.LASF411:
 8803 0b90 4359424C 		.ascii	"CYBLE_EVT_CGMSS_INDICATION_CONFIRMED\000"
 8803      455F4556 
 8803      545F4347 
 8803      4D53535F 
 8803      494E4449 
ARM GAS  C:\Users\run1009\AppData\Local\Temp\ccSZtXoF.s 			page 233


 8804              	.LASF671:
 8805 0bb5 4379426C 		.ascii	"CyBle_ReadResponseEventHandler\000"
 8805      655F5265 
 8805      61645265 
 8805      73706F6E 
 8805      73654576 
 8806              	.LASF169:
 8807 0bd4 4359424C 		.ascii	"CYBLE_GAP_AUTH_ERROR_PASSKEY_ENTRY_FAILED\000"
 8807      455F4741 
 8807      505F4155 
 8807      54485F45 
 8807      52524F52 
 8808              	.LASF261:
 8809 0bfe 4359424C 		.ascii	"CYBLE_GATT_ERR_ANCS_INVALID_COMMAND\000"
 8809      455F4741 
 8809      54545F45 
 8809      52525F41 
 8809      4E43535F 
 8810              	.LASF659:
 8811 0c22 4359424C 		.ascii	"CYBLE_SCDI_CUSTOM_CHARACTERISTICS\000"
 8811      455F5343 
 8811      44495F43 
 8811      5553544F 
 8811      4D5F4348 
 8812              	.LASF703:
 8813 0c44 63686172 		.ascii	"charRange\000"
 8813      52616E67 
 8813      6500
 8814              	.LASF403:
 8815 0c4e 4359424C 		.ascii	"CYBLE_EVT_BLSC_READ_DESCR_RESPONSE\000"
 8815      455F4556 
 8815      545F424C 
 8815      53435F52 
 8815      4541445F 
 8816              	.LASF127:
 8817 0c71 4359424C 		.ascii	"CYBLE_LL_PWR_LVL_NEG_12_DBM\000"
 8817      455F4C4C 
 8817      5F505752 
 8817      5F4C564C 
 8817      5F4E4547 
 8818              	.LASF652:
 8819 0c8d 4359424C 		.ascii	"CYBLE_GAPC_T\000"
 8819      455F4741 
 8819      50435F54 
 8819      00
 8820              	.LASF424:
 8821 0c9a 4359424C 		.ascii	"CYBLE_EVT_CPSS_INDICATION_DISABLED\000"
 8821      455F4556 
 8821      545F4350 
 8821      53535F49 
 8821      4E444943 
 8822              	.LASF200:
 8823 0cbd 4359424C 		.ascii	"CYBLE_GATT_XCHNG_MTU_RSP\000"
 8823      455F4741 
 8823      54545F58 
 8823      43484E47 
 8823      5F4D5455 
ARM GAS  C:\Users\run1009\AppData\Local\Temp\ccSZtXoF.s 			page 234


 8824              	.LASF423:
 8825 0cd6 4359424C 		.ascii	"CYBLE_EVT_CPSS_INDICATION_ENABLED\000"
 8825      455F4556 
 8825      545F4350 
 8825      53535F49 
 8825      4E444943 
 8826              	.LASF537:
 8827 0cf8 4359424C 		.ascii	"CYBLE_EVT_LNSS_NOTIFICATION_ENABLED\000"
 8827      455F4556 
 8827      545F4C4E 
 8827      53535F4E 
 8827      4F544946 
 8828              	.LASF64:
 8829 0d1c 4359424C 		.ascii	"CYBLE_EVT_GATTS_WRITE_CMD_REQ\000"
 8829      455F4556 
 8829      545F4741 
 8829      5454535F 
 8829      57524954 
 8830              	.LASF434:
 8831 0d3a 4359424C 		.ascii	"CYBLE_EVT_CPSC_WRITE_DESCR_RESPONSE\000"
 8831      455F4556 
 8831      545F4350 
 8831      53435F57 
 8831      52495445 
 8832              	.LASF345:
 8833 0d5e 4359424C 		.ascii	"CYBLE_EVT_GATTC_CHAR_DUPLICATION\000"
 8833      455F4556 
 8833      545F4741 
 8833      5454435F 
 8833      43484152 
 8834              	.LASF84:
 8835 0d7f 4359424C 		.ascii	"CYBLE_EVT_L2CAP_CBFC_TX_CREDIT_IND\000"
 8835      455F4556 
 8835      545F4C32 
 8835      4341505F 
 8835      43424643 
 8836              	.LASF4:
 8837 0da2 6C6F6E67 		.ascii	"long int\000"
 8837      20696E74 
 8837      00
 8838              	.LASF538:
 8839 0dab 4359424C 		.ascii	"CYBLE_EVT_LNSS_NOTIFICATION_DISABLED\000"
 8839      455F4556 
 8839      545F4C4E 
 8839      53535F4E 
 8839      4F544946 
 8840              	.LASF439:
 8841 0dd0 4359424C 		.ascii	"CYBLE_EVT_CSCSS_INDICATION_DISABLED\000"
 8841      455F4556 
 8841      545F4353 
 8841      4353535F 
 8841      494E4449 
 8842              	.LASF227:
 8843 0df4 4359424C 		.ascii	"CYBLE_GATT_PDU_T\000"
 8843      455F4741 
 8843      54545F50 
 8843      44555F54 
ARM GAS  C:\Users\run1009\AppData\Local\Temp\ccSZtXoF.s 			page 235


 8843      00
 8844              	.LASF595:
 8845 0e05 4359424C 		.ascii	"CYBLE_EVT_UDSS_INDICATION_CONFIRMED\000"
 8845      455F4556 
 8845      545F5544 
 8845      53535F49 
 8845      4E444943 
 8846              	.LASF158:
 8847 0e29 4359424C 		.ascii	"CYBLE_GAP_SEC_LEVEL_1\000"
 8847      455F4741 
 8847      505F5345 
 8847      435F4C45 
 8847      56454C5F 
 8848              	.LASF159:
 8849 0e3f 4359424C 		.ascii	"CYBLE_GAP_SEC_LEVEL_2\000"
 8849      455F4741 
 8849      505F5345 
 8849      435F4C45 
 8849      56454C5F 
 8850              	.LASF160:
 8851 0e55 4359424C 		.ascii	"CYBLE_GAP_SEC_LEVEL_3\000"
 8851      455F4741 
 8851      505F5345 
 8851      435F4C45 
 8851      56454C5F 
 8852              	.LASF161:
 8853 0e6b 4359424C 		.ascii	"CYBLE_GAP_SEC_LEVEL_4\000"
 8853      455F4741 
 8853      505F5345 
 8853      435F4C45 
 8853      56454C5F 
 8854              	.LASF204:
 8855 0e81 4359424C 		.ascii	"CYBLE_GATT_FIND_BY_TYPE_VALUE_RSP\000"
 8855      455F4741 
 8855      54545F46 
 8855      494E445F 
 8855      42595F54 
 8856              	.LASF20:
 8857 0ea3 4359424C 		.ascii	"CYBLE_EVT_STACK_ON\000"
 8857      455F4556 
 8857      545F5354 
 8857      41434B5F 
 8857      4F4E00
 8858              	.LASF109:
 8859 0eb6 4359424C 		.ascii	"CYBLE_ERROR_L2CAP_PSM_NOT_IN_RANGE\000"
 8859      455F4552 
 8859      524F525F 
 8859      4C324341 
 8859      505F5053 
 8860              	.LASF708:
 8861 0ed9 6379426C 		.ascii	"cyBle_discInclInfo\000"
 8861      655F6469 
 8861      7363496E 
 8861      636C496E 
 8861      666F00
 8862              	.LASF389:
 8863 0eec 4359424C 		.ascii	"CYBLE_EVT_BCSS_INDICATION_DISABLED\000"
ARM GAS  C:\Users\run1009\AppData\Local\Temp\ccSZtXoF.s 			page 236


 8863      455F4556 
 8863      545F4243 
 8863      53535F49 
 8863      4E444943 
 8864              	.LASF712:
 8865 0f0f 6379426C 		.ascii	"cyBle_deviceAddress\000"
 8865      655F6465 
 8865      76696365 
 8865      41646472 
 8865      65737300 
 8866              	.LASF648:
 8867 0f23 7265636F 		.ascii	"reconnAddrCharHandle\000"
 8867      6E6E4164 
 8867      64724368 
 8867      61724861 
 8867      6E646C65 
 8868              	.LASF705:
 8869 0f38 64697363 		.ascii	"discDescrInfo\000"
 8869      44657363 
 8869      72496E66 
 8869      6F00
 8870              	.LASF469:
 8871 0f46 4359424C 		.ascii	"CYBLE_EVT_ESSC_WRITE_DESCR_RESPONSE\000"
 8871      455F4556 
 8871      545F4553 
 8871      53435F57 
 8871      52495445 
 8872              	.LASF257:
 8873 0f6a 4359424C 		.ascii	"CYBLE_GATTS_ERR_HPS_INVALID_REQUEST\000"
 8873      455F4741 
 8873      5454535F 
 8873      4552525F 
 8873      4850535F 
 8874              	.LASF526:
 8875 0f8e 4359424C 		.ascii	"CYBLE_EVT_IPSC_WRITE_CHAR_RESPONSE\000"
 8875      455F4556 
 8875      545F4950 
 8875      53435F57 
 8875      52495445 
 8876              	.LASF510:
 8877 0fb1 4359424C 		.ascii	"CYBLE_EVT_HTSS_NOTIFICATION_ENABLED\000"
 8877      455F4556 
 8877      545F4854 
 8877      53535F4E 
 8877      4F544946 
 8878              	.LASF232:
 8879 0fd5 4359424C 		.ascii	"CYBLE_GATT_ERR_INVALID_PDU\000"
 8879      455F4741 
 8879      54545F45 
 8879      52525F49 
 8879      4E56414C 
 8880              	.LASF172:
 8881 0ff0 4359424C 		.ascii	"CYBLE_GAP_AUTH_ERROR_CONFIRM_VALUE_NOT_MATCH\000"
 8881      455F4741 
 8881      505F4155 
 8881      54485F45 
 8881      52524F52 
ARM GAS  C:\Users\run1009\AppData\Local\Temp\ccSZtXoF.s 			page 237


 8882              	.LASF122:
 8883 101d 4359424C 		.ascii	"CYBLE_ERROR_CHAR_IS_NOT_DISCOVERED\000"
 8883      455F4552 
 8883      524F525F 
 8883      43484152 
 8883      5F49535F 
 8884              	.LASF660:
 8885 1040 4359424C 		.ascii	"CYBLE_SCDI_COUNT\000"
 8885      455F5343 
 8885      44495F43 
 8885      4F554E54 
 8885      00
 8886              	.LASF598:
 8887 1051 4359424C 		.ascii	"CYBLE_EVT_UDSS_READ_CHAR\000"
 8887      455F4556 
 8887      545F5544 
 8887      53535F52 
 8887      4541445F 
 8888              	.LASF716:
 8889 106a 6379426C 		.ascii	"cyBle_gattc\000"
 8889      655F6761 
 8889      74746300 
 8890              	.LASF355:
 8891 1076 4359424C 		.ascii	"CYBLE_EVT_AIOSS_INDICATION_DISABLED\000"
 8891      455F4556 
 8891      545F4149 
 8891      4F53535F 
 8891      494E4449 
 8892              	.LASF281:
 8893 109a 4359424C 		.ascii	"CYBLE_GATT_HANDLE_VALUE_PAIR_T\000"
 8893      455F4741 
 8893      54545F48 
 8893      414E444C 
 8893      455F5641 
 8894              	.LASF473:
 8895 10b9 4359424C 		.ascii	"CYBLE_EVT_GLSS_NOTIFICATION_ENABLED\000"
 8895      455F4556 
 8895      545F474C 
 8895      53535F4E 
 8895      4F544946 
 8896              	.LASF696:
 8897 10dd 696E6372 		.ascii	"incrementIndex\000"
 8897      656D656E 
 8897      74496E64 
 8897      657800
 8898              	.LASF141:
 8899 10ec 626C6553 		.ascii	"bleSsChId\000"
 8899      73436849 
 8899      6400
 8900              	.LASF466:
 8901 10f6 4359424C 		.ascii	"CYBLE_EVT_ESSC_READ_CHAR_RESPONSE\000"
 8901      455F4556 
 8901      545F4553 
 8901      53435F52 
 8901      4541445F 
 8902              	.LASF489:
 8903 1118 4359424C 		.ascii	"CYBLE_EVT_HIDSC_NOTIFICATION\000"
ARM GAS  C:\Users\run1009\AppData\Local\Temp\ccSZtXoF.s 			page 238


 8903      455F4556 
 8903      545F4849 
 8903      4453435F 
 8903      4E4F5449 
 8904              	.LASF77:
 8905 1135 4359424C 		.ascii	"CYBLE_EVT_L2CAP_COMMAND_REJ\000"
 8905      455F4556 
 8905      545F4C32 
 8905      4341505F 
 8905      434F4D4D 
 8906              	.LASF651:
 8907 1151 7270614F 		.ascii	"rpaOnlyCharHandle\000"
 8907      6E6C7943 
 8907      68617248 
 8907      616E646C 
 8907      6500
 8908              	.LASF210:
 8909 1163 4359424C 		.ascii	"CYBLE_GATT_READ_BLOB_RSP\000"
 8909      455F4741 
 8909      54545F52 
 8909      4541445F 
 8909      424C4F42 
 8910              	.LASF633:
 8911 117c 4359424C 		.ascii	"CYBLE_STATE_DISCONNECTED\000"
 8911      455F5354 
 8911      4154455F 
 8911      44495343 
 8911      4F4E4E45 
 8912              	.LASF241:
 8913 1195 4359424C 		.ascii	"CYBLE_GATT_ERR_INVALID_ATTRIBUTE_LEN\000"
 8913      455F4741 
 8913      54545F45 
 8913      52525F49 
 8913      4E56414C 
 8914              	.LASF486:
 8915 11ba 4359424C 		.ascii	"CYBLE_EVT_HIDSS_SUSPEND\000"
 8915      455F4556 
 8915      545F4849 
 8915      4453535F 
 8915      53555350 
 8916              	.LASF110:
 8917 11d2 4359424C 		.ascii	"CYBLE_ERROR_GATT_DB_INVALID_ATTR_HANDLE\000"
 8917      455F4552 
 8917      524F525F 
 8917      47415454 
 8917      5F44425F 
 8918              	.LASF0:
 8919 11fa 7369676E 		.ascii	"signed char\000"
 8919      65642063 
 8919      68617200 
 8920              	.LASF126:
 8921 1206 4359424C 		.ascii	"CYBLE_LL_PWR_LVL_NEG_18_DBM\000"
 8921      455F4C4C 
 8921      5F505752 
 8921      5F4C564C 
 8921      5F4E4547 
 8922              	.LASF393:
ARM GAS  C:\Users\run1009\AppData\Local\Temp\ccSZtXoF.s 			page 239


 8923 1222 4359424C 		.ascii	"CYBLE_EVT_BCSC_READ_DESCR_RESPONSE\000"
 8923      455F4556 
 8923      545F4243 
 8923      53435F52 
 8923      4541445F 
 8924              	.LASF625:
 8925 1245 4359424C 		.ascii	"CYBLE_EVT_WSSC_WRITE_DESCR_RESPONSE\000"
 8925      455F4556 
 8925      545F5753 
 8925      53435F57 
 8925      52495445 
 8926              	.LASF386:
 8927 1269 4359424C 		.ascii	"CYBLE_EVT_BASC_READ_DESCR_RESPONSE\000"
 8927      455F4556 
 8927      545F4241 
 8927      53435F52 
 8927      4541445F 
 8928              	.LASF201:
 8929 128c 4359424C 		.ascii	"CYBLE_GATT_FIND_INFO_REQ\000"
 8929      455F4741 
 8929      54545F46 
 8929      494E445F 
 8929      494E464F 
 8930              	.LASF22:
 8931 12a5 4359424C 		.ascii	"CYBLE_EVT_HARDWARE_ERROR\000"
 8931      455F4556 
 8931      545F4841 
 8931      52445741 
 8931      52455F45 
 8932              	.LASF690:
 8933 12be 4379426C 		.ascii	"CyBle_EventHandler\000"
 8933      655F4576 
 8933      656E7448 
 8933      616E646C 
 8933      657200
 8934              	.LASF91:
 8935 12d1 4359424C 		.ascii	"CYBLE_ERROR_OK\000"
 8935      455F4552 
 8935      524F525F 
 8935      4F4B00
 8936              	.LASF139:
 8937 12e0 4359424C 		.ascii	"CYBLE_BLESS_PHY_CH_GRP_ID_T\000"
 8937      455F424C 
 8937      4553535F 
 8937      5048595F 
 8937      43485F47 
 8938              	.LASF264:
 8939 12fc 4359424C 		.ascii	"CYBLE_GATT_ERR_CCCD_IMPROPERLY_CONFIGURED\000"
 8939      455F4741 
 8939      54545F45 
 8939      52525F43 
 8939      4343445F 
 8940              	.LASF55:
 8941 1326 4359424C 		.ascii	"CYBLE_EVT_GATTC_READ_BY_GROUP_TYPE_RSP\000"
 8941      455F4556 
 8941      545F4741 
 8941      5454435F 
ARM GAS  C:\Users\run1009\AppData\Local\Temp\ccSZtXoF.s 			page 240


 8941      52454144 
 8942              	.LASF182:
 8943 134d 4359424C 		.ascii	"CYBLE_GAP_AUTH_ERROR_CROSS_TRANSPORT_KEY_GEN_DER_NO"
 8943      455F4741 
 8943      505F4155 
 8943      54485F45 
 8943      52524F52 
 8944 1380 545F414C 		.ascii	"T_ALLOWED\000"
 8944      4C4F5745 
 8944      4400
 8945              	.LASF627:
 8946 138a 4359424C 		.ascii	"CYBLE_STATE_STOPPED\000"
 8946      455F5354 
 8946      4154455F 
 8946      53544F50 
 8946      50454400 
 8947              	.LASF293:
 8948 139e 4359424C 		.ascii	"CYBLE_GATTS_ERR_PARAM_T\000"
 8948      455F4741 
 8948      5454535F 
 8948      4552525F 
 8948      50415241 
 8949              	.LASF1:
 8950 13b6 756E7369 		.ascii	"unsigned char\000"
 8950      676E6564 
 8950      20636861 
 8950      7200
 8951              	.LASF54:
 8952 13c4 4359424C 		.ascii	"CYBLE_EVT_GATTC_XCHNG_MTU_RSP\000"
 8952      455F4556 
 8952      545F4741 
 8952      5454435F 
 8952      5843484E 
 8953              	.LASF425:
 8954 13e2 4359424C 		.ascii	"CYBLE_EVT_CPSS_INDICATION_CONFIRMED\000"
 8954      455F4556 
 8954      545F4350 
 8954      53535F49 
 8954      4E444943 
 8955              	.LASF223:
 8956 1406 4359424C 		.ascii	"CYBLE_GATT_HANDLE_VALUE_IND\000"
 8956      455F4741 
 8956      54545F48 
 8956      414E444C 
 8956      455F5641 
 8957              	.LASF422:
 8958 1422 4359424C 		.ascii	"CYBLE_EVT_CPSS_NOTIFICATION_DISABLED\000"
 8958      455F4556 
 8958      545F4350 
 8958      53535F4E 
 8958      4F544946 
 8959              	.LASF642:
 8960 1447 4359424C 		.ascii	"CYBLE_CLIENT_STATE_DISCONNECTED_DISCOVERED\000"
 8960      455F434C 
 8960      49454E54 
 8960      5F535441 
 8960      54455F44 
ARM GAS  C:\Users\run1009\AppData\Local\Temp\ccSZtXoF.s 			page 241


 8961              	.LASF574:
 8962 1472 4359424C 		.ascii	"CYBLE_EVT_RSCSC_INDICATION\000"
 8962      455F4556 
 8962      545F5253 
 8962      4353435F 
 8962      494E4449 
 8963              	.LASF311:
 8964 148d 4359424C 		.ascii	"CYBLE_GATTC_HANDLE_UUID_LIST_PARAM_T\000"
 8964      455F4741 
 8964      5454435F 
 8964      48414E44 
 8964      4C455F55 
 8965              	.LASF624:
 8966 14b2 4359424C 		.ascii	"CYBLE_EVT_WSSC_READ_DESCR_RESPONSE\000"
 8966      455F4556 
 8966      545F5753 
 8966      53435F52 
 8966      4541445F 
 8967              	.LASF610:
 8968 14d5 4359424C 		.ascii	"CYBLE_EVT_WPTSS_INDICATION_DISABLED\000"
 8968      455F4556 
 8968      545F5750 
 8968      5453535F 
 8968      494E4449 
 8969              	.LASF45:
 8970 14f9 4359424C 		.ascii	"CYBLE_EVT_GAP_SMP_NEGOTIATED_AUTH_INFO\000"
 8970      455F4556 
 8970      545F4741 
 8970      505F534D 
 8970      505F4E45 
 8971              	.LASF46:
 8972 1520 4359424C 		.ascii	"CYBLE_EVT_GAP_CONN_ESTB\000"
 8972      455F4556 
 8972      545F4741 
 8972      505F434F 
 8972      4E4E5F45 
 8973              	.LASF412:
 8974 1538 4359424C 		.ascii	"CYBLE_EVT_CGMSS_NOTIFICATION_ENABLED\000"
 8974      455F4556 
 8974      545F4347 
 8974      4D53535F 
 8974      4E4F5449 
 8975              	.LASF332:
 8976 155d 4359424C 		.ascii	"CYBLE_GATTC_T\000"
 8976      455F4741 
 8976      5454435F 
 8976      5400
 8977              	.LASF339:
 8978 156b 4359424C 		.ascii	"CYBLE_EVT_GATTC_INDICATION\000"
 8978      455F4556 
 8978      545F4741 
 8978      5454435F 
 8978      494E4449 
 8979              	.LASF292:
 8980 1586 6572726F 		.ascii	"errorCode\000"
 8980      72436F64 
 8980      6500
ARM GAS  C:\Users\run1009\AppData\Local\Temp\ccSZtXoF.s 			page 242


 8981              	.LASF732:
 8982 1590 4379426C 		.ascii	"CyBle_GetCharRange\000"
 8982      655F4765 
 8982      74436861 
 8982      7252616E 
 8982      676500
 8983              	.LASF178:
 8984 15a3 4359424C 		.ascii	"CYBLE_GAP_AUTH_ERROR_INVALID_PARAMETERS\000"
 8984      455F4741 
 8984      505F4155 
 8984      54485F45 
 8984      52524F52 
 8985              	.LASF313:
 8986 15cb 75756964 		.ascii	"uuidFormat\000"
 8986      466F726D 
 8986      617400
 8987              	.LASF148:
 8988 15d6 636F6E66 		.ascii	"configMemory\000"
 8988      69674D65 
 8988      6D6F7279 
 8988      00
 8989              	.LASF524:
 8990 15e3 4359424C 		.ascii	"CYBLE_EVT_IPSC_READ_CHAR_RESPONSE\000"
 8990      455F4556 
 8990      545F4950 
 8990      53435F52 
 8990      4541445F 
 8991              	.LASF81:
 8992 1605 4359424C 		.ascii	"CYBLE_EVT_L2CAP_CBFC_DISCONN_CNF\000"
 8992      455F4556 
 8992      545F4C32 
 8992      4341505F 
 8992      43424643 
 8993              	.LASF58:
 8994 1626 4359424C 		.ascii	"CYBLE_EVT_GATTC_FIND_BY_TYPE_VALUE_RSP\000"
 8994      455F4556 
 8994      545F4741 
 8994      5454435F 
 8994      46494E44 
 8995              	.LASF366:
 8996 164d 4359424C 		.ascii	"CYBLE_EVT_ANCSS_NOTIFICATION_ENABLED\000"
 8996      455F4556 
 8996      545F414E 
 8996      4353535F 
 8996      4E4F5449 
 8997              	.LASF42:
 8998 1672 4359424C 		.ascii	"CYBLE_EVT_GAP_DATA_LENGTH_CHANGE\000"
 8998      455F4556 
 8998      545F4741 
 8998      505F4441 
 8998      54415F4C 
 8999              	.LASF586:
 9000 1693 4359424C 		.ascii	"CYBLE_EVT_SCPSC_WRITE_DESCR_RESPONSE\000"
 9000      455F4556 
 9000      545F5343 
 9000      5053435F 
 9000      57524954 
ARM GAS  C:\Users\run1009\AppData\Local\Temp\ccSZtXoF.s 			page 243


 9001              	.LASF16:
 9002 16b8 63686172 		.ascii	"char\000"
 9002      00
 9003              	.LASF130:
 9004 16bd 4359424C 		.ascii	"CYBLE_LL_PWR_LVL_NEG_2_DBM\000"
 9004      455F4C4C 
 9004      5F505752 
 9004      5F4C564C 
 9004      5F4E4547 
 9005              	.LASF589:
 9006 16d8 4359424C 		.ascii	"CYBLE_EVT_TPSC_NOTIFICATION\000"
 9006      455F4556 
 9006      545F5450 
 9006      53435F4E 
 9006      4F544946 
 9007              	.LASF216:
 9008 16f4 4359424C 		.ascii	"CYBLE_GATT_WRITE_RSP\000"
 9008      455F4741 
 9008      54545F57 
 9008      52495445 
 9008      5F525350 
 9009              	.LASF555:
 9010 1709 4359424C 		.ascii	"CYBLE_EVT_PLXSS_NOTIFICATION_ENABLED\000"
 9010      455F4556 
 9010      545F504C 
 9010      5853535F 
 9010      4E4F5449 
 9011              	.LASF61:
 9012 172e 4359424C 		.ascii	"CYBLE_EVT_GATTC_READ_MULTI_RSP\000"
 9012      455F4556 
 9012      545F4741 
 9012      5454435F 
 9012      52454144 
 9013              	.LASF365:
 9014 174d 4359424C 		.ascii	"CYBLE_EVT_AIOSC_ERROR_RESPONSE\000"
 9014      455F4556 
 9014      545F4149 
 9014      4F53435F 
 9014      4552524F 
 9015              	.LASF192:
 9016 176c 4359424C 		.ascii	"CYBLE_GAP_AUTH_INFO_T\000"
 9016      455F4741 
 9016      505F4155 
 9016      54485F49 
 9016      4E464F5F 
 9017              	.LASF165:
 9018 1782 4359424C 		.ascii	"CYBLE_GAP_IOCAP_KEYBOARD_ONLY\000"
 9018      455F4741 
 9018      505F494F 
 9018      4341505F 
 9018      4B455942 
 9019              	.LASF632:
 9020 17a0 4359424C 		.ascii	"CYBLE_STATE_CONNECTING\000"
 9020      455F5354 
 9020      4154455F 
 9020      434F4E4E 
 9020      45435449 
ARM GAS  C:\Users\run1009\AppData\Local\Temp\ccSZtXoF.s 			page 244


 9021              	.LASF19:
 9022 17b7 4359424C 		.ascii	"CYBLE_EVT_HOST_INVALID\000"
 9022      455F4556 
 9022      545F484F 
 9022      53545F49 
 9022      4E56414C 
 9023              	.LASF253:
 9024 17ce 4359424C 		.ascii	"CYBLE_GATT_ERR_MISSING_CRC\000"
 9024      455F4741 
 9024      54545F45 
 9024      52525F4D 
 9024      49535349 
 9025              	.LASF242:
 9026 17e9 4359424C 		.ascii	"CYBLE_GATT_ERR_UNLIKELY_ERROR\000"
 9026      455F4741 
 9026      54545F45 
 9026      52525F55 
 9026      4E4C494B 
 9027              	.LASF44:
 9028 1807 4359424C 		.ascii	"CYBLE_EVT_GAPC_DIRECT_ADV_REPORT\000"
 9028      455F4556 
 9028      545F4741 
 9028      50435F44 
 9028      49524543 
 9029              	.LASF480:
 9030 1828 4359424C 		.ascii	"CYBLE_EVT_GLSC_READ_DESCR_RESPONSE\000"
 9030      455F4556 
 9030      545F474C 
 9030      53435F52 
 9030      4541445F 
 9031              	.LASF199:
 9032 184b 4359424C 		.ascii	"CYBLE_GATT_XCNHG_MTU_REQ\000"
 9032      455F4741 
 9032      54545F58 
 9032      434E4847 
 9032      5F4D5455 
 9033              	.LASF98:
 9034 1864 4359424C 		.ascii	"CYBLE_ERROR_NO_DEVICE_ENTITY\000"
 9034      455F4552 
 9034      524F525F 
 9034      4E4F5F44 
 9034      45564943 
 9035              	.LASF60:
 9036 1881 4359424C 		.ascii	"CYBLE_EVT_GATTC_READ_BLOB_RSP\000"
 9036      455F4556 
 9036      545F4741 
 9036      5454435F 
 9036      52454144 
 9037              	.LASF513:
 9038 189f 4359424C 		.ascii	"CYBLE_EVT_HTSS_INDICATION_DISABLED\000"
 9038      455F4556 
 9038      545F4854 
 9038      53535F49 
 9038      4E444943 
 9039              	.LASF580:
 9040 18c2 4359424C 		.ascii	"CYBLE_EVT_RTUSC_READ_CHAR_RESPONSE\000"
 9040      455F4556 
ARM GAS  C:\Users\run1009\AppData\Local\Temp\ccSZtXoF.s 			page 245


 9040      545F5254 
 9040      5553435F 
 9040      52454144 
 9041              	.LASF677:
 9042 18e5 64657669 		.ascii	"deviceAddress\000"
 9042      63654164 
 9042      64726573 
 9042      7300
 9043              	.LASF711:
 9044 18f3 6379426C 		.ascii	"cyBle_eventHandlerFlag\000"
 9044      655F6576 
 9044      656E7448 
 9044      616E646C 
 9044      6572466C 
 9045              	.LASF67:
 9046 190a 4359424C 		.ascii	"CYBLE_EVT_GATTC_EXEC_WRITE_RSP\000"
 9046      455F4556 
 9046      545F4741 
 9046      5454435F 
 9046      45584543 
 9047              	.LASF247:
 9048 1929 4359424C 		.ascii	"CYBLE_GATT_ERR_HEART_RATE_CONTROL_POINT_NOT_SUPPORT"
 9048      455F4741 
 9048      54545F45 
 9048      52525F48 
 9048      45415254 
 9049 195c 454400   		.ascii	"ED\000"
 9050              	.LASF621:
 9051 195f 4359424C 		.ascii	"CYBLE_EVT_WSSS_INDICATION_CONFIRMED\000"
 9051      455F4556 
 9051      545F5753 
 9051      53535F49 
 9051      4E444943 
 9052              	.LASF239:
 9053 1983 4359424C 		.ascii	"CYBLE_GATT_ERR_ATTRIBUTE_NOT_LONG\000"
 9053      455F4741 
 9053      54545F45 
 9053      52525F41 
 9053      54545249 
 9054              	.LASF454:
 9055 19a5 4359424C 		.ascii	"CYBLE_EVT_CTSC_WRITE_DESCR_RESPONSE\000"
 9055      455F4556 
 9055      545F4354 
 9055      53435F57 
 9055      52495445 
 9056              	.LASF636:
 9057 19c9 4359424C 		.ascii	"CYBLE_CLIENT_STATE_SRVC_DISCOVERING\000"
 9057      455F434C 
 9057      49454E54 
 9057      5F535441 
 9057      54455F53 
 9058              	.LASF529:
 9059 19ed 4359424C 		.ascii	"CYBLE_EVT_IPSC_ERROR_RESPONSE\000"
 9059      455F4556 
 9059      545F4950 
 9059      53435F45 
 9059      52524F52 
ARM GAS  C:\Users\run1009\AppData\Local\Temp\ccSZtXoF.s 			page 246


 9060              	.LASF162:
 9061 1a0b 4359424C 		.ascii	"CYBLE_GAP_SEC_LEVEL_MASK\000"
 9061      455F4741 
 9061      505F5345 
 9061      435F4C45 
 9061      56454C5F 
 9062              	.LASF594:
 9063 1a24 4359424C 		.ascii	"CYBLE_EVT_UDSS_INDICATION_DISABLED\000"
 9063      455F4556 
 9063      545F5544 
 9063      53535F49 
 9063      4E444943 
 9064              	.LASF320:
 9065 1a47 696E636C 		.ascii	"inclDefHandle\000"
 9065      44656648 
 9065      616E646C 
 9065      6500
 9066              	.LASF72:
 9067 1a55 4359424C 		.ascii	"CYBLE_EVT_GATTC_STOP_CMD_COMPLETE\000"
 9067      455F4556 
 9067      545F4741 
 9067      5454435F 
 9067      53544F50 
 9068              	.LASF726:
 9069 1a77 6379426C 		.ascii	"cyBle_gapc\000"
 9069      655F6761 
 9069      706300
 9070              	.LASF428:
 9071 1a82 4359424C 		.ascii	"CYBLE_EVT_CPSS_CHAR_WRITE\000"
 9071      455F4556 
 9071      545F4350 
 9071      53535F43 
 9071      4841525F 
 9072              	.LASF502:
 9073 1a9c 4359424C 		.ascii	"CYBLE_EVT_HRSS_ENERGY_EXPENDED_RESET\000"
 9073      455F4556 
 9073      545F4852 
 9073      53535F45 
 9073      4E455247 
 9074              	.LASF263:
 9075 1ac1 4359424C 		.ascii	"CYBLE_GATT_ERR_ANCS_ACTION_FAILED\000"
 9075      455F4741 
 9075      54545F45 
 9075      52525F41 
 9075      4E43535F 
 9076              	.LASF458:
 9077 1ae3 4359424C 		.ascii	"CYBLE_EVT_ESSS_NOTIFICATION_DISABLED\000"
 9077      455F4556 
 9077      545F4553 
 9077      53535F4E 
 9077      4F544946 
 9078              	.LASF608:
 9079 1b08 4359424C 		.ascii	"CYBLE_EVT_WPTSS_NOTIFICATION_DISABLED\000"
 9079      455F4556 
 9079      545F5750 
 9079      5453535F 
 9079      4E4F5449 
ARM GAS  C:\Users\run1009\AppData\Local\Temp\ccSZtXoF.s 			page 247


 9080              	.LASF721:
 9081 1b2e 6379426C 		.ascii	"cyBle_gaps\000"
 9081      655F6761 
 9081      707300
 9082              	.LASF647:
 9083 1b39 70657269 		.ascii	"periphPrivacyCharHandle\000"
 9083      70685072 
 9083      69766163 
 9083      79436861 
 9083      7248616E 
 9084              	.LASF321:
 9085 1b51 696E636C 		.ascii	"inclHandleRange\000"
 9085      48616E64 
 9085      6C655261 
 9085      6E676500 
 9086              	.LASF398:
 9087 1b61 4359424C 		.ascii	"CYBLE_EVT_BLSS_NOTIFICATION_ENABLED\000"
 9087      455F4556 
 9087      545F424C 
 9087      53535F4E 
 9087      4F544946 
 9088              	.LASF500:
 9089 1b85 4359424C 		.ascii	"CYBLE_EVT_HPSC_WRITE_DESCR_RESPONSE\000"
 9089      455F4556 
 9089      545F4850 
 9089      53435F57 
 9089      52495445 
 9090              	.LASF198:
 9091 1ba9 4359424C 		.ascii	"CYBLE_GATT_ERROR_RSP\000"
 9091      455F4741 
 9091      54545F45 
 9091      52524F52 
 9091      5F525350 
 9092              	.LASF118:
 9093 1bbe 4359424C 		.ascii	"CYBLE_ERROR_CONTROLLER_BUSY\000"
 9093      455F4552 
 9093      524F525F 
 9093      434F4E54 
 9093      524F4C4C 
 9094              	.LASF92:
 9095 1bda 4359424C 		.ascii	"CYBLE_ERROR_INVALID_PARAMETER\000"
 9095      455F4552 
 9095      524F525F 
 9095      494E5641 
 9095      4C49445F 
 9096              	.LASF465:
 9097 1bf8 4359424C 		.ascii	"CYBLE_EVT_ESSC_INDICATION\000"
 9097      455F4556 
 9097      545F4553 
 9097      53435F49 
 9097      4E444943 
 9098              	.LASF372:
 9099 1c12 4359424C 		.ascii	"CYBLE_EVT_ANCSC_WRITE_DESCR_RESPONSE\000"
 9099      455F4556 
 9099      545F414E 
 9099      4353435F 
 9099      57524954 
ARM GAS  C:\Users\run1009\AppData\Local\Temp\ccSZtXoF.s 			page 248


 9100              	.LASF576:
 9101 1c37 4359424C 		.ascii	"CYBLE_EVT_RSCSC_WRITE_CHAR_RESPONSE\000"
 9101      455F4556 
 9101      545F5253 
 9101      4353435F 
 9101      57524954 
 9102              	.LASF503:
 9103 1c5b 4359424C 		.ascii	"CYBLE_EVT_HRSS_NOTIFICATION_ENABLED\000"
 9103      455F4556 
 9103      545F4852 
 9103      53535F4E 
 9103      4F544946 
 9104              	.LASF592:
 9105 1c7f 4359424C 		.ascii	"CYBLE_EVT_TPSC_WRITE_DESCR_RESPONSE\000"
 9105      455F4556 
 9105      545F5450 
 9105      53435F57 
 9105      52495445 
 9106              	.LASF352:
 9107 1ca3 4359424C 		.ascii	"CYBLE_EVT_AIOSS_NOTIFICATION_ENABLED\000"
 9107      455F4556 
 9107      545F4149 
 9107      4F53535F 
 9107      4E4F5449 
 9108              	.LASF437:
 9109 1cc8 4359424C 		.ascii	"CYBLE_EVT_CSCSS_NOTIFICATION_DISABLED\000"
 9109      455F4556 
 9109      545F4353 
 9109      4353535F 
 9109      4E4F5449 
 9110              	.LASF448:
 9111 1cee 4359424C 		.ascii	"CYBLE_EVT_CTSS_NOTIFICATION_ENABLED\000"
 9111      455F4556 
 9111      545F4354 
 9111      53535F4E 
 9111      4F544946 
 9112              	.LASF681:
 9113 1d12 4379426C 		.ascii	"CyBle_GapConnUpdateCompleteEventHandler\000"
 9113      655F4761 
 9113      70436F6E 
 9113      6E557064 
 9113      61746543 
 9114              	.LASF570:
 9115 1d3a 4359424C 		.ascii	"CYBLE_EVT_RSCSS_INDICATION_DISABLED\000"
 9115      455F4556 
 9115      545F5253 
 9115      4353535F 
 9115      494E4449 
 9116              	.LASF612:
 9117 1d5e 4359424C 		.ascii	"CYBLE_EVT_WPTSS_WRITE_CHAR\000"
 9117      455F4556 
 9117      545F5750 
 9117      5453535F 
 9117      57524954 
 9118              	.LASF181:
 9119 1d79 4359424C 		.ascii	"CYBLE_GAP_AUTH_ERROR_BR_EDR_PAIRING_IN_PROGRESS\000"
 9119      455F4741 
ARM GAS  C:\Users\run1009\AppData\Local\Temp\ccSZtXoF.s 			page 249


 9119      505F4155 
 9119      54485F45 
 9119      52524F52 
 9120              	.LASF94:
 9121 1da9 4359424C 		.ascii	"CYBLE_ERROR_MEMORY_ALLOCATION_FAILED\000"
 9121      455F4552 
 9121      524F525F 
 9121      4D454D4F 
 9121      52595F41 
 9122              	.LASF289:
 9123 1dce 70726570 		.ascii	"prepareWriteQueueSize\000"
 9123      61726557 
 9123      72697465 
 9123      51756575 
 9123      6553697A 
 9124              	.LASF508:
 9125 1de4 4359424C 		.ascii	"CYBLE_EVT_HRSC_READ_DESCR_RESPONSE\000"
 9125      455F4556 
 9125      545F4852 
 9125      53435F52 
 9125      4541445F 
 9126              	.LASF713:
 9127 1e07 6379426C 		.ascii	"cyBle_sflashDeviceAddress\000"
 9127      655F7366 
 9127      6C617368 
 9127      44657669 
 9127      63654164 
 9128              	.LASF436:
 9129 1e21 4359424C 		.ascii	"CYBLE_EVT_CSCSS_NOTIFICATION_ENABLED\000"
 9129      455F4556 
 9129      545F4353 
 9129      4353535F 
 9129      4E4F5449 
 9130              	.LASF717:
 9131 1e46 6379426C 		.ascii	"cyBle_gattcDiscoveryRange\000"
 9131      655F6761 
 9131      74746344 
 9131      6973636F 
 9131      76657279 
 9132              	.LASF302:
 9133 1e60 61747472 		.ascii	"attrValue\000"
 9133      56616C75 
 9133      6500
 9134              	.LASF400:
 9135 1e6a 4359424C 		.ascii	"CYBLE_EVT_BLSC_INDICATION\000"
 9135      455F4556 
 9135      545F424C 
 9135      53435F49 
 9135      4E444943 
 9136              	.LASF496:
 9137 1e84 4359424C 		.ascii	"CYBLE_EVT_HPSS_CHAR_WRITE\000"
 9137      455F4556 
 9137      545F4850 
 9137      53535F43 
 9137      4841525F 
 9138              	.LASF691:
 9139 1e9e 4379426C 		.ascii	"CyBle_ReadByGroupEventHandler\000"
ARM GAS  C:\Users\run1009\AppData\Local\Temp\ccSZtXoF.s 			page 250


 9139      655F5265 
 9139      61644279 
 9139      47726F75 
 9139      70457665 
 9140              	.LASF699:
 9141 1ebc 4379426C 		.ascii	"CyBle_ReadByTypeEventHandler\000"
 9141      655F5265 
 9141      61644279 
 9141      54797065 
 9141      4576656E 
 9142              	.LASF225:
 9143 1ed9 4359424C 		.ascii	"CYBLE_GATT_SIGNED_WRITE_CMD\000"
 9143      455F4741 
 9143      54545F53 
 9143      49474E45 
 9143      445F5752 
 9144              	.LASF488:
 9145 1ef5 4359424C 		.ascii	"CYBLE_EVT_HIDSS_REPORT_CHAR_WRITE\000"
 9145      455F4556 
 9145      545F4849 
 9145      4453535F 
 9145      5245504F 
 9146              	.LASF388:
 9147 1f17 4359424C 		.ascii	"CYBLE_EVT_BCSS_INDICATION_ENABLED\000"
 9147      455F4556 
 9147      545F4243 
 9147      53535F49 
 9147      4E444943 
 9148              	.LASF254:
 9149 1f39 4359424C 		.ascii	"CYBLE_GATTS_ERR_CCCD_IMPROPERLY_CONFIGURED\000"
 9149      455F4741 
 9149      5454535F 
 9149      4552525F 
 9149      43434344 
 9150              	.LASF616:
 9151 1f64 4359424C 		.ascii	"CYBLE_EVT_WPTSC_READ_CHAR_RESPONSE\000"
 9151      455F4556 
 9151      545F5750 
 9151      5453435F 
 9151      52454144 
 9152              	.LASF221:
 9153 1f87 4359424C 		.ascii	"CYBLE_GATT_EXECUTE_WRITE_RSP\000"
 9153      455F4741 
 9153      54545F45 
 9153      58454355 
 9153      54455F57 
 9154              	.LASF119:
 9155 1fa4 4359424C 		.ascii	"CYBLE_ERROR_MAX\000"
 9155      455F4552 
 9155      524F525F 
 9155      4D415800 
 9156              	.LASF543:
 9157 1fb4 4359424C 		.ascii	"CYBLE_EVT_LNSC_WRITE_CHAR_RESPONSE\000"
 9157      455F4556 
 9157      545F4C4E 
 9157      53435F57 
 9157      52495445 
ARM GAS  C:\Users\run1009\AppData\Local\Temp\ccSZtXoF.s 			page 251


 9158              	.LASF76:
 9159 1fd7 4359424C 		.ascii	"CYBLE_EVT_L2CAP_CONN_PARAM_UPDATE_RSP\000"
 9159      455F4556 
 9159      545F4C32 
 9159      4341505F 
 9159      434F4E4E 
 9160              	.LASF185:
 9161 1ffd 4359424C 		.ascii	"CYBLE_GAP_AUTH_ERROR_LINK_DISCONNECTED\000"
 9161      455F4741 
 9161      505F4155 
 9161      54485F45 
 9161      52524F52 
 9162              	.LASF88:
 9163 2024 4359424C 		.ascii	"CYBLE_EVT_HCI_PKT\000"
 9163      455F4556 
 9163      545F4843 
 9163      495F504B 
 9163      5400
 9164              	.LASF597:
 9165 2036 4359424C 		.ascii	"CYBLE_EVT_UDSS_NOTIFICATION_DISABLED\000"
 9165      455F4556 
 9165      545F5544 
 9165      53535F4E 
 9165      4F544946 
 9166              	.LASF447:
 9167 205b 4359424C 		.ascii	"CYBLE_EVT_CSCSC_WRITE_DESCR_RESPONSE\000"
 9167      455F4556 
 9167      545F4353 
 9167      4353435F 
 9167      57524954 
 9168              	.LASF728:
 9169 2080 474E5520 		.ascii	"GNU C11 5.4.1 20160609 (release) [ARM/embedded-5-br"
 9169      43313120 
 9169      352E342E 
 9169      31203230 
 9169      31363036 
 9170 20b3 616E6368 		.ascii	"anch revision 237715] -mcpu=cortex-m0 -mthumb -g -O"
 9170      20726576 
 9170      6973696F 
 9170      6E203233 
 9170      37373135 
 9171 20e6 30202D66 		.ascii	"0 -ffunction-sections -ffat-lto-objects\000"
 9171      66756E63 
 9171      74696F6E 
 9171      2D736563 
 9171      74696F6E 
 9172              	.LASF599:
 9173 210e 4359424C 		.ascii	"CYBLE_EVT_UDSS_WRITE_CHAR\000"
 9173      455F4556 
 9173      545F5544 
 9173      53535F57 
 9173      52495445 
 9174              	.LASF562:
 9175 2128 4359424C 		.ascii	"CYBLE_EVT_PLXSC_READ_CHAR_RESPONSE\000"
 9175      455F4556 
 9175      545F504C 
 9175      5853435F 
ARM GAS  C:\Users\run1009\AppData\Local\Temp\ccSZtXoF.s 			page 252


 9175      52454144 
 9176              	.LASF440:
 9177 214b 4359424C 		.ascii	"CYBLE_EVT_CSCSS_INDICATION_CONFIRMATION\000"
 9177      455F4556 
 9177      545F4353 
 9177      4353535F 
 9177      494E4449 
 9178              	.LASF322:
 9179 2173 4359424C 		.ascii	"CYBLE_DISC_INCL_INFO_T\000"
 9179      455F4449 
 9179      53435F49 
 9179      4E434C5F 
 9179      494E464F 
 9180              	.LASF329:
 9181 218a 4359424C 		.ascii	"CYBLE_DISC_DESCR_INFO_T\000"
 9181      455F4449 
 9181      53435F44 
 9181      45534352 
 9181      5F494E46 
 9182              	.LASF282:
 9183 21a2 73746172 		.ascii	"startHandle\000"
 9183      7448616E 
 9183      646C6500 
 9184              	.LASF248:
 9185 21ae 4359424C 		.ascii	"CYBLE_GATT_ERR_USER_DATA_ACCESS_NOT_PERMITTED\000"
 9185      455F4741 
 9185      54545F45 
 9185      52525F55 
 9185      5345525F 
 9186              	.LASF310:
 9187 21dc 62797465 		.ascii	"byteCount\000"
 9187      436F756E 
 9187      7400
 9188              	.LASF654:
 9189 21e6 4359424C 		.ascii	"CYBLE_SRVI_GATT\000"
 9189      455F5352 
 9189      56495F47 
 9189      41545400 
 9190              	.LASF30:
 9191 21f6 4359424C 		.ascii	"CYBLE_EVT_GAP_AUTH_COMPLETE\000"
 9191      455F4556 
 9191      545F4741 
 9191      505F4155 
 9191      54485F43 
 9192              	.LASF552:
 9193 2212 4359424C 		.ascii	"CYBLE_EVT_PASSC_READ_DESCR_RESPONSE\000"
 9193      455F4556 
 9193      545F5041 
 9193      5353435F 
 9193      52454144 
 9194              	.LASF468:
 9195 2236 4359424C 		.ascii	"CYBLE_EVT_ESSC_READ_DESCR_RESPONSE\000"
 9195      455F4556 
 9195      545F4553 
 9195      53435F52 
 9195      4541445F 
 9196              	.LASF31:
ARM GAS  C:\Users\run1009\AppData\Local\Temp\ccSZtXoF.s 			page 253


 9197 2259 4359424C 		.ascii	"CYBLE_EVT_GAP_AUTH_FAILED\000"
 9197      455F4556 
 9197      545F4741 
 9197      505F4155 
 9197      54485F46 
 9198              	.LASF487:
 9199 2273 4359424C 		.ascii	"CYBLE_EVT_HIDSS_EXIT_SUSPEND\000"
 9199      455F4556 
 9199      545F4849 
 9199      4453535F 
 9199      45584954 
 9200              	.LASF147:
 9201 2290 616C6C6F 		.ascii	"allocFree\000"
 9201      63467265 
 9201      6500
 9202              	.LASF124:
 9203 229a 4359424C 		.ascii	"CYBLE_ERROR_STACK_BUSY\000"
 9203      455F4552 
 9203      524F525F 
 9203      53544143 
 9203      4B5F4255 
 9204              	.LASF307:
 9205 22b1 4359424C 		.ascii	"CYBLE_GATTC_READ_BY_GRP_RSP_PARAM_T\000"
 9205      455F4741 
 9205      5454435F 
 9205      52454144 
 9205      5F42595F 
 9206              	.LASF214:
 9207 22d5 4359424C 		.ascii	"CYBLE_GATT_READ_BY_GROUP_RSP\000"
 9207      455F4741 
 9207      54545F52 
 9207      4541445F 
 9207      42595F47 
 9208              	.LASF95:
 9209 22f2 4359424C 		.ascii	"CYBLE_ERROR_INSUFFICIENT_RESOURCES\000"
 9209      455F4552 
 9209      524F525F 
 9209      494E5355 
 9209      46464943 
 9210              	.LASF568:
 9211 2315 4359424C 		.ascii	"CYBLE_EVT_RSCSS_NOTIFICATION_DISABLED\000"
 9211      455F4556 
 9211      545F5253 
 9211      4353535F 
 9211      4E4F5449 
 9212              	.LASF252:
 9213 233b 4359424C 		.ascii	"CYBLE_GATT_ERR_OP_CODE_NOT_SUPPORTED\000"
 9213      455F4741 
 9213      54545F45 
 9213      52525F4F 
 9213      505F434F 
 9214              	.LASF491:
 9215 2360 4359424C 		.ascii	"CYBLE_EVT_HIDSC_WRITE_CHAR_RESPONSE\000"
 9215      455F4556 
 9215      545F4849 
 9215      4453435F 
 9215      57524954 
ARM GAS  C:\Users\run1009\AppData\Local\Temp\ccSZtXoF.s 			page 254


 9216              	.LASF133:
 9217 2384 4359424C 		.ascii	"CYBLE_LL_PWR_LVL_3_DBM\000"
 9217      455F4C4C 
 9217      5F505752 
 9217      5F4C564C 
 9217      5F335F44 
 9218              	.LASF5:
 9219 239b 6C6F6E67 		.ascii	"long unsigned int\000"
 9219      20756E73 
 9219      69676E65 
 9219      6420696E 
 9219      7400
 9220              	.LASF207:
 9221 23ad 4359424C 		.ascii	"CYBLE_GATT_READ_REQ\000"
 9221      455F4741 
 9221      54545F52 
 9221      4541445F 
 9221      52455100 
 9222              	.LASF527:
 9223 23c1 4359424C 		.ascii	"CYBLE_EVT_IPSC_READ_DESCR_RESPONSE\000"
 9223      455F4556 
 9223      545F4950 
 9223      53435F52 
 9223      4541445F 
 9224              	.LASF670:
 9225 23e4 4379426C 		.ascii	"CyBle_IndicationEventHandler\000"
 9225      655F496E 
 9225      64696361 
 9225      74696F6E 
 9225      4576656E 
 9226              	.LASF522:
 9227 2401 4359424C 		.ascii	"CYBLE_EVT_IASS_WRITE_CHAR_CMD\000"
 9227      455F4556 
 9227      545F4941 
 9227      53535F57 
 9227      52495445 
 9228              	.LASF193:
 9229 241f 73746174 		.ascii	"status\000"
 9229      757300
 9230              	.LASF131:
 9231 2426 4359424C 		.ascii	"CYBLE_LL_PWR_LVL_NEG_1_DBM\000"
 9231      455F4C4C 
 9231      5F505752 
 9231      5F4C564C 
 9231      5F4E4547 
 9232              	.LASF115:
 9233 2441 4359424C 		.ascii	"CYBLE_ERROR_UNSUPPORTED_FEATURE_OR_PARAMETER_VALUE\000"
 9233      455F4552 
 9233      524F525F 
 9233      554E5355 
 9233      50504F52 
 9234              	.LASF360:
 9235 2474 4359424C 		.ascii	"CYBLE_EVT_AIOSC_INDICATION\000"
 9235      455F4556 
 9235      545F4149 
 9235      4F53435F 
 9235      494E4449 
ARM GAS  C:\Users\run1009\AppData\Local\Temp\ccSZtXoF.s 			page 255


 9236              	.LASF144:
 9237 248f 4359424C 		.ascii	"CYBLE_INVALID_REQUEST\000"
 9237      455F494E 
 9237      56414C49 
 9237      445F5245 
 9237      51554553 
 9238              	.LASF609:
 9239 24a5 4359424C 		.ascii	"CYBLE_EVT_WPTSS_INDICATION_ENABLED\000"
 9239      455F4556 
 9239      545F5750 
 9239      5453535F 
 9239      494E4449 
 9240              	.LASF175:
 9241 24c8 4359424C 		.ascii	"CYBLE_GAP_AUTH_ERROR_COMMAND_NOT_SUPPORTED\000"
 9241      455F4741 
 9241      505F4155 
 9241      54485F45 
 9241      52524F52 
 9242              	.LASF171:
 9243 24f3 4359424C 		.ascii	"CYBLE_GAP_AUTH_ERROR_AUTHENTICATION_REQ_NOT_MET\000"
 9243      455F4741 
 9243      505F4155 
 9243      54485F45 
 9243      52524F52 
 9244              	.LASF327:
 9245 2523 4359424C 		.ascii	"CYBLE_SRVR_CHAR_INFO_T\000"
 9245      455F5352 
 9245      56525F43 
 9245      4841525F 
 9245      494E464F 
 9246              	.LASF222:
 9247 253a 4359424C 		.ascii	"CYBLE_GATT_HANDLE_VALUE_NTF\000"
 9247      455F4741 
 9247      54545F48 
 9247      414E444C 
 9247      455F5641 
 9248              	.LASF556:
 9249 2556 4359424C 		.ascii	"CYBLE_EVT_PLXSS_NOTIFICATION_DISABLED\000"
 9249      455F4556 
 9249      545F504C 
 9249      5853535F 
 9249      4E4F5449 
 9250              	.LASF378:
 9251 257c 4359424C 		.ascii	"CYBLE_EVT_ANSC_READ_CHAR_RESPONSE\000"
 9251      455F4556 
 9251      545F414E 
 9251      53435F52 
 9251      4541445F 
 9252              	.LASF105:
 9253 259e 4359424C 		.ascii	"CYBLE_ERROR_L2CAP_PSM_ALREADY_REGISTERED\000"
 9253      455F4552 
 9253      524F525F 
 9253      4C324341 
 9253      505F5053 
 9254              	.LASF270:
 9255 25c7 4359424C 		.ascii	"CYBLE_UUID128_T\000"
 9255      455F5555 
ARM GAS  C:\Users\run1009\AppData\Local\Temp\ccSZtXoF.s 			page 256


 9255      49443132 
 9255      385F5400 
 9256              	.LASF701:
 9257 25d7 64697363 		.ascii	"discInclInfo\000"
 9257      496E636C 
 9257      496E666F 
 9257      00
 9258              	.LASF515:
 9259 25e4 4359424C 		.ascii	"CYBLE_EVT_HTSS_CHAR_WRITE\000"
 9259      455F4556 
 9259      545F4854 
 9259      53535F43 
 9259      4841525F 
 9260              	.LASF24:
 9261 25fe 4359424C 		.ascii	"CYBLE_EVT_STACK_BUSY_STATUS\000"
 9261      455F4556 
 9261      545F5354 
 9261      41434B5F 
 9261      42555359 
 9262              	.LASF260:
 9263 261a 4359424C 		.ascii	"CYBLE_GATT_ERR_ANCS_UNKNOWN_COMMAND\000"
 9263      455F4741 
 9263      54545F45 
 9263      52525F41 
 9263      4E43535F 
 9264              	.LASF382:
 9265 263e 4359424C 		.ascii	"CYBLE_EVT_BASS_NOTIFICATION_ENABLED\000"
 9265      455F4556 
 9265      545F4241 
 9265      53535F4E 
 9265      4F544946 
 9266              	.LASF456:
 9267 2662 4359424C 		.ascii	"CYBLE_EVT_DISC_READ_CHAR_RESPONSE\000"
 9267      455F4556 
 9267      545F4449 
 9267      53435F52 
 9267      4541445F 
 9268              	.LASF455:
 9269 2684 4359424C 		.ascii	"CYBLE_EVT_CTSC_WRITE_CHAR_RESPONSE\000"
 9269      455F4556 
 9269      545F4354 
 9269      53435F57 
 9269      52495445 
 9270              	.LASF549:
 9271 26a7 4359424C 		.ascii	"CYBLE_EVT_PASSS_WRITE_CHAR\000"
 9271      455F4556 
 9271      545F5041 
 9271      5353535F 
 9271      57524954 
 9272              	.LASF432:
 9273 26c2 4359424C 		.ascii	"CYBLE_EVT_CPSC_WRITE_CHAR_RESPONSE\000"
 9273      455F4556 
 9273      545F4350 
 9273      53435F57 
 9273      52495445 
 9274              	.LASF563:
 9275 26e5 4359424C 		.ascii	"CYBLE_EVT_PLXSC_WRITE_CHAR_RESPONSE\000"
ARM GAS  C:\Users\run1009\AppData\Local\Temp\ccSZtXoF.s 			page 257


 9275      455F4556 
 9275      545F504C 
 9275      5853435F 
 9275      57524954 
 9276              	.LASF290:
 9277 2709 4359424C 		.ascii	"CYBLE_PREPARE_WRITE_REQUEST_MEMORY_T\000"
 9277      455F5052 
 9277      45504152 
 9277      455F5752 
 9277      4954455F 
 9278              	.LASF733:
 9279 272e 4379426C 		.ascii	"CyBle_LongProcedureEndEventHandler\000"
 9279      655F4C6F 
 9279      6E675072 
 9279      6F636564 
 9279      75726545 
 9280              	.LASF36:
 9281 2751 4359424C 		.ascii	"CYBLE_EVT_GAP_CONNECTION_UPDATE_COMPLETE\000"
 9281      455F4556 
 9281      545F4741 
 9281      505F434F 
 9281      4E4E4543 
 9282              	.LASF417:
 9283 277a 4359424C 		.ascii	"CYBLE_EVT_CGMSC_READ_CHAR_RESPONSE\000"
 9283      455F4556 
 9283      545F4347 
 9283      4D53435F 
 9283      52454144 
 9284              	.LASF698:
 9285 279d 64697363 		.ascii	"discCharInfo\000"
 9285      43686172 
 9285      496E666F 
 9285      00
 9286              	.LASF268:
 9287 27aa 4359424C 		.ascii	"CYBLE_UUID16\000"
 9287      455F5555 
 9287      49443136 
 9287      00
 9288              	.LASF689:
 9289 27b7 6379426C 		.ascii	"cyBle_mtuSize\000"
 9289      655F6D74 
 9289      7553697A 
 9289      6500
 9290              	.LASF177:
 9291 27c5 4359424C 		.ascii	"CYBLE_GAP_AUTH_ERROR_REPEATED_ATTEMPTS\000"
 9291      455F4741 
 9291      505F4155 
 9291      54485F45 
 9291      52524F52 
 9292              	.LASF80:
 9293 27ec 4359424C 		.ascii	"CYBLE_EVT_L2CAP_CBFC_DISCONN_IND\000"
 9293      455F4556 
 9293      545F4C32 
 9293      4341505F 
 9293      43424643 
 9294              	.LASF441:
 9295 280d 4359424C 		.ascii	"CYBLE_EVT_CSCSS_CHAR_WRITE\000"
ARM GAS  C:\Users\run1009\AppData\Local\Temp\ccSZtXoF.s 			page 258


 9295      455F4556 
 9295      545F4353 
 9295      4353535F 
 9295      43484152 
 9296              	.LASF306:
 9297 2828 61747472 		.ascii	"attrData\000"
 9297      44617461 
 9297      00
 9298              	.LASF643:
 9299 2831 4359424C 		.ascii	"CYBLE_CLIENT_STATE_DISCONNECTED\000"
 9299      455F434C 
 9299      49454E54 
 9299      5F535441 
 9299      54455F44 
 9300              	.LASF558:
 9301 2851 4359424C 		.ascii	"CYBLE_EVT_PLXSS_INDICATION_DISABLED\000"
 9301      455F4556 
 9301      545F504C 
 9301      5853535F 
 9301      494E4449 
 9302              	.LASF575:
 9303 2875 4359424C 		.ascii	"CYBLE_EVT_RSCSC_READ_CHAR_RESPONSE\000"
 9303      455F4556 
 9303      545F5253 
 9303      4353435F 
 9303      52454144 
 9304              	.LASF704:
 9305 2898 4379426C 		.ascii	"CyBle_FindInfoEventHandler\000"
 9305      655F4669 
 9305      6E64496E 
 9305      666F4576 
 9305      656E7448 
 9306              	.LASF28:
 9307 28b3 4359424C 		.ascii	"CYBLE_EVT_GAP_PASSKEY_ENTRY_REQUEST\000"
 9307      455F4556 
 9307      545F4741 
 9307      505F5041 
 9307      53534B45 
 9308              	.LASF179:
 9309 28d7 4359424C 		.ascii	"CYBLE_GAP_AUTH_ERROR_DHKEY_CHECK_FAILED\000"
 9309      455F4741 
 9309      505F4155 
 9309      54485F45 
 9309      52524F52 
 9310              	.LASF135:
 9311 28ff 4359424C 		.ascii	"CYBLE_BLESS_PWR_LVL_T\000"
 9311      455F424C 
 9311      4553535F 
 9311      5057525F 
 9311      4C564C5F 
 9312              	.LASF497:
 9313 2915 4359424C 		.ascii	"CYBLE_EVT_HPSC_NOTIFICATION\000"
 9313      455F4556 
 9313      545F4850 
 9313      53435F4E 
 9313      4F544946 
 9314              	.LASF426:
ARM GAS  C:\Users\run1009\AppData\Local\Temp\ccSZtXoF.s 			page 259


 9315 2931 4359424C 		.ascii	"CYBLE_EVT_CPSS_BROADCAST_ENABLED\000"
 9315      455F4556 
 9315      545F4350 
 9315      53535F42 
 9315      524F4144 
 9316              	.LASF676:
 9317 2952 4379426C 		.ascii	"CyBle_GattConnectReqHandler\000"
 9317      655F4761 
 9317      7474436F 
 9317      6E6E6563 
 9317      74526571 
 9318              	.LASF658:
 9319 296e 4359424C 		.ascii	"CYBLE_SCDI_GATT_SERVICE_CHANGED\000"
 9319      455F5343 
 9319      44495F47 
 9319      4154545F 
 9319      53455256 
 9320              	.LASF528:
 9321 298e 4359424C 		.ascii	"CYBLE_EVT_IPSC_WRITE_DESCR_RESPONSE\000"
 9321      455F4556 
 9321      545F4950 
 9321      53435F57 
 9321      52495445 
 9322              	.LASF9:
 9323 29b2 5F5F7569 		.ascii	"__uint32_t\000"
 9323      6E743332 
 9323      5F7400
 9324              	.LASF174:
 9325 29bd 4359424C 		.ascii	"CYBLE_GAP_AUTH_ERROR_INSUFFICIENT_ENCRYPTION_KEY_SI"
 9325      455F4741 
 9325      505F4155 
 9325      54485F45 
 9325      52524F52 
 9326 29f0 5A4500   		.ascii	"ZE\000"
 9327              	.LASF565:
 9328 29f3 4359424C 		.ascii	"CYBLE_EVT_PLXSC_WRITE_DESCR_RESPONSE\000"
 9328      455F4556 
 9328      545F504C 
 9328      5853435F 
 9328      57524954 
 9329              	.LASF730:
 9330 2a18 433A5C55 		.ascii	"C:\\Users\\run1009\\Documents\\Mesh_Flood_DIR_Senso"
 9330      73657273 
 9330      5C72756E 
 9330      31303039 
 9330      5C446F63 
 9331 2a47 725C4D65 		.ascii	"r\\Mesh_Flood_DIR_Sensor.cydsn\000"
 9331      73685F46 
 9331      6C6F6F64 
 9331      5F444952 
 9331      5F53656E 
 9332              	.LASF494:
 9333 2a65 4359424C 		.ascii	"CYBLE_EVT_HPSS_NOTIFICATION_ENABLED\000"
 9333      455F4556 
 9333      545F4850 
 9333      53535F4E 
 9333      4F544946 
ARM GAS  C:\Users\run1009\AppData\Local\Temp\ccSZtXoF.s 			page 260


 9334              	.LASF516:
 9335 2a89 4359424C 		.ascii	"CYBLE_EVT_HTSC_NOTIFICATION\000"
 9335      455F4556 
 9335      545F4854 
 9335      53435F4E 
 9335      4F544946 
 9336              	.LASF6:
 9337 2aa5 6C6F6E67 		.ascii	"long long int\000"
 9337      206C6F6E 
 9337      6720696E 
 9337      7400
 9338              	.LASF675:
 9339 2ab3 4379426C 		.ascii	"CyBle_GattDisconnectEventHandler\000"
 9339      655F4761 
 9339      74744469 
 9339      73636F6E 
 9339      6E656374 
 9340              	.LASF590:
 9341 2ad4 4359424C 		.ascii	"CYBLE_EVT_TPSC_READ_CHAR_RESPONSE\000"
 9341      455F4556 
 9341      545F5450 
 9341      53435F52 
 9341      4541445F 
 9342              	.LASF149:
 9343 2af6 4359424C 		.ascii	"CYBLE_MEMORY_REQUEST_T\000"
 9343      455F4D45 
 9343      4D4F5259 
 9343      5F524551 
 9343      55455354 
 9344              	.LASF187:
 9345 2b0d 73656375 		.ascii	"security\000"
 9345      72697479 
 9345      00
 9346              	.LASF697:
 9347 2b16 4379426C 		.ascii	"CyBle_GapcDiscoverCharacteristicsEventHandler\000"
 9347      655F4761 
 9347      70634469 
 9347      73636F76 
 9347      65724368 
 9348              	.LASF724:
 9349 2b44 6379426C 		.ascii	"cyBle_clientState\000"
 9349      655F636C 
 9349      69656E74 
 9349      53746174 
 9349      6500
 9350              	.LASF237:
 9351 2b56 4359424C 		.ascii	"CYBLE_GATT_ERR_PREPARE_WRITE_QUEUE_FULL\000"
 9351      455F4741 
 9351      54545F45 
 9351      52525F50 
 9351      52455041 
 9352              	.LASF498:
 9353 2b7e 4359424C 		.ascii	"CYBLE_EVT_HPSC_READ_CHAR_RESPONSE\000"
 9353      455F4556 
 9353      545F4850 
 9353      53435F52 
 9353      4541445F 
ARM GAS  C:\Users\run1009\AppData\Local\Temp\ccSZtXoF.s 			page 261


 9354              	.LASF106:
 9355 2ba0 4359424C 		.ascii	"CYBLE_ERROR_L2CAP_PSM_NOT_REGISTERED\000"
 9355      455F4552 
 9355      524F525F 
 9355      4C324341 
 9355      505F5053 
 9356              	.LASF96:
 9357 2bc5 4359424C 		.ascii	"CYBLE_ERROR_OOB_NOT_AVAILABLE\000"
 9357      455F4552 
 9357      524F525F 
 9357      4F4F425F 
 9357      4E4F545F 
 9358              	.LASF409:
 9359 2be3 4359424C 		.ascii	"CYBLE_EVT_CGMSS_INDICATION_ENABLED\000"
 9359      455F4556 
 9359      545F4347 
 9359      4D53535F 
 9359      494E4449 
 9360              	.LASF15:
 9361 2c06 646F7562 		.ascii	"double\000"
 9361      6C6500
 9362              	.LASF111:
 9363 2c0d 4359424C 		.ascii	"CYBLE_ERROR_DEVICE_ALREADY_EXISTS\000"
 9363      455F4552 
 9363      524F525F 
 9363      44455649 
 9363      43455F41 
 9364              	.LASF460:
 9365 2c2f 4359424C 		.ascii	"CYBLE_EVT_ESSS_INDICATION_DISABLED\000"
 9365      455F4556 
 9365      545F4553 
 9365      53535F49 
 9365      4E444943 
 9366              	.LASF86:
 9367 2c52 4359424C 		.ascii	"CYBLE_EVT_PENDING_FLASH_WRITE\000"
 9367      455F4556 
 9367      545F5045 
 9367      4E44494E 
 9367      475F464C 
 9368              	.LASF240:
 9369 2c70 4359424C 		.ascii	"CYBLE_GATT_ERR_INSUFFICIENT_ENC_KEY_SIZE\000"
 9369      455F4741 
 9369      54545F45 
 9369      52525F49 
 9369      4E535546 
 9370              	.LASF134:
 9371 2c99 4359424C 		.ascii	"CYBLE_LL_PWR_LVL_MAX\000"
 9371      455F4C4C 
 9371      5F505752 
 9371      5F4C564C 
 9371      5F4D4158 
 9372              	.LASF607:
 9373 2cae 4359424C 		.ascii	"CYBLE_EVT_WPTSS_NOTIFICATION_ENABLED\000"
 9373      455F4556 
 9373      545F5750 
 9373      5453535F 
 9373      4E4F5449 
ARM GAS  C:\Users\run1009\AppData\Local\Temp\ccSZtXoF.s 			page 262


 9374              	.LASF645:
 9375 2cd3 64657669 		.ascii	"deviceNameCharHandle\000"
 9375      63654E61 
 9375      6D654368 
 9375      61724861 
 9375      6E646C65 
 9376              	.LASF296:
 9377 2ce8 6F70436F 		.ascii	"opCode\000"
 9377      646500
 9378              	.LASF265:
 9379 2cef 4359424C 		.ascii	"CYBLE_GATT_ERR_PROCEDURE_ALREADY_IN_PROGRESS\000"
 9379      455F4741 
 9379      54545F45 
 9379      52525F50 
 9379      524F4345 
 9380              	.LASF545:
 9381 2d1c 4359424C 		.ascii	"CYBLE_EVT_LNSC_WRITE_DESCR_RESPONSE\000"
 9381      455F4556 
 9381      545F4C4E 
 9381      53435F57 
 9381      52495445 
 9382              	.LASF43:
 9383 2d40 4359424C 		.ascii	"CYBLE_EVT_GAP_ENHANCE_CONN_COMPLETE\000"
 9383      455F4556 
 9383      545F4741 
 9383      505F454E 
 9383      48414E43 
 9384              	.LASF532:
 9385 2d64 4359424C 		.ascii	"CYBLE_EVT_LLSC_READ_CHAR_RESPONSE\000"
 9385      455F4556 
 9385      545F4C4C 
 9385      53435F52 
 9385      4541445F 
 9386              	.LASF305:
 9387 2d86 4359424C 		.ascii	"CYBLE_GATTC_GRP_ATTR_DATA_LIST_T\000"
 9387      455F4741 
 9387      5454435F 
 9387      4752505F 
 9387      41545452 
 9388              	.LASF108:
 9389 2da7 4359424C 		.ascii	"CYBLE_ERROR_L2CAP_CHANNEL_NOT_FOUND\000"
 9389      455F4552 
 9389      524F525F 
 9389      4C324341 
 9389      505F4348 
 9390              	.LASF99:
 9391 2dcb 4359424C 		.ascii	"CYBLE_ERROR_REPEATED_ATTEMPTS\000"
 9391      455F4552 
 9391      524F525F 
 9391      52455045 
 9391      41544544 
 9392              	.LASF463:
 9393 2de9 4359424C 		.ascii	"CYBLE_EVT_ESSS_DESCR_WRITE\000"
 9393      455F4556 
 9393      545F4553 
 9393      53535F44 
 9393      45534352 
ARM GAS  C:\Users\run1009\AppData\Local\Temp\ccSZtXoF.s 			page 263


 9394              	.LASF459:
 9395 2e04 4359424C 		.ascii	"CYBLE_EVT_ESSS_INDICATION_ENABLED\000"
 9395      455F4556 
 9395      545F4553 
 9395      53535F49 
 9395      4E444943 
 9396              	.LASF666:
 9397 2e26 4379426C 		.ascii	"CyBle_ValueConfirmation\000"
 9397      655F5661 
 9397      6C756543 
 9397      6F6E6669 
 9397      726D6174 
 9398              	.LASF445:
 9399 2e3e 4359424C 		.ascii	"CYBLE_EVT_CSCSC_WRITE_CHAR_RESPONSE\000"
 9399      455F4556 
 9399      545F4353 
 9399      4353435F 
 9399      57524954 
 9400              	.LASF14:
 9401 2e62 666C6F61 		.ascii	"float\000"
 9401      7400
 9402              	.LASF584:
 9403 2e68 4359424C 		.ascii	"CYBLE_EVT_SCPSC_NOTIFICATION\000"
 9403      455F4556 
 9403      545F5343 
 9403      5053435F 
 9403      4E4F5449 
 9404              	.LASF485:
 9405 2e85 4359424C 		.ascii	"CYBLE_EVT_HIDSS_REPORT_MODE_ENTER\000"
 9405      455F4556 
 9405      545F4849 
 9405      4453535F 
 9405      5245504F 
 9406              	.LASF464:
 9407 2ea7 4359424C 		.ascii	"CYBLE_EVT_ESSC_NOTIFICATION\000"
 9407      455F4556 
 9407      545F4553 
 9407      53435F4E 
 9407      4F544946 
 9408              	.LASF112:
 9409 2ec3 4359424C 		.ascii	"CYBLE_ERROR_FLASH_WRITE_NOT_PERMITED\000"
 9409      455F4552 
 9409      524F525F 
 9409      464C4153 
 9409      485F5752 
 9410              	.LASF483:
 9411 2ee8 4359424C 		.ascii	"CYBLE_EVT_HIDSS_NOTIFICATION_DISABLED\000"
 9411      455F4556 
 9411      545F4849 
 9411      4453535F 
 9411      4E4F5449 
 9412              	.LASF73:
 9413 2f0e 4359424C 		.ascii	"CYBLE_EVT_GATTS_READ_CHAR_VAL_ACCESS_REQ\000"
 9413      455F4556 
 9413      545F4741 
 9413      5454535F 
 9413      52454144 
ARM GAS  C:\Users\run1009\AppData\Local\Temp\ccSZtXoF.s 			page 264


 9414              	.LASF371:
 9415 2f37 4359424C 		.ascii	"CYBLE_EVT_ANCSC_READ_DESCR_RESPONSE\000"
 9415      455F4556 
 9415      545F414E 
 9415      4353435F 
 9415      52454144 
 9416              	.LASF291:
 9417 2f5b 6F70636F 		.ascii	"opcode\000"
 9417      646500
 9418              	.LASF236:
 9419 2f62 4359424C 		.ascii	"CYBLE_GATT_ERR_INSUFFICIENT_AUTHORIZATION\000"
 9419      455F4741 
 9419      54545F45 
 9419      52525F49 
 9419      4E535546 
 9420              	.LASF280:
 9421 2f8c 61747472 		.ascii	"attrHandle\000"
 9421      48616E64 
 9421      6C6500
 9422              	.LASF601:
 9423 2f97 4359424C 		.ascii	"CYBLE_EVT_UDSC_NOTIFICATION\000"
 9423      455F4556 
 9423      545F5544 
 9423      53435F4E 
 9423      4F544946 
 9424              	.LASF615:
 9425 2fb3 4359424C 		.ascii	"CYBLE_EVT_WPTSC_WRITE_CHAR_RESPONSE\000"
 9425      455F4556 
 9425      545F5750 
 9425      5453435F 
 9425      57524954 
 9426              	.LASF188:
 9427 2fd7 626F6E64 		.ascii	"bonding\000"
 9427      696E6700 
 9428              	.LASF317:
 9429 2fdf 75756964 		.ascii	"uuid\000"
 9429      00
 9430              	.LASF295:
 9431 2fe4 4359424C 		.ascii	"CYBLE_GATTS_WRITE_REQ_PARAM_T\000"
 9431      455F4741 
 9431      5454535F 
 9431      57524954 
 9431      455F5245 
 9432              	.LASF8:
 9433 3002 756E7369 		.ascii	"unsigned int\000"
 9433      676E6564 
 9433      20696E74 
 9433      00
 9434              	.LASF65:
 9435 300f 4359424C 		.ascii	"CYBLE_EVT_GATTS_PREP_WRITE_REQ\000"
 9435      455F4556 
 9435      545F4741 
 9435      5454535F 
 9435      50524550 
 9436              	.LASF233:
 9437 302e 4359424C 		.ascii	"CYBLE_GATT_ERR_INSUFFICIENT_AUTHENTICATION\000"
 9437      455F4741 
ARM GAS  C:\Users\run1009\AppData\Local\Temp\ccSZtXoF.s 			page 265


 9437      54545F45 
 9437      52525F49 
 9437      4E535546 
 9438              	.LASF449:
 9439 3059 4359424C 		.ascii	"CYBLE_EVT_CTSS_NOTIFICATION_DISABLED\000"
 9439      455F4556 
 9439      545F4354 
 9439      53535F4E 
 9439      4F544946 
 9440              	.LASF286:
 9441 307e 4359424C 		.ascii	"CYBLE_GATT_XCHG_MTU_PARAM_T\000"
 9441      455F4741 
 9441      54545F58 
 9441      4348475F 
 9441      4D54555F 
 9442              	.LASF396:
 9443 309a 4359424C 		.ascii	"CYBLE_EVT_BLSS_INDICATION_DISABLED\000"
 9443      455F4556 
 9443      545F424C 
 9443      53535F49 
 9443      4E444943 
 9444              	.LASF137:
 9445 30bd 4359424C 		.ascii	"CYBLE_LL_CONN_CH_TYPE\000"
 9445      455F4C4C 
 9445      5F434F4E 
 9445      4E5F4348 
 9445      5F545950 
 9446              	.LASF559:
 9447 30d3 4359424C 		.ascii	"CYBLE_EVT_PLXSS_INDICATION_CONFIRMED\000"
 9447      455F4556 
 9447      545F504C 
 9447      5853535F 
 9447      494E4449 
 9448              	.LASF582:
 9449 30f8 4359424C 		.ascii	"CYBLE_EVT_SCPSS_NOTIFICATION_DISABLED\000"
 9449      455F4556 
 9449      545F5343 
 9449      5053535F 
 9449      4E4F5449 
 9450              	.LASF461:
 9451 311e 4359424C 		.ascii	"CYBLE_EVT_ESSS_INDICATION_CONFIRMATION\000"
 9451      455F4556 
 9451      545F4553 
 9451      53535F49 
 9451      4E444943 
 9452              	.LASF694:
 9453 3145 666C6167 		.ascii	"flag\000"
 9453      00
 9454              	.LASF318:
 9455 314a 4359424C 		.ascii	"CYBLE_DISC_SRVC_INFO_T\000"
 9455      455F4449 
 9455      53435F53 
 9455      5256435F 
 9455      494E464F 
 9456              	.LASF251:
 9457 3161 4359424C 		.ascii	"CYBLE_GATTS_ERR_PROCEDURE_ALREADY_IN_PROGRESS\000"
 9457      455F4741 
ARM GAS  C:\Users\run1009\AppData\Local\Temp\ccSZtXoF.s 			page 266


 9457      5454535F 
 9457      4552525F 
 9457      50524F43 
 9458              	.LASF364:
 9459 318f 4359424C 		.ascii	"CYBLE_EVT_AIOSC_WRITE_DESCR_RESPONSE\000"
 9459      455F4556 
 9459      545F4149 
 9459      4F53435F 
 9459      57524954 
 9460              	.LASF695:
 9461 31b4 4379426C 		.ascii	"CyBle_NextInclDiscovery\000"
 9461      655F4E65 
 9461      7874496E 
 9461      636C4469 
 9461      73636F76 
 9462              	.LASF664:
 9463 31cc 6572725F 		.ascii	"err_param\000"
 9463      70617261 
 9463      6D00
 9464              	.LASF333:
 9465 31d6 4359424C 		.ascii	"CYBLE_AUTHENTICATION_REQUEST_REPLY\000"
 9465      455F4155 
 9465      5448454E 
 9465      54494341 
 9465      54494F4E 
 9466              	.LASF622:
 9467 31f9 4359424C 		.ascii	"CYBLE_EVT_WSSC_INDICATION\000"
 9467      455F4556 
 9467      545F5753 
 9467      53435F49 
 9467      4E444943 
 9468              	.LASF104:
 9469 3213 4359424C 		.ascii	"CYBLE_ERROR_L2CAP_PSM_WRONG_ENCODING\000"
 9469      455F4552 
 9469      524F525F 
 9469      4C324341 
 9469      505F5053 
 9470              	.LASF219:
 9471 3238 4359424C 		.ascii	"CYBLE_GATT_PREPARE_WRITE_RSP\000"
 9471      455F4741 
 9471      54545F50 
 9471      52455041 
 9471      52455F57 
 9472              	.LASF399:
 9473 3255 4359424C 		.ascii	"CYBLE_EVT_BLSS_NOTIFICATION_DISABLED\000"
 9473      455F4556 
 9473      545F424C 
 9473      53535F4E 
 9473      4F544946 
 9474              	.LASF687:
 9475 327a 67507265 		.ascii	"gPrepWriteReqMem\000"
 9475      70577269 
 9475      74655265 
 9475      714D656D 
 9475      00
 9476              	.LASF238:
 9477 328b 4359424C 		.ascii	"CYBLE_GATT_ERR_ATTRIBUTE_NOT_FOUND\000"
ARM GAS  C:\Users\run1009\AppData\Local\Temp\ccSZtXoF.s 			page 267


 9477      455F4741 
 9477      54545F45 
 9477      52525F41 
 9477      54545249 
 9478              	.LASF519:
 9479 32ae 4359424C 		.ascii	"CYBLE_EVT_HTSC_WRITE_CHAR_RESPONSE\000"
 9479      455F4556 
 9479      545F4854 
 9479      53435F57 
 9479      52495445 
 9480              	.LASF620:
 9481 32d1 4359424C 		.ascii	"CYBLE_EVT_WSSS_INDICATION_DISABLED\000"
 9481      455F4556 
 9481      545F5753 
 9481      53535F49 
 9481      4E444943 
 9482              	.LASF727:
 9483 32f4 6379426C 		.ascii	"cyBle_serverInfo\000"
 9483      655F7365 
 9483      72766572 
 9483      496E666F 
 9483      00
 9484              	.LASF309:
 9485 3305 6C697374 		.ascii	"list\000"
 9485      00
 9486              	.LASF715:
 9487 330a 6379426C 		.ascii	"cyBle_connectingTimeout\000"
 9487      655F636F 
 9487      6E6E6563 
 9487      74696E67 
 9487      54696D65 
 9488              	.LASF90:
 9489 3322 4359424C 		.ascii	"CYBLE_EVT_MAX\000"
 9489      455F4556 
 9489      545F4D41 
 9489      5800
 9490              	.LASF37:
 9491 3330 4359424C 		.ascii	"CYBLE_EVT_GAPC_SCAN_START_STOP\000"
 9491      455F4556 
 9491      545F4741 
 9491      50435F53 
 9491      43414E5F 
 9492              	.LASF731:
 9493 334f 4379426C 		.ascii	"CyBle_IsDeviceAddressValid\000"
 9493      655F4973 
 9493      44657669 
 9493      63654164 
 9493      64726573 
 9494              	.LASF374:
 9495 336a 4359424C 		.ascii	"CYBLE_EVT_ANSS_NOTIFICATION_ENABLED\000"
 9495      455F4556 
 9495      545F414E 
 9495      53535F4E 
 9495      4F544946 
 9496              	.LASF641:
 9497 338e 4359424C 		.ascii	"CYBLE_CLIENT_STATE_DISCONNECTING\000"
 9497      455F434C 
ARM GAS  C:\Users\run1009\AppData\Local\Temp\ccSZtXoF.s 			page 268


 9497      49454E54 
 9497      5F535441 
 9497      54455F44 
 9498              	.LASF186:
 9499 33af 4359424C 		.ascii	"CYBLE_GAP_AUTH_FAILED_REASON_T\000"
 9499      455F4741 
 9499      505F4155 
 9499      54485F46 
 9499      41494C45 
 9500              	.LASF62:
 9501 33ce 4359424C 		.ascii	"CYBLE_EVT_GATTS_WRITE_REQ\000"
 9501      455F4556 
 9501      545F4741 
 9501      5454535F 
 9501      57524954 
 9502              	.LASF603:
 9503 33e8 4359424C 		.ascii	"CYBLE_EVT_UDSC_WRITE_CHAR_RESPONSE\000"
 9503      455F4556 
 9503      545F5544 
 9503      53435F57 
 9503      52495445 
 9504              	.LASF649:
 9505 340b 70726566 		.ascii	"prefConnParamCharHandle\000"
 9505      436F6E6E 
 9505      50617261 
 9505      6D436861 
 9505      7248616E 
 9506              	.LASF614:
 9507 3423 4359424C 		.ascii	"CYBLE_EVT_WPTSC_INDICATION\000"
 9507      455F4556 
 9507      545F5750 
 9507      5453435F 
 9507      494E4449 
 9508              	.LASF29:
 9509 343e 4359424C 		.ascii	"CYBLE_EVT_GAP_PASSKEY_DISPLAY_REQUEST\000"
 9509      455F4556 
 9509      545F4741 
 9509      505F5041 
 9509      53534B45 
 9510              	.LASF121:
 9511 3464 4359424C 		.ascii	"CYBLE_ERROR_IND_DISABLED\000"
 9511      455F4552 
 9511      524F525F 
 9511      494E445F 
 9511      44495341 
 9512              	.LASF120:
 9513 347d 4359424C 		.ascii	"CYBLE_ERROR_NTF_DISABLED\000"
 9513      455F4552 
 9513      524F525F 
 9513      4E54465F 
 9513      44495341 
 9514              	.LASF211:
 9515 3496 4359424C 		.ascii	"CYBLE_GATT_READ_MULTIPLE_REQ\000"
 9515      455F4741 
 9515      54545F52 
 9515      4541445F 
 9515      4D554C54 
ARM GAS  C:\Users\run1009\AppData\Local\Temp\ccSZtXoF.s 			page 269


 9516              	.LASF707:
 9517 34b3 4379426C 		.ascii	"CyBle_ErrorResponseEventHandler\000"
 9517      655F4572 
 9517      726F7252 
 9517      6573706F 
 9517      6E736545 
 9518              	.LASF59:
 9519 34d3 4359424C 		.ascii	"CYBLE_EVT_GATTC_READ_RSP\000"
 9519      455F4556 
 9519      545F4741 
 9519      5454435F 
 9519      52454144 
 9520              	.LASF430:
 9521 34ec 4359424C 		.ascii	"CYBLE_EVT_CPSC_INDICATION\000"
 9521      455F4556 
 9521      545F4350 
 9521      53435F49 
 9521      4E444943 
 9522              	.LASF235:
 9523 3506 4359424C 		.ascii	"CYBLE_GATT_ERR_INVALID_OFFSET\000"
 9523      455F4741 
 9523      54545F45 
 9523      52525F49 
 9523      4E56414C 
 9524              	.LASF205:
 9525 3524 4359424C 		.ascii	"CYBLE_GATT_READ_BY_TYPE_REQ\000"
 9525      455F4741 
 9525      54545F52 
 9525      4541445F 
 9525      42595F54 
 9526              	.LASF79:
 9527 3540 4359424C 		.ascii	"CYBLE_EVT_L2CAP_CBFC_CONN_CNF\000"
 9527      455F4556 
 9527      545F4C32 
 9527      4341505F 
 9527      43424643 
 9528              	.LASF407:
 9529 355e 4359424C 		.ascii	"CYBLE_EVT_BMSC_WRITE_CHAR_RESPONSE\000"
 9529      455F4556 
 9529      545F424D 
 9529      53435F57 
 9529      52495445 
 9530              	.LASF520:
 9531 3581 4359424C 		.ascii	"CYBLE_EVT_HTSC_READ_DESCR_RESPONSE\000"
 9531      455F4556 
 9531      545F4854 
 9531      53435F52 
 9531      4541445F 
 9532              	.LASF626:
 9533 35a4 4359424C 		.ascii	"CYBLE_DEBUG_EVT_BLESS_INT\000"
 9533      455F4445 
 9533      4255475F 
 9533      4556545F 
 9533      424C4553 
 9534              	.LASF266:
 9535 35be 4359424C 		.ascii	"CYBLE_GATT_ERR_OUT_OF_RANGE\000"
 9535      455F4741 
ARM GAS  C:\Users\run1009\AppData\Local\Temp\ccSZtXoF.s 			page 270


 9535      54545F45 
 9535      52525F4F 
 9535      55545F4F 
 9536              	.LASF475:
 9537 35da 4359424C 		.ascii	"CYBLE_EVT_GLSS_WRITE_CHAR\000"
 9537      455F4556 
 9537      545F474C 
 9537      53535F57 
 9537      52495445 
 9538              	.LASF326:
 9539 35f4 4359424C 		.ascii	"CYBLE_DISC_CHAR_INFO_T\000"
 9539      455F4449 
 9539      53435F43 
 9539      4841525F 
 9539      494E464F 
 9540              	.LASF89:
 9541 360b 4359424C 		.ascii	"CYBLE_EVT_FLASH_CORRUPT\000"
 9541      455F4556 
 9541      545F464C 
 9541      4153485F 
 9541      434F5252 
 9542              	.LASF17:
 9543 3623 6C6F6E67 		.ascii	"long double\000"
 9543      20646F75 
 9543      626C6500 
 9544              	.LASF203:
 9545 362f 4359424C 		.ascii	"CYBLE_GATT_FIND_BY_TYPE_VALUE_REQ\000"
 9545      455F4741 
 9545      54545F46 
 9545      494E445F 
 9545      42595F54 
 9546              	.LASF644:
 9547 3651 4359424C 		.ascii	"CYBLE_CLIENT_STATE_T\000"
 9547      455F434C 
 9547      49454E54 
 9547      5F535441 
 9547      54455F54 
 9548              	.LASF128:
 9549 3666 4359424C 		.ascii	"CYBLE_LL_PWR_LVL_NEG_6_DBM\000"
 9549      455F4C4C 
 9549      5F505752 
 9549      5F4C564C 
 9549      5F4E4547 
 9550              	.LASF314:
 9551 3681 4359424C 		.ascii	"CYBLE_GATTC_FIND_INFO_RSP_PARAM_T\000"
 9551      455F4741 
 9551      5454435F 
 9551      46494E44 
 9551      5F494E46 
 9552              	.LASF505:
 9553 36a3 4359424C 		.ascii	"CYBLE_EVT_HRSC_NOTIFICATION\000"
 9553      455F4556 
 9553      545F4852 
 9553      53435F4E 
 9553      4F544946 
 9554              	.LASF25:
 9555 36bf 4359424C 		.ascii	"CYBLE_EVT_MEMORY_REQUEST\000"
ARM GAS  C:\Users\run1009\AppData\Local\Temp\ccSZtXoF.s 			page 271


 9555      455F4556 
 9555      545F4D45 
 9555      4D4F5259 
 9555      5F524551 
 9556              	.LASF361:
 9557 36d8 4359424C 		.ascii	"CYBLE_EVT_AIOSC_READ_CHAR_RESPONSE\000"
 9557      455F4556 
 9557      545F4149 
 9557      4F53435F 
 9557      52454144 
 9558              	.LASF571:
 9559 36fb 4359424C 		.ascii	"CYBLE_EVT_RSCSS_INDICATION_CONFIRMATION\000"
 9559      455F4556 
 9559      545F5253 
 9559      4353535F 
 9559      494E4449 
 9560              	.LASF646:
 9561 3723 61707065 		.ascii	"appearanceCharHandle\000"
 9561      6172616E 
 9561      63654368 
 9561      61724861 
 9561      6E646C65 
 9562              	.LASF492:
 9563 3738 4359424C 		.ascii	"CYBLE_EVT_HIDSC_READ_DESCR_RESPONSE\000"
 9563      455F4556 
 9563      545F4849 
 9563      4453435F 
 9563      52454144 
 9564              	.LASF506:
 9565 375c 4359424C 		.ascii	"CYBLE_EVT_HRSC_READ_CHAR_RESPONSE\000"
 9565      455F4556 
 9565      545F4852 
 9565      53435F52 
 9565      4541445F 
 9566              	.LASF384:
 9567 377e 4359424C 		.ascii	"CYBLE_EVT_BASC_NOTIFICATION\000"
 9567      455F4556 
 9567      545F4241 
 9567      53435F4E 
 9567      4F544946 
 9568              	.LASF168:
 9569 379a 4359424C 		.ascii	"CYBLE_GAP_AUTH_ERROR_NONE\000"
 9569      455F4741 
 9569      505F4155 
 9569      54485F45 
 9569      52524F52 
 9570              	.LASF35:
 9571 37b4 4359424C 		.ascii	"CYBLE_EVT_GAP_ENCRYPT_CHANGE\000"
 9571      455F4556 
 9571      545F4741 
 9571      505F454E 
 9571      43525950 
 9572              	.LASF272:
 9573 37d1 75756964 		.ascii	"uuid128\000"
 9573      31323800 
 9574              	.LASF546:
 9575 37d9 4359424C 		.ascii	"CYBLE_EVT_NDCSC_READ_CHAR_RESPONSE\000"
ARM GAS  C:\Users\run1009\AppData\Local\Temp\ccSZtXoF.s 			page 272


 9575      455F4556 
 9575      545F4E44 
 9575      4353435F 
 9575      52454144 
 9576              	.LASF346:
 9577 37fc 4359424C 		.ascii	"CYBLE_EVT_GATTC_DESCR_DUPLICATION\000"
 9577      455F4556 
 9577      545F4741 
 9577      5454435F 
 9577      44455343 
 9578              	.LASF287:
 9579 381e 71756575 		.ascii	"queueBuffer\000"
 9579      65427566 
 9579      66657200 
 9580              	.LASF569:
 9581 382a 4359424C 		.ascii	"CYBLE_EVT_RSCSS_INDICATION_ENABLED\000"
 9581      455F4556 
 9581      545F5253 
 9581      4353535F 
 9581      494E4449 
 9582              	.LASF53:
 9583 384d 4359424C 		.ascii	"CYBLE_EVT_GATTS_XCNHG_MTU_REQ\000"
 9583      455F4556 
 9583      545F4741 
 9583      5454535F 
 9583      58434E48 
 9584              	.LASF495:
 9585 386b 4359424C 		.ascii	"CYBLE_EVT_HPSS_NOTIFICATION_DISABLED\000"
 9585      455F4556 
 9585      545F4850 
 9585      53535F4E 
 9585      4F544946 
 9586              	.LASF596:
 9587 3890 4359424C 		.ascii	"CYBLE_EVT_UDSS_NOTIFICATION_ENABLED\000"
 9587      455F4556 
 9587      545F5544 
 9587      53535F4E 
 9587      4F544946 
 9588              	.LASF202:
 9589 38b4 4359424C 		.ascii	"CYBLE_GATT_FIND_INFO_RSP\000"
 9589      455F4741 
 9589      54545F46 
 9589      494E445F 
 9589      494E464F 
 9590              	.LASF170:
 9591 38cd 4359424C 		.ascii	"CYBLE_GAP_AUTH_ERROR_OOB_DATA_NOT_AVAILABLE\000"
 9591      455F4741 
 9591      505F4155 
 9591      54485F45 
 9591      52524F52 
 9592              	.LASF536:
 9593 38f9 4359424C 		.ascii	"CYBLE_EVT_LNSS_INDICATION_CONFIRMED\000"
 9593      455F4556 
 9593      545F4C4E 
 9593      53535F49 
 9593      4E444943 
 9594              	.LASF49:
ARM GAS  C:\Users\run1009\AppData\Local\Temp\ccSZtXoF.s 			page 273


 9595 391d 4359424C 		.ascii	"CYBLE_EVT_GAP_SMP_LOC_P256_KEYS_GEN_AND_SET_COMPLET"
 9595      455F4556 
 9595      545F4741 
 9595      505F534D 
 9595      505F4C4F 
 9596 3950 4500     		.ascii	"E\000"
 9597              	.LASF381:
 9598 3952 4359424C 		.ascii	"CYBLE_EVT_ANSC_WRITE_DESCR_RESPONSE\000"
 9598      455F4556 
 9598      545F414E 
 9598      53435F57 
 9598      52495445 
 9599              	.LASF542:
 9600 3976 4359424C 		.ascii	"CYBLE_EVT_LNSC_READ_CHAR_RESPONSE\000"
 9600      455F4556 
 9600      545F4C4E 
 9600      53435F52 
 9600      4541445F 
 9601              	.LASF143:
 9602 3998 4359424C 		.ascii	"CYBLE_PREPARED_WRITE_REQUEST\000"
 9602      455F5052 
 9602      45504152 
 9602      45445F57 
 9602      52495445 
 9603              	.LASF472:
 9604 39b5 4359424C 		.ascii	"CYBLE_EVT_GLSS_INDICATION_CONFIRMED\000"
 9604      455F4556 
 9604      545F474C 
 9604      53535F49 
 9604      4E444943 
 9605              	.LASF197:
 9606 39d9 4359424C 		.ascii	"CYBLE_GAP_CONN_PARAM_UPDATED_IN_CONTROLLER_T\000"
 9606      455F4741 
 9606      505F434F 
 9606      4E4E5F50 
 9606      4152414D 
 9607              	.LASF634:
 9608 3a06 4359424C 		.ascii	"CYBLE_STATE_T\000"
 9608      455F5354 
 9608      4154455F 
 9608      5400
 9609              	.LASF337:
 9610 3a14 4359424C 		.ascii	"CYBLE_EVT_GATTS_INDICATION_ENABLED\000"
 9610      455F4556 
 9610      545F4741 
 9610      5454535F 
 9610      494E4449 
 9611              	.LASF7:
 9612 3a37 6C6F6E67 		.ascii	"long long unsigned int\000"
 9612      206C6F6E 
 9612      6720756E 
 9612      7369676E 
 9612      65642069 
 9613              	.LASF229:
 9614 3a4e 4359424C 		.ascii	"CYBLE_GATT_ERR_INVALID_HANDLE\000"
 9614      455F4741 
 9614      54545F45 
ARM GAS  C:\Users\run1009\AppData\Local\Temp\ccSZtXoF.s 			page 274


 9614      52525F49 
 9614      4E56414C 
 9615              	.LASF21:
 9616 3a6c 4359424C 		.ascii	"CYBLE_EVT_TIMEOUT\000"
 9616      455F4556 
 9616      545F5449 
 9616      4D454F55 
 9616      5400
 9617              	.LASF453:
 9618 3a7e 4359424C 		.ascii	"CYBLE_EVT_CTSC_READ_DESCR_RESPONSE\000"
 9618      455F4556 
 9618      545F4354 
 9618      53435F52 
 9618      4541445F 
 9619              	.LASF303:
 9620 3aa1 6C656E67 		.ascii	"length\000"
 9620      746800
 9621              	.LASF323:
 9622 3aa8 63686172 		.ascii	"charDeclHandle\000"
 9622      4465636C 
 9622      48616E64 
 9622      6C6500
 9623              	.LASF226:
 9624 3ab7 4359424C 		.ascii	"CYBLE_GATT_UNKNOWN_PDU_IND\000"
 9624      455F4741 
 9624      54545F55 
 9624      4E4B4E4F 
 9624      574E5F50 
 9625              	.LASF312:
 9626 3ad2 68616E64 		.ascii	"handleValueList\000"
 9626      6C655661 
 9626      6C75654C 
 9626      69737400 
 9627              	.LASF123:
 9628 3ae2 4359424C 		.ascii	"CYBLE_ERROR_INVALID_STATE\000"
 9628      455F4552 
 9628      524F525F 
 9628      494E5641 
 9628      4C49445F 
 9629              	.LASF274:
 9630 3afc 4359424C 		.ascii	"CYBLE_GATT_DB_ATTR_HANDLE_T\000"
 9630      455F4741 
 9630      54545F44 
 9630      425F4154 
 9630      54525F48 
 9631              	.LASF683:
 9632 3b18 626C6553 		.ascii	"bleSsPowerLevel\000"
 9632      73506F77 
 9632      65724C65 
 9632      76656C00 
 9633              	.LASF288:
 9634 3b28 746F7461 		.ascii	"totalAttrValueLength\000"
 9634      6C417474 
 9634      7256616C 
 9634      75654C65 
 9634      6E677468 
 9635              	.LASF354:
ARM GAS  C:\Users\run1009\AppData\Local\Temp\ccSZtXoF.s 			page 275


 9636 3b3d 4359424C 		.ascii	"CYBLE_EVT_AIOSS_INDICATION_ENABLED\000"
 9636      455F4556 
 9636      545F4149 
 9636      4F53535F 
 9636      494E4449 
 9637              	.LASF82:
 9638 3b60 4359424C 		.ascii	"CYBLE_EVT_L2CAP_CBFC_DATA_READ\000"
 9638      455F4556 
 9638      545F4C32 
 9638      4341505F 
 9638      43424643 
 9639              	.LASF228:
 9640 3b7f 4359424C 		.ascii	"CYBLE_GATT_ERR_NONE\000"
 9640      455F4741 
 9640      54545F45 
 9640      52525F4E 
 9640      4F4E4500 
 9641              	.LASF269:
 9642 3b93 76616C75 		.ascii	"value\000"
 9642      6500
 9643              	.LASF429:
 9644 3b99 4359424C 		.ascii	"CYBLE_EVT_CPSC_NOTIFICATION\000"
 9644      455F4556 
 9644      545F4350 
 9644      53435F4E 
 9644      4F544946 
 9645              	.LASF404:
 9646 3bb5 4359424C 		.ascii	"CYBLE_EVT_BLSC_WRITE_DESCR_RESPONSE\000"
 9646      455F4556 
 9646      545F424C 
 9646      53435F57 
 9646      52495445 
 9647              	.LASF301:
 9648 3bd9 4359424C 		.ascii	"CYBLE_GATTC_HANDLE_VALUE_IND_PARAM_T\000"
 9648      455F4741 
 9648      5454435F 
 9648      48414E44 
 9648      4C455F56 
 9649              	.LASF541:
 9650 3bfe 4359424C 		.ascii	"CYBLE_EVT_LNSC_NOTIFICATION\000"
 9650      455F4556 
 9650      545F4C4E 
 9650      53435F4E 
 9650      4F544946 
 9651              	.LASF271:
 9652 3c1a 75756964 		.ascii	"uuid16\000"
 9652      313600
 9653              	.LASF335:
 9654 3c21 4359424C 		.ascii	"CYBLE_LONG_TERM_KEY_REQUEST_REPLY\000"
 9654      455F4C4F 
 9654      4E475F54 
 9654      45524D5F 
 9654      4B45595F 
 9655              	.LASF656:
 9656 3c43 4359424C 		.ascii	"CYBLE_SRVI_CUSTOMS_END\000"
 9656      455F5352 
 9656      56495F43 
ARM GAS  C:\Users\run1009\AppData\Local\Temp\ccSZtXoF.s 			page 276


 9656      5553544F 
 9656      4D535F45 
 9657              	.LASF709:
 9658 3c5a 4379426C 		.ascii	"CyBle_ApplCallback\000"
 9658      655F4170 
 9658      706C4361 
 9658      6C6C6261 
 9658      636B00
 9659              	.LASF451:
 9660 3c6d 4359424C 		.ascii	"CYBLE_EVT_CTSC_NOTIFICATION\000"
 9660      455F4556 
 9660      545F4354 
 9660      53435F4E 
 9660      4F544946 
 9661              	.LASF297:
 9662 3c89 4359424C 		.ascii	"CYBLE_GATTC_ERR_RSP_PARAM_T\000"
 9662      455F4741 
 9662      5454435F 
 9662      4552525F 
 9662      5253505F 
 9663              	.LASF116:
 9664 3ca5 4359424C 		.ascii	"CYBLE_ERROR_FLASH_WRITE\000"
 9664      455F4552 
 9664      524F525F 
 9664      464C4153 
 9664      485F5752 
 9665              	.LASF471:
 9666 3cbd 4359424C 		.ascii	"CYBLE_EVT_GLSS_INDICATION_DISABLED\000"
 9666      455F4556 
 9666      545F474C 
 9666      53535F49 
 9666      4E444943 
 9667              	.LASF154:
 9668 3ce0 4359424C 		.ascii	"CYBLE_GAP_SCAN_TO\000"
 9668      455F4741 
 9668      505F5343 
 9668      414E5F54 
 9668      4F00
 9669              	.LASF250:
 9670 3cf2 4359424C 		.ascii	"CYBLE_GATT_ERR_HTS_OUT_OF_RANGE\000"
 9670      455F4741 
 9670      54545F45 
 9670      52525F48 
 9670      54535F4F 
 9671              	.LASF357:
 9672 3d12 4359424C 		.ascii	"CYBLE_EVT_AIOSS_CHAR_WRITE\000"
 9672      455F4556 
 9672      545F4149 
 9672      4F53535F 
 9672      43484152 
 9673              	.LASF344:
 9674 3d2d 4359424C 		.ascii	"CYBLE_EVT_GATTC_SRVC_DUPLICATION\000"
 9674      455F4556 
 9674      545F4741 
 9674      5454435F 
 9674      53525643 
 9675              	.LASF662:
ARM GAS  C:\Users\run1009\AppData\Local\Temp\ccSZtXoF.s 			page 277


 9676 3d4e 4359424C 		.ascii	"CYBLE_GAPS_T\000"
 9676      455F4741 
 9676      50535F54 
 9676      00
 9677              	.LASF635:
 9678 3d5b 4359424C 		.ascii	"CYBLE_CLIENT_STATE_CONNECTED\000"
 9678      455F434C 
 9678      49454E54 
 9678      5F535441 
 9678      54455F43 
 9679              	.LASF534:
 9680 3d78 4359424C 		.ascii	"CYBLE_EVT_LNSS_INDICATION_ENABLED\000"
 9680      455F4556 
 9680      545F4C4E 
 9680      53535F49 
 9680      4E444943 
 9681              	.LASF152:
 9682 3d9a 4359424C 		.ascii	"CYBLE_GAP_BD_ADDR_T\000"
 9682      455F4741 
 9682      505F4244 
 9682      5F414444 
 9682      525F5400 
 9683              	.LASF209:
 9684 3dae 4359424C 		.ascii	"CYBLE_GATT_READ_BLOB_REQ\000"
 9684      455F4741 
 9684      54545F52 
 9684      4541445F 
 9684      424C4F42 
 9685              	.LASF153:
 9686 3dc7 4359424C 		.ascii	"CYBLE_GAP_ADV_MODE_TO\000"
 9686      455F4741 
 9686      505F4144 
 9686      565F4D4F 
 9686      44455F54 
 9687              	.LASF547:
 9688 3ddd 4359424C 		.ascii	"CYBLE_EVT_PASSS_NOTIFICATION_ENABLED\000"
 9688      455F4556 
 9688      545F5041 
 9688      5353535F 
 9688      4E4F5449 
 9689              	.LASF294:
 9690 3e02 68616E64 		.ascii	"handleValPair\000"
 9690      6C655661 
 9690      6C506169 
 9690      7200
 9691              	.LASF367:
 9692 3e10 4359424C 		.ascii	"CYBLE_EVT_ANCSS_NOTIFICATION_DISABLED\000"
 9692      455F4556 
 9692      545F414E 
 9692      4353535F 
 9692      4E4F5449 
 9693              	.LASF285:
 9694 3e36 636F6E6E 		.ascii	"connHandle\000"
 9694      48616E64 
 9694      6C6500
 9695              	.LASF674:
 9696 3e41 4379426C 		.ascii	"CyBle_TimeOutEventHandler\000"
ARM GAS  C:\Users\run1009\AppData\Local\Temp\ccSZtXoF.s 			page 278


 9696      655F5469 
 9696      6D654F75 
 9696      74457665 
 9696      6E744861 
 9697              	.LASF324:
 9698 3e5b 70726F70 		.ascii	"properties\000"
 9698      65727469 
 9698      657300
 9699              	.LASF383:
 9700 3e66 4359424C 		.ascii	"CYBLE_EVT_BASS_NOTIFICATION_DISABLED\000"
 9700      455F4556 
 9700      545F4241 
 9700      53535F4E 
 9700      4F544946 
 9701              	.LASF554:
 9702 3e8b 4359424C 		.ascii	"CYBLE_EVT_PLXSS_WRITE_CHAR\000"
 9702      455F4556 
 9702      545F504C 
 9702      5853535F 
 9702      57524954 
 9703              	.LASF421:
 9704 3ea6 4359424C 		.ascii	"CYBLE_EVT_CPSS_NOTIFICATION_ENABLED\000"
 9704      455F4556 
 9704      545F4350 
 9704      53535F4E 
 9704      4F544946 
 9705              	.LASF173:
 9706 3eca 4359424C 		.ascii	"CYBLE_GAP_AUTH_ERROR_PAIRING_NOT_SUPPORTED\000"
 9706      455F4741 
 9706      505F4155 
 9706      54485F45 
 9706      52524F52 
 9707              	.LASF591:
 9708 3ef5 4359424C 		.ascii	"CYBLE_EVT_TPSC_READ_DESCR_RESPONSE\000"
 9708      455F4556 
 9708      545F5450 
 9708      53435F52 
 9708      4541445F 
 9709              	.LASF156:
 9710 3f18 4359424C 		.ascii	"CYBLE_GENERIC_TO\000"
 9710      455F4745 
 9710      4E455249 
 9710      435F544F 
 9710      00
 9711              	.LASF640:
 9712 3f29 4359424C 		.ascii	"CYBLE_CLIENT_STATE_DISCOVERED\000"
 9712      455F434C 
 9712      49454E54 
 9712      5F535441 
 9712      54455F44 
 9713              	.LASF653:
 9714 3f47 4359424C 		.ascii	"CYBLE_SRVI_GAP\000"
 9714      455F5352 
 9714      56495F47 
 9714      415000
 9715              	.LASF606:
 9716 3f56 4359424C 		.ascii	"CYBLE_EVT_UDSC_ERROR_RESPONSE\000"
ARM GAS  C:\Users\run1009\AppData\Local\Temp\ccSZtXoF.s 			page 279


 9716      455F4556 
 9716      545F5544 
 9716      53435F45 
 9716      52524F52 
 9717              	.LASF57:
 9718 3f74 4359424C 		.ascii	"CYBLE_EVT_GATTC_FIND_INFO_RSP\000"
 9718      455F4556 
 9718      545F4741 
 9718      5454435F 
 9718      46494E44 
 9719              	.LASF56:
 9720 3f92 4359424C 		.ascii	"CYBLE_EVT_GATTC_READ_BY_TYPE_RSP\000"
 9720      455F4556 
 9720      545F4741 
 9720      5454435F 
 9720      52454144 
 9721              	.LASF548:
 9722 3fb3 4359424C 		.ascii	"CYBLE_EVT_PASSS_NOTIFICATION_DISABLED\000"
 9722      455F4556 
 9722      545F5041 
 9722      5353535F 
 9722      4E4F5449 
 9723              	.LASF419:
 9724 3fd9 4359424C 		.ascii	"CYBLE_EVT_CGMSC_READ_DESCR_RESPONSE\000"
 9724      455F4556 
 9724      545F4347 
 9724      4D53435F 
 9724      52454144 
 9725              	.LASF490:
 9726 3ffd 4359424C 		.ascii	"CYBLE_EVT_HIDSC_READ_CHAR_RESPONSE\000"
 9726      455F4556 
 9726      545F4849 
 9726      4453435F 
 9726      52454144 
 9727              	.LASF255:
 9728 4020 4359424C 		.ascii	"CYBLE_GATTS_ERR_OPERATION_FAILED\000"
 9728      455F4741 
 9728      5454535F 
 9728      4552525F 
 9728      4F504552 
 9729              	.LASF688:
 9730 4041 61706952 		.ascii	"apiResult\000"
 9730      6573756C 
 9730      7400
 9731              	.LASF693:
 9732 404b 61747472 		.ascii	"attrLength\000"
 9732      4C656E67 
 9732      746800
 9733              	.LASF718:
 9734 4056 6379426C 		.ascii	"cyBle_state\000"
 9734      655F7374 
 9734      61746500 
 9735              	.LASF672:
 9736 4062 64697363 		.ascii	"discServInfo\000"
 9736      53657276 
 9736      496E666F 
 9736      00
ARM GAS  C:\Users\run1009\AppData\Local\Temp\ccSZtXoF.s 			page 280


 9737              	.LASF639:
 9738 406f 4359424C 		.ascii	"CYBLE_CLIENT_STATE_DESCR_DISCOVERING\000"
 9738      455F434C 
 9738      49454E54 
 9738      5F535441 
 9738      54455F44 
 9739              	.LASF588:
 9740 4094 4359424C 		.ascii	"CYBLE_EVT_TPSS_NOTIFICATION_DISABLED\000"
 9740      455F4556 
 9740      545F5450 
 9740      53535F4E 
 9740      4F544946 
 9741              	.LASF585:
 9742 40b9 4359424C 		.ascii	"CYBLE_EVT_SCPSC_READ_DESCR_RESPONSE\000"
 9742      455F4556 
 9742      545F5343 
 9742      5053435F 
 9742      52454144 
 9743              	.LASF509:
 9744 40dd 4359424C 		.ascii	"CYBLE_EVT_HRSC_WRITE_DESCR_RESPONSE\000"
 9744      455F4556 
 9744      545F4852 
 9744      53435F57 
 9744      52495445 
 9745              	.LASF117:
 9746 4101 4359424C 		.ascii	"CYBLE_ERROR_LL_SAME_TRANSACTION_COLLISION\000"
 9746      455F4552 
 9746      524F525F 
 9746      4C4C5F53 
 9746      414D455F 
 9747              	.LASF539:
 9748 412b 4359424C 		.ascii	"CYBLE_EVT_LNSS_WRITE_CHAR\000"
 9748      455F4556 
 9748      545F4C4E 
 9748      53535F57 
 9748      52495445 
 9749              	.LASF462:
 9750 4145 4359424C 		.ascii	"CYBLE_EVT_ESSS_CHAR_WRITE\000"
 9750      455F4556 
 9750      545F4553 
 9750      53535F43 
 9750      4841525F 
 9751              	.LASF191:
 9752 415f 70616972 		.ascii	"pairingProperties\000"
 9752      696E6750 
 9752      726F7065 
 9752      72746965 
 9752      7300
 9753              	.LASF63:
 9754 4171 4359424C 		.ascii	"CYBLE_EVT_GATTC_WRITE_RSP\000"
 9754      455F4556 
 9754      545F4741 
 9754      5454435F 
 9754      57524954 
 9755              	.LASF308:
 9756 418b 4359424C 		.ascii	"CYBLE_GATTC_READ_BY_TYPE_RSP_PARAM_T\000"
 9756      455F4741 
ARM GAS  C:\Users\run1009\AppData\Local\Temp\ccSZtXoF.s 			page 281


 9756      5454435F 
 9756      52454144 
 9756      5F42595F 
 9757              	.LASF363:
 9758 41b0 4359424C 		.ascii	"CYBLE_EVT_AIOSC_READ_DESCR_RESPONSE\000"
 9758      455F4556 
 9758      545F4149 
 9758      4F53435F 
 9758      52454144 
 9759              	.LASF478:
 9760 41d4 4359424C 		.ascii	"CYBLE_EVT_GLSC_READ_CHAR_RESPONSE\000"
 9760      455F4556 
 9760      545F474C 
 9760      53435F52 
 9760      4541445F 
 9761              	.LASF685:
 9762 41f6 6C654D61 		.ascii	"leMask\000"
 9762      736B00
 9763              	.LASF637:
 9764 41fd 4359424C 		.ascii	"CYBLE_CLIENT_STATE_INCL_DISCOVERING\000"
 9764      455F434C 
 9764      49454E54 
 9764      5F535441 
 9764      54455F49 
 9765              	.LASF669:
 9766 4221 4379426C 		.ascii	"CyBle_NotificationEventHandler\000"
 9766      655F4E6F 
 9766      74696669 
 9766      63617469 
 9766      6F6E4576 
 9767              	.LASF668:
 9768 4240 4379426C 		.ascii	"CyBle_GattcWriteResponseEventHandler\000"
 9768      655F4761 
 9768      74746357 
 9768      72697465 
 9768      52657370 
 9769              	.LASF573:
 9770 4265 4359424C 		.ascii	"CYBLE_EVT_RSCSC_NOTIFICATION\000"
 9770      455F4556 
 9770      545F5253 
 9770      4353435F 
 9770      4E4F5449 
 9771              	.LASF32:
 9772 4282 4359424C 		.ascii	"CYBLE_EVT_GAPP_ADVERTISEMENT_START_STOP\000"
 9772      455F4556 
 9772      545F4741 
 9772      50505F41 
 9772      44564552 
 9773              	.LASF397:
 9774 42aa 4359424C 		.ascii	"CYBLE_EVT_BLSS_INDICATION_CONFIRMED\000"
 9774      455F4556 
 9774      545F424C 
 9774      53535F49 
 9774      4E444943 
 9775              	.LASF617:
 9776 42ce 4359424C 		.ascii	"CYBLE_EVT_WPTSC_READ_DESCR_RESPONSE\000"
 9776      455F4556 
ARM GAS  C:\Users\run1009\AppData\Local\Temp\ccSZtXoF.s 			page 282


 9776      545F5750 
 9776      5453435F 
 9776      52454144 
 9777              	.LASF369:
 9778 42f2 4359424C 		.ascii	"CYBLE_EVT_ANCSC_NOTIFICATION\000"
 9778      455F4556 
 9778      545F414E 
 9778      4353435F 
 9778      4E4F5449 
 9779              	.LASF702:
 9780 430f 4379426C 		.ascii	"CyBle_NextCharDiscovery\000"
 9780      655F4E65 
 9780      78744368 
 9780      61724469 
 9780      73636F76 
 9781              	.LASF566:
 9782 4327 4359424C 		.ascii	"CYBLE_EVT_PLXSC_TIMEOUT\000"
 9782      455F4556 
 9782      545F504C 
 9782      5853435F 
 9782      54494D45 
 9783              	.LASF700:
 9784 433f 61747472 		.ascii	"attrVal\000"
 9784      56616C00 
 9785              	.LASF418:
 9786 4347 4359424C 		.ascii	"CYBLE_EVT_CGMSC_WRITE_CHAR_RESPONSE\000"
 9786      455F4556 
 9786      545F4347 
 9786      4D53435F 
 9786      57524954 
 9787              	.LASF11:
 9788 436b 75696E74 		.ascii	"uint8\000"
 9788      3800
 9789              	.LASF518:
 9790 4371 4359424C 		.ascii	"CYBLE_EVT_HTSC_READ_CHAR_RESPONSE\000"
 9790      455F4556 
 9790      545F4854 
 9790      53435F52 
 9790      4541445F 
 9791              	.LASF714:
 9792 4393 6379426C 		.ascii	"cyBle_authInfo\000"
 9792      655F6175 
 9792      7468496E 
 9792      666F00
 9793              	.LASF40:
 9794 43a2 4359424C 		.ascii	"CYBLE_EVT_GAP_KEYPRESS_NOTIFICATION\000"
 9794      455F4556 
 9794      545F4741 
 9794      505F4B45 
 9794      59505245 
 9795              	.LASF553:
 9796 43c6 4359424C 		.ascii	"CYBLE_EVT_PASSC_WRITE_DESCR_RESPONSE\000"
 9796      455F4556 
 9796      545F5041 
 9796      5353435F 
 9796      57524954 
 9797              	.LASF679:
ARM GAS  C:\Users\run1009\AppData\Local\Temp\ccSZtXoF.s 			page 283


 9798 43eb 4379426C 		.ascii	"CyBle_L2Cap_ConnParamUpdateRspEventHandler\000"
 9798      655F4C32 
 9798      4361705F 
 9798      436F6E6E 
 9798      50617261 
 9799              	.LASF215:
 9800 4416 4359424C 		.ascii	"CYBLE_GATT_WRITE_REQ\000"
 9800      455F4741 
 9800      54545F57 
 9800      52495445 
 9800      5F524551 
 9801              	.LASF2:
 9802 442b 73686F72 		.ascii	"short int\000"
 9802      7420696E 
 9802      7400
 9803              	.LASF190:
 9804 4435 61757468 		.ascii	"authErr\000"
 9804      45727200 
 9805              	.LASF405:
 9806 443d 4359424C 		.ascii	"CYBLE_EVT_BMSS_WRITE_CHAR\000"
 9806      455F4556 
 9806      545F424D 
 9806      53535F57 
 9806      52495445 
 9807              	.LASF338:
 9808 4457 4359424C 		.ascii	"CYBLE_EVT_GATTS_INDICATION_DISABLED\000"
 9808      455F4556 
 9808      545F4741 
 9808      5454535F 
 9808      494E4449 
 9809              	.LASF316:
 9810 447b 72616E67 		.ascii	"range\000"
 9810      6500
 9811              	.LASF362:
 9812 4481 4359424C 		.ascii	"CYBLE_EVT_AIOSC_WRITE_CHAR_RESPONSE\000"
 9812      455F4556 
 9812      545F4149 
 9812      4F53435F 
 9812      57524954 
 9813              	.LASF114:
 9814 44a5 4359424C 		.ascii	"CYBLE_ERROR_HARDWARE_FAILURE\000"
 9814      455F4552 
 9814      524F525F 
 9814      48415244 
 9814      57415245 
 9815              	.LASF249:
 9816 44c2 4359424C 		.ascii	"CYBLE_GATT_ERR_CPS_INAPPROPRIATE_CONNECTION_PARAMET"
 9816      455F4741 
 9816      54545F45 
 9816      52525F43 
 9816      50535F49 
 9817 44f5 45525300 		.ascii	"ERS\000"
 9818              	.LASF416:
 9819 44f9 4359424C 		.ascii	"CYBLE_EVT_CGMSC_NOTIFICATION\000"
 9819      455F4556 
 9819      545F4347 
 9819      4D53435F 
ARM GAS  C:\Users\run1009\AppData\Local\Temp\ccSZtXoF.s 			page 284


 9819      4E4F5449 
 9820              	.LASF234:
 9821 4516 4359424C 		.ascii	"CYBLE_GATT_ERR_REQUEST_NOT_SUPPORTED\000"
 9821      455F4741 
 9821      54545F45 
 9821      52525F52 
 9821      45515545 
 9822              	.LASF50:
 9823 453b 4359424C 		.ascii	"CYBLE_EVT_GATTC_ERROR_RSP\000"
 9823      455F4556 
 9823      545F4741 
 9823      5454435F 
 9823      4552524F 
 9824              	.LASF167:
 9825 4555 4359424C 		.ascii	"CYBLE_GAP_IOCAP_KEYBOARD_DISPLAY\000"
 9825      455F4741 
 9825      505F494F 
 9825      4341505F 
 9825      4B455942 
 9826              	.LASF284:
 9827 4576 4359424C 		.ascii	"CYBLE_GATT_ATTR_HANDLE_RANGE_T\000"
 9827      455F4741 
 9827      54545F41 
 9827      5454525F 
 9827      48414E44 
 9828              	.LASF467:
 9829 4595 4359424C 		.ascii	"CYBLE_EVT_ESSC_WRITE_CHAR_RESPONSE\000"
 9829      455F4556 
 9829      545F4553 
 9829      53435F57 
 9829      52495445 
 9830              	.LASF299:
 9831 45b8 4359424C 		.ascii	"CYBLE_GATTC_READ_RSP_PARAM_T\000"
 9831      455F4741 
 9831      5454435F 
 9831      52454144 
 9831      5F525350 
 9832              	.LASF356:
 9833 45d5 4359424C 		.ascii	"CYBLE_EVT_AIOSS_INDICATION_CONFIRMED\000"
 9833      455F4556 
 9833      545F4149 
 9833      4F53535F 
 9833      494E4449 
 9834              	.LASF373:
 9835 45fa 4359424C 		.ascii	"CYBLE_EVT_ANCSC_ERROR_RESPONSE\000"
 9835      455F4556 
 9835      545F414E 
 9835      4353435F 
 9835      4552524F 
 9836              	.LASF387:
 9837 4619 4359424C 		.ascii	"CYBLE_EVT_BASC_WRITE_DESCR_RESPONSE\000"
 9837      455F4556 
 9837      545F4241 
 9837      53435F57 
 9837      52495445 
 9838              	.LASF340:
 9839 463d 4359424C 		.ascii	"CYBLE_EVT_GATTC_SRVC_DISCOVERY_FAILED\000"
ARM GAS  C:\Users\run1009\AppData\Local\Temp\ccSZtXoF.s 			page 285


 9839      455F4556 
 9839      545F4741 
 9839      5454435F 
 9839      53525643 
 9840              	.LASF470:
 9841 4663 4359424C 		.ascii	"CYBLE_EVT_GLSS_INDICATION_ENABLED\000"
 9841      455F4556 
 9841      545F474C 
 9841      53535F49 
 9841      4E444943 
 9842              	.LASF376:
 9843 4685 4359424C 		.ascii	"CYBLE_EVT_ANSS_CHAR_WRITE\000"
 9843      455F4556 
 9843      545F414E 
 9843      53535F43 
 9843      4841525F 
 9844              	.LASF657:
 9845 469f 4359424C 		.ascii	"CYBLE_SRVI_COUNT\000"
 9845      455F5352 
 9845      56495F43 
 9845      4F554E54 
 9845      00
 9846              	.LASF78:
 9847 46b0 4359424C 		.ascii	"CYBLE_EVT_L2CAP_CBFC_CONN_IND\000"
 9847      455F4556 
 9847      545F4C32 
 9847      4341505F 
 9847      43424643 
 9848              	.LASF66:
 9849 46ce 4359424C 		.ascii	"CYBLE_EVT_GATTS_EXEC_WRITE_REQ\000"
 9849      455F4556 
 9849      545F4741 
 9849      5454535F 
 9849      45584543 
 9850              	.LASF26:
 9851 46ed 4359424C 		.ascii	"CYBLE_EVT_GAPC_SCAN_PROGRESS_RESULT\000"
 9851      455F4556 
 9851      545F4741 
 9851      50435F53 
 9851      43414E5F 
 9852              	.LASF719:
 9853 4711 6379426C 		.ascii	"cyBle_connHandle\000"
 9853      655F636F 
 9853      6E6E4861 
 9853      6E646C65 
 9853      00
 9854              	.LASF499:
 9855 4722 4359424C 		.ascii	"CYBLE_EVT_HPSC_READ_DESCR_RESPONSE\000"
 9855      455F4556 
 9855      545F4850 
 9855      53435F52 
 9855      4541445F 
 9856              	.LASF450:
 9857 4745 4359424C 		.ascii	"CYBLE_EVT_CTSS_CHAR_WRITE\000"
 9857      455F4556 
 9857      545F4354 
 9857      53535F43 
ARM GAS  C:\Users\run1009\AppData\Local\Temp\ccSZtXoF.s 			page 286


 9857      4841525F 
 9858              	.LASF593:
 9859 475f 4359424C 		.ascii	"CYBLE_EVT_UDSS_INDICATION_ENABLED\000"
 9859      455F4556 
 9859      545F5544 
 9859      53535F49 
 9859      4E444943 
 9860              	.LASF530:
 9861 4781 4359424C 		.ascii	"CYBLE_EVT_IPSC_READ_BLOB_RSP\000"
 9861      455F4556 
 9861      545F4950 
 9861      53435F52 
 9861      4541445F 
 9862              	.LASF267:
 9863 479e 4359424C 		.ascii	"CYBLE_GATT_ERR_CODE_T\000"
 9863      455F4741 
 9863      54545F45 
 9863      52525F43 
 9863      4F44455F 
 9864              	.LASF262:
 9865 47b4 4359424C 		.ascii	"CYBLE_GATT_ERR_ANCS_INVALID_PARAMETER\000"
 9865      455F4741 
 9865      54545F45 
 9865      52525F41 
 9865      4E43535F 
 9866              	.LASF100:
 9867 47da 4359424C 		.ascii	"CYBLE_ERROR_GAP_ROLE\000"
 9867      455F4552 
 9867      524F525F 
 9867      4741505F 
 9867      524F4C45 
 9868              	.LASF512:
 9869 47ef 4359424C 		.ascii	"CYBLE_EVT_HTSS_INDICATION_ENABLED\000"
 9869      455F4556 
 9869      545F4854 
 9869      53535F49 
 9869      4E444943 
 9870              	.LASF710:
 9871 4811 6379426C 		.ascii	"cyBle_stackMemoryRam\000"
 9871      655F7374 
 9871      61636B4D 
 9871      656D6F72 
 9871      7952616D 
 9872              	.LASF673:
 9873 4826 4379426C 		.ascii	"CyBle_ReadMultipleResponseEventHandler\000"
 9873      655F5265 
 9873      61644D75 
 9873      6C746970 
 9873      6C655265 
 9874              	.LASF722:
 9875 484d 6379426C 		.ascii	"cyBle_advertisingIntervalType\000"
 9875      655F6164 
 9875      76657274 
 9875      6973696E 
 9875      67496E74 
 9876              	.LASF604:
 9877 486b 4359424C 		.ascii	"CYBLE_EVT_UDSC_READ_DESCR_RESPONSE\000"
ARM GAS  C:\Users\run1009\AppData\Local\Temp\ccSZtXoF.s 			page 287


 9877      455F4556 
 9877      545F5544 
 9877      53435F52 
 9877      4541445F 
 9878              	.LASF358:
 9879 488e 4359424C 		.ascii	"CYBLE_EVT_AIOSS_DESCR_WRITE\000"
 9879      455F4556 
 9879      545F4149 
 9879      4F53535F 
 9879      44455343 
 9880              	.LASF457:
 9881 48aa 4359424C 		.ascii	"CYBLE_EVT_ESSS_NOTIFICATION_ENABLED\000"
 9881      455F4556 
 9881      545F4553 
 9881      53535F4E 
 9881      4F544946 
 9882              	.LASF47:
 9883 48ce 4359424C 		.ascii	"CYBLE_EVT_GAP_SCAN_REQ_RECVD\000"
 9883      455F4556 
 9883      545F4741 
 9883      505F5343 
 9883      414E5F52 
 9884              	.LASF650:
 9885 48eb 63656E74 		.ascii	"centralAddrResolutionCharHandle\000"
 9885      72616C41 
 9885      64647252 
 9885      65736F6C 
 9885      7574696F 
 9886              	.LASF385:
 9887 490b 4359424C 		.ascii	"CYBLE_EVT_BASC_READ_CHAR_RESPONSE\000"
 9887      455F4556 
 9887      545F4241 
 9887      53435F52 
 9887      4541445F 
 9888              	.LASF477:
 9889 492d 4359424C 		.ascii	"CYBLE_EVT_GLSC_NOTIFICATION\000"
 9889      455F4556 
 9889      545F474C 
 9889      53435F4E 
 9889      4F544946 
 9890              	.LASF150:
 9891 4949 62644164 		.ascii	"bdAddr\000"
 9891      647200
 9892              	.LASF259:
 9893 4950 4359424C 		.ascii	"CYBLE_GATT_ERR_ANS_COMMAND_NOT_SUPPORTED\000"
 9893      455F4741 
 9893      54545F45 
 9893      52525F41 
 9893      4E535F43 
 9894              	.LASF680:
 9895 4979 72657370 		.ascii	"response\000"
 9895      6F6E7365 
 9895      00
 9896              	.LASF583:
 9897 4982 4359424C 		.ascii	"CYBLE_EVT_SCPSS_SCAN_INT_WIN_CHAR_WRITE\000"
 9897      455F4556 
 9897      545F5343 
ARM GAS  C:\Users\run1009\AppData\Local\Temp\ccSZtXoF.s 			page 288


 9897      5053535F 
 9897      5343414E 
 9898              	.LASF628:
 9899 49aa 4359424C 		.ascii	"CYBLE_STATE_INITIALIZING\000"
 9899      455F5354 
 9899      4154455F 
 9899      494E4954 
 9899      49414C49 
 9900              	.LASF208:
 9901 49c3 4359424C 		.ascii	"CYBLE_GATT_READ_RSP\000"
 9901      455F4741 
 9901      54545F52 
 9901      4541445F 
 9901      52535000 
 9902              	.LASF533:
 9903 49d7 4359424C 		.ascii	"CYBLE_EVT_LLSC_WRITE_CHAR_RESPONSE\000"
 9903      455F4556 
 9903      545F4C4C 
 9903      53435F57 
 9903      52495445 
 9904              	.LASF684:
 9905 49fa 62644164 		.ascii	"bdAddrLoc\000"
 9905      64724C6F 
 9905      6300
 9906              	.LASF97:
 9907 4a04 4359424C 		.ascii	"CYBLE_ERROR_NO_CONNECTION\000"
 9907      455F4552 
 9907      524F525F 
 9907      4E4F5F43 
 9907      4F4E4E45 
 9908              	.LASF132:
 9909 4a1e 4359424C 		.ascii	"CYBLE_LL_PWR_LVL_0_DBM\000"
 9909      455F4C4C 
 9909      5F505752 
 9909      5F4C564C 
 9909      5F305F44 
 9910              	.LASF136:
 9911 4a35 4359424C 		.ascii	"CYBLE_LL_ADV_CH_TYPE\000"
 9911      455F4C4C 
 9911      5F414456 
 9911      5F43485F 
 9911      54595045 
 9912              	.LASF408:
 9913 4a4a 4359424C 		.ascii	"CYBLE_EVT_BMSC_READ_DESCR_RESPONSE\000"
 9913      455F4556 
 9913      545F424D 
 9913      53435F52 
 9913      4541445F 
 9914              	.LASF87:
 9915 4a6d 4359424C 		.ascii	"CYBLE_EVT_LE_PING_AUTH_TIMEOUT\000"
 9915      455F4556 
 9915      545F4C45 
 9915      5F50494E 
 9915      475F4155 
 9916              	.LASF125:
 9917 4a8c 4359424C 		.ascii	"CYBLE_API_RESULT_T\000"
 9917      455F4150 
ARM GAS  C:\Users\run1009\AppData\Local\Temp\ccSZtXoF.s 			page 289


 9917      495F5245 
 9917      53554C54 
 9917      5F5400
 9918              	.LASF283:
 9919 4a9f 656E6448 		.ascii	"endHandle\000"
 9919      616E646C 
 9919      6500
 9920              	.LASF410:
 9921 4aa9 4359424C 		.ascii	"CYBLE_EVT_CGMSS_INDICATION_DISABLED\000"
 9921      455F4556 
 9921      545F4347 
 9921      4D53535F 
 9921      494E4449 
 9922              	.LASF720:
 9923 4acd 6379426C 		.ascii	"cyBle_busyStatus\000"
 9923      655F6275 
 9923      73795374 
 9923      61747573 
 9923      00
 9924              	.LASF351:
 9925 4ade 4359424C 		.ascii	"CYBLE_EVT_GATTC_DISCOVERY_COMPLETE\000"
 9925      455F4556 
 9925      545F4741 
 9925      5454435F 
 9925      44495343 
 9926              	.LASF298:
 9927 4b01 4359424C 		.ascii	"CYBLE_GATTC_FIND_INFO_REQ_T\000"
 9927      455F4741 
 9927      5454435F 
 9927      46494E44 
 9927      5F494E46 
 9928              	.LASF414:
 9929 4b1d 4359424C 		.ascii	"CYBLE_EVT_CGMSS_WRITE_CHAR\000"
 9929      455F4556 
 9929      545F4347 
 9929      4D53535F 
 9929      57524954 
 9930              	.LASF481:
 9931 4b38 4359424C 		.ascii	"CYBLE_EVT_GLSC_WRITE_DESCR_RESPONSE\000"
 9931      455F4556 
 9931      545F474C 
 9931      53435F57 
 9931      52495445 
 9932              	.LASF69:
 9933 4b5c 4359424C 		.ascii	"CYBLE_EVT_GATTC_HANDLE_VALUE_IND\000"
 9933      455F4556 
 9933      545F4741 
 9933      5454435F 
 9933      48414E44 
 9934              	.LASF435:
 9935 4b7d 4359424C 		.ascii	"CYBLE_EVT_CPSC_SCAN_PROGRESS_RESULT\000"
 9935      455F4556 
 9935      545F4350 
 9935      53435F53 
 9935      43414E5F 
 9936              	.LASF577:
 9937 4ba1 4359424C 		.ascii	"CYBLE_EVT_RSCSC_READ_DESCR_RESPONSE\000"
ARM GAS  C:\Users\run1009\AppData\Local\Temp\ccSZtXoF.s 			page 290


 9937      455F4556 
 9937      545F5253 
 9937      4353435F 
 9937      52454144 
 9938              	.LASF682:
 9939 4bc5 6576656E 		.ascii	"eventCode\000"
 9939      74436F64 
 9939      6500
 9940              	.LASF103:
 9941 4bcf 4359424C 		.ascii	"CYBLE_ERROR_SEC_FAILED\000"
 9941      455F4552 
 9941      524F525F 
 9941      5345435F 
 9941      4641494C 
 9942              	.LASF10:
 9943 4be6 75696E74 		.ascii	"uint32_t\000"
 9943      33325F74 
 9943      00
 9944              	.LASF195:
 9945 4bef 636F6E6E 		.ascii	"connLatency\000"
 9945      4C617465 
 9945      6E637900 
 9946              	.LASF180:
 9947 4bfb 4359424C 		.ascii	"CYBLE_GAP_AUTH_ERROR_NUMERIC_COMPARISON_FAILED\000"
 9947      455F4741 
 9947      505F4155 
 9947      54485F45 
 9947      52524F52 
 9948              	.LASF164:
 9949 4c2a 4359424C 		.ascii	"CYBLE_GAP_IOCAP_DISPLAY_YESNO\000"
 9949      455F4741 
 9949      505F494F 
 9949      4341505F 
 9949      44495350 
 9950              	.LASF521:
 9951 4c48 4359424C 		.ascii	"CYBLE_EVT_HTSC_WRITE_DESCR_RESPONSE\000"
 9951      455F4556 
 9951      545F4854 
 9951      53435F57 
 9951      52495445 
 9952              	.LASF38:
 9953 4c6c 4359424C 		.ascii	"CYBLE_EVT_GAP_KEYINFO_EXCHNGE_CMPLT\000"
 9953      455F4556 
 9953      545F4741 
 9953      505F4B45 
 9953      59494E46 
 9954              	.LASF220:
 9955 4c90 4359424C 		.ascii	"CYBLE_GATT_EXECUTE_WRITE_REQ\000"
 9955      455F4741 
 9955      54545F45 
 9955      58454355 
 9955      54455F57 
 9956              	.LASF618:
 9957 4cad 4359424C 		.ascii	"CYBLE_EVT_WPTSC_WRITE_DESCR_RESPONSE\000"
 9957      455F4556 
 9957      545F5750 
 9957      5453435F 
ARM GAS  C:\Users\run1009\AppData\Local\Temp\ccSZtXoF.s 			page 291


 9957      57524954 
 9958              	.LASF142:
 9959 4cd2 4359424C 		.ascii	"CYBLE_BLESS_PWR_IN_DB_T\000"
 9959      455F424C 
 9959      4553535F 
 9959      5057525F 
 9959      494E5F44 
 9960              	.LASF304:
 9961 4cea 61747472 		.ascii	"attrLen\000"
 9961      4C656E00 
 9962              	.LASF138:
 9963 4cf2 4359424C 		.ascii	"CYBLE_LL_MAX_CH_TYPE\000"
 9963      455F4C4C 
 9963      5F4D4158 
 9963      5F43485F 
 9963      54595045 
 9964              	.LASF75:
 9965 4d07 4359424C 		.ascii	"CYBLE_EVT_L2CAP_CONN_PARAM_UPDATE_REQ\000"
 9965      455F4556 
 9965      545F4C32 
 9965      4341505F 
 9965      434F4E4E 
 9966              	.LASF413:
 9967 4d2d 4359424C 		.ascii	"CYBLE_EVT_CGMSS_NOTIFICATION_DISABLED\000"
 9967      455F4556 
 9967      545F4347 
 9967      4D53535F 
 9967      4E4F5449 
 9968              	.LASF706:
 9969 4d53 4379426C 		.ascii	"CyBle_NextCharDscrDiscovery\000"
 9969      655F4E65 
 9969      78744368 
 9969      61724473 
 9969      63724469 
 9970              	.LASF145:
 9971 4d6f 4359424C 		.ascii	"CYBLE_PROTOCOL_REQ_T\000"
 9971      455F5052 
 9971      4F544F43 
 9971      4F4C5F52 
 9971      45515F54 
 9972              	.LASF663:
 9973 4d84 67617474 		.ascii	"gattErr\000"
 9973      45727200 
 9974              	.LASF341:
 9975 4d8c 4359424C 		.ascii	"CYBLE_EVT_GATTC_INCL_DISCOVERY_FAILED\000"
 9975      455F4556 
 9975      545F4741 
 9975      5454435F 
 9975      494E434C 
 9976              	.LASF231:
 9977 4db2 4359424C 		.ascii	"CYBLE_GATT_ERR_WRITE_NOT_PERMITTED\000"
 9977      455F4741 
 9977      54545F45 
 9977      52525F57 
 9977      52495445 
 9978              	.LASF655:
 9979 4dd5 4359424C 		.ascii	"CYBLE_SRVI_CUSTOMS\000"
ARM GAS  C:\Users\run1009\AppData\Local\Temp\ccSZtXoF.s 			page 292


 9979      455F5352 
 9979      56495F43 
 9979      5553544F 
 9979      4D5300
 9980              	.LASF194:
 9981 4de8 636F6E6E 		.ascii	"connIntv\000"
 9981      496E7476 
 9981      00
 9982              	.LASF3:
 9983 4df1 73686F72 		.ascii	"short unsigned int\000"
 9983      7420756E 
 9983      7369676E 
 9983      65642069 
 9983      6E7400
 9984              	.LASF243:
 9985 4e04 4359424C 		.ascii	"CYBLE_GATT_ERR_INSUFFICIENT_ENCRYPTION\000"
 9985      455F4741 
 9985      54545F45 
 9985      52525F49 
 9985      4E535546 
 9986              	.LASF379:
 9987 4e2b 4359424C 		.ascii	"CYBLE_EVT_ANSC_WRITE_CHAR_RESPONSE\000"
 9987      455F4556 
 9987      545F414E 
 9987      53435F57 
 9987      52495445 
 9988              	.LASF544:
 9989 4e4e 4359424C 		.ascii	"CYBLE_EVT_LNSC_READ_DESCR_RESPONSE\000"
 9989      455F4556 
 9989      545F4C4E 
 9989      53435F52 
 9989      4541445F 
 9990              	.LASF629:
 9991 4e71 4359424C 		.ascii	"CYBLE_STATE_CONNECTED\000"
 9991      455F5354 
 9991      4154455F 
 9991      434F4E4E 
 9991      45435445 
 9992              	.LASF729:
 9993 4e87 47656E65 		.ascii	"Generated_Source\\PSoC4\\BLE_eventHandler.c\000"
 9993      72617465 
 9993      645F536F 
 9993      75726365 
 9993      5C50536F 
 9994              	.LASF278:
 9995 4eb1 61637475 		.ascii	"actualLen\000"
 9995      616C4C65 
 9995      6E00
 9996              	.LASF331:
 9997 4ebb 63636364 		.ascii	"cccdHandle\000"
 9997      48616E64 
 9997      6C6500
 9998              	.LASF501:
 9999 4ec6 4359424C 		.ascii	"CYBLE_EVT_HPSC_WRITE_CHAR_RESPONSE\000"
 9999      455F4556 
 9999      545F4850 
 9999      53435F57 
ARM GAS  C:\Users\run1009\AppData\Local\Temp\ccSZtXoF.s 			page 293


 9999      52495445 
 10000              	.LASF213:
 10001 4ee9 4359424C 		.ascii	"CYBLE_GATT_READ_BY_GROUP_REQ\000"
 10001      455F4741 
 10001      54545F52 
 10001      4541445F 
 10001      42595F47 
 10002              	.LASF692:
 10003 4f06 64617461 		.ascii	"dataLength\000"
 10003      4C656E67 
 10003      746800
 10004              	.LASF350:
 10005 4f11 4359424C 		.ascii	"CYBLE_EVT_GATTC_DISC_SKIPPED_SERVICE\000"
 10005      455F4556 
 10005      545F4741 
 10005      5454435F 
 10005      44495343 
 10006              	.LASF476:
 10007 4f36 4359424C 		.ascii	"CYBLE_EVT_GLSC_INDICATION\000"
 10007      455F4556 
 10007      545F474C 
 10007      53435F49 
 10007      4E444943 
 10008              	.LASF427:
 10009 4f50 4359424C 		.ascii	"CYBLE_EVT_CPSS_BROADCAST_DISABLED\000"
 10009      455F4556 
 10009      545F4350 
 10009      53535F42 
 10009      524F4144 
 10010              	.LASF276:
 10011 4f72 61747449 		.ascii	"attId\000"
 10011      6400
 10012              	.LASF93:
 10013 4f78 4359424C 		.ascii	"CYBLE_ERROR_INVALID_OPERATION\000"
 10013      455F4552 
 10013      524F525F 
 10013      494E5641 
 10013      4C49445F 
 10014              	.LASF23:
 10015 4f96 4359424C 		.ascii	"CYBLE_EVT_HCI_STATUS\000"
 10015      455F4556 
 10015      545F4843 
 10015      495F5354 
 10015      41545553 
 10016              	.LASF52:
 10017 4fab 4359424C 		.ascii	"CYBLE_EVT_GATT_DISCONNECT_IND\000"
 10017      455F4556 
 10017      545F4741 
 10017      54545F44 
 10017      4953434F 
 10018              	.LASF196:
 10019 4fc9 73757065 		.ascii	"supervisionTO\000"
 10019      72766973 
 10019      696F6E54 
 10019      4F00
 10020              	.LASF155:
 10021 4fd7 4359424C 		.ascii	"CYBLE_GATT_RSP_TO\000"
ARM GAS  C:\Users\run1009\AppData\Local\Temp\ccSZtXoF.s 			page 294


 10021      455F4741 
 10021      54545F52 
 10021      53505F54 
 10021      4F00
 10022              	.LASF336:
 10023 4fe9 4359424C 		.ascii	"CYBLE_KEY_EXCHANGE_INFO_REQUEST_REPLY\000"
 10023      455F4B45 
 10023      595F4558 
 10023      4348414E 
 10023      47455F49 
 10024              	.LASF85:
 10025 500f 4359424C 		.ascii	"CYBLE_EVT_L2CAP_CBFC_DATA_WRITE_IND\000"
 10025      455F4556 
 10025      545F4C32 
 10025      4341505F 
 10025      43424643 
 10026              	.LASF334:
 10027 5033 4359424C 		.ascii	"CYBLE_PASSKEY_ENTRY_REQUEST_REPLY\000"
 10027      455F5041 
 10027      53534B45 
 10027      595F454E 
 10027      5452595F 
 10028              	.LASF394:
 10029 5055 4359424C 		.ascii	"CYBLE_EVT_BCSC_WRITE_DESCR_RESPONSE\000"
 10029      455F4556 
 10029      545F4243 
 10029      53435F57 
 10029      52495445 
 10030              	.LASF623:
 10031 5079 4359424C 		.ascii	"CYBLE_EVT_WSSC_READ_CHAR_RESPONSE\000"
 10031      455F4556 
 10031      545F5753 
 10031      53435F52 
 10031      4541445F 
 10032              	.LASF74:
 10033 509b 4359424C 		.ascii	"CYBLE_EVT_GATTC_LONG_PROCEDURE_END\000"
 10033      455F4556 
 10033      545F4741 
 10033      5454435F 
 10033      4C4F4E47 
 10034              	.LASF377:
 10035 50be 4359424C 		.ascii	"CYBLE_EVT_ANSC_NOTIFICATION\000"
 10035      455F4556 
 10035      545F414E 
 10035      53435F4E 
 10035      4F544946 
 10036              	.LASF34:
 10037 50da 4359424C 		.ascii	"CYBLE_EVT_GAP_DEVICE_DISCONNECTED\000"
 10037      455F4556 
 10037      545F4741 
 10037      505F4445 
 10037      56494345 
 10038              	.LASF484:
 10039 50fc 4359424C 		.ascii	"CYBLE_EVT_HIDSS_BOOT_MODE_ENTER\000"
 10039      455F4556 
 10039      545F4849 
 10039      4453535F 
ARM GAS  C:\Users\run1009\AppData\Local\Temp\ccSZtXoF.s 			page 295


 10039      424F4F54 
 10040              	.LASF70:
 10041 511c 4359424C 		.ascii	"CYBLE_EVT_GATTS_HANDLE_VALUE_CNF\000"
 10041      455F4556 
 10041      545F4741 
 10041      5454535F 
 10041      48414E44 
 10042              	.LASF525:
 10043 513d 4359424C 		.ascii	"CYBLE_EVT_IPSC_READ_MULTIPLE_CHAR_RESPONSE\000"
 10043      455F4556 
 10043      545F4950 
 10043      53435F52 
 10043      4541445F 
 10044              	.LASF446:
 10045 5168 4359424C 		.ascii	"CYBLE_EVT_CSCSC_READ_DESCR_RESPONSE\000"
 10045      455F4556 
 10045      545F4353 
 10045      4353435F 
 10045      52454144 
 10046              	.LASF12:
 10047 518c 75696E74 		.ascii	"uint16\000"
 10047      313600
 10048              	.LASF370:
 10049 5193 4359424C 		.ascii	"CYBLE_EVT_ANCSC_WRITE_CHAR_RESPONSE\000"
 10049      455F4556 
 10049      545F414E 
 10049      4353435F 
 10049      57524954 
 10050              	.LASF101:
 10051 51b7 4359424C 		.ascii	"CYBLE_ERROR_TX_POWER_READ\000"
 10051      455F4552 
 10051      524F525F 
 10051      54585F50 
 10051      4F574552 
 10052              	.LASF567:
 10053 51d1 4359424C 		.ascii	"CYBLE_EVT_RSCSS_NOTIFICATION_ENABLED\000"
 10053      455F4556 
 10053      545F5253 
 10053      4353535F 
 10053      4E4F5449 
 10054              	.LASF273:
 10055 51f6 4359424C 		.ascii	"CYBLE_UUID_T\000"
 10055      455F5555 
 10055      49445F54 
 10055      00
 10056              	.LASF420:
 10057 5203 4359424C 		.ascii	"CYBLE_EVT_CGMSC_WRITE_DESCR_RESPONSE\000"
 10057      455F4556 
 10057      545F4347 
 10057      4D53435F 
 10057      57524954 
 10058              	.LASF375:
 10059 5228 4359424C 		.ascii	"CYBLE_EVT_ANSS_NOTIFICATION_DISABLED\000"
 10059      455F4556 
 10059      545F414E 
 10059      53535F4E 
 10059      4F544946 
ARM GAS  C:\Users\run1009\AppData\Local\Temp\ccSZtXoF.s 			page 296


 10060              	.LASF517:
 10061 524d 4359424C 		.ascii	"CYBLE_EVT_HTSC_INDICATION\000"
 10061      455F4556 
 10061      545F4854 
 10061      53435F49 
 10061      4E444943 
 10062              	.LASF325:
 10063 5267 76616C75 		.ascii	"valueHandle\000"
 10063      6548616E 
 10063      646C6500 
 10064              	.LASF482:
 10065 5273 4359424C 		.ascii	"CYBLE_EVT_HIDSS_NOTIFICATION_ENABLED\000"
 10065      455F4556 
 10065      545F4849 
 10065      4453535F 
 10065      4E4F5449 
 10066              	.LASF581:
 10067 5298 4359424C 		.ascii	"CYBLE_EVT_SCPSS_NOTIFICATION_ENABLED\000"
 10067      455F4556 
 10067      545F5343 
 10067      5053535F 
 10067      4E4F5449 
 10068              	.LASF514:
 10069 52bd 4359424C 		.ascii	"CYBLE_EVT_HTSS_INDICATION_CONFIRMED\000"
 10069      455F4556 
 10069      545F4854 
 10069      53535F49 
 10069      4E444943 
 10070              	.LASF353:
 10071 52e1 4359424C 		.ascii	"CYBLE_EVT_AIOSS_NOTIFICATION_DISABLED\000"
 10071      455F4556 
 10071      545F4149 
 10071      4F53535F 
 10071      4E4F5449 
 10072              	.LASF611:
 10073 5307 4359424C 		.ascii	"CYBLE_EVT_WPTSS_INDICATION_CONFIRMED\000"
 10073      455F4556 
 10073      545F5750 
 10073      5453535F 
 10073      494E4449 
 10074              	.LASF504:
 10075 532c 4359424C 		.ascii	"CYBLE_EVT_HRSS_NOTIFICATION_DISABLED\000"
 10075      455F4556 
 10075      545F4852 
 10075      53535F4E 
 10075      4F544946 
 10076              		.ident	"GCC: (GNU Tools for ARM Embedded Processors) 5.4.1 20160609 (release) [ARM/embedded-5-bran
