ARM GAS  C:\Users\run1009\AppData\Local\Temp\ccSZtXoF.s 			page 1


   1              		.syntax unified
   2              		.cpu cortex-m0
   3              		.fpu softvfp
   4              		.eabi_attribute 20, 1
   5              		.eabi_attribute 21, 1
   6              		.eabi_attribute 23, 3
   7              		.eabi_attribute 24, 1
   8              		.eabi_attribute 25, 1
   9              		.eabi_attribute 26, 1
  10              		.eabi_attribute 30, 6
  11              		.eabi_attribute 34, 0
  12              		.eabi_attribute 18, 4
  13              		.thumb
  14              		.syntax unified
  15              		.file	"BLE_eventHandler.c"
  16              		.text
  17              	.Ltext0:
  18              		.cfi_sections	.debug_frame
  19              		.comm	cyBle_connHandle,2,4
  20              		.comm	cyBle_eventHandlerFlag,1,1
  21              		.comm	cyBle_busyStatus,1,1
  22              		.global	cyBle_gaps
  23              		.section	.rodata
  24              		.align	2
  25              		.type	cyBle_gaps, %object
  26              		.size	cyBle_gaps, 12
  27              	cyBle_gaps:
  28 0000 0100     		.short	1
  29 0002 0300     		.short	3
  30 0004 0500     		.short	5
  31 0006 0700     		.short	7
  32 0008 0000     		.short	0
  33 000a 0000     		.short	0
  34              		.comm	cyBle_advertisingIntervalType,1,1
  35              		.comm	cyBle_scanningIntervalType,1,1
  36              		.comm	cyBle_disCount,1,1
  37              		.bss
  38              		.align	2
  39              	cyBle_discInclInfo:
  40 0000 00000000 		.space	24
  40      00000000 
  40      00000000 
  40      00000000 
  40      00000000 
  41              		.global	cyBle_serverInfo
  42              		.data
  43              		.align	2
  44              		.type	cyBle_serverInfo, %object
  45              		.size	cyBle_serverInfo, 24
  46              	cyBle_serverInfo:
  47 0000 0000     		.short	0
  48 0002 0000     		.short	0
  49 0004 0018     		.short	6144
  50 0006 0000     		.short	0
  51 0008 0000     		.short	0
  52 000a 0118     		.short	6145
  53 000c 0000     		.short	0
ARM GAS  C:\Users\run1009\AppData\Local\Temp\ccSZtXoF.s 			page 2


  54 000e 0000     		.short	0
  55 0010 0000     		.short	0
  56 0012 0000     		.short	0
  57 0014 0000     		.short	0
  58 0016 0000     		.short	0
  59              		.comm	cyBle_gapc,14,4
  60              		.global	cyBle_authInfo
  61              		.align	2
  62              		.type	cyBle_authInfo, %object
  63              		.size	cyBle_authInfo, 5
  64              	cyBle_authInfo:
  65 0018 10       		.byte	16
  66 0019 00       		.byte	0
  67 001a 10       		.byte	16
  68 001b 00       		.byte	0
  69 001c 00       		.byte	0
  70              		.section	.text.CyBle_WriteReqHandler,"ax",%progbits
  71              		.align	2
  72              		.code	16
  73              		.thumb_func
  74              		.type	CyBle_WriteReqHandler, %function
  75              	CyBle_WriteReqHandler:
  76              	.LFB2:
  77              		.file 1 "Generated_Source\\PSoC4\\BLE_eventHandler.c"
   1:Generated_Source\PSoC4/BLE_eventHandler.c **** /***************************************************************************//**
   2:Generated_Source\PSoC4/BLE_eventHandler.c **** * \file CYBLE_eventHandler.c
   3:Generated_Source\PSoC4/BLE_eventHandler.c **** * \version 3.53
   4:Generated_Source\PSoC4/BLE_eventHandler.c **** * 
   5:Generated_Source\PSoC4/BLE_eventHandler.c **** * \brief
   6:Generated_Source\PSoC4/BLE_eventHandler.c **** *  This file contains the source code for the Event Handler State Machine
   7:Generated_Source\PSoC4/BLE_eventHandler.c **** *  of the BLE Component.
   8:Generated_Source\PSoC4/BLE_eventHandler.c **** * 
   9:Generated_Source\PSoC4/BLE_eventHandler.c **** ********************************************************************************
  10:Generated_Source\PSoC4/BLE_eventHandler.c **** * \copyright
  11:Generated_Source\PSoC4/BLE_eventHandler.c **** * Copyright 2014-2018, Cypress Semiconductor Corporation.  All rights reserved.
  12:Generated_Source\PSoC4/BLE_eventHandler.c **** * You may use this file only in accordance with the license, terms, conditions,
  13:Generated_Source\PSoC4/BLE_eventHandler.c **** * disclaimers, and limitations in the end user license agreement accompanying
  14:Generated_Source\PSoC4/BLE_eventHandler.c **** * the software package with which this file was provided.
  15:Generated_Source\PSoC4/BLE_eventHandler.c **** *******************************************************************************/
  16:Generated_Source\PSoC4/BLE_eventHandler.c **** 
  17:Generated_Source\PSoC4/BLE_eventHandler.c **** #include "BLE_eventHandler.h"
  18:Generated_Source\PSoC4/BLE_eventHandler.c **** 
  19:Generated_Source\PSoC4/BLE_eventHandler.c **** 
  20:Generated_Source\PSoC4/BLE_eventHandler.c **** /***************************************
  21:Generated_Source\PSoC4/BLE_eventHandler.c **** * Private Function Prototypes
  22:Generated_Source\PSoC4/BLE_eventHandler.c **** ***************************************/
  23:Generated_Source\PSoC4/BLE_eventHandler.c **** 
  24:Generated_Source\PSoC4/BLE_eventHandler.c **** static void CyBle_GattDisconnectEventHandler(void);
  25:Generated_Source\PSoC4/BLE_eventHandler.c **** static void CyBle_TimeOutEventHandler(const CYBLE_TO_REASON_CODE_T *eventParam);
  26:Generated_Source\PSoC4/BLE_eventHandler.c **** static void CyBle_GattConnectReqHandler(void);
  27:Generated_Source\PSoC4/BLE_eventHandler.c **** static void CyBle_L2Cap_ConnParamUpdateRspEventHandler(uint16 response);
  28:Generated_Source\PSoC4/BLE_eventHandler.c **** static void CyBle_GapConnUpdateCompleteEventHandler(const CYBLE_GAP_CONN_PARAM_UPDATED_IN_CONTROLLE
  29:Generated_Source\PSoC4/BLE_eventHandler.c **** 
  30:Generated_Source\PSoC4/BLE_eventHandler.c **** 
  31:Generated_Source\PSoC4/BLE_eventHandler.c **** #if (CYBLE_GATT_ROLE_SERVER)
  32:Generated_Source\PSoC4/BLE_eventHandler.c **** 
  33:Generated_Source\PSoC4/BLE_eventHandler.c **** static void CyBle_WriteReqHandler(CYBLE_GATTS_WRITE_REQ_PARAM_T *eventParam);
ARM GAS  C:\Users\run1009\AppData\Local\Temp\ccSZtXoF.s 			page 3


  34:Generated_Source\PSoC4/BLE_eventHandler.c **** static void CyBle_ValueConfirmation(const CYBLE_CONN_HANDLE_T *eventParam);
  35:Generated_Source\PSoC4/BLE_eventHandler.c **** 
  36:Generated_Source\PSoC4/BLE_eventHandler.c **** #endif /* CYBLE_GATT_ROLE_SERVER */
  37:Generated_Source\PSoC4/BLE_eventHandler.c **** 
  38:Generated_Source\PSoC4/BLE_eventHandler.c **** #if (CYBLE_GATT_ROLE_CLIENT)
  39:Generated_Source\PSoC4/BLE_eventHandler.c **** 
  40:Generated_Source\PSoC4/BLE_eventHandler.c **** static void CyBle_GapcDiscoverCharacteristicsEventHandler(CYBLE_DISC_CHAR_INFO_T *discCharInfo);
  41:Generated_Source\PSoC4/BLE_eventHandler.c **** static CYBLE_GATT_ATTR_HANDLE_RANGE_T CyBle_GetCharRange(void);
  42:Generated_Source\PSoC4/BLE_eventHandler.c **** static void CyBle_GattcWriteResponseEventHandler(const CYBLE_CONN_HANDLE_T *eventParam);
  43:Generated_Source\PSoC4/BLE_eventHandler.c **** static void CyBle_NotificationEventHandler(CYBLE_GATTC_HANDLE_VALUE_NTF_PARAM_T *eventParam);
  44:Generated_Source\PSoC4/BLE_eventHandler.c **** static void CyBle_IndicationEventHandler(CYBLE_GATTC_HANDLE_VALUE_IND_PARAM_T *eventParam);
  45:Generated_Source\PSoC4/BLE_eventHandler.c **** static void CyBle_ReadResponseEventHandler(CYBLE_GATTC_READ_RSP_PARAM_T *eventParam);
  46:Generated_Source\PSoC4/BLE_eventHandler.c **** static void CyBle_ReadMultipleResponseEventHandler(CYBLE_GATTC_READ_RSP_PARAM_T *eventParam);
  47:Generated_Source\PSoC4/BLE_eventHandler.c **** 
  48:Generated_Source\PSoC4/BLE_eventHandler.c **** #endif /* CYBLE_GATT_ROLE_CLIENT */
  49:Generated_Source\PSoC4/BLE_eventHandler.c **** 
  50:Generated_Source\PSoC4/BLE_eventHandler.c **** 
  51:Generated_Source\PSoC4/BLE_eventHandler.c **** /***************************************
  52:Generated_Source\PSoC4/BLE_eventHandler.c **** * Global Variables
  53:Generated_Source\PSoC4/BLE_eventHandler.c **** ***************************************/
  54:Generated_Source\PSoC4/BLE_eventHandler.c **** 
  55:Generated_Source\PSoC4/BLE_eventHandler.c **** /* This global variable is initialized after connection with peer device, 
  56:Generated_Source\PSoC4/BLE_eventHandler.c ****    after CYBLE_EVT_GATT_CONNECT_IND event, and could be used by application code
  57:Generated_Source\PSoC4/BLE_eventHandler.c ****    to send data to peer device. 
  58:Generated_Source\PSoC4/BLE_eventHandler.c **** */
  59:Generated_Source\PSoC4/BLE_eventHandler.c **** CYBLE_CONN_HANDLE_T cyBle_connHandle;
  60:Generated_Source\PSoC4/BLE_eventHandler.c **** 
  61:Generated_Source\PSoC4/BLE_eventHandler.c **** volatile uint8 cyBle_eventHandlerFlag;
  62:Generated_Source\PSoC4/BLE_eventHandler.c **** volatile uint8 cyBle_busyStatus;
  63:Generated_Source\PSoC4/BLE_eventHandler.c **** 
  64:Generated_Source\PSoC4/BLE_eventHandler.c **** const CYBLE_GAPS_T cyBle_gaps =
  65:Generated_Source\PSoC4/BLE_eventHandler.c **** {
  66:Generated_Source\PSoC4/BLE_eventHandler.c ****     0x0001u,    /* Handle of the GAP service */
  67:Generated_Source\PSoC4/BLE_eventHandler.c ****     0x0003u,    /* Handle of the Device Name characteristic */
  68:Generated_Source\PSoC4/BLE_eventHandler.c ****     0x0005u,    /* Handle of the Appearance characteristic */
  69:Generated_Source\PSoC4/BLE_eventHandler.c ****     0x0007u,    /* Handle of the Peripheral Preferred Connection Parameters characteristic */
  70:Generated_Source\PSoC4/BLE_eventHandler.c ****     CYBLE_GATT_INVALID_ATTR_HANDLE_VALUE, /* Handle of the Central Address Resolution characteristi
  71:Generated_Source\PSoC4/BLE_eventHandler.c ****     CYBLE_GATT_INVALID_ATTR_HANDLE_VALUE, /* Handle of the Resolvable Private Address Only characte
  72:Generated_Source\PSoC4/BLE_eventHandler.c **** };
  73:Generated_Source\PSoC4/BLE_eventHandler.c **** 
  74:Generated_Source\PSoC4/BLE_eventHandler.c **** 
  75:Generated_Source\PSoC4/BLE_eventHandler.c **** #if(CYBLE_GAP_ROLE_PERIPHERAL || CYBLE_GAP_ROLE_BROADCASTER) 
  76:Generated_Source\PSoC4/BLE_eventHandler.c ****     uint8 cyBle_advertisingIntervalType;
  77:Generated_Source\PSoC4/BLE_eventHandler.c **** #endif /* CYBLE_GAP_ROLE_PERIPHERAL || CYBLE_GAP_ROLE_BROADCASTER) */
  78:Generated_Source\PSoC4/BLE_eventHandler.c **** 
  79:Generated_Source\PSoC4/BLE_eventHandler.c **** #if(CYBLE_GAP_ROLE_CENTRAL || CYBLE_GAP_ROLE_OBSERVER) 
  80:Generated_Source\PSoC4/BLE_eventHandler.c ****     uint8 cyBle_scanningIntervalType;
  81:Generated_Source\PSoC4/BLE_eventHandler.c **** #endif /* CYBLE_GAP_ROLE_CENTRAL || CYBLE_GAP_ROLE_OBSERVER */
  82:Generated_Source\PSoC4/BLE_eventHandler.c **** 
  83:Generated_Source\PSoC4/BLE_eventHandler.c **** #if(CYBLE_GATT_ROLE_SERVER)
  84:Generated_Source\PSoC4/BLE_eventHandler.c **** #if defined CYBLE_CTS_SERVER || defined CYBLE_ESS_SERVER
  85:Generated_Source\PSoC4/BLE_eventHandler.c **** CYBLE_GATT_ERR_CODE_T cyBle_gattError;
  86:Generated_Source\PSoC4/BLE_eventHandler.c **** #endif /* defined CYBLE_CTS_SERVER || defined CYBLE_ESS_SERVER */
  87:Generated_Source\PSoC4/BLE_eventHandler.c **** #endif /* CYBLE_GATT_ROLE_SERVER */
  88:Generated_Source\PSoC4/BLE_eventHandler.c **** 
  89:Generated_Source\PSoC4/BLE_eventHandler.c **** #if(CYBLE_GATT_ROLE_CLIENT)
  90:Generated_Source\PSoC4/BLE_eventHandler.c **** uint8 cyBle_disCount; /* Counter for discovery procedures */
ARM GAS  C:\Users\run1009\AppData\Local\Temp\ccSZtXoF.s 			page 4


  91:Generated_Source\PSoC4/BLE_eventHandler.c **** 
  92:Generated_Source\PSoC4/BLE_eventHandler.c **** #ifdef CYBLE_CUSTOM_CLIENT
  93:Generated_Source\PSoC4/BLE_eventHandler.c **** /* Discovery included service information, used for 128-bit UUID read response handle 
  94:Generated_Source\PSoC4/BLE_eventHandler.c ****    and for continue discovery. 
  95:Generated_Source\PSoC4/BLE_eventHandler.c **** */
  96:Generated_Source\PSoC4/BLE_eventHandler.c **** static CYBLE_DISC_INCL_INFO_T cyBle_discInclInfo;
  97:Generated_Source\PSoC4/BLE_eventHandler.c **** #endif /* CYBLE_CUSTOM_CLIENT */
  98:Generated_Source\PSoC4/BLE_eventHandler.c **** 
  99:Generated_Source\PSoC4/BLE_eventHandler.c **** #ifdef CYBLE_HIDS_CLIENT
 100:Generated_Source\PSoC4/BLE_eventHandler.c ****     static uint8 disServiceIndex;      /* To discovery descriptors for multiple HID service instanc
 101:Generated_Source\PSoC4/BLE_eventHandler.c **** #endif /* CYBLE_HIDS_CLIENT */
 102:Generated_Source\PSoC4/BLE_eventHandler.c **** 
 103:Generated_Source\PSoC4/BLE_eventHandler.c **** CYBLE_DISC_SRVC_INFO_T cyBle_serverInfo[CYBLE_SRVI_COUNT] = /*8*/
 104:Generated_Source\PSoC4/BLE_eventHandler.c **** {
 105:Generated_Source\PSoC4/BLE_eventHandler.c ****     {{CYBLE_GATT_INVALID_ATTR_HANDLE_VALUE, CYBLE_GATT_INVALID_ATTR_HANDLE_VALUE}, CYBLE_UUID_GAP_S
 106:Generated_Source\PSoC4/BLE_eventHandler.c ****     {{CYBLE_GATT_INVALID_ATTR_HANDLE_VALUE, CYBLE_GATT_INVALID_ATTR_HANDLE_VALUE}, CYBLE_UUID_GATT_
 107:Generated_Source\PSoC4/BLE_eventHandler.c **** #ifdef CYBLE_AIOS_CLIENT
 108:Generated_Source\PSoC4/BLE_eventHandler.c ****     {{CYBLE_GATT_INVALID_ATTR_HANDLE_VALUE, CYBLE_GATT_INVALID_ATTR_HANDLE_VALUE}, CYBLE_UUID_AUTOM
 109:Generated_Source\PSoC4/BLE_eventHandler.c **** #endif /* CYBLE_BCS_CLIENT */
 110:Generated_Source\PSoC4/BLE_eventHandler.c **** #ifdef CYBLE_ANCS_CLIENT
 111:Generated_Source\PSoC4/BLE_eventHandler.c ****     {{CYBLE_GATT_INVALID_ATTR_HANDLE_VALUE, CYBLE_GATT_INVALID_ATTR_HANDLE_VALUE}, 0x0000u},
 112:Generated_Source\PSoC4/BLE_eventHandler.c **** #endif /* CYBLE_ANCS_CLIENT */
 113:Generated_Source\PSoC4/BLE_eventHandler.c **** #ifdef CYBLE_ANS_CLIENT
 114:Generated_Source\PSoC4/BLE_eventHandler.c ****     {{CYBLE_GATT_INVALID_ATTR_HANDLE_VALUE, CYBLE_GATT_INVALID_ATTR_HANDLE_VALUE}, 
 115:Generated_Source\PSoC4/BLE_eventHandler.c ****         CYBLE_UUID_ALERT_NOTIFICATION_SERVICE},
 116:Generated_Source\PSoC4/BLE_eventHandler.c **** #endif /* CYBLE_ANS_CLIENT */
 117:Generated_Source\PSoC4/BLE_eventHandler.c **** #ifdef CYBLE_BAS_CLIENT
 118:Generated_Source\PSoC4/BLE_eventHandler.c ****     {{CYBLE_GATT_INVALID_ATTR_HANDLE_VALUE, CYBLE_GATT_INVALID_ATTR_HANDLE_VALUE}, CYBLE_UUID_BAS_S
 119:Generated_Source\PSoC4/BLE_eventHandler.c ****     #if(CYBLE_BASC_SERVICE_COUNT > 1u) /* Generate it by GUI */
 120:Generated_Source\PSoC4/BLE_eventHandler.c ****         
 121:Generated_Source\PSoC4/BLE_eventHandler.c ****     #endif /* CYBLE_BASC_SERVICE_COUNT > 1u */
 122:Generated_Source\PSoC4/BLE_eventHandler.c **** #endif /* CYBLE_BAS_CLIENT */
 123:Generated_Source\PSoC4/BLE_eventHandler.c **** #ifdef CYBLE_BCS_CLIENT
 124:Generated_Source\PSoC4/BLE_eventHandler.c ****     {{CYBLE_GATT_INVALID_ATTR_HANDLE_VALUE, CYBLE_GATT_INVALID_ATTR_HANDLE_VALUE}, CYBLE_UUID_BODY_
 125:Generated_Source\PSoC4/BLE_eventHandler.c **** #endif /* CYBLE_BCS_CLIENT */
 126:Generated_Source\PSoC4/BLE_eventHandler.c **** #ifdef CYBLE_BLS_CLIENT
 127:Generated_Source\PSoC4/BLE_eventHandler.c ****     {{CYBLE_GATT_INVALID_ATTR_HANDLE_VALUE, CYBLE_GATT_INVALID_ATTR_HANDLE_VALUE}, CYBLE_UUID_BLOOD
 128:Generated_Source\PSoC4/BLE_eventHandler.c **** #endif /* CYBLE_BLS_CLIENT */
 129:Generated_Source\PSoC4/BLE_eventHandler.c **** #ifdef CYBLE_BMS_CLIENT
 130:Generated_Source\PSoC4/BLE_eventHandler.c ****     {{CYBLE_GATT_INVALID_ATTR_HANDLE_VALUE, CYBLE_GATT_INVALID_ATTR_HANDLE_VALUE}, CYBLE_UUID_BOND_
 131:Generated_Source\PSoC4/BLE_eventHandler.c **** #endif /* CYBLE_BMS_CLIENT */
 132:Generated_Source\PSoC4/BLE_eventHandler.c **** #ifdef CYBLE_CGMS_CLIENT
 133:Generated_Source\PSoC4/BLE_eventHandler.c ****     {{CYBLE_GATT_INVALID_ATTR_HANDLE_VALUE, CYBLE_GATT_INVALID_ATTR_HANDLE_VALUE}, CYBLE_UUID_CGM_S
 134:Generated_Source\PSoC4/BLE_eventHandler.c **** #endif /* CYBLE_CGMS_CLIENT */
 135:Generated_Source\PSoC4/BLE_eventHandler.c **** #ifdef CYBLE_CPS_CLIENT
 136:Generated_Source\PSoC4/BLE_eventHandler.c ****     {{CYBLE_GATT_INVALID_ATTR_HANDLE_VALUE, CYBLE_GATT_INVALID_ATTR_HANDLE_VALUE}, CYBLE_UUID_CPS_S
 137:Generated_Source\PSoC4/BLE_eventHandler.c **** #endif /* CYBLE_CPS_CLIENT */
 138:Generated_Source\PSoC4/BLE_eventHandler.c **** #ifdef CYBLE_CSCS_CLIENT
 139:Generated_Source\PSoC4/BLE_eventHandler.c ****     {{CYBLE_GATT_INVALID_ATTR_HANDLE_VALUE, CYBLE_GATT_INVALID_ATTR_HANDLE_VALUE}, 
 140:Generated_Source\PSoC4/BLE_eventHandler.c ****         CYBLE_UUID_CYCLING_SPEED_AND_CADENCE_SERVICE},
 141:Generated_Source\PSoC4/BLE_eventHandler.c **** #endif /* CYBLE_CSCS_CLIENT */
 142:Generated_Source\PSoC4/BLE_eventHandler.c **** #ifdef CYBLE_CTS_CLIENT
 143:Generated_Source\PSoC4/BLE_eventHandler.c ****     {{CYBLE_GATT_INVALID_ATTR_HANDLE_VALUE, CYBLE_GATT_INVALID_ATTR_HANDLE_VALUE}, CYBLE_UUID_CURRE
 144:Generated_Source\PSoC4/BLE_eventHandler.c **** #endif /* CYBLE_CTS_CLIENT */
 145:Generated_Source\PSoC4/BLE_eventHandler.c **** #ifdef CYBLE_CUSTOM_CLIENT
 146:Generated_Source\PSoC4/BLE_eventHandler.c ****             {{CYBLE_GATT_INVALID_ATTR_HANDLE_VALUE, CYBLE_GATT_INVALID_ATTR_HANDLE_VALUE}, 0x0000u}
 147:Generated_Source\PSoC4/BLE_eventHandler.c ****         {{CYBLE_GATT_INVALID_ATTR_HANDLE_VALUE, CYBLE_GATT_INVALID_ATTR_HANDLE_VALUE}, 0x0000u},
ARM GAS  C:\Users\run1009\AppData\Local\Temp\ccSZtXoF.s 			page 5


 148:Generated_Source\PSoC4/BLE_eventHandler.c **** 
 149:Generated_Source\PSoC4/BLE_eventHandler.c **** #endif /* CYBLE_CUSTOM_CLIENT */
 150:Generated_Source\PSoC4/BLE_eventHandler.c **** #ifdef CYBLE_DIS_CLIENT
 151:Generated_Source\PSoC4/BLE_eventHandler.c ****     {{CYBLE_GATT_INVALID_ATTR_HANDLE_VALUE, CYBLE_GATT_INVALID_ATTR_HANDLE_VALUE}, CYBLE_UUID_DEVIC
 152:Generated_Source\PSoC4/BLE_eventHandler.c **** #endif /* CYBLE_DIS_CLIENT */
 153:Generated_Source\PSoC4/BLE_eventHandler.c **** #ifdef CYBLE_ESS_CLIENT
 154:Generated_Source\PSoC4/BLE_eventHandler.c ****     {{CYBLE_GATT_INVALID_ATTR_HANDLE_VALUE, CYBLE_GATT_INVALID_ATTR_HANDLE_VALUE}, 
 155:Generated_Source\PSoC4/BLE_eventHandler.c ****         CYBLE_UUID_ENVIRONMENTAL_SENSING_SERVICE},
 156:Generated_Source\PSoC4/BLE_eventHandler.c **** #endif /* CYBLE_ESS_CLIENT */
 157:Generated_Source\PSoC4/BLE_eventHandler.c **** #ifdef CYBLE_GLS_CLIENT
 158:Generated_Source\PSoC4/BLE_eventHandler.c ****     {{CYBLE_GATT_INVALID_ATTR_HANDLE_VALUE, CYBLE_GATT_INVALID_ATTR_HANDLE_VALUE}, CYBLE_UUID_GLUCO
 159:Generated_Source\PSoC4/BLE_eventHandler.c **** #endif /* CYBLE_GLS_CLIENT */
 160:Generated_Source\PSoC4/BLE_eventHandler.c **** #ifdef CYBLE_HIDS_CLIENT
 161:Generated_Source\PSoC4/BLE_eventHandler.c ****     {{CYBLE_GATT_INVALID_ATTR_HANDLE_VALUE, CYBLE_GATT_INVALID_ATTR_HANDLE_VALUE}, CYBLE_UUID_HIDS_
 162:Generated_Source\PSoC4/BLE_eventHandler.c ****     #if(CYBLE_HIDSC_SERVICE_COUNT > 1u) /* Generate it by GUI */
 163:Generated_Source\PSoC4/BLE_eventHandler.c ****         
 164:Generated_Source\PSoC4/BLE_eventHandler.c ****     #endif /* CYBLE_HIDSC_SERVICE_COUNT > 1u */
 165:Generated_Source\PSoC4/BLE_eventHandler.c **** #endif /* CYBLE_HIDS_CLIENT */
 166:Generated_Source\PSoC4/BLE_eventHandler.c **** #ifdef CYBLE_HPS_CLIENT
 167:Generated_Source\PSoC4/BLE_eventHandler.c ****     {{CYBLE_GATT_INVALID_ATTR_HANDLE_VALUE, CYBLE_GATT_INVALID_ATTR_HANDLE_VALUE}, CYBLE_UUID_HTTP_
 168:Generated_Source\PSoC4/BLE_eventHandler.c **** #endif /* CYBLE_HPS_CLIENT */
 169:Generated_Source\PSoC4/BLE_eventHandler.c **** #ifdef CYBLE_HRS_CLIENT
 170:Generated_Source\PSoC4/BLE_eventHandler.c ****     {{CYBLE_GATT_INVALID_ATTR_HANDLE_VALUE, CYBLE_GATT_INVALID_ATTR_HANDLE_VALUE}, CYBLE_UUID_HEART
 171:Generated_Source\PSoC4/BLE_eventHandler.c **** #endif /* CYBLE_HRS_CLIENT */
 172:Generated_Source\PSoC4/BLE_eventHandler.c **** #ifdef CYBLE_HTS_CLIENT
 173:Generated_Source\PSoC4/BLE_eventHandler.c ****     {{CYBLE_GATT_INVALID_ATTR_HANDLE_VALUE, CYBLE_GATT_INVALID_ATTR_HANDLE_VALUE}, CYBLE_UUID_HEALT
 174:Generated_Source\PSoC4/BLE_eventHandler.c **** #endif /* CYBLE_HTS_CLIENT */
 175:Generated_Source\PSoC4/BLE_eventHandler.c **** #ifdef CYBLE_IAS_CLIENT
 176:Generated_Source\PSoC4/BLE_eventHandler.c ****     {{CYBLE_GATT_INVALID_ATTR_HANDLE_VALUE, CYBLE_GATT_INVALID_ATTR_HANDLE_VALUE}, CYBLE_UUID_IMMED
 177:Generated_Source\PSoC4/BLE_eventHandler.c **** #endif /* CYBLE_IAS_CLIENT */
 178:Generated_Source\PSoC4/BLE_eventHandler.c **** #ifdef CYBLE_IPS_CLIENT
 179:Generated_Source\PSoC4/BLE_eventHandler.c ****     {{CYBLE_GATT_INVALID_ATTR_HANDLE_VALUE, CYBLE_GATT_INVALID_ATTR_HANDLE_VALUE}, CYBLE_UUID_IPS_S
 180:Generated_Source\PSoC4/BLE_eventHandler.c **** #endif /* CYBLE_IPS_CLIENT */
 181:Generated_Source\PSoC4/BLE_eventHandler.c **** #ifdef CYBLE_LLS_CLIENT
 182:Generated_Source\PSoC4/BLE_eventHandler.c ****     {{CYBLE_GATT_INVALID_ATTR_HANDLE_VALUE, CYBLE_GATT_INVALID_ATTR_HANDLE_VALUE}, CYBLE_UUID_LINK_
 183:Generated_Source\PSoC4/BLE_eventHandler.c **** #endif /* CYBLE_LLS_CLIENT */
 184:Generated_Source\PSoC4/BLE_eventHandler.c **** #ifdef CYBLE_LNS_CLIENT
 185:Generated_Source\PSoC4/BLE_eventHandler.c ****     {{CYBLE_GATT_INVALID_ATTR_HANDLE_VALUE, CYBLE_GATT_INVALID_ATTR_HANDLE_VALUE}, CYBLE_UUID_LOCAT
 186:Generated_Source\PSoC4/BLE_eventHandler.c **** #endif /* CYBLE_LNS_CLIENT */
 187:Generated_Source\PSoC4/BLE_eventHandler.c **** #ifdef CYBLE_NDCS_CLIENT
 188:Generated_Source\PSoC4/BLE_eventHandler.c ****     {{CYBLE_GATT_INVALID_ATTR_HANDLE_VALUE, CYBLE_GATT_INVALID_ATTR_HANDLE_VALUE}, CYBLE_UUID_NEXT_
 189:Generated_Source\PSoC4/BLE_eventHandler.c **** #endif /* CYBLE_NDCS_CLIENT */
 190:Generated_Source\PSoC4/BLE_eventHandler.c **** #ifdef CYBLE_IPSS_CLIENT
 191:Generated_Source\PSoC4/BLE_eventHandler.c ****     {{CYBLE_GATT_INVALID_ATTR_HANDLE_VALUE, CYBLE_GATT_INVALID_ATTR_HANDLE_VALUE}, CYBLE_UUID_INTER
 192:Generated_Source\PSoC4/BLE_eventHandler.c **** #endif /* CYBLE_IPSS_CLIENT */
 193:Generated_Source\PSoC4/BLE_eventHandler.c **** #ifdef CYBLE_PASS_CLIENT
 194:Generated_Source\PSoC4/BLE_eventHandler.c ****     {{CYBLE_GATT_INVALID_ATTR_HANDLE_VALUE, CYBLE_GATT_INVALID_ATTR_HANDLE_VALUE}, CYBLE_UUID_PHONE
 195:Generated_Source\PSoC4/BLE_eventHandler.c **** #endif /* CYBLE_PASS_CLIENT */
 196:Generated_Source\PSoC4/BLE_eventHandler.c **** #ifdef CYBLE_PLXS_CLIENT
 197:Generated_Source\PSoC4/BLE_eventHandler.c ****     {{CYBLE_GATT_INVALID_ATTR_HANDLE_VALUE, CYBLE_GATT_INVALID_ATTR_HANDLE_VALUE}, CYBLE_UUID_PLX_S
 198:Generated_Source\PSoC4/BLE_eventHandler.c **** #endif /* CYBLE_PLXS_CLIENT */
 199:Generated_Source\PSoC4/BLE_eventHandler.c **** #ifdef CYBLE_RSCS_CLIENT
 200:Generated_Source\PSoC4/BLE_eventHandler.c ****     {{CYBLE_GATT_INVALID_ATTR_HANDLE_VALUE, CYBLE_GATT_INVALID_ATTR_HANDLE_VALUE}, CYBLE_UUID_RUNNI
 201:Generated_Source\PSoC4/BLE_eventHandler.c **** #endif /* CYBLE_RSCS_CLIENT */
 202:Generated_Source\PSoC4/BLE_eventHandler.c **** #ifdef CYBLE_RTUS_CLIENT
 203:Generated_Source\PSoC4/BLE_eventHandler.c ****     {{CYBLE_GATT_INVALID_ATTR_HANDLE_VALUE, CYBLE_GATT_INVALID_ATTR_HANDLE_VALUE}, CYBLE_UUID_REF_T
 204:Generated_Source\PSoC4/BLE_eventHandler.c **** #endif /* CYBLE_RTUS_CLIENT */
ARM GAS  C:\Users\run1009\AppData\Local\Temp\ccSZtXoF.s 			page 6


 205:Generated_Source\PSoC4/BLE_eventHandler.c **** #ifdef CYBLE_SCPS_CLIENT
 206:Generated_Source\PSoC4/BLE_eventHandler.c ****     {{CYBLE_GATT_INVALID_ATTR_HANDLE_VALUE, CYBLE_GATT_INVALID_ATTR_HANDLE_VALUE}, CYBLE_UUID_SCAN_
 207:Generated_Source\PSoC4/BLE_eventHandler.c **** #endif /* CYBLE_SCPS_CLIENT */
 208:Generated_Source\PSoC4/BLE_eventHandler.c **** #ifdef CYBLE_TPS_CLIENT
 209:Generated_Source\PSoC4/BLE_eventHandler.c ****     {{CYBLE_GATT_INVALID_ATTR_HANDLE_VALUE, CYBLE_GATT_INVALID_ATTR_HANDLE_VALUE}, CYBLE_UUID_TX_PO
 210:Generated_Source\PSoC4/BLE_eventHandler.c **** #endif /* CYBLE_TPS_CLIENT */
 211:Generated_Source\PSoC4/BLE_eventHandler.c **** #ifdef CYBLE_UDS_CLIENT
 212:Generated_Source\PSoC4/BLE_eventHandler.c ****     {{CYBLE_GATT_INVALID_ATTR_HANDLE_VALUE, CYBLE_GATT_INVALID_ATTR_HANDLE_VALUE}, CYBLE_UUID_USER_
 213:Generated_Source\PSoC4/BLE_eventHandler.c **** #endif /* CYBLE_UDS_CLIENT */
 214:Generated_Source\PSoC4/BLE_eventHandler.c **** #ifdef CYBLE_WSS_CLIENT
 215:Generated_Source\PSoC4/BLE_eventHandler.c ****     {{CYBLE_GATT_INVALID_ATTR_HANDLE_VALUE, CYBLE_GATT_INVALID_ATTR_HANDLE_VALUE}, CYBLE_UUID_WEIGH
 216:Generated_Source\PSoC4/BLE_eventHandler.c **** #endif /* CYBLE_WSS_CLIENT */
 217:Generated_Source\PSoC4/BLE_eventHandler.c **** #ifdef CYBLE_WPTS_CLIENT
 218:Generated_Source\PSoC4/BLE_eventHandler.c ****     {{CYBLE_GATT_INVALID_ATTR_HANDLE_VALUE, CYBLE_GATT_INVALID_ATTR_HANDLE_VALUE}, CYBLE_UUID_WIREL
 219:Generated_Source\PSoC4/BLE_eventHandler.c **** #endif /* CYBLE_WPTS_CLIENT */
 220:Generated_Source\PSoC4/BLE_eventHandler.c **** };
 221:Generated_Source\PSoC4/BLE_eventHandler.c **** 
 222:Generated_Source\PSoC4/BLE_eventHandler.c **** CYBLE_GAPC_T cyBle_gapc;
 223:Generated_Source\PSoC4/BLE_eventHandler.c **** 
 224:Generated_Source\PSoC4/BLE_eventHandler.c **** #endif /* CYBLE_GATT_ROLE_CLIENT */
 225:Generated_Source\PSoC4/BLE_eventHandler.c **** 
 226:Generated_Source\PSoC4/BLE_eventHandler.c **** /* Default device security */
 227:Generated_Source\PSoC4/BLE_eventHandler.c **** CYBLE_GAP_AUTH_INFO_T cyBle_authInfo =
 228:Generated_Source\PSoC4/BLE_eventHandler.c **** {
 229:Generated_Source\PSoC4/BLE_eventHandler.c ****     (CYBLE_GAP_SEC_MODE_1 | CYBLE_GAP_SEC_LEVEL_1 ), /* uint8 security */
 230:Generated_Source\PSoC4/BLE_eventHandler.c ****     CYBLE_GAP_BONDING_NONE, /* uint8 bonding */
 231:Generated_Source\PSoC4/BLE_eventHandler.c ****     0x10u,      /* uint8 ekeySize */
 232:Generated_Source\PSoC4/BLE_eventHandler.c ****     CYBLE_GAP_AUTH_ERROR_NONE, /* CYBLE_AUTH_FAILED_REASON_T authErr */
 233:Generated_Source\PSoC4/BLE_eventHandler.c ****     0x00u,      /* uint8 pairingProperties */
 234:Generated_Source\PSoC4/BLE_eventHandler.c **** };
 235:Generated_Source\PSoC4/BLE_eventHandler.c **** 
 236:Generated_Source\PSoC4/BLE_eventHandler.c **** #if(CYBLE_GATT_ROLE_SERVER)
 237:Generated_Source\PSoC4/BLE_eventHandler.c **** 
 238:Generated_Source\PSoC4/BLE_eventHandler.c **** 
 239:Generated_Source\PSoC4/BLE_eventHandler.c **** /******************************************************************************    
 240:Generated_Source\PSoC4/BLE_eventHandler.c **** * Function Name: CyBle_WriteReqHandler
 241:Generated_Source\PSoC4/BLE_eventHandler.c **** ***************************************************************************//**
 242:Generated_Source\PSoC4/BLE_eventHandler.c **** * 
 243:Generated_Source\PSoC4/BLE_eventHandler.c **** *  Handles the Write Request event from BLE stack.
 244:Generated_Source\PSoC4/BLE_eventHandler.c **** * 
 245:Generated_Source\PSoC4/BLE_eventHandler.c **** *  CYBLE_GATTS_WRITE_REQ_PARAM_T * eventParam - event parameter
 246:Generated_Source\PSoC4/BLE_eventHandler.c **** * 
 247:Generated_Source\PSoC4/BLE_eventHandler.c **** * \return
 248:Generated_Source\PSoC4/BLE_eventHandler.c **** *  None
 249:Generated_Source\PSoC4/BLE_eventHandler.c **** * 
 250:Generated_Source\PSoC4/BLE_eventHandler.c **** ******************************************************************************/
 251:Generated_Source\PSoC4/BLE_eventHandler.c **** static void CyBle_WriteReqHandler(CYBLE_GATTS_WRITE_REQ_PARAM_T *eventParam)
 252:Generated_Source\PSoC4/BLE_eventHandler.c **** {
  78              		.loc 1 252 0
  79              		.cfi_startproc
  80              		@ args = 0, pretend = 0, frame = 16
  81              		@ frame_needed = 1, uses_anonymous_args = 0
  82 0000 90B5     		push	{r4, r7, lr}
  83              		.cfi_def_cfa_offset 12
  84              		.cfi_offset 4, -12
  85              		.cfi_offset 7, -8
  86              		.cfi_offset 14, -4
ARM GAS  C:\Users\run1009\AppData\Local\Temp\ccSZtXoF.s 			page 7


  87 0002 85B0     		sub	sp, sp, #20
  88              		.cfi_def_cfa_offset 32
  89 0004 00AF     		add	r7, sp, #0
  90              		.cfi_def_cfa_register 7
  91 0006 7860     		str	r0, [r7, #4]
 253:Generated_Source\PSoC4/BLE_eventHandler.c ****     CYBLE_GATT_ERR_CODE_T gattErr;
 254:Generated_Source\PSoC4/BLE_eventHandler.c **** #if defined CYBLE_CTS_SERVER || defined CYBLE_ESS_SERVER
 255:Generated_Source\PSoC4/BLE_eventHandler.c ****     cyBle_gattError = CYBLE_GATT_ERR_NONE;
 256:Generated_Source\PSoC4/BLE_eventHandler.c **** #endif /* defined CYBLE_CTS_SERVER || defined CYBLE_ESS_SERVER */
 257:Generated_Source\PSoC4/BLE_eventHandler.c ****     
 258:Generated_Source\PSoC4/BLE_eventHandler.c ****     gattErr = CyBle_GattsWriteEventHandler(eventParam);
  92              		.loc 1 258 0
  93 0008 0F23     		movs	r3, #15
  94 000a FC18     		adds	r4, r7, r3
  95 000c 7B68     		ldr	r3, [r7, #4]
  96 000e 1800     		movs	r0, r3
  97 0010 FFF7FEFF 		bl	CyBle_GattsWriteEventHandler
  98 0014 0300     		movs	r3, r0
  99 0016 2370     		strb	r3, [r4]
 259:Generated_Source\PSoC4/BLE_eventHandler.c **** #ifdef CYBLE_AIOS_SERVER
 260:Generated_Source\PSoC4/BLE_eventHandler.c ****     if(((cyBle_eventHandlerFlag & CYBLE_CALLBACK) != 0u) && (gattErr == CYBLE_GATT_ERR_NONE))
 261:Generated_Source\PSoC4/BLE_eventHandler.c ****     {
 262:Generated_Source\PSoC4/BLE_eventHandler.c ****         gattErr = CyBle_AiossWriteEventHandler(eventParam);
 263:Generated_Source\PSoC4/BLE_eventHandler.c ****     }
 264:Generated_Source\PSoC4/BLE_eventHandler.c **** #endif /* CYBLE_AIOS_SERVER */
 265:Generated_Source\PSoC4/BLE_eventHandler.c **** #ifdef CYBLE_ANCS_SERVER
 266:Generated_Source\PSoC4/BLE_eventHandler.c ****     if(((cyBle_eventHandlerFlag & CYBLE_CALLBACK) != 0u) && (gattErr == CYBLE_GATT_ERR_NONE))
 267:Generated_Source\PSoC4/BLE_eventHandler.c ****     {
 268:Generated_Source\PSoC4/BLE_eventHandler.c ****         gattErr = CyBle_AncssWriteEventHandler(eventParam);
 269:Generated_Source\PSoC4/BLE_eventHandler.c ****     }
 270:Generated_Source\PSoC4/BLE_eventHandler.c **** #endif /* CYBLE_ANCS_SERVER */
 271:Generated_Source\PSoC4/BLE_eventHandler.c **** #ifdef CYBLE_ANS_SERVER
 272:Generated_Source\PSoC4/BLE_eventHandler.c ****     if(((cyBle_eventHandlerFlag & CYBLE_CALLBACK) != 0u) && (gattErr == CYBLE_GATT_ERR_NONE))
 273:Generated_Source\PSoC4/BLE_eventHandler.c ****     {
 274:Generated_Source\PSoC4/BLE_eventHandler.c ****         gattErr = CyBle_AnssWriteEventHandler(eventParam);
 275:Generated_Source\PSoC4/BLE_eventHandler.c ****     }
 276:Generated_Source\PSoC4/BLE_eventHandler.c **** #endif /* CYBLE_ANS_SERVER */
 277:Generated_Source\PSoC4/BLE_eventHandler.c **** #ifdef CYBLE_BAS_SERVER
 278:Generated_Source\PSoC4/BLE_eventHandler.c ****     if(((cyBle_eventHandlerFlag & CYBLE_CALLBACK) != 0u) && (gattErr == CYBLE_GATT_ERR_NONE))
 279:Generated_Source\PSoC4/BLE_eventHandler.c ****     {
 280:Generated_Source\PSoC4/BLE_eventHandler.c ****         gattErr = CyBle_BassWriteEventHandler(eventParam);
 281:Generated_Source\PSoC4/BLE_eventHandler.c ****     }
 282:Generated_Source\PSoC4/BLE_eventHandler.c **** #endif /* CYBLE_BAS_SERVER */
 283:Generated_Source\PSoC4/BLE_eventHandler.c **** #ifdef CYBLE_BCS_SERVER
 284:Generated_Source\PSoC4/BLE_eventHandler.c ****     if(((cyBle_eventHandlerFlag & CYBLE_CALLBACK) != 0u) && (gattErr == CYBLE_GATT_ERR_NONE))
 285:Generated_Source\PSoC4/BLE_eventHandler.c ****     {
 286:Generated_Source\PSoC4/BLE_eventHandler.c ****         gattErr = CyBle_BcssWriteEventHandler(eventParam);
 287:Generated_Source\PSoC4/BLE_eventHandler.c ****     }
 288:Generated_Source\PSoC4/BLE_eventHandler.c **** #endif /* CYBLE_BCS_SERVER */
 289:Generated_Source\PSoC4/BLE_eventHandler.c **** #ifdef CYBLE_BLS_SERVER
 290:Generated_Source\PSoC4/BLE_eventHandler.c ****     if(((cyBle_eventHandlerFlag & CYBLE_CALLBACK) != 0u) && (gattErr == CYBLE_GATT_ERR_NONE))
 291:Generated_Source\PSoC4/BLE_eventHandler.c ****     {
 292:Generated_Source\PSoC4/BLE_eventHandler.c ****         gattErr = CyBle_BlssWriteEventHandler(eventParam);
 293:Generated_Source\PSoC4/BLE_eventHandler.c ****     }
 294:Generated_Source\PSoC4/BLE_eventHandler.c **** #endif /* CYBLE_BLS_SERVER */
 295:Generated_Source\PSoC4/BLE_eventHandler.c **** #ifdef CYBLE_BMS_SERVER
 296:Generated_Source\PSoC4/BLE_eventHandler.c ****     if(((cyBle_eventHandlerFlag & CYBLE_CALLBACK) != 0u) && (gattErr == CYBLE_GATT_ERR_NONE))
ARM GAS  C:\Users\run1009\AppData\Local\Temp\ccSZtXoF.s 			page 8


 297:Generated_Source\PSoC4/BLE_eventHandler.c ****     {
 298:Generated_Source\PSoC4/BLE_eventHandler.c ****         gattErr = CyBle_BmssWriteEventHandler(eventParam);
 299:Generated_Source\PSoC4/BLE_eventHandler.c ****     }
 300:Generated_Source\PSoC4/BLE_eventHandler.c **** #endif /* CYBLE_BMS_SERVER */
 301:Generated_Source\PSoC4/BLE_eventHandler.c **** #ifdef CYBLE_BTS_SERVER
 302:Generated_Source\PSoC4/BLE_eventHandler.c ****     if((cyBle_eventHandlerFlag & CYBLE_CALLBACK) != 0u)
 303:Generated_Source\PSoC4/BLE_eventHandler.c ****     {
 304:Generated_Source\PSoC4/BLE_eventHandler.c ****         gattErr = CyBle_BtsWriteEventHandler(eventParam);
 305:Generated_Source\PSoC4/BLE_eventHandler.c ****     }
 306:Generated_Source\PSoC4/BLE_eventHandler.c **** #endif /* CYBLE_BTS_SERVER */
 307:Generated_Source\PSoC4/BLE_eventHandler.c **** #ifdef CYBLE_CGMS_SERVER
 308:Generated_Source\PSoC4/BLE_eventHandler.c ****     if(((cyBle_eventHandlerFlag & CYBLE_CALLBACK) != 0u) && (gattErr == CYBLE_GATT_ERR_NONE))
 309:Generated_Source\PSoC4/BLE_eventHandler.c ****     {
 310:Generated_Source\PSoC4/BLE_eventHandler.c ****         gattErr = CyBle_CgmssWriteEventHandler(eventParam);
 311:Generated_Source\PSoC4/BLE_eventHandler.c ****     }
 312:Generated_Source\PSoC4/BLE_eventHandler.c **** #endif /* CYBLE_CGMS_SERVER */
 313:Generated_Source\PSoC4/BLE_eventHandler.c **** #ifdef CYBLE_CPS_SERVER
 314:Generated_Source\PSoC4/BLE_eventHandler.c ****     if(((cyBle_eventHandlerFlag & CYBLE_CALLBACK) != 0u) && (gattErr == CYBLE_GATT_ERR_NONE))
 315:Generated_Source\PSoC4/BLE_eventHandler.c ****     {
 316:Generated_Source\PSoC4/BLE_eventHandler.c ****         gattErr = CyBle_CpssWriteEventHandler(eventParam);
 317:Generated_Source\PSoC4/BLE_eventHandler.c ****     }
 318:Generated_Source\PSoC4/BLE_eventHandler.c **** #endif /* CYBLE_CPS_SERVER */
 319:Generated_Source\PSoC4/BLE_eventHandler.c **** #ifdef CYBLE_CSCS_SERVER
 320:Generated_Source\PSoC4/BLE_eventHandler.c ****     if(((cyBle_eventHandlerFlag & CYBLE_CALLBACK) != 0u) && (gattErr == CYBLE_GATT_ERR_NONE))
 321:Generated_Source\PSoC4/BLE_eventHandler.c ****     {
 322:Generated_Source\PSoC4/BLE_eventHandler.c ****         gattErr = CyBle_CscssWriteEventHandler(eventParam);
 323:Generated_Source\PSoC4/BLE_eventHandler.c ****     }
 324:Generated_Source\PSoC4/BLE_eventHandler.c **** #endif /* CYBLE_CSCS_SERVER */
 325:Generated_Source\PSoC4/BLE_eventHandler.c **** #ifdef CYBLE_CTS_SERVER
 326:Generated_Source\PSoC4/BLE_eventHandler.c ****     if(((cyBle_eventHandlerFlag & CYBLE_CALLBACK) != 0u) && (gattErr == CYBLE_GATT_ERR_NONE))
 327:Generated_Source\PSoC4/BLE_eventHandler.c ****     {
 328:Generated_Source\PSoC4/BLE_eventHandler.c ****         gattErr = CyBle_CtssWriteEventHandler(eventParam);
 329:Generated_Source\PSoC4/BLE_eventHandler.c ****     }
 330:Generated_Source\PSoC4/BLE_eventHandler.c **** #endif /* CYBLE_CTS_SERVER */
 331:Generated_Source\PSoC4/BLE_eventHandler.c **** #ifdef CYBLE_ESS_SERVER
 332:Generated_Source\PSoC4/BLE_eventHandler.c ****     if(((cyBle_eventHandlerFlag & CYBLE_CALLBACK) != 0u) && (gattErr == CYBLE_GATT_ERR_NONE))
 333:Generated_Source\PSoC4/BLE_eventHandler.c ****     {
 334:Generated_Source\PSoC4/BLE_eventHandler.c ****         gattErr = CyBle_EsssWriteEventHandler(eventParam);
 335:Generated_Source\PSoC4/BLE_eventHandler.c ****     }
 336:Generated_Source\PSoC4/BLE_eventHandler.c **** #endif /* CYBLE_ESS_SERVER */
 337:Generated_Source\PSoC4/BLE_eventHandler.c **** #ifdef CYBLE_GLS_SERVER
 338:Generated_Source\PSoC4/BLE_eventHandler.c ****     if(((cyBle_eventHandlerFlag & CYBLE_CALLBACK) != 0u) && (gattErr == CYBLE_GATT_ERR_NONE))
 339:Generated_Source\PSoC4/BLE_eventHandler.c ****     {
 340:Generated_Source\PSoC4/BLE_eventHandler.c ****         gattErr = CyBle_GlssWriteEventHandler(eventParam);
 341:Generated_Source\PSoC4/BLE_eventHandler.c ****     }
 342:Generated_Source\PSoC4/BLE_eventHandler.c **** #endif /* CYBLE_GLS_SERVER */
 343:Generated_Source\PSoC4/BLE_eventHandler.c **** #ifdef CYBLE_HIDS_SERVER
 344:Generated_Source\PSoC4/BLE_eventHandler.c ****     if(((cyBle_eventHandlerFlag & CYBLE_CALLBACK) != 0u) && (gattErr == CYBLE_GATT_ERR_NONE))
 345:Generated_Source\PSoC4/BLE_eventHandler.c ****     {
 346:Generated_Source\PSoC4/BLE_eventHandler.c ****         gattErr = CyBle_HidssWriteEventHandler(eventParam);
 347:Generated_Source\PSoC4/BLE_eventHandler.c ****     }
 348:Generated_Source\PSoC4/BLE_eventHandler.c **** #endif /* CYBLE_HIDS_SERVER */
 349:Generated_Source\PSoC4/BLE_eventHandler.c **** #ifdef CYBLE_HPS_SERVER
 350:Generated_Source\PSoC4/BLE_eventHandler.c ****     if(((cyBle_eventHandlerFlag & CYBLE_CALLBACK) != 0u) && (gattErr == CYBLE_GATT_ERR_NONE))
 351:Generated_Source\PSoC4/BLE_eventHandler.c ****     {
 352:Generated_Source\PSoC4/BLE_eventHandler.c ****         gattErr = CyBle_HpssWriteEventHandler(eventParam);
 353:Generated_Source\PSoC4/BLE_eventHandler.c ****     }
ARM GAS  C:\Users\run1009\AppData\Local\Temp\ccSZtXoF.s 			page 9


 354:Generated_Source\PSoC4/BLE_eventHandler.c **** #endif /* CYBLE_HPS_SERVER */
 355:Generated_Source\PSoC4/BLE_eventHandler.c **** #ifdef CYBLE_HRS_SERVER
 356:Generated_Source\PSoC4/BLE_eventHandler.c ****     if(((cyBle_eventHandlerFlag & CYBLE_CALLBACK) != 0u) && (gattErr == CYBLE_GATT_ERR_NONE))
 357:Generated_Source\PSoC4/BLE_eventHandler.c ****     {
 358:Generated_Source\PSoC4/BLE_eventHandler.c ****         gattErr = CyBle_HrssWriteEventHandler(eventParam);
 359:Generated_Source\PSoC4/BLE_eventHandler.c ****     }
 360:Generated_Source\PSoC4/BLE_eventHandler.c **** #endif /* CYBLE_HRS_SERVER */
 361:Generated_Source\PSoC4/BLE_eventHandler.c **** #ifdef CYBLE_HTS_SERVER
 362:Generated_Source\PSoC4/BLE_eventHandler.c ****     if(((cyBle_eventHandlerFlag & CYBLE_CALLBACK) != 0u) && (gattErr == CYBLE_GATT_ERR_NONE))
 363:Generated_Source\PSoC4/BLE_eventHandler.c ****     {
 364:Generated_Source\PSoC4/BLE_eventHandler.c ****         gattErr = CyBle_HtssWriteEventHandler(eventParam);
 365:Generated_Source\PSoC4/BLE_eventHandler.c ****     }
 366:Generated_Source\PSoC4/BLE_eventHandler.c **** #endif /* CYBLE_HTS_SERVER */
 367:Generated_Source\PSoC4/BLE_eventHandler.c **** #ifdef CYBLE_IPS_SERVER
 368:Generated_Source\PSoC4/BLE_eventHandler.c ****     if(((cyBle_eventHandlerFlag & CYBLE_CALLBACK) != 0u) && (gattErr == CYBLE_GATT_ERR_NONE))
 369:Generated_Source\PSoC4/BLE_eventHandler.c ****     {
 370:Generated_Source\PSoC4/BLE_eventHandler.c ****         gattErr = CyBle_IpssWriteEventHandler(eventParam);
 371:Generated_Source\PSoC4/BLE_eventHandler.c ****     }
 372:Generated_Source\PSoC4/BLE_eventHandler.c **** #endif /* CYBLE_IPS_SERVER */
 373:Generated_Source\PSoC4/BLE_eventHandler.c **** #ifdef CYBLE_LLS_SERVER
 374:Generated_Source\PSoC4/BLE_eventHandler.c ****     if(((cyBle_eventHandlerFlag & CYBLE_CALLBACK) != 0u) && (gattErr == CYBLE_GATT_ERR_NONE))
 375:Generated_Source\PSoC4/BLE_eventHandler.c ****     {
 376:Generated_Source\PSoC4/BLE_eventHandler.c ****         gattErr = CyBle_LlssWriteEventHandler(eventParam);
 377:Generated_Source\PSoC4/BLE_eventHandler.c ****     }
 378:Generated_Source\PSoC4/BLE_eventHandler.c **** #endif /* CYBLE_LLS_SERVER */
 379:Generated_Source\PSoC4/BLE_eventHandler.c **** #ifdef CYBLE_LNS_SERVER
 380:Generated_Source\PSoC4/BLE_eventHandler.c ****     if(((cyBle_eventHandlerFlag & CYBLE_CALLBACK) != 0u) && (gattErr == CYBLE_GATT_ERR_NONE))
 381:Generated_Source\PSoC4/BLE_eventHandler.c ****     {
 382:Generated_Source\PSoC4/BLE_eventHandler.c ****         gattErr = CyBle_LnssWriteEventHandler(eventParam);
 383:Generated_Source\PSoC4/BLE_eventHandler.c ****     }
 384:Generated_Source\PSoC4/BLE_eventHandler.c **** #endif /* CYBLE_LNS_SERVER */
 385:Generated_Source\PSoC4/BLE_eventHandler.c **** #ifdef CYBLE_PASS_SERVER
 386:Generated_Source\PSoC4/BLE_eventHandler.c ****     if(((cyBle_eventHandlerFlag & CYBLE_CALLBACK) != 0u) && (gattErr == CYBLE_GATT_ERR_NONE))
 387:Generated_Source\PSoC4/BLE_eventHandler.c ****     {
 388:Generated_Source\PSoC4/BLE_eventHandler.c ****         gattErr = CyBle_PasssWriteEventHandler(eventParam);
 389:Generated_Source\PSoC4/BLE_eventHandler.c ****     }
 390:Generated_Source\PSoC4/BLE_eventHandler.c **** #endif /* CYBLE_PASS_SERVER */
 391:Generated_Source\PSoC4/BLE_eventHandler.c **** #ifdef CYBLE_PLXS_SERVER
 392:Generated_Source\PSoC4/BLE_eventHandler.c ****     if(((cyBle_eventHandlerFlag & CYBLE_CALLBACK) != 0u) && (gattErr == CYBLE_GATT_ERR_NONE))
 393:Generated_Source\PSoC4/BLE_eventHandler.c ****     {
 394:Generated_Source\PSoC4/BLE_eventHandler.c ****         gattErr = CyBle_PlxssWriteEventHandler(eventParam);
 395:Generated_Source\PSoC4/BLE_eventHandler.c ****     }
 396:Generated_Source\PSoC4/BLE_eventHandler.c **** #endif /* CYBLE_PLXS_SERVER */    
 397:Generated_Source\PSoC4/BLE_eventHandler.c **** #ifdef CYBLE_RSCS_SERVER
 398:Generated_Source\PSoC4/BLE_eventHandler.c ****     if(((cyBle_eventHandlerFlag & CYBLE_CALLBACK) != 0u) && (gattErr == CYBLE_GATT_ERR_NONE))
 399:Generated_Source\PSoC4/BLE_eventHandler.c ****     {
 400:Generated_Source\PSoC4/BLE_eventHandler.c ****         gattErr = CyBle_RscssWriteEventHandler(eventParam);
 401:Generated_Source\PSoC4/BLE_eventHandler.c ****     }
 402:Generated_Source\PSoC4/BLE_eventHandler.c **** #endif /* CYBLE_RSCS_SERVER */
 403:Generated_Source\PSoC4/BLE_eventHandler.c **** #ifdef CYBLE_SCPS_SERVER
 404:Generated_Source\PSoC4/BLE_eventHandler.c ****     if(((cyBle_eventHandlerFlag & CYBLE_CALLBACK) != 0u) && (gattErr == CYBLE_GATT_ERR_NONE))
 405:Generated_Source\PSoC4/BLE_eventHandler.c ****     {
 406:Generated_Source\PSoC4/BLE_eventHandler.c ****         gattErr = CyBle_ScpssWriteEventHandler(eventParam);
 407:Generated_Source\PSoC4/BLE_eventHandler.c ****     }
 408:Generated_Source\PSoC4/BLE_eventHandler.c **** #endif /* CYBLE_SCPS_SERVER */
 409:Generated_Source\PSoC4/BLE_eventHandler.c **** #ifdef CYBLE_TPS_SERVER
 410:Generated_Source\PSoC4/BLE_eventHandler.c ****     if(((cyBle_eventHandlerFlag & CYBLE_CALLBACK) != 0u) && (gattErr == CYBLE_GATT_ERR_NONE))
ARM GAS  C:\Users\run1009\AppData\Local\Temp\ccSZtXoF.s 			page 10


 411:Generated_Source\PSoC4/BLE_eventHandler.c ****     {
 412:Generated_Source\PSoC4/BLE_eventHandler.c ****         gattErr = CyBle_TpssWriteEventHandler(eventParam);
 413:Generated_Source\PSoC4/BLE_eventHandler.c ****     }
 414:Generated_Source\PSoC4/BLE_eventHandler.c **** #endif /* CYBLE_TPS_SERVER */
 415:Generated_Source\PSoC4/BLE_eventHandler.c **** #ifdef CYBLE_UDS_SERVER
 416:Generated_Source\PSoC4/BLE_eventHandler.c ****     if(((cyBle_eventHandlerFlag & CYBLE_CALLBACK) != 0u) && (gattErr == CYBLE_GATT_ERR_NONE))
 417:Generated_Source\PSoC4/BLE_eventHandler.c ****     {
 418:Generated_Source\PSoC4/BLE_eventHandler.c ****         gattErr = CyBle_UdssWriteEventHandler(eventParam);
 419:Generated_Source\PSoC4/BLE_eventHandler.c ****     }
 420:Generated_Source\PSoC4/BLE_eventHandler.c **** #endif /* CYBLE_UDS_SERVER */
 421:Generated_Source\PSoC4/BLE_eventHandler.c **** #ifdef CYBLE_WPTS_SERVER
 422:Generated_Source\PSoC4/BLE_eventHandler.c ****     if(((cyBle_eventHandlerFlag & CYBLE_CALLBACK) != 0u) && (gattErr == CYBLE_GATT_ERR_NONE))
 423:Generated_Source\PSoC4/BLE_eventHandler.c ****     {
 424:Generated_Source\PSoC4/BLE_eventHandler.c ****         gattErr = CyBle_WptssWriteEventHandler(eventParam);
 425:Generated_Source\PSoC4/BLE_eventHandler.c ****     }
 426:Generated_Source\PSoC4/BLE_eventHandler.c **** #endif /* CYBLE_WPTS_SERVER */
 427:Generated_Source\PSoC4/BLE_eventHandler.c **** #ifdef CYBLE_WSS_SERVER
 428:Generated_Source\PSoC4/BLE_eventHandler.c ****     if(((cyBle_eventHandlerFlag & CYBLE_CALLBACK) != 0u) && (gattErr == CYBLE_GATT_ERR_NONE))
 429:Generated_Source\PSoC4/BLE_eventHandler.c ****     {
 430:Generated_Source\PSoC4/BLE_eventHandler.c ****         gattErr = CyBle_WsssWriteEventHandler(eventParam);
 431:Generated_Source\PSoC4/BLE_eventHandler.c ****     }
 432:Generated_Source\PSoC4/BLE_eventHandler.c **** #endif /* CYBLE_WSS_SERVER */
 433:Generated_Source\PSoC4/BLE_eventHandler.c **** 
 434:Generated_Source\PSoC4/BLE_eventHandler.c ****     /* Send response when event was handled by service */
 435:Generated_Source\PSoC4/BLE_eventHandler.c ****     if((cyBle_eventHandlerFlag & CYBLE_CALLBACK) == 0u)
 100              		.loc 1 435 0
 101 0018 154B     		ldr	r3, .L5
 102 001a 1B78     		ldrb	r3, [r3]
 103 001c DBB2     		uxtb	r3, r3
 104 001e 1A00     		movs	r2, r3
 105 0020 0123     		movs	r3, #1
 106 0022 1340     		ands	r3, r2
 107 0024 1FD1     		bne	.L4
 436:Generated_Source\PSoC4/BLE_eventHandler.c ****     {
 437:Generated_Source\PSoC4/BLE_eventHandler.c ****         if(gattErr != CYBLE_GATT_ERR_NONE)
 108              		.loc 1 437 0
 109 0026 0F23     		movs	r3, #15
 110 0028 FB18     		adds	r3, r7, r3
 111 002a 1B78     		ldrb	r3, [r3]
 112 002c 002B     		cmp	r3, #0
 113 002e 16D0     		beq	.L3
 114              	.LBB2:
 438:Generated_Source\PSoC4/BLE_eventHandler.c ****         {
 439:Generated_Source\PSoC4/BLE_eventHandler.c ****             CYBLE_GATTS_ERR_PARAM_T err_param;
 440:Generated_Source\PSoC4/BLE_eventHandler.c ****             
 441:Generated_Source\PSoC4/BLE_eventHandler.c ****             err_param.opcode = (uint8) CYBLE_GATT_WRITE_REQ;
 115              		.loc 1 441 0
 116 0030 0823     		movs	r3, #8
 117 0032 FB18     		adds	r3, r7, r3
 118 0034 1222     		movs	r2, #18
 119 0036 9A70     		strb	r2, [r3, #2]
 442:Generated_Source\PSoC4/BLE_eventHandler.c ****             err_param.attrHandle = eventParam->handleValPair.attrHandle;
 120              		.loc 1 442 0
 121 0038 7B68     		ldr	r3, [r7, #4]
 122 003a 9A89     		ldrh	r2, [r3, #12]
 123 003c 0823     		movs	r3, #8
 124 003e FB18     		adds	r3, r7, r3
ARM GAS  C:\Users\run1009\AppData\Local\Temp\ccSZtXoF.s 			page 11


 125 0040 1A80     		strh	r2, [r3]
 443:Generated_Source\PSoC4/BLE_eventHandler.c ****             err_param.errorCode = gattErr;
 126              		.loc 1 443 0
 127 0042 0823     		movs	r3, #8
 128 0044 FB18     		adds	r3, r7, r3
 129 0046 0F22     		movs	r2, #15
 130 0048 BA18     		adds	r2, r7, r2
 131 004a 1278     		ldrb	r2, [r2]
 132 004c DA70     		strb	r2, [r3, #3]
 444:Generated_Source\PSoC4/BLE_eventHandler.c **** 
 445:Generated_Source\PSoC4/BLE_eventHandler.c ****             /* Send Error Response */
 446:Generated_Source\PSoC4/BLE_eventHandler.c ****             (void)CyBle_GattsErrorRsp(eventParam->connHandle, &err_param);
 133              		.loc 1 446 0
 134 004e 0823     		movs	r3, #8
 135 0050 FA18     		adds	r2, r7, r3
 136 0052 7B68     		ldr	r3, [r7, #4]
 137 0054 1100     		movs	r1, r2
 138 0056 1868     		ldr	r0, [r3]
 139 0058 FFF7FEFF 		bl	CyBle_GattsErrorRsp
 140              	.LBE2:
 447:Generated_Source\PSoC4/BLE_eventHandler.c ****         }
 448:Generated_Source\PSoC4/BLE_eventHandler.c ****         else
 449:Generated_Source\PSoC4/BLE_eventHandler.c ****         {
 450:Generated_Source\PSoC4/BLE_eventHandler.c ****             (void)CyBle_GattsWriteRsp(eventParam->connHandle);
 451:Generated_Source\PSoC4/BLE_eventHandler.c ****         }
 452:Generated_Source\PSoC4/BLE_eventHandler.c ****     }
 453:Generated_Source\PSoC4/BLE_eventHandler.c **** }
 141              		.loc 1 453 0
 142 005c 03E0     		b	.L4
 143              	.L3:
 450:Generated_Source\PSoC4/BLE_eventHandler.c ****         }
 144              		.loc 1 450 0
 145 005e 7B68     		ldr	r3, [r7, #4]
 146 0060 1868     		ldr	r0, [r3]
 147 0062 FFF7FEFF 		bl	CyBle_GattsWriteRsp
 148              	.L4:
 149              		.loc 1 453 0
 150 0066 C046     		nop
 151 0068 BD46     		mov	sp, r7
 152 006a 05B0     		add	sp, sp, #20
 153              		@ sp needed
 154 006c 90BD     		pop	{r4, r7, pc}
 155              	.L6:
 156 006e C046     		.align	2
 157              	.L5:
 158 0070 00000000 		.word	cyBle_eventHandlerFlag
 159              		.cfi_endproc
 160              	.LFE2:
 161              		.size	CyBle_WriteReqHandler, .-CyBle_WriteReqHandler
 162              		.section	.text.CyBle_ValueConfirmation,"ax",%progbits
 163              		.align	2
 164              		.code	16
 165              		.thumb_func
 166              		.type	CyBle_ValueConfirmation, %function
 167              	CyBle_ValueConfirmation:
 168              	.LFB3:
 454:Generated_Source\PSoC4/BLE_eventHandler.c **** 
ARM GAS  C:\Users\run1009\AppData\Local\Temp\ccSZtXoF.s 			page 12


 455:Generated_Source\PSoC4/BLE_eventHandler.c **** 
 456:Generated_Source\PSoC4/BLE_eventHandler.c **** /****************************************************************************** 
 457:Generated_Source\PSoC4/BLE_eventHandler.c **** * Function Name: CyBle_ValueConfirmation
 458:Generated_Source\PSoC4/BLE_eventHandler.c **** ***************************************************************************//**
 459:Generated_Source\PSoC4/BLE_eventHandler.c **** * 
 460:Generated_Source\PSoC4/BLE_eventHandler.c **** *  Handles the Value Confirmation request event from the BLE stack.
 461:Generated_Source\PSoC4/BLE_eventHandler.c **** * 
 462:Generated_Source\PSoC4/BLE_eventHandler.c **** *  \param eventParam: Pointer to a structure of type 'CYBLE_CONN_HANDLE_T'
 463:Generated_Source\PSoC4/BLE_eventHandler.c **** * 
 464:Generated_Source\PSoC4/BLE_eventHandler.c **** * \return
 465:Generated_Source\PSoC4/BLE_eventHandler.c **** *  None
 466:Generated_Source\PSoC4/BLE_eventHandler.c **** * 
 467:Generated_Source\PSoC4/BLE_eventHandler.c **** ******************************************************************************/
 468:Generated_Source\PSoC4/BLE_eventHandler.c **** static void CyBle_ValueConfirmation(const CYBLE_CONN_HANDLE_T *eventParam)
 469:Generated_Source\PSoC4/BLE_eventHandler.c **** {
 169              		.loc 1 469 0
 170              		.cfi_startproc
 171              		@ args = 0, pretend = 0, frame = 8
 172              		@ frame_needed = 1, uses_anonymous_args = 0
 173 0000 80B5     		push	{r7, lr}
 174              		.cfi_def_cfa_offset 8
 175              		.cfi_offset 7, -8
 176              		.cfi_offset 14, -4
 177 0002 82B0     		sub	sp, sp, #8
 178              		.cfi_def_cfa_offset 16
 179 0004 00AF     		add	r7, sp, #0
 180              		.cfi_def_cfa_register 7
 181 0006 7860     		str	r0, [r7, #4]
 470:Generated_Source\PSoC4/BLE_eventHandler.c ****     if(eventParam != NULL)
 471:Generated_Source\PSoC4/BLE_eventHandler.c ****     {
 472:Generated_Source\PSoC4/BLE_eventHandler.c ****     #ifdef CYBLE_AIOS_SERVER
 473:Generated_Source\PSoC4/BLE_eventHandler.c ****         if((cyBle_eventHandlerFlag & CYBLE_CALLBACK) != 0u)
 474:Generated_Source\PSoC4/BLE_eventHandler.c ****         {
 475:Generated_Source\PSoC4/BLE_eventHandler.c ****             CyBle_AiossConfirmationEventHandler(eventParam);
 476:Generated_Source\PSoC4/BLE_eventHandler.c ****         }
 477:Generated_Source\PSoC4/BLE_eventHandler.c ****     #endif /* CYBLE_AIOS_SERVER */
 478:Generated_Source\PSoC4/BLE_eventHandler.c ****     #ifdef CYBLE_BCS_SERVER
 479:Generated_Source\PSoC4/BLE_eventHandler.c ****         CyBle_BcssConfirmationEventHandler(eventParam);
 480:Generated_Source\PSoC4/BLE_eventHandler.c ****     #endif /* CYBLE_BCS_SERVER */
 481:Generated_Source\PSoC4/BLE_eventHandler.c ****     #ifdef CYBLE_BLS_SERVER
 482:Generated_Source\PSoC4/BLE_eventHandler.c ****         if((cyBle_eventHandlerFlag & CYBLE_CALLBACK) != 0u)
 483:Generated_Source\PSoC4/BLE_eventHandler.c ****         {
 484:Generated_Source\PSoC4/BLE_eventHandler.c ****             CyBle_BlssConfirmationEventHandler(eventParam);
 485:Generated_Source\PSoC4/BLE_eventHandler.c ****         }
 486:Generated_Source\PSoC4/BLE_eventHandler.c ****     #endif /* CYBLE_BLS_SERVER */
 487:Generated_Source\PSoC4/BLE_eventHandler.c ****     
 488:Generated_Source\PSoC4/BLE_eventHandler.c ****     #ifdef CYBLE_CGMS_SERVER
 489:Generated_Source\PSoC4/BLE_eventHandler.c ****         if((cyBle_eventHandlerFlag & CYBLE_CALLBACK) != 0u)
 490:Generated_Source\PSoC4/BLE_eventHandler.c ****         {
 491:Generated_Source\PSoC4/BLE_eventHandler.c ****             CyBle_CgmssConfirmationEventHandler(eventParam);
 492:Generated_Source\PSoC4/BLE_eventHandler.c ****         }
 493:Generated_Source\PSoC4/BLE_eventHandler.c ****     #endif /* CYBLE_CGMS_SERVER */
 494:Generated_Source\PSoC4/BLE_eventHandler.c ****     
 495:Generated_Source\PSoC4/BLE_eventHandler.c ****     #ifdef CYBLE_CPS_SERVER
 496:Generated_Source\PSoC4/BLE_eventHandler.c ****         if((cyBle_eventHandlerFlag & CYBLE_CALLBACK) != 0u)
 497:Generated_Source\PSoC4/BLE_eventHandler.c ****         {
 498:Generated_Source\PSoC4/BLE_eventHandler.c ****             CyBle_CpssConfirmationEventHandler(eventParam);
ARM GAS  C:\Users\run1009\AppData\Local\Temp\ccSZtXoF.s 			page 13


 499:Generated_Source\PSoC4/BLE_eventHandler.c ****         }
 500:Generated_Source\PSoC4/BLE_eventHandler.c ****     #endif /* CYBLE_CPS_SERVER */
 501:Generated_Source\PSoC4/BLE_eventHandler.c ****     
 502:Generated_Source\PSoC4/BLE_eventHandler.c ****     #ifdef CYBLE_CSCS_SERVER
 503:Generated_Source\PSoC4/BLE_eventHandler.c ****         if((cyBle_eventHandlerFlag & CYBLE_CALLBACK) != 0u)
 504:Generated_Source\PSoC4/BLE_eventHandler.c ****         {
 505:Generated_Source\PSoC4/BLE_eventHandler.c ****             CyBle_CscssConfirmationEventHandler(eventParam);
 506:Generated_Source\PSoC4/BLE_eventHandler.c ****         }
 507:Generated_Source\PSoC4/BLE_eventHandler.c ****     #endif /* CYBLE_CSCS_SERVER */
 508:Generated_Source\PSoC4/BLE_eventHandler.c ****     
 509:Generated_Source\PSoC4/BLE_eventHandler.c ****     #ifdef CYBLE_ESS_SERVER
 510:Generated_Source\PSoC4/BLE_eventHandler.c ****         if((cyBle_eventHandlerFlag & CYBLE_CALLBACK) != 0u)
 511:Generated_Source\PSoC4/BLE_eventHandler.c ****         {
 512:Generated_Source\PSoC4/BLE_eventHandler.c ****             CyBle_EsssConfirmationEventHandler(eventParam);
 513:Generated_Source\PSoC4/BLE_eventHandler.c ****         }
 514:Generated_Source\PSoC4/BLE_eventHandler.c ****     #endif /* CYBLE_ESS_SERVER */
 515:Generated_Source\PSoC4/BLE_eventHandler.c ****     
 516:Generated_Source\PSoC4/BLE_eventHandler.c ****     #ifdef CYBLE_GLS_SERVER
 517:Generated_Source\PSoC4/BLE_eventHandler.c ****         if((cyBle_eventHandlerFlag & CYBLE_CALLBACK) != 0u)
 518:Generated_Source\PSoC4/BLE_eventHandler.c ****         {
 519:Generated_Source\PSoC4/BLE_eventHandler.c ****             CyBle_GlssConfirmationEventHandler(eventParam);
 520:Generated_Source\PSoC4/BLE_eventHandler.c ****         }
 521:Generated_Source\PSoC4/BLE_eventHandler.c ****     #endif /* CYBLE_GLS_SERVER */
 522:Generated_Source\PSoC4/BLE_eventHandler.c ****     
 523:Generated_Source\PSoC4/BLE_eventHandler.c ****     #ifdef CYBLE_HTS_SERVER
 524:Generated_Source\PSoC4/BLE_eventHandler.c ****         if((cyBle_eventHandlerFlag & CYBLE_CALLBACK) != 0u)
 525:Generated_Source\PSoC4/BLE_eventHandler.c ****         {
 526:Generated_Source\PSoC4/BLE_eventHandler.c ****             CyBle_HtssConfirmationEventHandler(eventParam);
 527:Generated_Source\PSoC4/BLE_eventHandler.c ****         }
 528:Generated_Source\PSoC4/BLE_eventHandler.c ****     #endif /* CYBLE_HTS_SERVER */
 529:Generated_Source\PSoC4/BLE_eventHandler.c **** 
 530:Generated_Source\PSoC4/BLE_eventHandler.c ****     #ifdef CYBLE_LNS_SERVER
 531:Generated_Source\PSoC4/BLE_eventHandler.c ****         if((cyBle_eventHandlerFlag & CYBLE_CALLBACK) != 0u)
 532:Generated_Source\PSoC4/BLE_eventHandler.c ****         {
 533:Generated_Source\PSoC4/BLE_eventHandler.c ****             CyBle_LnssConfirmationEventHandler(eventParam);
 534:Generated_Source\PSoC4/BLE_eventHandler.c ****         }
 535:Generated_Source\PSoC4/BLE_eventHandler.c ****     #endif /* CYBLE_LNS_SERVER */
 536:Generated_Source\PSoC4/BLE_eventHandler.c ****     
 537:Generated_Source\PSoC4/BLE_eventHandler.c ****     #ifdef CYBLE_PLXS_SERVER
 538:Generated_Source\PSoC4/BLE_eventHandler.c ****         if((cyBle_eventHandlerFlag & CYBLE_CALLBACK) != 0u)
 539:Generated_Source\PSoC4/BLE_eventHandler.c ****         {
 540:Generated_Source\PSoC4/BLE_eventHandler.c ****             CyBle_PlxssConfirmationEventHandler((CYBLE_CONN_HANDLE_T *)eventParam);
 541:Generated_Source\PSoC4/BLE_eventHandler.c ****         }
 542:Generated_Source\PSoC4/BLE_eventHandler.c ****     #endif /* CYBLE_PLXS_SERVER */
 543:Generated_Source\PSoC4/BLE_eventHandler.c ****     
 544:Generated_Source\PSoC4/BLE_eventHandler.c ****     #ifdef CYBLE_RSCS_SERVER
 545:Generated_Source\PSoC4/BLE_eventHandler.c ****         if((cyBle_eventHandlerFlag & CYBLE_CALLBACK) != 0u)
 546:Generated_Source\PSoC4/BLE_eventHandler.c ****         {
 547:Generated_Source\PSoC4/BLE_eventHandler.c ****             CyBle_RscssConfirmationEventHandler(eventParam);
 548:Generated_Source\PSoC4/BLE_eventHandler.c ****         }
 549:Generated_Source\PSoC4/BLE_eventHandler.c ****     #endif /* CYBLE_RSCS_SERVER */
 550:Generated_Source\PSoC4/BLE_eventHandler.c ****     
 551:Generated_Source\PSoC4/BLE_eventHandler.c ****     #ifdef CYBLE_UDS_SERVER
 552:Generated_Source\PSoC4/BLE_eventHandler.c ****         if((cyBle_eventHandlerFlag & CYBLE_CALLBACK) != 0u)
 553:Generated_Source\PSoC4/BLE_eventHandler.c ****         {
 554:Generated_Source\PSoC4/BLE_eventHandler.c ****             CyBle_UdssConfirmationEventHandler(eventParam);
 555:Generated_Source\PSoC4/BLE_eventHandler.c ****         }
ARM GAS  C:\Users\run1009\AppData\Local\Temp\ccSZtXoF.s 			page 14


 556:Generated_Source\PSoC4/BLE_eventHandler.c ****     #endif /* CYBLE_UDS_SERVER */
 557:Generated_Source\PSoC4/BLE_eventHandler.c ****     
 558:Generated_Source\PSoC4/BLE_eventHandler.c ****     #ifdef CYBLE_WPTS_SERVER
 559:Generated_Source\PSoC4/BLE_eventHandler.c ****         if((cyBle_eventHandlerFlag & CYBLE_CALLBACK) != 0u)
 560:Generated_Source\PSoC4/BLE_eventHandler.c ****         {
 561:Generated_Source\PSoC4/BLE_eventHandler.c ****             CyBle_WptssConfirmationEventHandler(eventParam);
 562:Generated_Source\PSoC4/BLE_eventHandler.c ****         }
 563:Generated_Source\PSoC4/BLE_eventHandler.c ****     #endif /* CYBLE_WPTS_SERVER */
 564:Generated_Source\PSoC4/BLE_eventHandler.c ****     
 565:Generated_Source\PSoC4/BLE_eventHandler.c ****     #ifdef CYBLE_WSS_SERVER
 566:Generated_Source\PSoC4/BLE_eventHandler.c ****         if((cyBle_eventHandlerFlag & CYBLE_CALLBACK) != 0u)
 567:Generated_Source\PSoC4/BLE_eventHandler.c ****         {
 568:Generated_Source\PSoC4/BLE_eventHandler.c ****             CyBle_WsssConfirmationEventHandler(eventParam);
 569:Generated_Source\PSoC4/BLE_eventHandler.c ****         }
 570:Generated_Source\PSoC4/BLE_eventHandler.c ****     #endif /* CYBLE_WSS_SERVER */
 571:Generated_Source\PSoC4/BLE_eventHandler.c ****     }
 572:Generated_Source\PSoC4/BLE_eventHandler.c **** }
 182              		.loc 1 572 0
 183 0008 C046     		nop
 184 000a BD46     		mov	sp, r7
 185 000c 02B0     		add	sp, sp, #8
 186              		@ sp needed
 187 000e 80BD     		pop	{r7, pc}
 188              		.cfi_endproc
 189              	.LFE3:
 190              		.size	CyBle_ValueConfirmation, .-CyBle_ValueConfirmation
 191              		.section	.text.CyBle_GattcWriteResponseEventHandler,"ax",%progbits
 192              		.align	2
 193              		.code	16
 194              		.thumb_func
 195              		.type	CyBle_GattcWriteResponseEventHandler, %function
 196              	CyBle_GattcWriteResponseEventHandler:
 197              	.LFB4:
 573:Generated_Source\PSoC4/BLE_eventHandler.c **** 
 574:Generated_Source\PSoC4/BLE_eventHandler.c **** #endif /* CYBLE_GATT_ROLE_SERVER */
 575:Generated_Source\PSoC4/BLE_eventHandler.c **** 
 576:Generated_Source\PSoC4/BLE_eventHandler.c **** 
 577:Generated_Source\PSoC4/BLE_eventHandler.c **** #if (CYBLE_GATT_ROLE_CLIENT)
 578:Generated_Source\PSoC4/BLE_eventHandler.c **** 
 579:Generated_Source\PSoC4/BLE_eventHandler.c **** /****************************************************************************** 
 580:Generated_Source\PSoC4/BLE_eventHandler.c **** * Function Name: CyBle_GattcWriteResponseEventHandler
 581:Generated_Source\PSoC4/BLE_eventHandler.c **** ***************************************************************************//**
 582:Generated_Source\PSoC4/BLE_eventHandler.c **** * 
 583:Generated_Source\PSoC4/BLE_eventHandler.c **** *  Handles the Write response event from the BLE stack.
 584:Generated_Source\PSoC4/BLE_eventHandler.c **** * 
 585:Generated_Source\PSoC4/BLE_eventHandler.c **** *  \param eventParam: Pointer to a structure of type 'CYBLE_CONN_HANDLE_T'
 586:Generated_Source\PSoC4/BLE_eventHandler.c **** * 
 587:Generated_Source\PSoC4/BLE_eventHandler.c **** * \return
 588:Generated_Source\PSoC4/BLE_eventHandler.c **** *  None
 589:Generated_Source\PSoC4/BLE_eventHandler.c **** * 
 590:Generated_Source\PSoC4/BLE_eventHandler.c **** ******************************************************************************/
 591:Generated_Source\PSoC4/BLE_eventHandler.c **** static void CyBle_GattcWriteResponseEventHandler(const CYBLE_CONN_HANDLE_T *eventParam)
 592:Generated_Source\PSoC4/BLE_eventHandler.c **** {
 198              		.loc 1 592 0
 199              		.cfi_startproc
 200              		@ args = 0, pretend = 0, frame = 8
 201              		@ frame_needed = 1, uses_anonymous_args = 0
ARM GAS  C:\Users\run1009\AppData\Local\Temp\ccSZtXoF.s 			page 15


 202 0000 80B5     		push	{r7, lr}
 203              		.cfi_def_cfa_offset 8
 204              		.cfi_offset 7, -8
 205              		.cfi_offset 14, -4
 206 0002 82B0     		sub	sp, sp, #8
 207              		.cfi_def_cfa_offset 16
 208 0004 00AF     		add	r7, sp, #0
 209              		.cfi_def_cfa_register 7
 210 0006 7860     		str	r0, [r7, #4]
 593:Generated_Source\PSoC4/BLE_eventHandler.c **** 
 594:Generated_Source\PSoC4/BLE_eventHandler.c **** #ifdef CYBLE_AIOS_CLIENT
 595:Generated_Source\PSoC4/BLE_eventHandler.c ****     if((cyBle_eventHandlerFlag & CYBLE_CALLBACK) != 0u)
 596:Generated_Source\PSoC4/BLE_eventHandler.c ****     {
 597:Generated_Source\PSoC4/BLE_eventHandler.c ****         CyBle_AioscWriteResponseEventHandler(eventParam);
 598:Generated_Source\PSoC4/BLE_eventHandler.c ****     }
 599:Generated_Source\PSoC4/BLE_eventHandler.c **** #endif /* CYBLE_AIOS_CLIENT */
 600:Generated_Source\PSoC4/BLE_eventHandler.c **** 
 601:Generated_Source\PSoC4/BLE_eventHandler.c **** #ifdef CYBLE_ANCS_CLIENT
 602:Generated_Source\PSoC4/BLE_eventHandler.c ****     CyBle_AncscWriteResponseEventHandler(eventParam);
 603:Generated_Source\PSoC4/BLE_eventHandler.c **** #endif /* CYBLE_ANCS_CLIENT */
 604:Generated_Source\PSoC4/BLE_eventHandler.c **** 
 605:Generated_Source\PSoC4/BLE_eventHandler.c **** #ifdef CYBLE_ANS_CLIENT
 606:Generated_Source\PSoC4/BLE_eventHandler.c ****     if((cyBle_eventHandlerFlag & CYBLE_CALLBACK) != 0u)
 607:Generated_Source\PSoC4/BLE_eventHandler.c ****     {
 608:Generated_Source\PSoC4/BLE_eventHandler.c ****         CyBle_AnscWriteResponseEventHandler(eventParam);
 609:Generated_Source\PSoC4/BLE_eventHandler.c ****     }
 610:Generated_Source\PSoC4/BLE_eventHandler.c **** #endif /* CYBLE_ANS_CLIENT */
 611:Generated_Source\PSoC4/BLE_eventHandler.c **** 
 612:Generated_Source\PSoC4/BLE_eventHandler.c **** #ifdef CYBLE_BAS_CLIENT
 613:Generated_Source\PSoC4/BLE_eventHandler.c ****     if((cyBle_eventHandlerFlag & CYBLE_CALLBACK) != 0u)
 614:Generated_Source\PSoC4/BLE_eventHandler.c ****     {
 615:Generated_Source\PSoC4/BLE_eventHandler.c ****         CyBle_BascWriteResponseEventHandler(eventParam);
 616:Generated_Source\PSoC4/BLE_eventHandler.c ****     }
 617:Generated_Source\PSoC4/BLE_eventHandler.c **** #endif /* CYBLE_BAS_CLIENT */
 618:Generated_Source\PSoC4/BLE_eventHandler.c **** 
 619:Generated_Source\PSoC4/BLE_eventHandler.c **** #ifdef CYBLE_BCS_CLIENT
 620:Generated_Source\PSoC4/BLE_eventHandler.c ****     if((cyBle_eventHandlerFlag & CYBLE_CALLBACK) != 0u)
 621:Generated_Source\PSoC4/BLE_eventHandler.c ****     {
 622:Generated_Source\PSoC4/BLE_eventHandler.c ****         CyBle_BcscWriteResponseEventHandler(eventParam);
 623:Generated_Source\PSoC4/BLE_eventHandler.c ****     }
 624:Generated_Source\PSoC4/BLE_eventHandler.c **** #endif /* CYBLE_BCS_CLIENT */
 625:Generated_Source\PSoC4/BLE_eventHandler.c **** 
 626:Generated_Source\PSoC4/BLE_eventHandler.c **** #ifdef CYBLE_BLS_CLIENT
 627:Generated_Source\PSoC4/BLE_eventHandler.c ****     if((cyBle_eventHandlerFlag & CYBLE_CALLBACK) != 0u)
 628:Generated_Source\PSoC4/BLE_eventHandler.c ****     {
 629:Generated_Source\PSoC4/BLE_eventHandler.c ****         CyBle_BlscWriteResponseEventHandler(eventParam);
 630:Generated_Source\PSoC4/BLE_eventHandler.c ****     }
 631:Generated_Source\PSoC4/BLE_eventHandler.c **** #endif /* CYBLE_BLS_CLIENT */
 632:Generated_Source\PSoC4/BLE_eventHandler.c **** 
 633:Generated_Source\PSoC4/BLE_eventHandler.c **** #ifdef CYBLE_BMS_CLIENT
 634:Generated_Source\PSoC4/BLE_eventHandler.c ****     if((cyBle_eventHandlerFlag & CYBLE_CALLBACK) != 0u)
 635:Generated_Source\PSoC4/BLE_eventHandler.c ****     {
 636:Generated_Source\PSoC4/BLE_eventHandler.c ****         CyBle_BmscWriteResponseEventHandler(eventParam);
 637:Generated_Source\PSoC4/BLE_eventHandler.c ****     }
 638:Generated_Source\PSoC4/BLE_eventHandler.c **** #endif /* CYBLE_BMS_CLIENT */
 639:Generated_Source\PSoC4/BLE_eventHandler.c **** 
 640:Generated_Source\PSoC4/BLE_eventHandler.c **** #ifdef CYBLE_CGMS_CLIENT
ARM GAS  C:\Users\run1009\AppData\Local\Temp\ccSZtXoF.s 			page 16


 641:Generated_Source\PSoC4/BLE_eventHandler.c ****     if((cyBle_eventHandlerFlag & CYBLE_CALLBACK) != 0u)
 642:Generated_Source\PSoC4/BLE_eventHandler.c ****     {
 643:Generated_Source\PSoC4/BLE_eventHandler.c ****         CyBle_CgmscWriteResponseEventHandler(eventParam);
 644:Generated_Source\PSoC4/BLE_eventHandler.c ****     }
 645:Generated_Source\PSoC4/BLE_eventHandler.c **** #endif /* CYBLE_CGMS_CLIENT */
 646:Generated_Source\PSoC4/BLE_eventHandler.c **** 
 647:Generated_Source\PSoC4/BLE_eventHandler.c **** #ifdef CYBLE_CPS_CLIENT
 648:Generated_Source\PSoC4/BLE_eventHandler.c ****     if((cyBle_eventHandlerFlag & CYBLE_CALLBACK) != 0u)
 649:Generated_Source\PSoC4/BLE_eventHandler.c ****     {
 650:Generated_Source\PSoC4/BLE_eventHandler.c ****         CyBle_CpscWriteResponseEventHandler(eventParam);
 651:Generated_Source\PSoC4/BLE_eventHandler.c ****     }
 652:Generated_Source\PSoC4/BLE_eventHandler.c **** #endif /* CYBLE_CPS_CLIENT */
 653:Generated_Source\PSoC4/BLE_eventHandler.c **** 
 654:Generated_Source\PSoC4/BLE_eventHandler.c **** #ifdef CYBLE_CSCS_CLIENT
 655:Generated_Source\PSoC4/BLE_eventHandler.c ****     if((cyBle_eventHandlerFlag & CYBLE_CALLBACK) != 0u)
 656:Generated_Source\PSoC4/BLE_eventHandler.c ****     {
 657:Generated_Source\PSoC4/BLE_eventHandler.c ****         CyBle_CscscWriteResponseEventHandler(eventParam);
 658:Generated_Source\PSoC4/BLE_eventHandler.c ****     }
 659:Generated_Source\PSoC4/BLE_eventHandler.c **** #endif /* CYBLE_CSCS_CLIENT */
 660:Generated_Source\PSoC4/BLE_eventHandler.c **** 
 661:Generated_Source\PSoC4/BLE_eventHandler.c **** #ifdef CYBLE_CTS_CLIENT
 662:Generated_Source\PSoC4/BLE_eventHandler.c ****     if((cyBle_eventHandlerFlag & CYBLE_CALLBACK) != 0u)
 663:Generated_Source\PSoC4/BLE_eventHandler.c ****     {
 664:Generated_Source\PSoC4/BLE_eventHandler.c ****         CyBle_CtscWriteResponseEventHandler(eventParam);
 665:Generated_Source\PSoC4/BLE_eventHandler.c ****     }
 666:Generated_Source\PSoC4/BLE_eventHandler.c **** #endif /* CYBLE_CTS_CLIENT */
 667:Generated_Source\PSoC4/BLE_eventHandler.c **** 
 668:Generated_Source\PSoC4/BLE_eventHandler.c **** #ifdef CYBLE_ESS_CLIENT
 669:Generated_Source\PSoC4/BLE_eventHandler.c ****     if((cyBle_eventHandlerFlag & CYBLE_CALLBACK) != 0u)
 670:Generated_Source\PSoC4/BLE_eventHandler.c ****     {
 671:Generated_Source\PSoC4/BLE_eventHandler.c ****         CyBle_EsscWriteResponseEventHandler(eventParam);
 672:Generated_Source\PSoC4/BLE_eventHandler.c ****     }
 673:Generated_Source\PSoC4/BLE_eventHandler.c **** #endif /* CYBLE_ESS_CLIENT */
 674:Generated_Source\PSoC4/BLE_eventHandler.c **** 
 675:Generated_Source\PSoC4/BLE_eventHandler.c **** #ifdef CYBLE_GLS_CLIENT
 676:Generated_Source\PSoC4/BLE_eventHandler.c ****     if((cyBle_eventHandlerFlag & CYBLE_CALLBACK) != 0u)
 677:Generated_Source\PSoC4/BLE_eventHandler.c ****     {
 678:Generated_Source\PSoC4/BLE_eventHandler.c ****         CyBle_GlscWriteResponseEventHandler(eventParam);
 679:Generated_Source\PSoC4/BLE_eventHandler.c ****     }
 680:Generated_Source\PSoC4/BLE_eventHandler.c **** #endif /* CYBLE_GLS_CLIENT */
 681:Generated_Source\PSoC4/BLE_eventHandler.c **** 
 682:Generated_Source\PSoC4/BLE_eventHandler.c **** #ifdef CYBLE_HIDS_CLIENT
 683:Generated_Source\PSoC4/BLE_eventHandler.c ****     if((cyBle_eventHandlerFlag & CYBLE_CALLBACK) != 0u)
 684:Generated_Source\PSoC4/BLE_eventHandler.c ****     {
 685:Generated_Source\PSoC4/BLE_eventHandler.c ****         CyBle_HidscWriteResponseEventHandler(eventParam);
 686:Generated_Source\PSoC4/BLE_eventHandler.c ****     }
 687:Generated_Source\PSoC4/BLE_eventHandler.c **** #endif /* CYBLE_HIDS_CLIENT */
 688:Generated_Source\PSoC4/BLE_eventHandler.c **** 
 689:Generated_Source\PSoC4/BLE_eventHandler.c **** #ifdef CYBLE_HPS_CLIENT
 690:Generated_Source\PSoC4/BLE_eventHandler.c ****     if((cyBle_eventHandlerFlag & CYBLE_CALLBACK) != 0u)
 691:Generated_Source\PSoC4/BLE_eventHandler.c ****     {
 692:Generated_Source\PSoC4/BLE_eventHandler.c ****         CyBle_HpscWriteResponseEventHandler(eventParam);
 693:Generated_Source\PSoC4/BLE_eventHandler.c ****     }
 694:Generated_Source\PSoC4/BLE_eventHandler.c **** #endif /* CYBLE_HPS_CLIENT */
 695:Generated_Source\PSoC4/BLE_eventHandler.c **** 
 696:Generated_Source\PSoC4/BLE_eventHandler.c **** #ifdef CYBLE_HRS_CLIENT
 697:Generated_Source\PSoC4/BLE_eventHandler.c ****     if((cyBle_eventHandlerFlag & CYBLE_CALLBACK) != 0u)
ARM GAS  C:\Users\run1009\AppData\Local\Temp\ccSZtXoF.s 			page 17


 698:Generated_Source\PSoC4/BLE_eventHandler.c ****     {
 699:Generated_Source\PSoC4/BLE_eventHandler.c ****         CyBle_HrscWriteResponseEventHandler(eventParam);
 700:Generated_Source\PSoC4/BLE_eventHandler.c ****     }
 701:Generated_Source\PSoC4/BLE_eventHandler.c **** #endif /* CYBLE_HRS_CLIENT */
 702:Generated_Source\PSoC4/BLE_eventHandler.c **** 
 703:Generated_Source\PSoC4/BLE_eventHandler.c **** #ifdef CYBLE_HTS_CLIENT
 704:Generated_Source\PSoC4/BLE_eventHandler.c ****     if((cyBle_eventHandlerFlag & CYBLE_CALLBACK) != 0u)
 705:Generated_Source\PSoC4/BLE_eventHandler.c ****     {
 706:Generated_Source\PSoC4/BLE_eventHandler.c ****         CyBle_HtscWriteResponseEventHandler(eventParam);
 707:Generated_Source\PSoC4/BLE_eventHandler.c ****     }
 708:Generated_Source\PSoC4/BLE_eventHandler.c **** #endif /* CYBLE_HTS_CLIENT */
 709:Generated_Source\PSoC4/BLE_eventHandler.c **** 
 710:Generated_Source\PSoC4/BLE_eventHandler.c **** #ifdef CYBLE_IPS_CLIENT
 711:Generated_Source\PSoC4/BLE_eventHandler.c ****     if((cyBle_eventHandlerFlag & CYBLE_CALLBACK) != 0u)
 712:Generated_Source\PSoC4/BLE_eventHandler.c ****     {
 713:Generated_Source\PSoC4/BLE_eventHandler.c ****         CyBle_IpscWriteResponseEventHandler(eventParam);
 714:Generated_Source\PSoC4/BLE_eventHandler.c ****     }
 715:Generated_Source\PSoC4/BLE_eventHandler.c **** #endif /* CYBLE_IPS_CLIENT */
 716:Generated_Source\PSoC4/BLE_eventHandler.c **** 
 717:Generated_Source\PSoC4/BLE_eventHandler.c **** #ifdef CYBLE_LLS_CLIENT
 718:Generated_Source\PSoC4/BLE_eventHandler.c ****     if((cyBle_eventHandlerFlag & CYBLE_CALLBACK) != 0u)
 719:Generated_Source\PSoC4/BLE_eventHandler.c ****     {
 720:Generated_Source\PSoC4/BLE_eventHandler.c ****         CyBle_LlscWriteResponseEventHandler(eventParam);
 721:Generated_Source\PSoC4/BLE_eventHandler.c ****     }
 722:Generated_Source\PSoC4/BLE_eventHandler.c **** #endif /* CYBLE_LLS_CLIENT */
 723:Generated_Source\PSoC4/BLE_eventHandler.c **** 
 724:Generated_Source\PSoC4/BLE_eventHandler.c **** #ifdef CYBLE_LNS_CLIENT
 725:Generated_Source\PSoC4/BLE_eventHandler.c ****     if((cyBle_eventHandlerFlag & CYBLE_CALLBACK) != 0u)
 726:Generated_Source\PSoC4/BLE_eventHandler.c ****     {
 727:Generated_Source\PSoC4/BLE_eventHandler.c ****         CyBle_LnscWriteResponseEventHandler(eventParam);
 728:Generated_Source\PSoC4/BLE_eventHandler.c ****     }
 729:Generated_Source\PSoC4/BLE_eventHandler.c **** #endif /* CYBLE_LNS_CLIENT */
 730:Generated_Source\PSoC4/BLE_eventHandler.c **** 
 731:Generated_Source\PSoC4/BLE_eventHandler.c **** #ifdef CYBLE_PASS_CLIENT
 732:Generated_Source\PSoC4/BLE_eventHandler.c ****     if((cyBle_eventHandlerFlag & CYBLE_CALLBACK) != 0u)
 733:Generated_Source\PSoC4/BLE_eventHandler.c ****     {
 734:Generated_Source\PSoC4/BLE_eventHandler.c ****         CyBle_PasscWriteResponseEventHandler(eventParam);
 735:Generated_Source\PSoC4/BLE_eventHandler.c ****     }
 736:Generated_Source\PSoC4/BLE_eventHandler.c **** #endif /* CYBLE_PASS_CLIENT */
 737:Generated_Source\PSoC4/BLE_eventHandler.c **** 
 738:Generated_Source\PSoC4/BLE_eventHandler.c **** #ifdef CYBLE_PLXS_CLIENT
 739:Generated_Source\PSoC4/BLE_eventHandler.c ****     if((cyBle_eventHandlerFlag & CYBLE_CALLBACK) != 0u)
 740:Generated_Source\PSoC4/BLE_eventHandler.c ****     {
 741:Generated_Source\PSoC4/BLE_eventHandler.c ****         CyBle_PlxscWriteResponseEventHandler(eventParam);
 742:Generated_Source\PSoC4/BLE_eventHandler.c ****     }
 743:Generated_Source\PSoC4/BLE_eventHandler.c **** #endif /* CYBLE_PASS_CLIENT */
 744:Generated_Source\PSoC4/BLE_eventHandler.c **** 
 745:Generated_Source\PSoC4/BLE_eventHandler.c **** #ifdef CYBLE_RSCS_CLIENT
 746:Generated_Source\PSoC4/BLE_eventHandler.c ****     if((cyBle_eventHandlerFlag & CYBLE_CALLBACK) != 0u)
 747:Generated_Source\PSoC4/BLE_eventHandler.c ****     {
 748:Generated_Source\PSoC4/BLE_eventHandler.c ****         CyBle_RscscWriteResponseEventHandler(eventParam);
 749:Generated_Source\PSoC4/BLE_eventHandler.c ****     }
 750:Generated_Source\PSoC4/BLE_eventHandler.c **** #endif /* CYBLE_RSCS_CLIENT */
 751:Generated_Source\PSoC4/BLE_eventHandler.c **** 
 752:Generated_Source\PSoC4/BLE_eventHandler.c **** #ifdef CYBLE_SCPS_CLIENT
 753:Generated_Source\PSoC4/BLE_eventHandler.c ****     if((cyBle_eventHandlerFlag & CYBLE_CALLBACK) != 0u)
 754:Generated_Source\PSoC4/BLE_eventHandler.c ****     {
ARM GAS  C:\Users\run1009\AppData\Local\Temp\ccSZtXoF.s 			page 18


 755:Generated_Source\PSoC4/BLE_eventHandler.c ****         CyBle_ScpscWriteResponseEventHandler(eventParam);
 756:Generated_Source\PSoC4/BLE_eventHandler.c ****     }
 757:Generated_Source\PSoC4/BLE_eventHandler.c **** #endif /* CYBLE_SCPS_CLIENT */
 758:Generated_Source\PSoC4/BLE_eventHandler.c **** 
 759:Generated_Source\PSoC4/BLE_eventHandler.c **** #ifdef CYBLE_TPS_CLIENT
 760:Generated_Source\PSoC4/BLE_eventHandler.c ****     if((cyBle_eventHandlerFlag & CYBLE_CALLBACK) != 0u)
 761:Generated_Source\PSoC4/BLE_eventHandler.c ****     {
 762:Generated_Source\PSoC4/BLE_eventHandler.c ****         CyBle_TpscWriteResponseEventHandler(eventParam);
 763:Generated_Source\PSoC4/BLE_eventHandler.c ****     }
 764:Generated_Source\PSoC4/BLE_eventHandler.c **** #endif /* CYBLE_TPS_CLIENT */
 765:Generated_Source\PSoC4/BLE_eventHandler.c **** 
 766:Generated_Source\PSoC4/BLE_eventHandler.c **** #ifdef CYBLE_UDS_CLIENT
 767:Generated_Source\PSoC4/BLE_eventHandler.c ****     if((cyBle_eventHandlerFlag & CYBLE_CALLBACK) != 0u)
 768:Generated_Source\PSoC4/BLE_eventHandler.c ****     {
 769:Generated_Source\PSoC4/BLE_eventHandler.c ****         CyBle_UdscWriteResponseEventHandler(eventParam);
 770:Generated_Source\PSoC4/BLE_eventHandler.c ****     }
 771:Generated_Source\PSoC4/BLE_eventHandler.c **** #endif /* CYBLE_UDS_CLIENT */
 772:Generated_Source\PSoC4/BLE_eventHandler.c **** #ifdef CYBLE_WPTS_CLIENT
 773:Generated_Source\PSoC4/BLE_eventHandler.c ****     if((cyBle_eventHandlerFlag & CYBLE_CALLBACK) != 0u)
 774:Generated_Source\PSoC4/BLE_eventHandler.c ****     {
 775:Generated_Source\PSoC4/BLE_eventHandler.c ****         CyBle_WptscWriteResponseEventHandler(eventParam);
 776:Generated_Source\PSoC4/BLE_eventHandler.c ****     }
 777:Generated_Source\PSoC4/BLE_eventHandler.c **** #endif /* CYBLE_WPTS_CLIENT */
 778:Generated_Source\PSoC4/BLE_eventHandler.c **** #ifdef CYBLE_WSS_CLIENT
 779:Generated_Source\PSoC4/BLE_eventHandler.c ****     if((cyBle_eventHandlerFlag & CYBLE_CALLBACK) != 0u)
 780:Generated_Source\PSoC4/BLE_eventHandler.c ****     {
 781:Generated_Source\PSoC4/BLE_eventHandler.c ****         CyBle_WsscWriteResponseEventHandler(eventParam);
 782:Generated_Source\PSoC4/BLE_eventHandler.c ****     }
 783:Generated_Source\PSoC4/BLE_eventHandler.c **** #endif /* CYBLE_WSS_CLIENT */
 784:Generated_Source\PSoC4/BLE_eventHandler.c **** }
 211              		.loc 1 784 0
 212 0008 C046     		nop
 213 000a BD46     		mov	sp, r7
 214 000c 02B0     		add	sp, sp, #8
 215              		@ sp needed
 216 000e 80BD     		pop	{r7, pc}
 217              		.cfi_endproc
 218              	.LFE4:
 219              		.size	CyBle_GattcWriteResponseEventHandler, .-CyBle_GattcWriteResponseEventHandler
 220              		.section	.text.CyBle_NotificationEventHandler,"ax",%progbits
 221              		.align	2
 222              		.code	16
 223              		.thumb_func
 224              		.type	CyBle_NotificationEventHandler, %function
 225              	CyBle_NotificationEventHandler:
 226              	.LFB5:
 785:Generated_Source\PSoC4/BLE_eventHandler.c **** 
 786:Generated_Source\PSoC4/BLE_eventHandler.c **** 
 787:Generated_Source\PSoC4/BLE_eventHandler.c **** /******************************************************************************    
 788:Generated_Source\PSoC4/BLE_eventHandler.c **** * Function Name: CyBle_NotificationEventHandler
 789:Generated_Source\PSoC4/BLE_eventHandler.c **** ***************************************************************************//**
 790:Generated_Source\PSoC4/BLE_eventHandler.c **** * 
 791:Generated_Source\PSoC4/BLE_eventHandler.c **** *  Handles the Notification event from BLE stack.
 792:Generated_Source\PSoC4/BLE_eventHandler.c **** * 
 793:Generated_Source\PSoC4/BLE_eventHandler.c **** *  \param eventParam: event parameter
 794:Generated_Source\PSoC4/BLE_eventHandler.c **** * 
 795:Generated_Source\PSoC4/BLE_eventHandler.c **** * \return
ARM GAS  C:\Users\run1009\AppData\Local\Temp\ccSZtXoF.s 			page 19


 796:Generated_Source\PSoC4/BLE_eventHandler.c **** *  None
 797:Generated_Source\PSoC4/BLE_eventHandler.c **** * 
 798:Generated_Source\PSoC4/BLE_eventHandler.c **** ******************************************************************************/
 799:Generated_Source\PSoC4/BLE_eventHandler.c **** static void CyBle_NotificationEventHandler(CYBLE_GATTC_HANDLE_VALUE_NTF_PARAM_T *eventParam)
 800:Generated_Source\PSoC4/BLE_eventHandler.c **** {
 227              		.loc 1 800 0
 228              		.cfi_startproc
 229              		@ args = 0, pretend = 0, frame = 8
 230              		@ frame_needed = 1, uses_anonymous_args = 0
 231 0000 80B5     		push	{r7, lr}
 232              		.cfi_def_cfa_offset 8
 233              		.cfi_offset 7, -8
 234              		.cfi_offset 14, -4
 235 0002 82B0     		sub	sp, sp, #8
 236              		.cfi_def_cfa_offset 16
 237 0004 00AF     		add	r7, sp, #0
 238              		.cfi_def_cfa_register 7
 239 0006 7860     		str	r0, [r7, #4]
 801:Generated_Source\PSoC4/BLE_eventHandler.c **** #ifdef CYBLE_AIOS_CLIENT
 802:Generated_Source\PSoC4/BLE_eventHandler.c ****     if((cyBle_eventHandlerFlag & CYBLE_CALLBACK) != 0u)
 803:Generated_Source\PSoC4/BLE_eventHandler.c ****     {
 804:Generated_Source\PSoC4/BLE_eventHandler.c ****         CyBle_AioscNotificationEventHandler(eventParam);
 805:Generated_Source\PSoC4/BLE_eventHandler.c ****     }
 806:Generated_Source\PSoC4/BLE_eventHandler.c **** #endif /* CYBLE_AIOS_CLIENT */
 807:Generated_Source\PSoC4/BLE_eventHandler.c **** #ifdef CYBLE_ANCS_CLIENT
 808:Generated_Source\PSoC4/BLE_eventHandler.c ****     CyBle_AncscNotificationEventHandler(eventParam);
 809:Generated_Source\PSoC4/BLE_eventHandler.c **** #endif /* CYBLE_ANCS_CLIENT */
 810:Generated_Source\PSoC4/BLE_eventHandler.c **** #ifdef CYBLE_ANS_CLIENT
 811:Generated_Source\PSoC4/BLE_eventHandler.c ****     if((cyBle_eventHandlerFlag & CYBLE_CALLBACK) != 0u)
 812:Generated_Source\PSoC4/BLE_eventHandler.c ****     {
 813:Generated_Source\PSoC4/BLE_eventHandler.c ****         CyBle_AnscNotificationEventHandler(eventParam);
 814:Generated_Source\PSoC4/BLE_eventHandler.c ****     }
 815:Generated_Source\PSoC4/BLE_eventHandler.c **** #endif /* CYBLE_ANS_CLIENT */
 816:Generated_Source\PSoC4/BLE_eventHandler.c **** #ifdef CYBLE_BAS_CLIENT
 817:Generated_Source\PSoC4/BLE_eventHandler.c ****     if((cyBle_eventHandlerFlag & CYBLE_CALLBACK) != 0u)
 818:Generated_Source\PSoC4/BLE_eventHandler.c ****     {
 819:Generated_Source\PSoC4/BLE_eventHandler.c ****         CyBle_BascNotificationEventHandler(eventParam);
 820:Generated_Source\PSoC4/BLE_eventHandler.c ****     }
 821:Generated_Source\PSoC4/BLE_eventHandler.c **** #endif /* CYBLE_BAS_CLIENT */
 822:Generated_Source\PSoC4/BLE_eventHandler.c **** #ifdef CYBLE_BLS_CLIENT
 823:Generated_Source\PSoC4/BLE_eventHandler.c ****     if((cyBle_eventHandlerFlag & CYBLE_CALLBACK) != 0u)
 824:Generated_Source\PSoC4/BLE_eventHandler.c ****     {
 825:Generated_Source\PSoC4/BLE_eventHandler.c ****         CyBle_BlscNotificationEventHandler(eventParam);
 826:Generated_Source\PSoC4/BLE_eventHandler.c ****     }
 827:Generated_Source\PSoC4/BLE_eventHandler.c **** #endif /* CYBLE_BLS_CLIENT */
 828:Generated_Source\PSoC4/BLE_eventHandler.c **** #ifdef CYBLE_CGMS_CLIENT
 829:Generated_Source\PSoC4/BLE_eventHandler.c ****     if((cyBle_eventHandlerFlag & CYBLE_CALLBACK) != 0u)
 830:Generated_Source\PSoC4/BLE_eventHandler.c ****     {
 831:Generated_Source\PSoC4/BLE_eventHandler.c ****         CyBle_CgmscNotificationEventHandler(eventParam);
 832:Generated_Source\PSoC4/BLE_eventHandler.c ****     }
 833:Generated_Source\PSoC4/BLE_eventHandler.c **** #endif /* CYBLE_CGMS_CLIENT */
 834:Generated_Source\PSoC4/BLE_eventHandler.c **** #ifdef CYBLE_CPS_CLIENT
 835:Generated_Source\PSoC4/BLE_eventHandler.c ****     if((cyBle_eventHandlerFlag & CYBLE_CALLBACK) != 0u)
 836:Generated_Source\PSoC4/BLE_eventHandler.c ****     {
 837:Generated_Source\PSoC4/BLE_eventHandler.c ****         CyBle_CpscNotificationEventHandler(eventParam);
 838:Generated_Source\PSoC4/BLE_eventHandler.c ****     }
 839:Generated_Source\PSoC4/BLE_eventHandler.c **** #endif /* CYBLE_CPS_CLIENT */
ARM GAS  C:\Users\run1009\AppData\Local\Temp\ccSZtXoF.s 			page 20


 840:Generated_Source\PSoC4/BLE_eventHandler.c **** #ifdef CYBLE_CSCS_CLIENT
 841:Generated_Source\PSoC4/BLE_eventHandler.c ****     if((cyBle_eventHandlerFlag & CYBLE_CALLBACK) != 0u)
 842:Generated_Source\PSoC4/BLE_eventHandler.c ****     {
 843:Generated_Source\PSoC4/BLE_eventHandler.c ****         CyBle_CscscNotificationEventHandler(eventParam);
 844:Generated_Source\PSoC4/BLE_eventHandler.c ****     }
 845:Generated_Source\PSoC4/BLE_eventHandler.c **** #endif /* CYBLE_CSCS_CLIENT */
 846:Generated_Source\PSoC4/BLE_eventHandler.c **** #ifdef CYBLE_CTS_CLIENT
 847:Generated_Source\PSoC4/BLE_eventHandler.c ****     if((cyBle_eventHandlerFlag & CYBLE_CALLBACK) != 0u)
 848:Generated_Source\PSoC4/BLE_eventHandler.c ****     {
 849:Generated_Source\PSoC4/BLE_eventHandler.c ****         CyBle_CtscNotificationEventHandler(eventParam);
 850:Generated_Source\PSoC4/BLE_eventHandler.c ****     }
 851:Generated_Source\PSoC4/BLE_eventHandler.c **** #endif /* CYBLE_CTS_CLIENT */
 852:Generated_Source\PSoC4/BLE_eventHandler.c **** #ifdef CYBLE_ESS_CLIENT
 853:Generated_Source\PSoC4/BLE_eventHandler.c ****     if((cyBle_eventHandlerFlag & CYBLE_CALLBACK) != 0u)
 854:Generated_Source\PSoC4/BLE_eventHandler.c ****     {
 855:Generated_Source\PSoC4/BLE_eventHandler.c ****         CyBle_EsscNotificationEventHandler(eventParam);
 856:Generated_Source\PSoC4/BLE_eventHandler.c ****     }
 857:Generated_Source\PSoC4/BLE_eventHandler.c **** #endif /* CYBLE_ESS_CLIENT */
 858:Generated_Source\PSoC4/BLE_eventHandler.c **** #ifdef CYBLE_GLS_CLIENT
 859:Generated_Source\PSoC4/BLE_eventHandler.c ****     if((cyBle_eventHandlerFlag & CYBLE_CALLBACK) != 0u)
 860:Generated_Source\PSoC4/BLE_eventHandler.c ****     {
 861:Generated_Source\PSoC4/BLE_eventHandler.c ****         CyBle_GlscNotificationEventHandler(eventParam);
 862:Generated_Source\PSoC4/BLE_eventHandler.c ****     }
 863:Generated_Source\PSoC4/BLE_eventHandler.c **** #endif /* CYBLE_GLS_CLIENT */
 864:Generated_Source\PSoC4/BLE_eventHandler.c **** #ifdef CYBLE_HIDS_CLIENT
 865:Generated_Source\PSoC4/BLE_eventHandler.c ****     if((cyBle_eventHandlerFlag & CYBLE_CALLBACK) != 0u)
 866:Generated_Source\PSoC4/BLE_eventHandler.c ****     {
 867:Generated_Source\PSoC4/BLE_eventHandler.c ****         CyBle_HidscNotificationEventHandler(eventParam);
 868:Generated_Source\PSoC4/BLE_eventHandler.c ****     }
 869:Generated_Source\PSoC4/BLE_eventHandler.c **** #endif /* CYBLE_HIDS_CLIENT */
 870:Generated_Source\PSoC4/BLE_eventHandler.c **** #ifdef CYBLE_HPS_CLIENT
 871:Generated_Source\PSoC4/BLE_eventHandler.c ****     if((cyBle_eventHandlerFlag & CYBLE_CALLBACK) != 0u)
 872:Generated_Source\PSoC4/BLE_eventHandler.c ****     {
 873:Generated_Source\PSoC4/BLE_eventHandler.c ****         CyBle_HpscNotificationEventHandler(eventParam);
 874:Generated_Source\PSoC4/BLE_eventHandler.c ****     }
 875:Generated_Source\PSoC4/BLE_eventHandler.c **** #endif /* CYBLE_HPS_CLIENT */
 876:Generated_Source\PSoC4/BLE_eventHandler.c **** #ifdef CYBLE_HRS_CLIENT
 877:Generated_Source\PSoC4/BLE_eventHandler.c ****     if((cyBle_eventHandlerFlag & CYBLE_CALLBACK) != 0u)
 878:Generated_Source\PSoC4/BLE_eventHandler.c ****     {
 879:Generated_Source\PSoC4/BLE_eventHandler.c ****         CyBle_HrscNotificationEventHandler(eventParam);
 880:Generated_Source\PSoC4/BLE_eventHandler.c ****     }
 881:Generated_Source\PSoC4/BLE_eventHandler.c **** #endif /* CYBLE_HRS_CLIENT */
 882:Generated_Source\PSoC4/BLE_eventHandler.c **** #ifdef CYBLE_HTS_CLIENT
 883:Generated_Source\PSoC4/BLE_eventHandler.c ****     if((cyBle_eventHandlerFlag & CYBLE_CALLBACK) != 0u)
 884:Generated_Source\PSoC4/BLE_eventHandler.c ****     {
 885:Generated_Source\PSoC4/BLE_eventHandler.c ****         CyBle_HtscNotificationEventHandler(eventParam);
 886:Generated_Source\PSoC4/BLE_eventHandler.c ****     }
 887:Generated_Source\PSoC4/BLE_eventHandler.c **** #endif /* CYBLE_HTS_CLIENT */
 888:Generated_Source\PSoC4/BLE_eventHandler.c **** #ifdef CYBLE_LNS_CLIENT
 889:Generated_Source\PSoC4/BLE_eventHandler.c ****     if((cyBle_eventHandlerFlag & CYBLE_CALLBACK) != 0u)
 890:Generated_Source\PSoC4/BLE_eventHandler.c ****     {
 891:Generated_Source\PSoC4/BLE_eventHandler.c ****         CyBle_LnscNotificationEventHandler(eventParam);
 892:Generated_Source\PSoC4/BLE_eventHandler.c ****     }
 893:Generated_Source\PSoC4/BLE_eventHandler.c **** #endif /* CYBLE_LNS_CLIENT */
 894:Generated_Source\PSoC4/BLE_eventHandler.c **** #ifdef CYBLE_PASS_CLIENT
 895:Generated_Source\PSoC4/BLE_eventHandler.c ****     if((cyBle_eventHandlerFlag & CYBLE_CALLBACK) != 0u)
 896:Generated_Source\PSoC4/BLE_eventHandler.c ****     {
ARM GAS  C:\Users\run1009\AppData\Local\Temp\ccSZtXoF.s 			page 21


 897:Generated_Source\PSoC4/BLE_eventHandler.c ****         CyBle_PasscNotificationEventHandler(eventParam);
 898:Generated_Source\PSoC4/BLE_eventHandler.c ****     }
 899:Generated_Source\PSoC4/BLE_eventHandler.c **** #endif /* CYBLE_PASS_CLIENT */
 900:Generated_Source\PSoC4/BLE_eventHandler.c **** #ifdef CYBLE_PLXS_CLIENT
 901:Generated_Source\PSoC4/BLE_eventHandler.c ****     if((cyBle_eventHandlerFlag & CYBLE_CALLBACK) != 0u)
 902:Generated_Source\PSoC4/BLE_eventHandler.c ****     {
 903:Generated_Source\PSoC4/BLE_eventHandler.c ****         CyBle_PlxscNotificationEventHandler(eventParam);
 904:Generated_Source\PSoC4/BLE_eventHandler.c ****     }
 905:Generated_Source\PSoC4/BLE_eventHandler.c **** #endif /* CYBLE_PLXS_CLIENT */
 906:Generated_Source\PSoC4/BLE_eventHandler.c **** #ifdef CYBLE_RSCS_CLIENT
 907:Generated_Source\PSoC4/BLE_eventHandler.c ****     if((cyBle_eventHandlerFlag & CYBLE_CALLBACK) != 0u)
 908:Generated_Source\PSoC4/BLE_eventHandler.c ****     {
 909:Generated_Source\PSoC4/BLE_eventHandler.c ****         CyBle_RscscNotificationEventHandler(eventParam);
 910:Generated_Source\PSoC4/BLE_eventHandler.c ****     }
 911:Generated_Source\PSoC4/BLE_eventHandler.c **** #endif /* CYBLE_RSCS_CLIENT */
 912:Generated_Source\PSoC4/BLE_eventHandler.c **** #ifdef CYBLE_SCPS_CLIENT
 913:Generated_Source\PSoC4/BLE_eventHandler.c ****     if((cyBle_eventHandlerFlag & CYBLE_CALLBACK) != 0u)
 914:Generated_Source\PSoC4/BLE_eventHandler.c ****     {
 915:Generated_Source\PSoC4/BLE_eventHandler.c ****         CyBle_ScpscNotificationEventHandler(eventParam);
 916:Generated_Source\PSoC4/BLE_eventHandler.c ****     }
 917:Generated_Source\PSoC4/BLE_eventHandler.c **** #endif /* CYBLE_SCPS_CLIENT */
 918:Generated_Source\PSoC4/BLE_eventHandler.c **** #ifdef CYBLE_TPS_CLIENT
 919:Generated_Source\PSoC4/BLE_eventHandler.c ****     if((cyBle_eventHandlerFlag & CYBLE_CALLBACK) != 0u)
 920:Generated_Source\PSoC4/BLE_eventHandler.c ****     {
 921:Generated_Source\PSoC4/BLE_eventHandler.c ****         CyBle_TpscNotificationEventHandler(eventParam);
 922:Generated_Source\PSoC4/BLE_eventHandler.c ****     }
 923:Generated_Source\PSoC4/BLE_eventHandler.c **** #endif /* CYBLE_TPS_CLIENT */
 924:Generated_Source\PSoC4/BLE_eventHandler.c **** #ifdef CYBLE_UDS_CLIENT
 925:Generated_Source\PSoC4/BLE_eventHandler.c ****     if((cyBle_eventHandlerFlag & CYBLE_CALLBACK) != 0u)
 926:Generated_Source\PSoC4/BLE_eventHandler.c ****     {
 927:Generated_Source\PSoC4/BLE_eventHandler.c ****         CyBle_UdscNotificationEventHandler(eventParam);
 928:Generated_Source\PSoC4/BLE_eventHandler.c ****     }
 929:Generated_Source\PSoC4/BLE_eventHandler.c **** #endif /* CYBLE_UDS_CLIENT */
 930:Generated_Source\PSoC4/BLE_eventHandler.c **** #ifdef CYBLE_WPTS_CLIENT
 931:Generated_Source\PSoC4/BLE_eventHandler.c ****     if((cyBle_eventHandlerFlag & CYBLE_CALLBACK) != 0u)
 932:Generated_Source\PSoC4/BLE_eventHandler.c ****     {
 933:Generated_Source\PSoC4/BLE_eventHandler.c ****         CyBle_WptscNotificationEventHandler(eventParam);
 934:Generated_Source\PSoC4/BLE_eventHandler.c ****     }
 935:Generated_Source\PSoC4/BLE_eventHandler.c **** #endif /* CYBLE_WPTS_CLIENT */
 936:Generated_Source\PSoC4/BLE_eventHandler.c **** }
 240              		.loc 1 936 0
 241 0008 C046     		nop
 242 000a BD46     		mov	sp, r7
 243 000c 02B0     		add	sp, sp, #8
 244              		@ sp needed
 245 000e 80BD     		pop	{r7, pc}
 246              		.cfi_endproc
 247              	.LFE5:
 248              		.size	CyBle_NotificationEventHandler, .-CyBle_NotificationEventHandler
 249              		.section	.text.CyBle_IndicationEventHandler,"ax",%progbits
 250              		.align	2
 251              		.code	16
 252              		.thumb_func
 253              		.type	CyBle_IndicationEventHandler, %function
 254              	CyBle_IndicationEventHandler:
 255              	.LFB6:
 937:Generated_Source\PSoC4/BLE_eventHandler.c **** 
ARM GAS  C:\Users\run1009\AppData\Local\Temp\ccSZtXoF.s 			page 22


 938:Generated_Source\PSoC4/BLE_eventHandler.c **** 
 939:Generated_Source\PSoC4/BLE_eventHandler.c **** /******************************************************************************    
 940:Generated_Source\PSoC4/BLE_eventHandler.c **** * Function Name: CyBle_IndicationEventHandler
 941:Generated_Source\PSoC4/BLE_eventHandler.c **** ***************************************************************************//**
 942:Generated_Source\PSoC4/BLE_eventHandler.c **** * 
 943:Generated_Source\PSoC4/BLE_eventHandler.c **** *  Handles the Indication event from BLE stack.
 944:Generated_Source\PSoC4/BLE_eventHandler.c **** * 
 945:Generated_Source\PSoC4/BLE_eventHandler.c **** *  \param eventParam: event parameter
 946:Generated_Source\PSoC4/BLE_eventHandler.c **** * 
 947:Generated_Source\PSoC4/BLE_eventHandler.c **** * \return
 948:Generated_Source\PSoC4/BLE_eventHandler.c **** *  None
 949:Generated_Source\PSoC4/BLE_eventHandler.c **** * 
 950:Generated_Source\PSoC4/BLE_eventHandler.c **** ******************************************************************************/
 951:Generated_Source\PSoC4/BLE_eventHandler.c **** static void CyBle_IndicationEventHandler(CYBLE_GATTC_HANDLE_VALUE_IND_PARAM_T *eventParam)
 952:Generated_Source\PSoC4/BLE_eventHandler.c **** {
 256              		.loc 1 952 0
 257              		.cfi_startproc
 258              		@ args = 0, pretend = 0, frame = 8
 259              		@ frame_needed = 1, uses_anonymous_args = 0
 260 0000 80B5     		push	{r7, lr}
 261              		.cfi_def_cfa_offset 8
 262              		.cfi_offset 7, -8
 263              		.cfi_offset 14, -4
 264 0002 82B0     		sub	sp, sp, #8
 265              		.cfi_def_cfa_offset 16
 266 0004 00AF     		add	r7, sp, #0
 267              		.cfi_def_cfa_register 7
 268 0006 7860     		str	r0, [r7, #4]
 953:Generated_Source\PSoC4/BLE_eventHandler.c **** #ifdef CYBLE_AIOS_CLIENT
 954:Generated_Source\PSoC4/BLE_eventHandler.c ****     if((cyBle_eventHandlerFlag & CYBLE_CALLBACK) != 0u)
 955:Generated_Source\PSoC4/BLE_eventHandler.c ****     {
 956:Generated_Source\PSoC4/BLE_eventHandler.c ****         CyBle_AioscIndicationEventHandler(eventParam);
 957:Generated_Source\PSoC4/BLE_eventHandler.c ****     }
 958:Generated_Source\PSoC4/BLE_eventHandler.c **** #endif /* CYBLE_AIOS_CLIENT */
 959:Generated_Source\PSoC4/BLE_eventHandler.c **** #ifdef CYBLE_BCS_CLIENT
 960:Generated_Source\PSoC4/BLE_eventHandler.c ****     if((cyBle_eventHandlerFlag & CYBLE_CALLBACK) != 0u)
 961:Generated_Source\PSoC4/BLE_eventHandler.c ****     {
 962:Generated_Source\PSoC4/BLE_eventHandler.c ****         CyBle_BcscIndicationEventHandler(eventParam);
 963:Generated_Source\PSoC4/BLE_eventHandler.c ****     }
 964:Generated_Source\PSoC4/BLE_eventHandler.c **** #endif /* CYBLE_BCS_CLIENT */
 965:Generated_Source\PSoC4/BLE_eventHandler.c **** #ifdef CYBLE_BLS_CLIENT
 966:Generated_Source\PSoC4/BLE_eventHandler.c ****     if((cyBle_eventHandlerFlag & CYBLE_CALLBACK) != 0u)
 967:Generated_Source\PSoC4/BLE_eventHandler.c ****     {
 968:Generated_Source\PSoC4/BLE_eventHandler.c ****         CyBle_BlscIndicationEventHandler(eventParam);
 969:Generated_Source\PSoC4/BLE_eventHandler.c ****     }
 970:Generated_Source\PSoC4/BLE_eventHandler.c **** #endif /* CYBLE_BLS_CLIENT */
 971:Generated_Source\PSoC4/BLE_eventHandler.c **** #ifdef CYBLE_CGMS_CLIENT
 972:Generated_Source\PSoC4/BLE_eventHandler.c ****     if((cyBle_eventHandlerFlag & CYBLE_CALLBACK) != 0u)
 973:Generated_Source\PSoC4/BLE_eventHandler.c ****     {
 974:Generated_Source\PSoC4/BLE_eventHandler.c ****         CyBle_CgmscIndicationEventHandler(eventParam);
 975:Generated_Source\PSoC4/BLE_eventHandler.c ****     }
 976:Generated_Source\PSoC4/BLE_eventHandler.c **** #endif /* CYBLE_CGMS_CLIENT */
 977:Generated_Source\PSoC4/BLE_eventHandler.c **** #ifdef CYBLE_CPS_CLIENT
 978:Generated_Source\PSoC4/BLE_eventHandler.c ****     if((cyBle_eventHandlerFlag & CYBLE_CALLBACK) != 0u)
 979:Generated_Source\PSoC4/BLE_eventHandler.c ****     {
 980:Generated_Source\PSoC4/BLE_eventHandler.c ****         CyBle_CpscIndicationEventHandler(eventParam);
 981:Generated_Source\PSoC4/BLE_eventHandler.c ****     }
ARM GAS  C:\Users\run1009\AppData\Local\Temp\ccSZtXoF.s 			page 23


 982:Generated_Source\PSoC4/BLE_eventHandler.c **** #endif /* CYBLE_CPS_CLIENT */
 983:Generated_Source\PSoC4/BLE_eventHandler.c **** #ifdef CYBLE_CSCS_CLIENT
 984:Generated_Source\PSoC4/BLE_eventHandler.c ****     if((cyBle_eventHandlerFlag & CYBLE_CALLBACK) != 0u)
 985:Generated_Source\PSoC4/BLE_eventHandler.c ****     {
 986:Generated_Source\PSoC4/BLE_eventHandler.c ****         CyBle_CscscIndicationEventHandler(eventParam);
 987:Generated_Source\PSoC4/BLE_eventHandler.c ****     }
 988:Generated_Source\PSoC4/BLE_eventHandler.c **** #endif /* CYBLE_CSCS_CLIENT */
 989:Generated_Source\PSoC4/BLE_eventHandler.c **** #ifdef CYBLE_ESS_CLIENT
 990:Generated_Source\PSoC4/BLE_eventHandler.c ****     if((cyBle_eventHandlerFlag & CYBLE_CALLBACK) != 0u)
 991:Generated_Source\PSoC4/BLE_eventHandler.c ****     {
 992:Generated_Source\PSoC4/BLE_eventHandler.c ****         CyBle_EsscIndicationEventHandler(eventParam);
 993:Generated_Source\PSoC4/BLE_eventHandler.c ****     }
 994:Generated_Source\PSoC4/BLE_eventHandler.c **** #endif /* CYBLE_ESS_CLIENT */
 995:Generated_Source\PSoC4/BLE_eventHandler.c **** #ifdef CYBLE_GLS_CLIENT
 996:Generated_Source\PSoC4/BLE_eventHandler.c ****     if((cyBle_eventHandlerFlag & CYBLE_CALLBACK) != 0u)
 997:Generated_Source\PSoC4/BLE_eventHandler.c ****     {
 998:Generated_Source\PSoC4/BLE_eventHandler.c ****         CyBle_GlscIndicationEventHandler(eventParam);
 999:Generated_Source\PSoC4/BLE_eventHandler.c ****     }
1000:Generated_Source\PSoC4/BLE_eventHandler.c **** #endif /* CYBLE_GLS_CLIENT */
1001:Generated_Source\PSoC4/BLE_eventHandler.c **** #ifdef CYBLE_HTS_CLIENT
1002:Generated_Source\PSoC4/BLE_eventHandler.c ****     if((cyBle_eventHandlerFlag & CYBLE_CALLBACK) != 0u)
1003:Generated_Source\PSoC4/BLE_eventHandler.c ****     {
1004:Generated_Source\PSoC4/BLE_eventHandler.c ****         CyBle_HtscIndicationEventHandler(eventParam);
1005:Generated_Source\PSoC4/BLE_eventHandler.c ****     }
1006:Generated_Source\PSoC4/BLE_eventHandler.c **** #endif /* CYBLE_HTS_CLIENT */
1007:Generated_Source\PSoC4/BLE_eventHandler.c **** #ifdef CYBLE_LNS_CLIENT
1008:Generated_Source\PSoC4/BLE_eventHandler.c ****     if((cyBle_eventHandlerFlag & CYBLE_CALLBACK) != 0u)
1009:Generated_Source\PSoC4/BLE_eventHandler.c ****     {
1010:Generated_Source\PSoC4/BLE_eventHandler.c ****         CyBle_LnscIndicationEventHandler(eventParam);
1011:Generated_Source\PSoC4/BLE_eventHandler.c ****     }
1012:Generated_Source\PSoC4/BLE_eventHandler.c **** #endif /* CYBLE_LNS_CLIENT */
1013:Generated_Source\PSoC4/BLE_eventHandler.c **** #ifdef CYBLE_PLXS_CLIENT
1014:Generated_Source\PSoC4/BLE_eventHandler.c ****     if((cyBle_eventHandlerFlag & CYBLE_CALLBACK) != 0u)
1015:Generated_Source\PSoC4/BLE_eventHandler.c ****     {
1016:Generated_Source\PSoC4/BLE_eventHandler.c ****         CyBle_PlxscIndicationEventHandler(eventParam);
1017:Generated_Source\PSoC4/BLE_eventHandler.c ****     }
1018:Generated_Source\PSoC4/BLE_eventHandler.c **** #endif /* CYBLE_PLXS_CLIENT */
1019:Generated_Source\PSoC4/BLE_eventHandler.c **** #ifdef CYBLE_RSCS_CLIENT
1020:Generated_Source\PSoC4/BLE_eventHandler.c ****     if((cyBle_eventHandlerFlag & CYBLE_CALLBACK) != 0u)
1021:Generated_Source\PSoC4/BLE_eventHandler.c ****     {
1022:Generated_Source\PSoC4/BLE_eventHandler.c ****         CyBle_RscscIndicationEventHandler(eventParam);
1023:Generated_Source\PSoC4/BLE_eventHandler.c ****     }
1024:Generated_Source\PSoC4/BLE_eventHandler.c **** #endif /* CYBLE_RSCS_CLIENT */
1025:Generated_Source\PSoC4/BLE_eventHandler.c **** #ifdef CYBLE_UDS_CLIENT
1026:Generated_Source\PSoC4/BLE_eventHandler.c ****     if((cyBle_eventHandlerFlag & CYBLE_CALLBACK) != 0u)
1027:Generated_Source\PSoC4/BLE_eventHandler.c ****     {
1028:Generated_Source\PSoC4/BLE_eventHandler.c ****         CyBle_UdscIndicationEventHandler(eventParam);
1029:Generated_Source\PSoC4/BLE_eventHandler.c ****     }
1030:Generated_Source\PSoC4/BLE_eventHandler.c **** #endif /* CYBLE_UDS_CLIENT */
1031:Generated_Source\PSoC4/BLE_eventHandler.c **** #ifdef CYBLE_WPTS_CLIENT
1032:Generated_Source\PSoC4/BLE_eventHandler.c ****     if((cyBle_eventHandlerFlag & CYBLE_CALLBACK) != 0u)
1033:Generated_Source\PSoC4/BLE_eventHandler.c ****     {
1034:Generated_Source\PSoC4/BLE_eventHandler.c ****         CyBle_WptscIndicationEventHandler(eventParam);
1035:Generated_Source\PSoC4/BLE_eventHandler.c ****     }
1036:Generated_Source\PSoC4/BLE_eventHandler.c **** #endif /* CYBLE_WPTS_CLIENT */
1037:Generated_Source\PSoC4/BLE_eventHandler.c **** #ifdef CYBLE_WSS_CLIENT
1038:Generated_Source\PSoC4/BLE_eventHandler.c ****     if((cyBle_eventHandlerFlag & CYBLE_CALLBACK) != 0u)
ARM GAS  C:\Users\run1009\AppData\Local\Temp\ccSZtXoF.s 			page 24


1039:Generated_Source\PSoC4/BLE_eventHandler.c ****     {
1040:Generated_Source\PSoC4/BLE_eventHandler.c ****         CyBle_WsscIndicationEventHandler(eventParam);
1041:Generated_Source\PSoC4/BLE_eventHandler.c ****     }
1042:Generated_Source\PSoC4/BLE_eventHandler.c **** #endif /* CYBLE_WSS_CLIENT */
1043:Generated_Source\PSoC4/BLE_eventHandler.c **** }
 269              		.loc 1 1043 0
 270 0008 C046     		nop
 271 000a BD46     		mov	sp, r7
 272 000c 02B0     		add	sp, sp, #8
 273              		@ sp needed
 274 000e 80BD     		pop	{r7, pc}
 275              		.cfi_endproc
 276              	.LFE6:
 277              		.size	CyBle_IndicationEventHandler, .-CyBle_IndicationEventHandler
 278              		.section	.text.CyBle_ReadResponseEventHandler,"ax",%progbits
 279              		.align	2
 280              		.code	16
 281              		.thumb_func
 282              		.type	CyBle_ReadResponseEventHandler, %function
 283              	CyBle_ReadResponseEventHandler:
 284              	.LFB7:
1044:Generated_Source\PSoC4/BLE_eventHandler.c **** 
1045:Generated_Source\PSoC4/BLE_eventHandler.c **** /******************************************************************************    
1046:Generated_Source\PSoC4/BLE_eventHandler.c **** * Function Name: CyBle_ReadResponseEventHandler
1047:Generated_Source\PSoC4/BLE_eventHandler.c **** ***************************************************************************//**
1048:Generated_Source\PSoC4/BLE_eventHandler.c **** * 
1049:Generated_Source\PSoC4/BLE_eventHandler.c **** *  Handles the Read Response event from BLE stack.
1050:Generated_Source\PSoC4/BLE_eventHandler.c **** * 
1051:Generated_Source\PSoC4/BLE_eventHandler.c **** *  \param eventParam: event parameter
1052:Generated_Source\PSoC4/BLE_eventHandler.c **** * 
1053:Generated_Source\PSoC4/BLE_eventHandler.c **** * \return
1054:Generated_Source\PSoC4/BLE_eventHandler.c **** *  None
1055:Generated_Source\PSoC4/BLE_eventHandler.c **** * 
1056:Generated_Source\PSoC4/BLE_eventHandler.c **** ******************************************************************************/
1057:Generated_Source\PSoC4/BLE_eventHandler.c **** static void CyBle_ReadResponseEventHandler(CYBLE_GATTC_READ_RSP_PARAM_T *eventParam)
1058:Generated_Source\PSoC4/BLE_eventHandler.c **** {
 285              		.loc 1 1058 0
 286              		.cfi_startproc
 287              		@ args = 0, pretend = 0, frame = 32
 288              		@ frame_needed = 1, uses_anonymous_args = 0
 289 0000 80B5     		push	{r7, lr}
 290              		.cfi_def_cfa_offset 8
 291              		.cfi_offset 7, -8
 292              		.cfi_offset 14, -4
 293 0002 88B0     		sub	sp, sp, #32
 294              		.cfi_def_cfa_offset 40
 295 0004 00AF     		add	r7, sp, #0
 296              		.cfi_def_cfa_register 7
 297 0006 7860     		str	r0, [r7, #4]
1059:Generated_Source\PSoC4/BLE_eventHandler.c **** #ifdef CYBLE_CUSTOM_CLIENT
1060:Generated_Source\PSoC4/BLE_eventHandler.c ****     /* Read response with 128-bit included service uuid */
1061:Generated_Source\PSoC4/BLE_eventHandler.c ****     if((CyBle_GetClientState() == CYBLE_CLIENT_STATE_INCL_DISCOVERING) &&
 298              		.loc 1 1061 0
 299 0008 394B     		ldr	r3, .L17
 300 000a 1B78     		ldrb	r3, [r3]
 301 000c 022B     		cmp	r3, #2
 302 000e 6AD1     		bne	.L16
ARM GAS  C:\Users\run1009\AppData\Local\Temp\ccSZtXoF.s 			page 25


1062:Generated_Source\PSoC4/BLE_eventHandler.c ****        (cyBle_discInclInfo.inclDefHandle != 0u))
 303              		.loc 1 1062 0 discriminator 1
 304 0010 384B     		ldr	r3, .L17+4
 305 0012 1B88     		ldrh	r3, [r3]
1061:Generated_Source\PSoC4/BLE_eventHandler.c ****        (cyBle_discInclInfo.inclDefHandle != 0u))
 306              		.loc 1 1061 0 discriminator 1
 307 0014 002B     		cmp	r3, #0
 308 0016 66D0     		beq	.L16
 309              	.LBB3:
1063:Generated_Source\PSoC4/BLE_eventHandler.c ****     {
1064:Generated_Source\PSoC4/BLE_eventHandler.c ****         CYBLE_DISC_SRVC128_INFO_T discServInfo;
1065:Generated_Source\PSoC4/BLE_eventHandler.c **** 
1066:Generated_Source\PSoC4/BLE_eventHandler.c ****         /* Store service range */
1067:Generated_Source\PSoC4/BLE_eventHandler.c ****         discServInfo.range = cyBle_discInclInfo.inclHandleRange;
 310              		.loc 1 1067 0
 311 0018 0823     		movs	r3, #8
 312 001a F918     		adds	r1, r7, r3
 313 001c 354B     		ldr	r3, .L17+4
 314 001e 0222     		movs	r2, #2
 315 0020 0800     		movs	r0, r1
 316 0022 9B18     		adds	r3, r3, r2
 317 0024 0422     		movs	r2, #4
 318 0026 1900     		movs	r1, r3
 319 0028 FFF7FEFF 		bl	memcpy
1068:Generated_Source\PSoC4/BLE_eventHandler.c ****         (void)memcpy((void *) discServInfo.uuid.uuid128.value, (void *)eventParam->value.val, event
 320              		.loc 1 1068 0
 321 002c 7B68     		ldr	r3, [r7, #4]
 322 002e 5968     		ldr	r1, [r3, #4]
 323 0030 7B68     		ldr	r3, [r7, #4]
 324 0032 1B89     		ldrh	r3, [r3, #8]
 325 0034 1A00     		movs	r2, r3
 326 0036 0823     		movs	r3, #8
 327 0038 FB18     		adds	r3, r7, r3
 328 003a 0433     		adds	r3, r3, #4
 329 003c 1800     		movs	r0, r3
 330 003e FFF7FEFF 		bl	memcpy
1069:Generated_Source\PSoC4/BLE_eventHandler.c ****         CyBle_CustomcDiscoverServiceEventHandler(&discServInfo);
 331              		.loc 1 1069 0
 332 0042 0823     		movs	r3, #8
 333 0044 FB18     		adds	r3, r7, r3
 334 0046 1800     		movs	r0, r3
 335 0048 FFF7FEFF 		bl	CyBle_CustomcDiscoverServiceEventHandler
1070:Generated_Source\PSoC4/BLE_eventHandler.c ****         
1071:Generated_Source\PSoC4/BLE_eventHandler.c ****         /* Re-initiate CyBle_GattcFindIncludedServices function, setting the start
1072:Generated_Source\PSoC4/BLE_eventHandler.c ****            handle to the attribute handle which is placed next to the one used in
1073:Generated_Source\PSoC4/BLE_eventHandler.c ****            the above step.
1074:Generated_Source\PSoC4/BLE_eventHandler.c ****         */
1075:Generated_Source\PSoC4/BLE_eventHandler.c ****         discServInfo.range.startHandle = cyBle_discInclInfo.inclDefHandle + 1u;
 336              		.loc 1 1075 0
 337 004c 294B     		ldr	r3, .L17+4
 338 004e 1B88     		ldrh	r3, [r3]
 339 0050 0133     		adds	r3, r3, #1
 340 0052 9AB2     		uxth	r2, r3
 341 0054 0823     		movs	r3, #8
 342 0056 FB18     		adds	r3, r7, r3
 343 0058 1A80     		strh	r2, [r3]
1076:Generated_Source\PSoC4/BLE_eventHandler.c ****         discServInfo.range.endHandle = cyBle_serverInfo[cyBle_disCount].range.endHandle;
ARM GAS  C:\Users\run1009\AppData\Local\Temp\ccSZtXoF.s 			page 26


 344              		.loc 1 1076 0
 345 005a 274B     		ldr	r3, .L17+8
 346 005c 1B78     		ldrb	r3, [r3]
 347 005e 1900     		movs	r1, r3
 348 0060 264A     		ldr	r2, .L17+12
 349 0062 0B00     		movs	r3, r1
 350 0064 5B00     		lsls	r3, r3, #1
 351 0066 5B18     		adds	r3, r3, r1
 352 0068 5B00     		lsls	r3, r3, #1
 353 006a D318     		adds	r3, r2, r3
 354 006c 0233     		adds	r3, r3, #2
 355 006e 1A88     		ldrh	r2, [r3]
 356 0070 0823     		movs	r3, #8
 357 0072 FB18     		adds	r3, r7, r3
 358 0074 5A80     		strh	r2, [r3, #2]
1077:Generated_Source\PSoC4/BLE_eventHandler.c ****         if(discServInfo.range.startHandle <= discServInfo.range.endHandle)
 359              		.loc 1 1077 0
 360 0076 0823     		movs	r3, #8
 361 0078 FB18     		adds	r3, r7, r3
 362 007a 1A88     		ldrh	r2, [r3]
 363 007c 0823     		movs	r3, #8
 364 007e FB18     		adds	r3, r7, r3
 365 0080 5B88     		ldrh	r3, [r3, #2]
 366 0082 9A42     		cmp	r2, r3
 367 0084 21D8     		bhi	.L13
1078:Generated_Source\PSoC4/BLE_eventHandler.c ****         {
1079:Generated_Source\PSoC4/BLE_eventHandler.c ****             if(CYBLE_ERROR_OK != CyBle_GattcFindIncludedServices(cyBle_connHandle, &discServInfo.ra
 368              		.loc 1 1079 0
 369 0086 0823     		movs	r3, #8
 370 0088 F918     		adds	r1, r7, r3
 371 008a 1D4B     		ldr	r3, .L17+16
 372 008c 1A78     		ldrb	r2, [r3]
 373 008e 5B78     		ldrb	r3, [r3, #1]
 374 0090 1B02     		lsls	r3, r3, #8
 375 0092 1A43     		orrs	r2, r3
 376 0094 0023     		movs	r3, #0
 377 0096 1204     		lsls	r2, r2, #16
 378 0098 120C     		lsrs	r2, r2, #16
 379 009a 1B0C     		lsrs	r3, r3, #16
 380 009c 1B04     		lsls	r3, r3, #16
 381 009e 1343     		orrs	r3, r2
 382 00a0 1800     		movs	r0, r3
 383 00a2 FFF7FEFF 		bl	CyBle_GattcFindIncludedServices
 384 00a6 031E     		subs	r3, r0, #0
 385 00a8 12D0     		beq	.L15
1080:Generated_Source\PSoC4/BLE_eventHandler.c ****             {
1081:Generated_Source\PSoC4/BLE_eventHandler.c ****                 CyBle_ApplCallback(CYBLE_EVT_GATTC_INCL_DISCOVERY_FAILED, NULL);
 386              		.loc 1 1081 0
 387 00aa 164B     		ldr	r3, .L17+20
 388 00ac 1B68     		ldr	r3, [r3]
 389 00ae 8422     		movs	r2, #132
 390 00b0 5200     		lsls	r2, r2, #1
 391 00b2 0021     		movs	r1, #0
 392 00b4 1000     		movs	r0, r2
 393 00b6 9847     		blx	r3
1082:Generated_Source\PSoC4/BLE_eventHandler.c ****                 cyBle_eventHandlerFlag &= (uint8)~CYBLE_AUTO_DISCOVERY;
 394              		.loc 1 1082 0
ARM GAS  C:\Users\run1009\AppData\Local\Temp\ccSZtXoF.s 			page 27


 395 00b8 134B     		ldr	r3, .L17+24
 396 00ba 1B78     		ldrb	r3, [r3]
 397 00bc DBB2     		uxtb	r3, r3
 398 00be 0222     		movs	r2, #2
 399 00c0 9343     		bics	r3, r2
 400 00c2 DAB2     		uxtb	r2, r3
 401 00c4 104B     		ldr	r3, .L17+24
 402 00c6 1A70     		strb	r2, [r3]
 403 00c8 02E0     		b	.L15
 404              	.L13:
1083:Generated_Source\PSoC4/BLE_eventHandler.c ****             }
1084:Generated_Source\PSoC4/BLE_eventHandler.c ****         }
1085:Generated_Source\PSoC4/BLE_eventHandler.c ****         else /* Continue discovery of the following service */
1086:Generated_Source\PSoC4/BLE_eventHandler.c ****         {
1087:Generated_Source\PSoC4/BLE_eventHandler.c ****             CyBle_NextInclDiscovery(CYBLE_DISCOVERY_CONTINUE);
 405              		.loc 1 1087 0
 406 00ca 0120     		movs	r0, #1
 407 00cc FFF7FEFF 		bl	CyBle_NextInclDiscovery
 408              	.L15:
1088:Generated_Source\PSoC4/BLE_eventHandler.c ****         }
1089:Generated_Source\PSoC4/BLE_eventHandler.c ****         
1090:Generated_Source\PSoC4/BLE_eventHandler.c ****         cyBle_eventHandlerFlag &= (uint8)~CYBLE_CALLBACK;
 409              		.loc 1 1090 0 discriminator 1
 410 00d0 0D4B     		ldr	r3, .L17+24
 411 00d2 1B78     		ldrb	r3, [r3]
 412 00d4 DBB2     		uxtb	r3, r3
 413 00d6 0122     		movs	r2, #1
 414 00d8 9343     		bics	r3, r2
 415 00da DAB2     		uxtb	r2, r3
 416 00dc 0A4B     		ldr	r3, .L17+24
 417 00de 1A70     		strb	r2, [r3]
1091:Generated_Source\PSoC4/BLE_eventHandler.c ****     #ifdef CYBLE_CUSTOM_CLIENT
1092:Generated_Source\PSoC4/BLE_eventHandler.c ****         cyBle_discInclInfo.inclDefHandle = 0u;
 418              		.loc 1 1092 0 discriminator 1
 419 00e0 044B     		ldr	r3, .L17+4
 420 00e2 0022     		movs	r2, #0
 421 00e4 1A80     		strh	r2, [r3]
 422              	.L16:
 423              	.LBE3:
1093:Generated_Source\PSoC4/BLE_eventHandler.c ****     #endif /* CYBLE_CUSTOM_CLIENT */
1094:Generated_Source\PSoC4/BLE_eventHandler.c ****     }
1095:Generated_Source\PSoC4/BLE_eventHandler.c **** #endif /* CYBLE_CUSTOM_CLIENT */
1096:Generated_Source\PSoC4/BLE_eventHandler.c **** #ifdef CYBLE_AIOS_CLIENT
1097:Generated_Source\PSoC4/BLE_eventHandler.c ****     if((cyBle_eventHandlerFlag & CYBLE_CALLBACK) != 0u)
1098:Generated_Source\PSoC4/BLE_eventHandler.c ****     {
1099:Generated_Source\PSoC4/BLE_eventHandler.c ****         CyBle_AioscReadResponseEventHandler(eventParam);
1100:Generated_Source\PSoC4/BLE_eventHandler.c ****     }
1101:Generated_Source\PSoC4/BLE_eventHandler.c **** #endif /* CYBLE_AIOS_CLIENT */
1102:Generated_Source\PSoC4/BLE_eventHandler.c **** #ifdef CYBLE_ANCS_CLIENT
1103:Generated_Source\PSoC4/BLE_eventHandler.c ****     if((cyBle_eventHandlerFlag & CYBLE_CALLBACK) != 0u)
1104:Generated_Source\PSoC4/BLE_eventHandler.c ****     {
1105:Generated_Source\PSoC4/BLE_eventHandler.c ****         CyBle_AncscReadResponseEventHandler(eventParam);
1106:Generated_Source\PSoC4/BLE_eventHandler.c ****     }
1107:Generated_Source\PSoC4/BLE_eventHandler.c **** #endif /* CYBLE_ANCS_CLIENT */
1108:Generated_Source\PSoC4/BLE_eventHandler.c **** #ifdef CYBLE_ANS_CLIENT
1109:Generated_Source\PSoC4/BLE_eventHandler.c ****     if((cyBle_eventHandlerFlag & CYBLE_CALLBACK) != 0u)
1110:Generated_Source\PSoC4/BLE_eventHandler.c ****     {
ARM GAS  C:\Users\run1009\AppData\Local\Temp\ccSZtXoF.s 			page 28


1111:Generated_Source\PSoC4/BLE_eventHandler.c ****         CyBle_AnscReadResponseEventHandler(eventParam);
1112:Generated_Source\PSoC4/BLE_eventHandler.c ****     }
1113:Generated_Source\PSoC4/BLE_eventHandler.c **** #endif /* CYBLE_ANS_CLIENT */
1114:Generated_Source\PSoC4/BLE_eventHandler.c **** #ifdef CYBLE_BAS_CLIENT
1115:Generated_Source\PSoC4/BLE_eventHandler.c ****     if((cyBle_eventHandlerFlag & CYBLE_CALLBACK) != 0u)
1116:Generated_Source\PSoC4/BLE_eventHandler.c ****     {
1117:Generated_Source\PSoC4/BLE_eventHandler.c ****         CyBle_BascReadResponseEventHandler(eventParam);
1118:Generated_Source\PSoC4/BLE_eventHandler.c ****     }
1119:Generated_Source\PSoC4/BLE_eventHandler.c **** #endif /* CYBLE_BAS_CLIENT */
1120:Generated_Source\PSoC4/BLE_eventHandler.c **** #ifdef CYBLE_BLS_CLIENT
1121:Generated_Source\PSoC4/BLE_eventHandler.c ****     if((cyBle_eventHandlerFlag & CYBLE_CALLBACK) != 0u)
1122:Generated_Source\PSoC4/BLE_eventHandler.c ****     {
1123:Generated_Source\PSoC4/BLE_eventHandler.c ****         CyBle_BlscReadResponseEventHandler(eventParam);
1124:Generated_Source\PSoC4/BLE_eventHandler.c ****     }
1125:Generated_Source\PSoC4/BLE_eventHandler.c **** #endif /* CYBLE_BLS_CLIENT */
1126:Generated_Source\PSoC4/BLE_eventHandler.c **** #ifdef CYBLE_BCS_CLIENT
1127:Generated_Source\PSoC4/BLE_eventHandler.c ****     if((cyBle_eventHandlerFlag & CYBLE_CALLBACK) != 0u)
1128:Generated_Source\PSoC4/BLE_eventHandler.c ****     {
1129:Generated_Source\PSoC4/BLE_eventHandler.c ****         CyBle_BcscReadResponseEventHandler(eventParam);
1130:Generated_Source\PSoC4/BLE_eventHandler.c ****     }
1131:Generated_Source\PSoC4/BLE_eventHandler.c **** #endif /* CYBLE_BCS_CLIENT */
1132:Generated_Source\PSoC4/BLE_eventHandler.c **** #ifdef CYBLE_BMS_CLIENT
1133:Generated_Source\PSoC4/BLE_eventHandler.c ****     if((cyBle_eventHandlerFlag & CYBLE_CALLBACK) != 0u)
1134:Generated_Source\PSoC4/BLE_eventHandler.c ****     {
1135:Generated_Source\PSoC4/BLE_eventHandler.c ****         CyBle_BmscReadResponseEventHandler(eventParam);
1136:Generated_Source\PSoC4/BLE_eventHandler.c ****     }
1137:Generated_Source\PSoC4/BLE_eventHandler.c **** #endif /* CYBLE_BMS_CLIENT */
1138:Generated_Source\PSoC4/BLE_eventHandler.c **** #ifdef CYBLE_CGMS_CLIENT
1139:Generated_Source\PSoC4/BLE_eventHandler.c ****     if((cyBle_eventHandlerFlag & CYBLE_CALLBACK) != 0u)
1140:Generated_Source\PSoC4/BLE_eventHandler.c ****     {
1141:Generated_Source\PSoC4/BLE_eventHandler.c ****         CyBle_CgmscReadResponseEventHandler(eventParam);
1142:Generated_Source\PSoC4/BLE_eventHandler.c ****     }
1143:Generated_Source\PSoC4/BLE_eventHandler.c **** #endif /* CYBLE_CGMS_CLIENT */
1144:Generated_Source\PSoC4/BLE_eventHandler.c **** #ifdef CYBLE_CPS_CLIENT
1145:Generated_Source\PSoC4/BLE_eventHandler.c ****     if((cyBle_eventHandlerFlag & CYBLE_CALLBACK) != 0u)
1146:Generated_Source\PSoC4/BLE_eventHandler.c ****     {
1147:Generated_Source\PSoC4/BLE_eventHandler.c ****         CyBle_CpscReadResponseEventHandler(eventParam);
1148:Generated_Source\PSoC4/BLE_eventHandler.c ****     }
1149:Generated_Source\PSoC4/BLE_eventHandler.c **** #endif /* CYBLE_CPS_CLIENT */
1150:Generated_Source\PSoC4/BLE_eventHandler.c **** #ifdef CYBLE_CSCS_CLIENT
1151:Generated_Source\PSoC4/BLE_eventHandler.c ****     if((cyBle_eventHandlerFlag & CYBLE_CALLBACK) != 0u)
1152:Generated_Source\PSoC4/BLE_eventHandler.c ****     {
1153:Generated_Source\PSoC4/BLE_eventHandler.c ****         CyBle_CscscReadResponseEventHandler(eventParam);
1154:Generated_Source\PSoC4/BLE_eventHandler.c ****     }
1155:Generated_Source\PSoC4/BLE_eventHandler.c **** #endif /* CYBLE_CSCS_CLIENT */
1156:Generated_Source\PSoC4/BLE_eventHandler.c **** #ifdef CYBLE_CTS_CLIENT
1157:Generated_Source\PSoC4/BLE_eventHandler.c ****     if((cyBle_eventHandlerFlag & CYBLE_CALLBACK) != 0u)
1158:Generated_Source\PSoC4/BLE_eventHandler.c ****     {
1159:Generated_Source\PSoC4/BLE_eventHandler.c ****         CyBle_CtscReadResponseEventHandler(eventParam);
1160:Generated_Source\PSoC4/BLE_eventHandler.c ****     }
1161:Generated_Source\PSoC4/BLE_eventHandler.c **** #endif /* CYBLE_BAS_CLIENT */
1162:Generated_Source\PSoC4/BLE_eventHandler.c **** #ifdef CYBLE_DIS_CLIENT
1163:Generated_Source\PSoC4/BLE_eventHandler.c ****     if((cyBle_eventHandlerFlag & CYBLE_CALLBACK) != 0u)
1164:Generated_Source\PSoC4/BLE_eventHandler.c ****     {
1165:Generated_Source\PSoC4/BLE_eventHandler.c ****         CyBle_DiscReadResponseEventHandler(eventParam);
1166:Generated_Source\PSoC4/BLE_eventHandler.c ****     }
1167:Generated_Source\PSoC4/BLE_eventHandler.c **** #endif /* CYBLE_DIS_CLIENT */
ARM GAS  C:\Users\run1009\AppData\Local\Temp\ccSZtXoF.s 			page 29


1168:Generated_Source\PSoC4/BLE_eventHandler.c **** #ifdef CYBLE_ESS_CLIENT
1169:Generated_Source\PSoC4/BLE_eventHandler.c ****     if((cyBle_eventHandlerFlag & CYBLE_CALLBACK) != 0u)
1170:Generated_Source\PSoC4/BLE_eventHandler.c ****     {
1171:Generated_Source\PSoC4/BLE_eventHandler.c ****         CyBle_EsscReadResponseEventHandler(eventParam);
1172:Generated_Source\PSoC4/BLE_eventHandler.c ****     }
1173:Generated_Source\PSoC4/BLE_eventHandler.c **** #endif /* CYBLE_ESS_CLIENT */
1174:Generated_Source\PSoC4/BLE_eventHandler.c **** #ifdef CYBLE_GLS_CLIENT
1175:Generated_Source\PSoC4/BLE_eventHandler.c ****     if((cyBle_eventHandlerFlag & CYBLE_CALLBACK) != 0u)
1176:Generated_Source\PSoC4/BLE_eventHandler.c ****     {
1177:Generated_Source\PSoC4/BLE_eventHandler.c ****         CyBle_GlscReadResponseEventHandler(eventParam);
1178:Generated_Source\PSoC4/BLE_eventHandler.c ****     }
1179:Generated_Source\PSoC4/BLE_eventHandler.c **** #endif /* CYBLE_GLS_CLIENT */
1180:Generated_Source\PSoC4/BLE_eventHandler.c **** #ifdef CYBLE_HIDS_CLIENT
1181:Generated_Source\PSoC4/BLE_eventHandler.c ****     if((cyBle_eventHandlerFlag & CYBLE_CALLBACK) != 0u)
1182:Generated_Source\PSoC4/BLE_eventHandler.c ****     {
1183:Generated_Source\PSoC4/BLE_eventHandler.c ****         CyBle_HidscReadResponseEventHandler(eventParam);
1184:Generated_Source\PSoC4/BLE_eventHandler.c ****     }
1185:Generated_Source\PSoC4/BLE_eventHandler.c **** #endif /* CYBLE_HIDS_CLIENT */
1186:Generated_Source\PSoC4/BLE_eventHandler.c **** #ifdef CYBLE_HPS_CLIENT
1187:Generated_Source\PSoC4/BLE_eventHandler.c ****     if((cyBle_eventHandlerFlag & CYBLE_CALLBACK) != 0u)
1188:Generated_Source\PSoC4/BLE_eventHandler.c ****     {
1189:Generated_Source\PSoC4/BLE_eventHandler.c ****         CyBle_HpscReadResponseEventHandler(eventParam);
1190:Generated_Source\PSoC4/BLE_eventHandler.c ****     }
1191:Generated_Source\PSoC4/BLE_eventHandler.c **** #endif /* CYBLE_HPS_CLIENT */
1192:Generated_Source\PSoC4/BLE_eventHandler.c **** #ifdef CYBLE_HRS_CLIENT
1193:Generated_Source\PSoC4/BLE_eventHandler.c ****     if((cyBle_eventHandlerFlag & CYBLE_CALLBACK) != 0u)
1194:Generated_Source\PSoC4/BLE_eventHandler.c ****     {
1195:Generated_Source\PSoC4/BLE_eventHandler.c ****         CyBle_HrscReadResponseEventHandler(eventParam);
1196:Generated_Source\PSoC4/BLE_eventHandler.c ****     }
1197:Generated_Source\PSoC4/BLE_eventHandler.c **** #endif /* CYBLE_HRS_CLIENT */
1198:Generated_Source\PSoC4/BLE_eventHandler.c **** #ifdef CYBLE_HTS_CLIENT
1199:Generated_Source\PSoC4/BLE_eventHandler.c ****     if((cyBle_eventHandlerFlag & CYBLE_CALLBACK) != 0u)
1200:Generated_Source\PSoC4/BLE_eventHandler.c ****     {
1201:Generated_Source\PSoC4/BLE_eventHandler.c ****         CyBle_HtscReadResponseEventHandler(eventParam);
1202:Generated_Source\PSoC4/BLE_eventHandler.c ****     }
1203:Generated_Source\PSoC4/BLE_eventHandler.c **** #endif /* CYBLE_HTS_CLIENT */
1204:Generated_Source\PSoC4/BLE_eventHandler.c **** #ifdef CYBLE_IPS_CLIENT
1205:Generated_Source\PSoC4/BLE_eventHandler.c ****     if((cyBle_eventHandlerFlag & CYBLE_CALLBACK) != 0u)
1206:Generated_Source\PSoC4/BLE_eventHandler.c ****     {
1207:Generated_Source\PSoC4/BLE_eventHandler.c ****         CyBle_IpscReadResponseEventHandler(eventParam);
1208:Generated_Source\PSoC4/BLE_eventHandler.c ****     }
1209:Generated_Source\PSoC4/BLE_eventHandler.c **** #endif /* CYBLE_IPS_CLIENT */
1210:Generated_Source\PSoC4/BLE_eventHandler.c **** #ifdef CYBLE_LLS_CLIENT
1211:Generated_Source\PSoC4/BLE_eventHandler.c ****     if((cyBle_eventHandlerFlag & CYBLE_CALLBACK) != 0u)
1212:Generated_Source\PSoC4/BLE_eventHandler.c ****     {
1213:Generated_Source\PSoC4/BLE_eventHandler.c ****         CyBle_LlscReadResponseEventHandler(eventParam);
1214:Generated_Source\PSoC4/BLE_eventHandler.c ****     }
1215:Generated_Source\PSoC4/BLE_eventHandler.c **** #endif /* CYBLE_LLS_CLIENT */
1216:Generated_Source\PSoC4/BLE_eventHandler.c **** #ifdef CYBLE_LNS_CLIENT
1217:Generated_Source\PSoC4/BLE_eventHandler.c ****     if((cyBle_eventHandlerFlag & CYBLE_CALLBACK) != 0u)
1218:Generated_Source\PSoC4/BLE_eventHandler.c ****     {
1219:Generated_Source\PSoC4/BLE_eventHandler.c ****         CyBle_LnscReadResponseEventHandler(eventParam);
1220:Generated_Source\PSoC4/BLE_eventHandler.c ****     }
1221:Generated_Source\PSoC4/BLE_eventHandler.c **** #endif /* CYBLE_LNS_CLIENT */
1222:Generated_Source\PSoC4/BLE_eventHandler.c **** #ifdef CYBLE_NDCS_CLIENT
1223:Generated_Source\PSoC4/BLE_eventHandler.c ****     if((cyBle_eventHandlerFlag & CYBLE_CALLBACK) != 0u)
1224:Generated_Source\PSoC4/BLE_eventHandler.c ****     {
ARM GAS  C:\Users\run1009\AppData\Local\Temp\ccSZtXoF.s 			page 30


1225:Generated_Source\PSoC4/BLE_eventHandler.c ****         CyBle_NdcscReadResponseEventHandler(eventParam);
1226:Generated_Source\PSoC4/BLE_eventHandler.c ****     }
1227:Generated_Source\PSoC4/BLE_eventHandler.c **** #endif /* CYBLE_NDCS_CLIENT */
1228:Generated_Source\PSoC4/BLE_eventHandler.c **** #ifdef CYBLE_PASS_CLIENT
1229:Generated_Source\PSoC4/BLE_eventHandler.c ****     if((cyBle_eventHandlerFlag & CYBLE_CALLBACK) != 0u)
1230:Generated_Source\PSoC4/BLE_eventHandler.c ****     {
1231:Generated_Source\PSoC4/BLE_eventHandler.c ****         CyBle_PasscReadResponseEventHandler(eventParam);
1232:Generated_Source\PSoC4/BLE_eventHandler.c ****     }
1233:Generated_Source\PSoC4/BLE_eventHandler.c **** #endif /* CYBLE_PASS_CLIENT */
1234:Generated_Source\PSoC4/BLE_eventHandler.c **** #ifdef CYBLE_PLXS_CLIENT
1235:Generated_Source\PSoC4/BLE_eventHandler.c ****     if((cyBle_eventHandlerFlag & CYBLE_CALLBACK) != 0u)
1236:Generated_Source\PSoC4/BLE_eventHandler.c ****     {
1237:Generated_Source\PSoC4/BLE_eventHandler.c ****         CyBle_PlxscReadResponseEventHandler(eventParam);
1238:Generated_Source\PSoC4/BLE_eventHandler.c ****     }
1239:Generated_Source\PSoC4/BLE_eventHandler.c **** #endif /* CYBLE_PLXS_CLIENT */
1240:Generated_Source\PSoC4/BLE_eventHandler.c **** #ifdef CYBLE_RSCS_CLIENT
1241:Generated_Source\PSoC4/BLE_eventHandler.c ****     if((cyBle_eventHandlerFlag & CYBLE_CALLBACK) != 0u)
1242:Generated_Source\PSoC4/BLE_eventHandler.c ****     {
1243:Generated_Source\PSoC4/BLE_eventHandler.c ****         CyBle_RscscReadResponseEventHandler(eventParam);
1244:Generated_Source\PSoC4/BLE_eventHandler.c ****     }
1245:Generated_Source\PSoC4/BLE_eventHandler.c **** #endif /* CYBLE_RSCS_CLIENT */
1246:Generated_Source\PSoC4/BLE_eventHandler.c **** #ifdef CYBLE_RTUS_CLIENT
1247:Generated_Source\PSoC4/BLE_eventHandler.c ****     if((cyBle_eventHandlerFlag & CYBLE_CALLBACK) != 0u)
1248:Generated_Source\PSoC4/BLE_eventHandler.c ****     {
1249:Generated_Source\PSoC4/BLE_eventHandler.c ****         CyBle_RtuscReadResponseEventHandler(eventParam);
1250:Generated_Source\PSoC4/BLE_eventHandler.c ****     }
1251:Generated_Source\PSoC4/BLE_eventHandler.c **** #endif /* CYBLE_RTUS_CLIENT */
1252:Generated_Source\PSoC4/BLE_eventHandler.c **** #ifdef CYBLE_SCPS_CLIENT
1253:Generated_Source\PSoC4/BLE_eventHandler.c ****     if((cyBle_eventHandlerFlag & CYBLE_CALLBACK) != 0u)
1254:Generated_Source\PSoC4/BLE_eventHandler.c ****     {
1255:Generated_Source\PSoC4/BLE_eventHandler.c ****         CyBle_ScpscReadResponseEventHandler(eventParam);
1256:Generated_Source\PSoC4/BLE_eventHandler.c ****     }
1257:Generated_Source\PSoC4/BLE_eventHandler.c **** #endif /* CYBLE_SCPS_CLIENT */
1258:Generated_Source\PSoC4/BLE_eventHandler.c **** #ifdef CYBLE_TPS_CLIENT
1259:Generated_Source\PSoC4/BLE_eventHandler.c ****     if((cyBle_eventHandlerFlag & CYBLE_CALLBACK) != 0u)
1260:Generated_Source\PSoC4/BLE_eventHandler.c ****     {
1261:Generated_Source\PSoC4/BLE_eventHandler.c ****         CyBle_TpscReadResponseEventHandler(eventParam);
1262:Generated_Source\PSoC4/BLE_eventHandler.c ****     }
1263:Generated_Source\PSoC4/BLE_eventHandler.c **** #endif /* CYBLE_TPS_CLIENT */
1264:Generated_Source\PSoC4/BLE_eventHandler.c **** #ifdef CYBLE_UDS_CLIENT
1265:Generated_Source\PSoC4/BLE_eventHandler.c ****     if((cyBle_eventHandlerFlag & CYBLE_CALLBACK) != 0u)
1266:Generated_Source\PSoC4/BLE_eventHandler.c ****     {
1267:Generated_Source\PSoC4/BLE_eventHandler.c ****         CyBle_UdscReadResponseEventHandler(eventParam);
1268:Generated_Source\PSoC4/BLE_eventHandler.c ****     }
1269:Generated_Source\PSoC4/BLE_eventHandler.c **** #endif /* CYBLE_UDS_CLIENT */
1270:Generated_Source\PSoC4/BLE_eventHandler.c **** #ifdef CYBLE_WPTS_CLIENT
1271:Generated_Source\PSoC4/BLE_eventHandler.c ****     if((cyBle_eventHandlerFlag & CYBLE_CALLBACK) != 0u)
1272:Generated_Source\PSoC4/BLE_eventHandler.c ****     {
1273:Generated_Source\PSoC4/BLE_eventHandler.c ****         CyBle_WptscReadResponseEventHandler(eventParam);
1274:Generated_Source\PSoC4/BLE_eventHandler.c ****     }
1275:Generated_Source\PSoC4/BLE_eventHandler.c **** #endif /* CYBLE_WPTS_CLIENT */
1276:Generated_Source\PSoC4/BLE_eventHandler.c **** #ifdef CYBLE_WSS_CLIENT
1277:Generated_Source\PSoC4/BLE_eventHandler.c ****     if((cyBle_eventHandlerFlag & CYBLE_CALLBACK) != 0u)
1278:Generated_Source\PSoC4/BLE_eventHandler.c ****     {
1279:Generated_Source\PSoC4/BLE_eventHandler.c ****         CyBle_WsscReadResponseEventHandler(eventParam);
1280:Generated_Source\PSoC4/BLE_eventHandler.c ****     }
1281:Generated_Source\PSoC4/BLE_eventHandler.c **** #endif /* CYBLE_WSS_CLIENT */
ARM GAS  C:\Users\run1009\AppData\Local\Temp\ccSZtXoF.s 			page 31


1282:Generated_Source\PSoC4/BLE_eventHandler.c **** }
 424              		.loc 1 1282 0
 425 00e6 C046     		nop
 426 00e8 BD46     		mov	sp, r7
 427 00ea 08B0     		add	sp, sp, #32
 428              		@ sp needed
 429 00ec 80BD     		pop	{r7, pc}
 430              	.L18:
 431 00ee C046     		.align	2
 432              	.L17:
 433 00f0 00000000 		.word	cyBle_clientState
 434 00f4 00000000 		.word	cyBle_discInclInfo
 435 00f8 00000000 		.word	cyBle_disCount
 436 00fc 00000000 		.word	cyBle_serverInfo
 437 0100 00000000 		.word	cyBle_connHandle
 438 0104 00000000 		.word	CyBle_ApplCallback
 439 0108 00000000 		.word	cyBle_eventHandlerFlag
 440              		.cfi_endproc
 441              	.LFE7:
 442              		.size	CyBle_ReadResponseEventHandler, .-CyBle_ReadResponseEventHandler
 443              		.section	.text.CyBle_ReadMultipleResponseEventHandler,"ax",%progbits
 444              		.align	2
 445              		.code	16
 446              		.thumb_func
 447              		.type	CyBle_ReadMultipleResponseEventHandler, %function
 448              	CyBle_ReadMultipleResponseEventHandler:
 449              	.LFB8:
1283:Generated_Source\PSoC4/BLE_eventHandler.c **** 
1284:Generated_Source\PSoC4/BLE_eventHandler.c **** /******************************************************************************    
1285:Generated_Source\PSoC4/BLE_eventHandler.c **** * Function Name: CyBle_ReadMultipleResponseEventHandler
1286:Generated_Source\PSoC4/BLE_eventHandler.c **** ***************************************************************************//**
1287:Generated_Source\PSoC4/BLE_eventHandler.c **** * 
1288:Generated_Source\PSoC4/BLE_eventHandler.c **** *  Handles the Read Multiple Response event from BLE stack.
1289:Generated_Source\PSoC4/BLE_eventHandler.c **** * 
1290:Generated_Source\PSoC4/BLE_eventHandler.c **** *  \param eventParam: event parameter
1291:Generated_Source\PSoC4/BLE_eventHandler.c **** * 
1292:Generated_Source\PSoC4/BLE_eventHandler.c **** * \return
1293:Generated_Source\PSoC4/BLE_eventHandler.c **** *  None
1294:Generated_Source\PSoC4/BLE_eventHandler.c **** * 
1295:Generated_Source\PSoC4/BLE_eventHandler.c **** ******************************************************************************/
1296:Generated_Source\PSoC4/BLE_eventHandler.c **** static void CyBle_ReadMultipleResponseEventHandler(CYBLE_GATTC_READ_RSP_PARAM_T *eventParam)
1297:Generated_Source\PSoC4/BLE_eventHandler.c **** {
 450              		.loc 1 1297 0
 451              		.cfi_startproc
 452              		@ args = 0, pretend = 0, frame = 32
 453              		@ frame_needed = 1, uses_anonymous_args = 0
 454 0000 80B5     		push	{r7, lr}
 455              		.cfi_def_cfa_offset 8
 456              		.cfi_offset 7, -8
 457              		.cfi_offset 14, -4
 458 0002 88B0     		sub	sp, sp, #32
 459              		.cfi_def_cfa_offset 40
 460 0004 00AF     		add	r7, sp, #0
 461              		.cfi_def_cfa_register 7
 462 0006 7860     		str	r0, [r7, #4]
1298:Generated_Source\PSoC4/BLE_eventHandler.c **** #ifdef CYBLE_CUSTOM_CLIENT
1299:Generated_Source\PSoC4/BLE_eventHandler.c ****     /* Read response with 128-bit included service uuid */
ARM GAS  C:\Users\run1009\AppData\Local\Temp\ccSZtXoF.s 			page 32


1300:Generated_Source\PSoC4/BLE_eventHandler.c ****     if((CYBLE_CLIENT_STATE_INCL_DISCOVERING == CyBle_GetClientState()) &&
 463              		.loc 1 1300 0
 464 0008 394B     		ldr	r3, .L25
 465 000a 1B78     		ldrb	r3, [r3]
 466 000c 022B     		cmp	r3, #2
 467 000e 6AD1     		bne	.L24
1301:Generated_Source\PSoC4/BLE_eventHandler.c ****        (cyBle_discInclInfo.inclDefHandle != 0u))
 468              		.loc 1 1301 0 discriminator 1
 469 0010 384B     		ldr	r3, .L25+4
 470 0012 1B88     		ldrh	r3, [r3]
1300:Generated_Source\PSoC4/BLE_eventHandler.c ****        (cyBle_discInclInfo.inclDefHandle != 0u))
 471              		.loc 1 1300 0 discriminator 1
 472 0014 002B     		cmp	r3, #0
 473 0016 66D0     		beq	.L24
 474              	.LBB4:
1302:Generated_Source\PSoC4/BLE_eventHandler.c ****     {
1303:Generated_Source\PSoC4/BLE_eventHandler.c ****         CYBLE_DISC_SRVC128_INFO_T discServInfo;
1304:Generated_Source\PSoC4/BLE_eventHandler.c **** 
1305:Generated_Source\PSoC4/BLE_eventHandler.c ****         /* Store service range */
1306:Generated_Source\PSoC4/BLE_eventHandler.c ****         discServInfo.range = cyBle_discInclInfo.inclHandleRange;
 475              		.loc 1 1306 0
 476 0018 0823     		movs	r3, #8
 477 001a F918     		adds	r1, r7, r3
 478 001c 354B     		ldr	r3, .L25+4
 479 001e 0222     		movs	r2, #2
 480 0020 0800     		movs	r0, r1
 481 0022 9B18     		adds	r3, r3, r2
 482 0024 0422     		movs	r2, #4
 483 0026 1900     		movs	r1, r3
 484 0028 FFF7FEFF 		bl	memcpy
1307:Generated_Source\PSoC4/BLE_eventHandler.c ****         (void)memcpy((void *) discServInfo.uuid.uuid128.value, (void *)eventParam->value.val, event
 485              		.loc 1 1307 0
 486 002c 7B68     		ldr	r3, [r7, #4]
 487 002e 5968     		ldr	r1, [r3, #4]
 488 0030 7B68     		ldr	r3, [r7, #4]
 489 0032 1B89     		ldrh	r3, [r3, #8]
 490 0034 1A00     		movs	r2, r3
 491 0036 0823     		movs	r3, #8
 492 0038 FB18     		adds	r3, r7, r3
 493 003a 0433     		adds	r3, r3, #4
 494 003c 1800     		movs	r0, r3
 495 003e FFF7FEFF 		bl	memcpy
1308:Generated_Source\PSoC4/BLE_eventHandler.c ****         CyBle_CustomcDiscoverServiceEventHandler(&discServInfo);
 496              		.loc 1 1308 0
 497 0042 0823     		movs	r3, #8
 498 0044 FB18     		adds	r3, r7, r3
 499 0046 1800     		movs	r0, r3
 500 0048 FFF7FEFF 		bl	CyBle_CustomcDiscoverServiceEventHandler
1309:Generated_Source\PSoC4/BLE_eventHandler.c ****         
1310:Generated_Source\PSoC4/BLE_eventHandler.c ****         /* Re-initiate CyBle_GattcFindIncludedServices function, setting the start
1311:Generated_Source\PSoC4/BLE_eventHandler.c ****            handle to the attribute handle which is placed next to the one used in
1312:Generated_Source\PSoC4/BLE_eventHandler.c ****            the above step.
1313:Generated_Source\PSoC4/BLE_eventHandler.c ****         */
1314:Generated_Source\PSoC4/BLE_eventHandler.c ****         discServInfo.range.startHandle = cyBle_discInclInfo.inclDefHandle + 1;
 501              		.loc 1 1314 0
 502 004c 294B     		ldr	r3, .L25+4
 503 004e 1B88     		ldrh	r3, [r3]
ARM GAS  C:\Users\run1009\AppData\Local\Temp\ccSZtXoF.s 			page 33


 504 0050 0133     		adds	r3, r3, #1
 505 0052 9AB2     		uxth	r2, r3
 506 0054 0823     		movs	r3, #8
 507 0056 FB18     		adds	r3, r7, r3
 508 0058 1A80     		strh	r2, [r3]
1315:Generated_Source\PSoC4/BLE_eventHandler.c ****         discServInfo.range.endHandle = cyBle_serverInfo[cyBle_disCount].range.endHandle;
 509              		.loc 1 1315 0
 510 005a 274B     		ldr	r3, .L25+8
 511 005c 1B78     		ldrb	r3, [r3]
 512 005e 1900     		movs	r1, r3
 513 0060 264A     		ldr	r2, .L25+12
 514 0062 0B00     		movs	r3, r1
 515 0064 5B00     		lsls	r3, r3, #1
 516 0066 5B18     		adds	r3, r3, r1
 517 0068 5B00     		lsls	r3, r3, #1
 518 006a D318     		adds	r3, r2, r3
 519 006c 0233     		adds	r3, r3, #2
 520 006e 1A88     		ldrh	r2, [r3]
 521 0070 0823     		movs	r3, #8
 522 0072 FB18     		adds	r3, r7, r3
 523 0074 5A80     		strh	r2, [r3, #2]
1316:Generated_Source\PSoC4/BLE_eventHandler.c ****         if(discServInfo.range.startHandle <= discServInfo.range.endHandle)
 524              		.loc 1 1316 0
 525 0076 0823     		movs	r3, #8
 526 0078 FB18     		adds	r3, r7, r3
 527 007a 1A88     		ldrh	r2, [r3]
 528 007c 0823     		movs	r3, #8
 529 007e FB18     		adds	r3, r7, r3
 530 0080 5B88     		ldrh	r3, [r3, #2]
 531 0082 9A42     		cmp	r2, r3
 532 0084 21D8     		bhi	.L21
1317:Generated_Source\PSoC4/BLE_eventHandler.c ****         {
1318:Generated_Source\PSoC4/BLE_eventHandler.c ****             if(CYBLE_ERROR_OK != CyBle_GattcFindIncludedServices(cyBle_connHandle, &discServInfo.ra
 533              		.loc 1 1318 0
 534 0086 0823     		movs	r3, #8
 535 0088 F918     		adds	r1, r7, r3
 536 008a 1D4B     		ldr	r3, .L25+16
 537 008c 1A78     		ldrb	r2, [r3]
 538 008e 5B78     		ldrb	r3, [r3, #1]
 539 0090 1B02     		lsls	r3, r3, #8
 540 0092 1A43     		orrs	r2, r3
 541 0094 0023     		movs	r3, #0
 542 0096 1204     		lsls	r2, r2, #16
 543 0098 120C     		lsrs	r2, r2, #16
 544 009a 1B0C     		lsrs	r3, r3, #16
 545 009c 1B04     		lsls	r3, r3, #16
 546 009e 1343     		orrs	r3, r2
 547 00a0 1800     		movs	r0, r3
 548 00a2 FFF7FEFF 		bl	CyBle_GattcFindIncludedServices
 549 00a6 031E     		subs	r3, r0, #0
 550 00a8 12D0     		beq	.L23
1319:Generated_Source\PSoC4/BLE_eventHandler.c ****             {
1320:Generated_Source\PSoC4/BLE_eventHandler.c ****                 CyBle_ApplCallback(CYBLE_EVT_GATTC_INCL_DISCOVERY_FAILED, NULL);
 551              		.loc 1 1320 0
 552 00aa 164B     		ldr	r3, .L25+20
 553 00ac 1B68     		ldr	r3, [r3]
 554 00ae 8422     		movs	r2, #132
ARM GAS  C:\Users\run1009\AppData\Local\Temp\ccSZtXoF.s 			page 34


 555 00b0 5200     		lsls	r2, r2, #1
 556 00b2 0021     		movs	r1, #0
 557 00b4 1000     		movs	r0, r2
 558 00b6 9847     		blx	r3
1321:Generated_Source\PSoC4/BLE_eventHandler.c ****                 cyBle_eventHandlerFlag &= (uint8)~CYBLE_AUTO_DISCOVERY;
 559              		.loc 1 1321 0
 560 00b8 134B     		ldr	r3, .L25+24
 561 00ba 1B78     		ldrb	r3, [r3]
 562 00bc DBB2     		uxtb	r3, r3
 563 00be 0222     		movs	r2, #2
 564 00c0 9343     		bics	r3, r2
 565 00c2 DAB2     		uxtb	r2, r3
 566 00c4 104B     		ldr	r3, .L25+24
 567 00c6 1A70     		strb	r2, [r3]
 568 00c8 02E0     		b	.L23
 569              	.L21:
1322:Generated_Source\PSoC4/BLE_eventHandler.c ****             }
1323:Generated_Source\PSoC4/BLE_eventHandler.c ****         }
1324:Generated_Source\PSoC4/BLE_eventHandler.c ****         else /* Continue discovery of the following service */
1325:Generated_Source\PSoC4/BLE_eventHandler.c ****         {
1326:Generated_Source\PSoC4/BLE_eventHandler.c ****             CyBle_NextInclDiscovery(CYBLE_DISCOVERY_CONTINUE);
 570              		.loc 1 1326 0
 571 00ca 0120     		movs	r0, #1
 572 00cc FFF7FEFF 		bl	CyBle_NextInclDiscovery
 573              	.L23:
1327:Generated_Source\PSoC4/BLE_eventHandler.c ****         }
1328:Generated_Source\PSoC4/BLE_eventHandler.c ****         
1329:Generated_Source\PSoC4/BLE_eventHandler.c ****         cyBle_eventHandlerFlag &= (uint8)~CYBLE_CALLBACK;
 574              		.loc 1 1329 0 discriminator 1
 575 00d0 0D4B     		ldr	r3, .L25+24
 576 00d2 1B78     		ldrb	r3, [r3]
 577 00d4 DBB2     		uxtb	r3, r3
 578 00d6 0122     		movs	r2, #1
 579 00d8 9343     		bics	r3, r2
 580 00da DAB2     		uxtb	r2, r3
 581 00dc 0A4B     		ldr	r3, .L25+24
 582 00de 1A70     		strb	r2, [r3]
1330:Generated_Source\PSoC4/BLE_eventHandler.c ****     #ifdef CYBLE_CUSTOM_CLIENT
1331:Generated_Source\PSoC4/BLE_eventHandler.c ****         cyBle_discInclInfo.inclDefHandle = 0u;
 583              		.loc 1 1331 0 discriminator 1
 584 00e0 044B     		ldr	r3, .L25+4
 585 00e2 0022     		movs	r2, #0
 586 00e4 1A80     		strh	r2, [r3]
 587              	.L24:
 588              	.LBE4:
1332:Generated_Source\PSoC4/BLE_eventHandler.c ****     #endif /* CYBLE_CUSTOM_CLIENT */
1333:Generated_Source\PSoC4/BLE_eventHandler.c ****     }
1334:Generated_Source\PSoC4/BLE_eventHandler.c **** #endif /* CYBLE_CUSTOM_CLIENT */
1335:Generated_Source\PSoC4/BLE_eventHandler.c **** #ifdef CYBLE_IPS_CLIENT
1336:Generated_Source\PSoC4/BLE_eventHandler.c ****     if((cyBle_eventHandlerFlag & CYBLE_CALLBACK) != 0u)
1337:Generated_Source\PSoC4/BLE_eventHandler.c ****     {
1338:Generated_Source\PSoC4/BLE_eventHandler.c ****         CyBle_IpscReadMultipleResponseEventHandler(eventParam);
1339:Generated_Source\PSoC4/BLE_eventHandler.c ****     }
1340:Generated_Source\PSoC4/BLE_eventHandler.c **** #endif /* CYBLE_IPS_CLIENT */
1341:Generated_Source\PSoC4/BLE_eventHandler.c ****     /* MISRA 16.7 violation workaround */
1342:Generated_Source\PSoC4/BLE_eventHandler.c ****     eventParam = eventParam;
1343:Generated_Source\PSoC4/BLE_eventHandler.c **** }
ARM GAS  C:\Users\run1009\AppData\Local\Temp\ccSZtXoF.s 			page 35


 589              		.loc 1 1343 0
 590 00e6 C046     		nop
 591 00e8 BD46     		mov	sp, r7
 592 00ea 08B0     		add	sp, sp, #32
 593              		@ sp needed
 594 00ec 80BD     		pop	{r7, pc}
 595              	.L26:
 596 00ee C046     		.align	2
 597              	.L25:
 598 00f0 00000000 		.word	cyBle_clientState
 599 00f4 00000000 		.word	cyBle_discInclInfo
 600 00f8 00000000 		.word	cyBle_disCount
 601 00fc 00000000 		.word	cyBle_serverInfo
 602 0100 00000000 		.word	cyBle_connHandle
 603 0104 00000000 		.word	CyBle_ApplCallback
 604 0108 00000000 		.word	cyBle_eventHandlerFlag
 605              		.cfi_endproc
 606              	.LFE8:
 607              		.size	CyBle_ReadMultipleResponseEventHandler, .-CyBle_ReadMultipleResponseEventHandler
 608              		.section	.text.CyBle_GattDisconnectEventHandler,"ax",%progbits
 609              		.align	2
 610              		.code	16
 611              		.thumb_func
 612              		.type	CyBle_GattDisconnectEventHandler, %function
 613              	CyBle_GattDisconnectEventHandler:
 614              	.LFB9:
1344:Generated_Source\PSoC4/BLE_eventHandler.c **** #endif /* CYBLE_GATT_ROLE_CLIENT */
1345:Generated_Source\PSoC4/BLE_eventHandler.c **** 
1346:Generated_Source\PSoC4/BLE_eventHandler.c **** 
1347:Generated_Source\PSoC4/BLE_eventHandler.c **** /****************************************************************************** 
1348:Generated_Source\PSoC4/BLE_eventHandler.c **** * Function Name: CyBle_DisconnectEventHandler
1349:Generated_Source\PSoC4/BLE_eventHandler.c **** ***************************************************************************//**
1350:Generated_Source\PSoC4/BLE_eventHandler.c **** * 
1351:Generated_Source\PSoC4/BLE_eventHandler.c **** *  Handles the GATT Disconnection event from the BLE stack.
1352:Generated_Source\PSoC4/BLE_eventHandler.c **** * 
1353:Generated_Source\PSoC4/BLE_eventHandler.c **** * \return
1354:Generated_Source\PSoC4/BLE_eventHandler.c **** *  None
1355:Generated_Source\PSoC4/BLE_eventHandler.c **** * 
1356:Generated_Source\PSoC4/BLE_eventHandler.c **** ******************************************************************************/
1357:Generated_Source\PSoC4/BLE_eventHandler.c **** static void CyBle_GattDisconnectEventHandler(void)
1358:Generated_Source\PSoC4/BLE_eventHandler.c **** {
 615              		.loc 1 1358 0
 616              		.cfi_startproc
 617              		@ args = 0, pretend = 0, frame = 0
 618              		@ frame_needed = 1, uses_anonymous_args = 0
 619 0000 80B5     		push	{r7, lr}
 620              		.cfi_def_cfa_offset 8
 621              		.cfi_offset 7, -8
 622              		.cfi_offset 14, -4
 623 0002 00AF     		add	r7, sp, #0
 624              		.cfi_def_cfa_register 7
1359:Generated_Source\PSoC4/BLE_eventHandler.c ****     cyBle_connHandle.attId = 0u;
 625              		.loc 1 1359 0
 626 0004 094B     		ldr	r3, .L31
 627 0006 0022     		movs	r2, #0
 628 0008 5A70     		strb	r2, [r3, #1]
1360:Generated_Source\PSoC4/BLE_eventHandler.c ****     cyBle_connHandle.bdHandle = 0u;
ARM GAS  C:\Users\run1009\AppData\Local\Temp\ccSZtXoF.s 			page 36


 629              		.loc 1 1360 0
 630 000a 084B     		ldr	r3, .L31
 631 000c 0022     		movs	r2, #0
 632 000e 1A70     		strb	r2, [r3]
1361:Generated_Source\PSoC4/BLE_eventHandler.c ****     
1362:Generated_Source\PSoC4/BLE_eventHandler.c ****     #if (CYBLE_GATT_ROLE_CLIENT)
1363:Generated_Source\PSoC4/BLE_eventHandler.c ****         if(CyBle_GetClientState() == CYBLE_CLIENT_STATE_DISCOVERED)
 633              		.loc 1 1363 0
 634 0010 074B     		ldr	r3, .L31+4
 635 0012 1B78     		ldrb	r3, [r3]
 636 0014 052B     		cmp	r3, #5
 637 0016 03D1     		bne	.L28
1364:Generated_Source\PSoC4/BLE_eventHandler.c ****         {
1365:Generated_Source\PSoC4/BLE_eventHandler.c ****             CyBle_SetClientState(CYBLE_CLIENT_STATE_DISCONNECTED_DISCOVERED);
 638              		.loc 1 1365 0
 639 0018 054B     		ldr	r3, .L31+4
 640 001a 0722     		movs	r2, #7
 641 001c 1A70     		strb	r2, [r3]
1366:Generated_Source\PSoC4/BLE_eventHandler.c ****         }
1367:Generated_Source\PSoC4/BLE_eventHandler.c ****         else
1368:Generated_Source\PSoC4/BLE_eventHandler.c ****         {
1369:Generated_Source\PSoC4/BLE_eventHandler.c ****             CyBle_SetClientState(CYBLE_CLIENT_STATE_DISCONNECTED);
1370:Generated_Source\PSoC4/BLE_eventHandler.c ****         }
1371:Generated_Source\PSoC4/BLE_eventHandler.c ****     #endif /* CYBLE_GATT_ROLE_CLIENT */
1372:Generated_Source\PSoC4/BLE_eventHandler.c ****         
1373:Generated_Source\PSoC4/BLE_eventHandler.c ****     #ifdef CYBLE_CPS_SERVER
1374:Generated_Source\PSoC4/BLE_eventHandler.c ****         #if CYBLE_GAP_ROLE_BROADCASTER
1375:Generated_Source\PSoC4/BLE_eventHandler.c ****             CyBle_CpssDisconnectEventHandler();
1376:Generated_Source\PSoC4/BLE_eventHandler.c ****         #endif /* CYBLE_GAP_ROLE_BROADCASTER */
1377:Generated_Source\PSoC4/BLE_eventHandler.c ****     #endif /* CYBLE_CPS_SERVER */
1378:Generated_Source\PSoC4/BLE_eventHandler.c **** 
1379:Generated_Source\PSoC4/BLE_eventHandler.c ****     #ifdef CYBLE_CPS_CLIENT
1380:Generated_Source\PSoC4/BLE_eventHandler.c ****         CyBle_CpscDisconnectEventHandler();
1381:Generated_Source\PSoC4/BLE_eventHandler.c ****     #endif /* CYBLE_CPS_CLIENT */
1382:Generated_Source\PSoC4/BLE_eventHandler.c **** 
1383:Generated_Source\PSoC4/BLE_eventHandler.c ****     #ifdef CYBLE_IAS_SERVER
1384:Generated_Source\PSoC4/BLE_eventHandler.c ****         CyBle_IassDisconnectEventHandler();
1385:Generated_Source\PSoC4/BLE_eventHandler.c ****     #endif /* CYBLE_IAS_SERVER */
1386:Generated_Source\PSoC4/BLE_eventHandler.c ****     
1387:Generated_Source\PSoC4/BLE_eventHandler.c ****     #ifdef CYBLE_GLS_SERVER
1388:Generated_Source\PSoC4/BLE_eventHandler.c ****         CyBle_GlsInit();
1389:Generated_Source\PSoC4/BLE_eventHandler.c ****     #endif /* CYBLE_GLS_SERVER */
1390:Generated_Source\PSoC4/BLE_eventHandler.c ****     
1391:Generated_Source\PSoC4/BLE_eventHandler.c ****     #ifdef CYBLE_LNS_SERVER
1392:Generated_Source\PSoC4/BLE_eventHandler.c ****         CyBle_LnsInit();
1393:Generated_Source\PSoC4/BLE_eventHandler.c ****     #endif /* CYBLE_LNS_SERVER */
1394:Generated_Source\PSoC4/BLE_eventHandler.c ****     
1395:Generated_Source\PSoC4/BLE_eventHandler.c ****     #ifdef CYBLE_UDS_SERVER
1396:Generated_Source\PSoC4/BLE_eventHandler.c ****         CyBle_UdsInit();
1397:Generated_Source\PSoC4/BLE_eventHandler.c ****     #endif /* CYBLE_UDS_SERVER */
1398:Generated_Source\PSoC4/BLE_eventHandler.c **** }
 642              		.loc 1 1398 0
 643 001e 02E0     		b	.L30
 644              	.L28:
1369:Generated_Source\PSoC4/BLE_eventHandler.c ****         }
 645              		.loc 1 1369 0
 646 0020 034B     		ldr	r3, .L31+4
ARM GAS  C:\Users\run1009\AppData\Local\Temp\ccSZtXoF.s 			page 37


 647 0022 0822     		movs	r2, #8
 648 0024 1A70     		strb	r2, [r3]
 649              	.L30:
 650              		.loc 1 1398 0
 651 0026 C046     		nop
 652 0028 BD46     		mov	sp, r7
 653              		@ sp needed
 654 002a 80BD     		pop	{r7, pc}
 655              	.L32:
 656              		.align	2
 657              	.L31:
 658 002c 00000000 		.word	cyBle_connHandle
 659 0030 00000000 		.word	cyBle_clientState
 660              		.cfi_endproc
 661              	.LFE9:
 662              		.size	CyBle_GattDisconnectEventHandler, .-CyBle_GattDisconnectEventHandler
 663              		.section	.text.CyBle_TimeOutEventHandler,"ax",%progbits
 664              		.align	2
 665              		.code	16
 666              		.thumb_func
 667              		.type	CyBle_TimeOutEventHandler, %function
 668              	CyBle_TimeOutEventHandler:
 669              	.LFB10:
1399:Generated_Source\PSoC4/BLE_eventHandler.c **** 
1400:Generated_Source\PSoC4/BLE_eventHandler.c **** 
1401:Generated_Source\PSoC4/BLE_eventHandler.c **** /****************************************************************************** 
1402:Generated_Source\PSoC4/BLE_eventHandler.c **** * Function Name: CyBle_TimeOutEventHandler
1403:Generated_Source\PSoC4/BLE_eventHandler.c **** ***************************************************************************//**
1404:Generated_Source\PSoC4/BLE_eventHandler.c **** * 
1405:Generated_Source\PSoC4/BLE_eventHandler.c **** *  Handles the CYBLE_EVT_TIMEOUT event from the BLE stack.
1406:Generated_Source\PSoC4/BLE_eventHandler.c **** * 
1407:Generated_Source\PSoC4/BLE_eventHandler.c **** *  \param eventParam: The pointer to a structure of type CYBLE_TO_REASON_CODE_T.
1408:Generated_Source\PSoC4/BLE_eventHandler.c **** * 
1409:Generated_Source\PSoC4/BLE_eventHandler.c **** * \return
1410:Generated_Source\PSoC4/BLE_eventHandler.c **** *  None
1411:Generated_Source\PSoC4/BLE_eventHandler.c **** * 
1412:Generated_Source\PSoC4/BLE_eventHandler.c **** ******************************************************************************/
1413:Generated_Source\PSoC4/BLE_eventHandler.c **** static void CyBle_TimeOutEventHandler(const CYBLE_TO_REASON_CODE_T *eventParam)
1414:Generated_Source\PSoC4/BLE_eventHandler.c **** {
 670              		.loc 1 1414 0
 671              		.cfi_startproc
 672              		@ args = 0, pretend = 0, frame = 8
 673              		@ frame_needed = 1, uses_anonymous_args = 0
 674 0000 80B5     		push	{r7, lr}
 675              		.cfi_def_cfa_offset 8
 676              		.cfi_offset 7, -8
 677              		.cfi_offset 14, -4
 678 0002 82B0     		sub	sp, sp, #8
 679              		.cfi_def_cfa_offset 16
 680 0004 00AF     		add	r7, sp, #0
 681              		.cfi_def_cfa_register 7
 682 0006 7860     		str	r0, [r7, #4]
1415:Generated_Source\PSoC4/BLE_eventHandler.c ****     if(*eventParam == CYBLE_GATT_RSP_TO)
 683              		.loc 1 1415 0
 684 0008 7B68     		ldr	r3, [r7, #4]
 685 000a 1B78     		ldrb	r3, [r3]
 686 000c 032B     		cmp	r3, #3
ARM GAS  C:\Users\run1009\AppData\Local\Temp\ccSZtXoF.s 			page 38


 687 000e 3ED1     		bne	.L34
1416:Generated_Source\PSoC4/BLE_eventHandler.c ****     {
1417:Generated_Source\PSoC4/BLE_eventHandler.c ****     #if (CYBLE_GATT_ROLE_CLIENT)
1418:Generated_Source\PSoC4/BLE_eventHandler.c ****         if((cyBle_eventHandlerFlag & CYBLE_AUTO_DISCOVERY) != 0u)
 688              		.loc 1 1418 0
 689 0010 264B     		ldr	r3, .L44
 690 0012 1B78     		ldrb	r3, [r3]
 691 0014 DBB2     		uxtb	r3, r3
 692 0016 1A00     		movs	r2, r3
 693 0018 0223     		movs	r3, #2
 694 001a 1340     		ands	r3, r2
 695 001c 37D0     		beq	.L34
1419:Generated_Source\PSoC4/BLE_eventHandler.c ****         {
1420:Generated_Source\PSoC4/BLE_eventHandler.c ****             switch(CyBle_GetClientState())
 696              		.loc 1 1420 0
 697 001e 244B     		ldr	r3, .L44+4
 698 0020 1B78     		ldrb	r3, [r3]
 699 0022 022B     		cmp	r3, #2
 700 0024 10D0     		beq	.L36
 701 0026 02DC     		bgt	.L37
 702 0028 012B     		cmp	r3, #1
 703 002a 05D0     		beq	.L38
1421:Generated_Source\PSoC4/BLE_eventHandler.c ****             {
1422:Generated_Source\PSoC4/BLE_eventHandler.c ****                 case CYBLE_CLIENT_STATE_SRVC_DISCOVERING:
1423:Generated_Source\PSoC4/BLE_eventHandler.c ****                     CyBle_ApplCallback(CYBLE_EVT_GATTC_SRVC_DISCOVERY_FAILED, NULL);
1424:Generated_Source\PSoC4/BLE_eventHandler.c ****                     break;
1425:Generated_Source\PSoC4/BLE_eventHandler.c ****                 case CYBLE_CLIENT_STATE_INCL_DISCOVERING:
1426:Generated_Source\PSoC4/BLE_eventHandler.c ****                     CyBle_ApplCallback(CYBLE_EVT_GATTC_INCL_DISCOVERY_FAILED, NULL);
1427:Generated_Source\PSoC4/BLE_eventHandler.c ****                     break;
1428:Generated_Source\PSoC4/BLE_eventHandler.c ****                 case CYBLE_CLIENT_STATE_CHAR_DISCOVERING:
1429:Generated_Source\PSoC4/BLE_eventHandler.c ****                     CyBle_ApplCallback(CYBLE_EVT_GATTC_CHAR_DISCOVERY_FAILED, NULL);
1430:Generated_Source\PSoC4/BLE_eventHandler.c ****                     break;
1431:Generated_Source\PSoC4/BLE_eventHandler.c ****                 case CYBLE_CLIENT_STATE_DESCR_DISCOVERING:
1432:Generated_Source\PSoC4/BLE_eventHandler.c ****                     CyBle_ApplCallback(CYBLE_EVT_GATTC_DESCR_DISCOVERY_FAILED, NULL);
1433:Generated_Source\PSoC4/BLE_eventHandler.c ****                     break;
1434:Generated_Source\PSoC4/BLE_eventHandler.c ****                 default:        /* Other states should not be set in Auto discovery mode */
1435:Generated_Source\PSoC4/BLE_eventHandler.c ****                     break;
 704              		.loc 1 1435 0
 705 002c 24E0     		b	.L41
 706              	.L37:
1420:Generated_Source\PSoC4/BLE_eventHandler.c ****             {
 707              		.loc 1 1420 0
 708 002e 032B     		cmp	r3, #3
 709 0030 12D0     		beq	.L39
 710 0032 042B     		cmp	r3, #4
 711 0034 18D0     		beq	.L40
 712              		.loc 1 1435 0
 713 0036 1FE0     		b	.L41
 714              	.L38:
1423:Generated_Source\PSoC4/BLE_eventHandler.c ****                     break;
 715              		.loc 1 1423 0
 716 0038 1E4B     		ldr	r3, .L44+8
 717 003a 1B68     		ldr	r3, [r3]
 718 003c 0822     		movs	r2, #8
 719 003e FF32     		adds	r2, r2, #255
 720 0040 0021     		movs	r1, #0
 721 0042 1000     		movs	r0, r2
ARM GAS  C:\Users\run1009\AppData\Local\Temp\ccSZtXoF.s 			page 39


 722 0044 9847     		blx	r3
1424:Generated_Source\PSoC4/BLE_eventHandler.c ****                 case CYBLE_CLIENT_STATE_INCL_DISCOVERING:
 723              		.loc 1 1424 0
 724 0046 17E0     		b	.L41
 725              	.L36:
1426:Generated_Source\PSoC4/BLE_eventHandler.c ****                     break;
 726              		.loc 1 1426 0
 727 0048 1A4B     		ldr	r3, .L44+8
 728 004a 1B68     		ldr	r3, [r3]
 729 004c 8422     		movs	r2, #132
 730 004e 5200     		lsls	r2, r2, #1
 731 0050 0021     		movs	r1, #0
 732 0052 1000     		movs	r0, r2
 733 0054 9847     		blx	r3
1427:Generated_Source\PSoC4/BLE_eventHandler.c ****                 case CYBLE_CLIENT_STATE_CHAR_DISCOVERING:
 734              		.loc 1 1427 0
 735 0056 0FE0     		b	.L41
 736              	.L39:
1429:Generated_Source\PSoC4/BLE_eventHandler.c ****                     break;
 737              		.loc 1 1429 0
 738 0058 164B     		ldr	r3, .L44+8
 739 005a 1B68     		ldr	r3, [r3]
 740 005c 0A22     		movs	r2, #10
 741 005e FF32     		adds	r2, r2, #255
 742 0060 0021     		movs	r1, #0
 743 0062 1000     		movs	r0, r2
 744 0064 9847     		blx	r3
1430:Generated_Source\PSoC4/BLE_eventHandler.c ****                 case CYBLE_CLIENT_STATE_DESCR_DISCOVERING:
 745              		.loc 1 1430 0
 746 0066 07E0     		b	.L41
 747              	.L40:
1432:Generated_Source\PSoC4/BLE_eventHandler.c ****                     break;
 748              		.loc 1 1432 0
 749 0068 124B     		ldr	r3, .L44+8
 750 006a 1B68     		ldr	r3, [r3]
 751 006c 8522     		movs	r2, #133
 752 006e 5200     		lsls	r2, r2, #1
 753 0070 0021     		movs	r1, #0
 754 0072 1000     		movs	r0, r2
 755 0074 9847     		blx	r3
1433:Generated_Source\PSoC4/BLE_eventHandler.c ****                 default:        /* Other states should not be set in Auto discovery mode */
 756              		.loc 1 1433 0
 757 0076 C046     		nop
 758              	.L41:
1436:Generated_Source\PSoC4/BLE_eventHandler.c ****             }
1437:Generated_Source\PSoC4/BLE_eventHandler.c ****             cyBle_eventHandlerFlag &= (uint8)~CYBLE_AUTO_DISCOVERY;
 759              		.loc 1 1437 0
 760 0078 0C4B     		ldr	r3, .L44
 761 007a 1B78     		ldrb	r3, [r3]
 762 007c DBB2     		uxtb	r3, r3
 763 007e 0222     		movs	r2, #2
 764 0080 9343     		bics	r3, r2
 765 0082 DAB2     		uxtb	r2, r3
 766 0084 094B     		ldr	r3, .L44
 767 0086 1A70     		strb	r2, [r3]
1438:Generated_Source\PSoC4/BLE_eventHandler.c ****             CyBle_SetClientState(CYBLE_CLIENT_STATE_CONNECTED);
 768              		.loc 1 1438 0
ARM GAS  C:\Users\run1009\AppData\Local\Temp\ccSZtXoF.s 			page 40


 769 0088 094B     		ldr	r3, .L44+4
 770 008a 0022     		movs	r2, #0
 771 008c 1A70     		strb	r2, [r3]
 772              	.L34:
1439:Generated_Source\PSoC4/BLE_eventHandler.c ****         }
1440:Generated_Source\PSoC4/BLE_eventHandler.c ****     #endif /* CYBLE_GATT_ROLE_CLIENT */
1441:Generated_Source\PSoC4/BLE_eventHandler.c ****     #ifdef CYBLE_CPS_SERVER
1442:Generated_Source\PSoC4/BLE_eventHandler.c ****         CyBle_CpssTimeOutEventHandler();
1443:Generated_Source\PSoC4/BLE_eventHandler.c ****     #endif /* CYBLE_CPS_SERVER */
1444:Generated_Source\PSoC4/BLE_eventHandler.c ****     }
1445:Generated_Source\PSoC4/BLE_eventHandler.c ****     
1446:Generated_Source\PSoC4/BLE_eventHandler.c ****     /* Connection procedure timeout */
1447:Generated_Source\PSoC4/BLE_eventHandler.c ****     if(*eventParam == CYBLE_GENERIC_TO)
 773              		.loc 1 1447 0
 774 008e 7B68     		ldr	r3, [r7, #4]
 775 0090 1B78     		ldrb	r3, [r3]
 776 0092 042B     		cmp	r3, #4
 777 0094 05D1     		bne	.L43
1448:Generated_Source\PSoC4/BLE_eventHandler.c ****     {
1449:Generated_Source\PSoC4/BLE_eventHandler.c ****     #if(CYBLE_GAP_ROLE_CENTRAL)
1450:Generated_Source\PSoC4/BLE_eventHandler.c ****         if(CyBle_GetState() == CYBLE_STATE_CONNECTING)
 778              		.loc 1 1450 0
 779 0096 084B     		ldr	r3, .L44+12
 780 0098 1B78     		ldrb	r3, [r3]
 781 009a 052B     		cmp	r3, #5
 782 009c 01D1     		bne	.L43
1451:Generated_Source\PSoC4/BLE_eventHandler.c ****         {
1452:Generated_Source\PSoC4/BLE_eventHandler.c ****             (void)CyBle_GapcCancelDeviceConnection();
 783              		.loc 1 1452 0
 784 009e FFF7FEFF 		bl	CyBle_GapcCancelDeviceConnection
 785              	.L43:
1453:Generated_Source\PSoC4/BLE_eventHandler.c ****         }
1454:Generated_Source\PSoC4/BLE_eventHandler.c ****     #endif /* CYBLE_GAP_ROLE_CENTRAL */
1455:Generated_Source\PSoC4/BLE_eventHandler.c ****     }
1456:Generated_Source\PSoC4/BLE_eventHandler.c **** }
 786              		.loc 1 1456 0
 787 00a2 C046     		nop
 788 00a4 BD46     		mov	sp, r7
 789 00a6 02B0     		add	sp, sp, #8
 790              		@ sp needed
 791 00a8 80BD     		pop	{r7, pc}
 792              	.L45:
 793 00aa C046     		.align	2
 794              	.L44:
 795 00ac 00000000 		.word	cyBle_eventHandlerFlag
 796 00b0 00000000 		.word	cyBle_clientState
 797 00b4 00000000 		.word	CyBle_ApplCallback
 798 00b8 00000000 		.word	cyBle_state
 799              		.cfi_endproc
 800              	.LFE10:
 801              		.size	CyBle_TimeOutEventHandler, .-CyBle_TimeOutEventHandler
 802              		.section	.text.CyBle_GattConnectReqHandler,"ax",%progbits
 803              		.align	2
 804              		.code	16
 805              		.thumb_func
 806              		.type	CyBle_GattConnectReqHandler, %function
 807              	CyBle_GattConnectReqHandler:
ARM GAS  C:\Users\run1009\AppData\Local\Temp\ccSZtXoF.s 			page 41


 808              	.LFB11:
1457:Generated_Source\PSoC4/BLE_eventHandler.c **** 
1458:Generated_Source\PSoC4/BLE_eventHandler.c **** 
1459:Generated_Source\PSoC4/BLE_eventHandler.c **** /****************************************************************************** 
1460:Generated_Source\PSoC4/BLE_eventHandler.c **** * Function Name: CyBle_GattConnectReqHandler
1461:Generated_Source\PSoC4/BLE_eventHandler.c **** ***************************************************************************//**
1462:Generated_Source\PSoC4/BLE_eventHandler.c **** * 
1463:Generated_Source\PSoC4/BLE_eventHandler.c **** *  Handles the GATT connect event from the BLE stack.
1464:Generated_Source\PSoC4/BLE_eventHandler.c **** * 
1465:Generated_Source\PSoC4/BLE_eventHandler.c **** * \return
1466:Generated_Source\PSoC4/BLE_eventHandler.c **** *  None
1467:Generated_Source\PSoC4/BLE_eventHandler.c **** * 
1468:Generated_Source\PSoC4/BLE_eventHandler.c **** ******************************************************************************/
1469:Generated_Source\PSoC4/BLE_eventHandler.c **** static void CyBle_GattConnectReqHandler(void)
1470:Generated_Source\PSoC4/BLE_eventHandler.c **** {
 809              		.loc 1 1470 0
 810              		.cfi_startproc
 811              		@ args = 0, pretend = 0, frame = 0
 812              		@ frame_needed = 1, uses_anonymous_args = 0
 813 0000 80B5     		push	{r7, lr}
 814              		.cfi_def_cfa_offset 8
 815              		.cfi_offset 7, -8
 816              		.cfi_offset 14, -4
 817 0002 00AF     		add	r7, sp, #0
 818              		.cfi_def_cfa_register 7
1471:Generated_Source\PSoC4/BLE_eventHandler.c ****     #ifdef CYBLE_CGMS_SERVER
1472:Generated_Source\PSoC4/BLE_eventHandler.c ****         CyBle_CgmsInit();
1473:Generated_Source\PSoC4/BLE_eventHandler.c ****     #endif /* CYBLE_CGMS_SERVER */
1474:Generated_Source\PSoC4/BLE_eventHandler.c ****     
1475:Generated_Source\PSoC4/BLE_eventHandler.c ****     #ifdef CYBLE_CPS_SERVER
1476:Generated_Source\PSoC4/BLE_eventHandler.c ****         CyBle_CpssConnectEventHandler();
1477:Generated_Source\PSoC4/BLE_eventHandler.c ****     #endif /* CYBLE_CPS_SERVER */
1478:Generated_Source\PSoC4/BLE_eventHandler.c ****     
1479:Generated_Source\PSoC4/BLE_eventHandler.c ****     #ifdef CYBLE_CSCS_SERVER
1480:Generated_Source\PSoC4/BLE_eventHandler.c ****             CyBle_CscsInit();
1481:Generated_Source\PSoC4/BLE_eventHandler.c ****     #endif /* CYBLE_CSCS_SERVER */
1482:Generated_Source\PSoC4/BLE_eventHandler.c ****     
1483:Generated_Source\PSoC4/BLE_eventHandler.c ****     #ifdef CYBLE_LLS_SERVER
1484:Generated_Source\PSoC4/BLE_eventHandler.c ****         CyBle_LlssConnectEventHandler();
1485:Generated_Source\PSoC4/BLE_eventHandler.c ****     #endif /* CYBLE_LLS_SERVER */
1486:Generated_Source\PSoC4/BLE_eventHandler.c ****     
1487:Generated_Source\PSoC4/BLE_eventHandler.c ****     #ifdef CYBLE_HIDS_SERVER
1488:Generated_Source\PSoC4/BLE_eventHandler.c ****         CyBle_HidssOnDeviceConnected();
1489:Generated_Source\PSoC4/BLE_eventHandler.c ****     #endif /* CYBLE_HIDS_SERVER */
1490:Generated_Source\PSoC4/BLE_eventHandler.c **** 
1491:Generated_Source\PSoC4/BLE_eventHandler.c ****     #ifdef CYBLE_RSCS_SERVER
1492:Generated_Source\PSoC4/BLE_eventHandler.c ****         CyBle_RscsInit();
1493:Generated_Source\PSoC4/BLE_eventHandler.c ****     #endif /* CYBLE_RSCS_SERVER */
1494:Generated_Source\PSoC4/BLE_eventHandler.c **** }
 819              		.loc 1 1494 0
 820 0004 C046     		nop
 821 0006 BD46     		mov	sp, r7
 822              		@ sp needed
 823 0008 80BD     		pop	{r7, pc}
 824              		.cfi_endproc
 825              	.LFE11:
 826              		.size	CyBle_GattConnectReqHandler, .-CyBle_GattConnectReqHandler
ARM GAS  C:\Users\run1009\AppData\Local\Temp\ccSZtXoF.s 			page 42


 827 000a C046     		.section	.text.CyBle_IsDeviceAddressValid,"ax",%progbits
 828              		.align	2
 829              		.global	CyBle_IsDeviceAddressValid
 830              		.code	16
 831              		.thumb_func
 832              		.type	CyBle_IsDeviceAddressValid, %function
 833              	CyBle_IsDeviceAddressValid:
 834              	.LFB12:
1495:Generated_Source\PSoC4/BLE_eventHandler.c **** 
1496:Generated_Source\PSoC4/BLE_eventHandler.c **** 
1497:Generated_Source\PSoC4/BLE_eventHandler.c **** #if (CYBLE_GATT_ROLE_SERVER || CYBLE_GATT_ROLE_CLIENT)
1498:Generated_Source\PSoC4/BLE_eventHandler.c **** 
1499:Generated_Source\PSoC4/BLE_eventHandler.c **** /****************************************************************************** 
1500:Generated_Source\PSoC4/BLE_eventHandler.c **** * Function Name: CyBle_IsDeviceAddressValid
1501:Generated_Source\PSoC4/BLE_eventHandler.c **** ***************************************************************************//**
1502:Generated_Source\PSoC4/BLE_eventHandler.c **** * 
1503:Generated_Source\PSoC4/BLE_eventHandler.c **** *  This function verifies that BLE public address has been programmed to SFLASH 
1504:Generated_Source\PSoC4/BLE_eventHandler.c **** *  during manufacture. It could be used to verify if public device address is 
1505:Generated_Source\PSoC4/BLE_eventHandler.c **** *  programmed to flash memory.
1506:Generated_Source\PSoC4/BLE_eventHandler.c **** * 
1507:Generated_Source\PSoC4/BLE_eventHandler.c **** *  \param deviceAddress: the pointer to the BD address of type CYBLE_GAP_BD_ADDR_T. 
1508:Generated_Source\PSoC4/BLE_eventHandler.c **** * 
1509:Generated_Source\PSoC4/BLE_eventHandler.c **** * \return
1510:Generated_Source\PSoC4/BLE_eventHandler.c **** *  Non zero value when a device address differs from the default SFLASH content.
1511:Generated_Source\PSoC4/BLE_eventHandler.c **** * 
1512:Generated_Source\PSoC4/BLE_eventHandler.c **** ******************************************************************************/
1513:Generated_Source\PSoC4/BLE_eventHandler.c **** uint8 CyBle_IsDeviceAddressValid(const CYBLE_GAP_BD_ADDR_T *deviceAddress)
1514:Generated_Source\PSoC4/BLE_eventHandler.c **** {
 835              		.loc 1 1514 0
 836              		.cfi_startproc
 837              		@ args = 0, pretend = 0, frame = 16
 838              		@ frame_needed = 1, uses_anonymous_args = 0
 839 0000 80B5     		push	{r7, lr}
 840              		.cfi_def_cfa_offset 8
 841              		.cfi_offset 7, -8
 842              		.cfi_offset 14, -4
 843 0002 84B0     		sub	sp, sp, #16
 844              		.cfi_def_cfa_offset 24
 845 0004 00AF     		add	r7, sp, #0
 846              		.cfi_def_cfa_register 7
 847 0006 7860     		str	r0, [r7, #4]
1515:Generated_Source\PSoC4/BLE_eventHandler.c ****     uint8 i;
1516:Generated_Source\PSoC4/BLE_eventHandler.c ****     uint8 addressValid = 0u;
 848              		.loc 1 1516 0
 849 0008 0E23     		movs	r3, #14
 850 000a FB18     		adds	r3, r7, r3
 851 000c 0022     		movs	r2, #0
 852 000e 1A70     		strb	r2, [r3]
1517:Generated_Source\PSoC4/BLE_eventHandler.c ****     
1518:Generated_Source\PSoC4/BLE_eventHandler.c ****     if(deviceAddress -> type == CYBLE_GAP_ADDR_TYPE_PUBLIC)  
 853              		.loc 1 1518 0
 854 0010 7B68     		ldr	r3, [r7, #4]
 855 0012 9B79     		ldrb	r3, [r3, #6]
 856 0014 002B     		cmp	r3, #0
 857 0016 1CD1     		bne	.L48
1519:Generated_Source\PSoC4/BLE_eventHandler.c ****     {
1520:Generated_Source\PSoC4/BLE_eventHandler.c ****         for(i = 0u; i < CYBLE_GAP_BD_ADDR_SIZE; i++)
ARM GAS  C:\Users\run1009\AppData\Local\Temp\ccSZtXoF.s 			page 43


 858              		.loc 1 1520 0
 859 0018 0F23     		movs	r3, #15
 860 001a FB18     		adds	r3, r7, r3
 861 001c 0022     		movs	r2, #0
 862 001e 1A70     		strb	r2, [r3]
 863 0020 12E0     		b	.L49
 864              	.L51:
1521:Generated_Source\PSoC4/BLE_eventHandler.c ****         {
1522:Generated_Source\PSoC4/BLE_eventHandler.c ****             if(deviceAddress->bdAddr[i] != 0u)
 865              		.loc 1 1522 0
 866 0022 0F23     		movs	r3, #15
 867 0024 FB18     		adds	r3, r7, r3
 868 0026 1B78     		ldrb	r3, [r3]
 869 0028 7A68     		ldr	r2, [r7, #4]
 870 002a D35C     		ldrb	r3, [r2, r3]
 871 002c 002B     		cmp	r3, #0
 872 002e 04D0     		beq	.L50
1523:Generated_Source\PSoC4/BLE_eventHandler.c ****             {
1524:Generated_Source\PSoC4/BLE_eventHandler.c ****                 addressValid = 1u;
 873              		.loc 1 1524 0
 874 0030 0E23     		movs	r3, #14
 875 0032 FB18     		adds	r3, r7, r3
 876 0034 0122     		movs	r2, #1
 877 0036 1A70     		strb	r2, [r3]
1525:Generated_Source\PSoC4/BLE_eventHandler.c ****                 break;
 878              		.loc 1 1525 0
 879 0038 0BE0     		b	.L48
 880              	.L50:
1520:Generated_Source\PSoC4/BLE_eventHandler.c ****         {
 881              		.loc 1 1520 0 discriminator 2
 882 003a 0F23     		movs	r3, #15
 883 003c FB18     		adds	r3, r7, r3
 884 003e 1A78     		ldrb	r2, [r3]
 885 0040 0F23     		movs	r3, #15
 886 0042 FB18     		adds	r3, r7, r3
 887 0044 0132     		adds	r2, r2, #1
 888 0046 1A70     		strb	r2, [r3]
 889              	.L49:
1520:Generated_Source\PSoC4/BLE_eventHandler.c ****         {
 890              		.loc 1 1520 0 is_stmt 0 discriminator 1
 891 0048 0F23     		movs	r3, #15
 892 004a FB18     		adds	r3, r7, r3
 893 004c 1B78     		ldrb	r3, [r3]
 894 004e 052B     		cmp	r3, #5
 895 0050 E7D9     		bls	.L51
 896              	.L48:
1526:Generated_Source\PSoC4/BLE_eventHandler.c ****             }
1527:Generated_Source\PSoC4/BLE_eventHandler.c ****         }
1528:Generated_Source\PSoC4/BLE_eventHandler.c ****     }
1529:Generated_Source\PSoC4/BLE_eventHandler.c ****     return (addressValid);
 897              		.loc 1 1529 0 is_stmt 1
 898 0052 0E23     		movs	r3, #14
 899 0054 FB18     		adds	r3, r7, r3
 900 0056 1B78     		ldrb	r3, [r3]
1530:Generated_Source\PSoC4/BLE_eventHandler.c **** }
 901              		.loc 1 1530 0
 902 0058 1800     		movs	r0, r3
ARM GAS  C:\Users\run1009\AppData\Local\Temp\ccSZtXoF.s 			page 44


 903 005a BD46     		mov	sp, r7
 904 005c 04B0     		add	sp, sp, #16
 905              		@ sp needed
 906 005e 80BD     		pop	{r7, pc}
 907              		.cfi_endproc
 908              	.LFE12:
 909              		.size	CyBle_IsDeviceAddressValid, .-CyBle_IsDeviceAddressValid
 910              		.section	.text.CyBle_L2Cap_ConnParamUpdateRspEventHandler,"ax",%progbits
 911              		.align	2
 912              		.code	16
 913              		.thumb_func
 914              		.type	CyBle_L2Cap_ConnParamUpdateRspEventHandler, %function
 915              	CyBle_L2Cap_ConnParamUpdateRspEventHandler:
 916              	.LFB13:
1531:Generated_Source\PSoC4/BLE_eventHandler.c **** #endif /* CYBLE_GATT_ROLE_SERVER || CYBLE_GATT_ROLE_CLIENT */
1532:Generated_Source\PSoC4/BLE_eventHandler.c **** 
1533:Generated_Source\PSoC4/BLE_eventHandler.c **** 
1534:Generated_Source\PSoC4/BLE_eventHandler.c **** /****************************************************************************** 
1535:Generated_Source\PSoC4/BLE_eventHandler.c **** * Function Name: CyBle_L2Cap_ConnParamUpdateRspHandler
1536:Generated_Source\PSoC4/BLE_eventHandler.c **** ***************************************************************************//**
1537:Generated_Source\PSoC4/BLE_eventHandler.c **** * 
1538:Generated_Source\PSoC4/BLE_eventHandler.c **** *  Handles the L2CAP connection parameter response event from
1539:Generated_Source\PSoC4/BLE_eventHandler.c **** *  the BLE stack.
1540:Generated_Source\PSoC4/BLE_eventHandler.c **** * 
1541:Generated_Source\PSoC4/BLE_eventHandler.c **** *  \param response:
1542:Generated_Source\PSoC4/BLE_eventHandler.c **** *      * Accepted = 0x0000
1543:Generated_Source\PSoC4/BLE_eventHandler.c **** *      * Rejected = 0x0001
1544:Generated_Source\PSoC4/BLE_eventHandler.c **** * 
1545:Generated_Source\PSoC4/BLE_eventHandler.c **** * \return
1546:Generated_Source\PSoC4/BLE_eventHandler.c **** *  None
1547:Generated_Source\PSoC4/BLE_eventHandler.c **** * 
1548:Generated_Source\PSoC4/BLE_eventHandler.c **** ******************************************************************************/
1549:Generated_Source\PSoC4/BLE_eventHandler.c **** static void CyBle_L2Cap_ConnParamUpdateRspEventHandler(uint16 response)
1550:Generated_Source\PSoC4/BLE_eventHandler.c **** {
 917              		.loc 1 1550 0
 918              		.cfi_startproc
 919              		@ args = 0, pretend = 0, frame = 8
 920              		@ frame_needed = 1, uses_anonymous_args = 0
 921 0000 80B5     		push	{r7, lr}
 922              		.cfi_def_cfa_offset 8
 923              		.cfi_offset 7, -8
 924              		.cfi_offset 14, -4
 925 0002 82B0     		sub	sp, sp, #8
 926              		.cfi_def_cfa_offset 16
 927 0004 00AF     		add	r7, sp, #0
 928              		.cfi_def_cfa_register 7
 929 0006 0200     		movs	r2, r0
 930 0008 BB1D     		adds	r3, r7, #6
 931 000a 1A80     		strh	r2, [r3]
1551:Generated_Source\PSoC4/BLE_eventHandler.c ****     #ifdef CYBLE_CPS_SERVER
1552:Generated_Source\PSoC4/BLE_eventHandler.c ****         CyBle_CpssConnParamUpdateRspEventHandler(response);
1553:Generated_Source\PSoC4/BLE_eventHandler.c ****     #endif /* CYBLE_CPS_SERVER */
1554:Generated_Source\PSoC4/BLE_eventHandler.c ****     
1555:Generated_Source\PSoC4/BLE_eventHandler.c ****     /* Unreferenced variable warning workaround */
1556:Generated_Source\PSoC4/BLE_eventHandler.c ****     if(response != 0u)
1557:Generated_Source\PSoC4/BLE_eventHandler.c ****     {
1558:Generated_Source\PSoC4/BLE_eventHandler.c ****     }
ARM GAS  C:\Users\run1009\AppData\Local\Temp\ccSZtXoF.s 			page 45


1559:Generated_Source\PSoC4/BLE_eventHandler.c **** }
 932              		.loc 1 1559 0
 933 000c C046     		nop
 934 000e BD46     		mov	sp, r7
 935 0010 02B0     		add	sp, sp, #8
 936              		@ sp needed
 937 0012 80BD     		pop	{r7, pc}
 938              		.cfi_endproc
 939              	.LFE13:
 940              		.size	CyBle_L2Cap_ConnParamUpdateRspEventHandler, .-CyBle_L2Cap_ConnParamUpdateRspEventHandler
 941              		.section	.text.CyBle_GapConnUpdateCompleteEventHandler,"ax",%progbits
 942              		.align	2
 943              		.code	16
 944              		.thumb_func
 945              		.type	CyBle_GapConnUpdateCompleteEventHandler, %function
 946              	CyBle_GapConnUpdateCompleteEventHandler:
 947              	.LFB14:
1560:Generated_Source\PSoC4/BLE_eventHandler.c **** 
1561:Generated_Source\PSoC4/BLE_eventHandler.c **** 
1562:Generated_Source\PSoC4/BLE_eventHandler.c **** /****************************************************************************** 
1563:Generated_Source\PSoC4/BLE_eventHandler.c **** * Function Name: CyBle_GapConnUpdateCompleteEventHandler
1564:Generated_Source\PSoC4/BLE_eventHandler.c **** ***************************************************************************//**
1565:Generated_Source\PSoC4/BLE_eventHandler.c **** * 
1566:Generated_Source\PSoC4/BLE_eventHandler.c **** *  Handles the CYBLE_EVT_GAP_CONNECTION_UPDATE_COMPLETE event from
1567:Generated_Source\PSoC4/BLE_eventHandler.c **** *  the BLE stack.
1568:Generated_Source\PSoC4/BLE_eventHandler.c **** * 
1569:Generated_Source\PSoC4/BLE_eventHandler.c **** *  \param eventParam: The pointer to the data structure specified by the event.
1570:Generated_Source\PSoC4/BLE_eventHandler.c **** * 
1571:Generated_Source\PSoC4/BLE_eventHandler.c **** * \return
1572:Generated_Source\PSoC4/BLE_eventHandler.c **** *  None
1573:Generated_Source\PSoC4/BLE_eventHandler.c **** * 
1574:Generated_Source\PSoC4/BLE_eventHandler.c **** ******************************************************************************/
1575:Generated_Source\PSoC4/BLE_eventHandler.c **** static void CyBle_GapConnUpdateCompleteEventHandler(const CYBLE_GAP_CONN_PARAM_UPDATED_IN_CONTROLLE
1576:Generated_Source\PSoC4/BLE_eventHandler.c **** {
 948              		.loc 1 1576 0
 949              		.cfi_startproc
 950              		@ args = 0, pretend = 0, frame = 8
 951              		@ frame_needed = 1, uses_anonymous_args = 0
 952 0000 80B5     		push	{r7, lr}
 953              		.cfi_def_cfa_offset 8
 954              		.cfi_offset 7, -8
 955              		.cfi_offset 14, -4
 956 0002 82B0     		sub	sp, sp, #8
 957              		.cfi_def_cfa_offset 16
 958 0004 00AF     		add	r7, sp, #0
 959              		.cfi_def_cfa_register 7
 960 0006 7860     		str	r0, [r7, #4]
1577:Generated_Source\PSoC4/BLE_eventHandler.c ****     #ifdef CYBLE_CPS_SERVER
1578:Generated_Source\PSoC4/BLE_eventHandler.c ****         CyBle_CpssConnUpdateCompleteEventHandler(eventParam);
1579:Generated_Source\PSoC4/BLE_eventHandler.c ****     #endif /* CYBLE_CPS_SERVER */
1580:Generated_Source\PSoC4/BLE_eventHandler.c ****     
1581:Generated_Source\PSoC4/BLE_eventHandler.c ****     /* Unreferenced variable warning workaround */
1582:Generated_Source\PSoC4/BLE_eventHandler.c ****     if(eventParam != 0u)
1583:Generated_Source\PSoC4/BLE_eventHandler.c ****     {
1584:Generated_Source\PSoC4/BLE_eventHandler.c ****     }
1585:Generated_Source\PSoC4/BLE_eventHandler.c **** }
 961              		.loc 1 1585 0
ARM GAS  C:\Users\run1009\AppData\Local\Temp\ccSZtXoF.s 			page 46


 962 0008 C046     		nop
 963 000a BD46     		mov	sp, r7
 964 000c 02B0     		add	sp, sp, #8
 965              		@ sp needed
 966 000e 80BD     		pop	{r7, pc}
 967              		.cfi_endproc
 968              	.LFE14:
 969              		.size	CyBle_GapConnUpdateCompleteEventHandler, .-CyBle_GapConnUpdateCompleteEventHandler
 970              		.section	.text.CyBle_EventHandler,"ax",%progbits
 971              		.align	2
 972              		.global	CyBle_EventHandler
 973              		.code	16
 974              		.thumb_func
 975              		.type	CyBle_EventHandler, %function
 976              	CyBle_EventHandler:
 977              	.LFB15:
1586:Generated_Source\PSoC4/BLE_eventHandler.c **** 
1587:Generated_Source\PSoC4/BLE_eventHandler.c **** 
1588:Generated_Source\PSoC4/BLE_eventHandler.c **** /****************************************************************************** 
1589:Generated_Source\PSoC4/BLE_eventHandler.c **** * Function Name: CyBle_EventHandler
1590:Generated_Source\PSoC4/BLE_eventHandler.c **** ***************************************************************************//**
1591:Generated_Source\PSoC4/BLE_eventHandler.c **** * 
1592:Generated_Source\PSoC4/BLE_eventHandler.c **** *  Handles the events from the BLE stack
1593:Generated_Source\PSoC4/BLE_eventHandler.c **** * 
1594:Generated_Source\PSoC4/BLE_eventHandler.c **** *  \param eventCode:    the event code
1595:Generated_Source\PSoC4/BLE_eventHandler.c **** *  \param eventParam:  the event parameters
1596:Generated_Source\PSoC4/BLE_eventHandler.c **** * 
1597:Generated_Source\PSoC4/BLE_eventHandler.c **** * \return
1598:Generated_Source\PSoC4/BLE_eventHandler.c **** *  None.
1599:Generated_Source\PSoC4/BLE_eventHandler.c **** * 
1600:Generated_Source\PSoC4/BLE_eventHandler.c **** ******************************************************************************/
1601:Generated_Source\PSoC4/BLE_eventHandler.c **** void CyBle_EventHandler(uint8 eventCode, void *eventParam)
1602:Generated_Source\PSoC4/BLE_eventHandler.c **** {
 978              		.loc 1 1602 0
 979              		.cfi_startproc
 980              		@ args = 0, pretend = 0, frame = 32
 981              		@ frame_needed = 1, uses_anonymous_args = 0
 982 0000 80B5     		push	{r7, lr}
 983              		.cfi_def_cfa_offset 8
 984              		.cfi_offset 7, -8
 985              		.cfi_offset 14, -4
 986 0002 88B0     		sub	sp, sp, #32
 987              		.cfi_def_cfa_offset 40
 988 0004 00AF     		add	r7, sp, #0
 989              		.cfi_def_cfa_register 7
 990 0006 0200     		movs	r2, r0
 991 0008 3960     		str	r1, [r7]
 992 000a FB1D     		adds	r3, r7, #7
 993 000c 1A70     		strb	r2, [r3]
1603:Generated_Source\PSoC4/BLE_eventHandler.c ****     cyBle_eventHandlerFlag |= CYBLE_CALLBACK;
 994              		.loc 1 1603 0
 995 000e D44B     		ldr	r3, .L119
 996 0010 1B78     		ldrb	r3, [r3]
 997 0012 DBB2     		uxtb	r3, r3
 998 0014 0122     		movs	r2, #1
 999 0016 1343     		orrs	r3, r2
 1000 0018 DAB2     		uxtb	r2, r3
ARM GAS  C:\Users\run1009\AppData\Local\Temp\ccSZtXoF.s 			page 47


 1001 001a D14B     		ldr	r3, .L119
 1002 001c 1A70     		strb	r2, [r3]
1604:Generated_Source\PSoC4/BLE_eventHandler.c **** 
1605:Generated_Source\PSoC4/BLE_eventHandler.c ****     /* Common Profile event handling */
1606:Generated_Source\PSoC4/BLE_eventHandler.c ****     switch(eventCode)
 1003              		.loc 1 1606 0
 1004 001e FB1D     		adds	r3, r7, #7
 1005 0020 1B78     		ldrb	r3, [r3]
 1006 0022 712B     		cmp	r3, #113
 1007 0024 00D9     		bls	.LCB830
 1008 0026 19E2     		b	.L112	@long jump
 1009              	.LCB830:
 1010 0028 9A00     		lsls	r2, r3, #2
 1011 002a CE4B     		ldr	r3, .L119+4
 1012 002c D318     		adds	r3, r2, r3
 1013 002e 1B68     		ldr	r3, [r3]
 1014 0030 9F46     		mov	pc, r3
 1015              		.section	.rodata
 1016              		.align	2
 1017              	.L58:
 1018 000c 5C040000 		.word	.L112
 1019 0010 32000000 		.word	.L57
 1020 0014 38010000 		.word	.L59
 1021 0018 5C040000 		.word	.L112
 1022 001c 5C040000 		.word	.L112
 1023 0020 42010000 		.word	.L60
 1024 0024 4C010000 		.word	.L61
 1025 0028 5C040000 		.word	.L112
 1026 002c 5C040000 		.word	.L112
 1027 0030 5C040000 		.word	.L112
 1028 0034 5C040000 		.word	.L112
 1029 0038 5C040000 		.word	.L112
 1030 003c 5C040000 		.word	.L112
 1031 0040 5C040000 		.word	.L112
 1032 0044 5C040000 		.word	.L112
 1033 0048 5C040000 		.word	.L112
 1034 004c 5C040000 		.word	.L112
 1035 0050 5C040000 		.word	.L112
 1036 0054 5C040000 		.word	.L112
 1037 0058 5C040000 		.word	.L112
 1038 005c 5C040000 		.word	.L112
 1039 0060 5C040000 		.word	.L112
 1040 0064 5C040000 		.word	.L112
 1041 0068 5C040000 		.word	.L112
 1042 006c 5C040000 		.word	.L112
 1043 0070 5C040000 		.word	.L112
 1044 0074 5C040000 		.word	.L112
 1045 0078 5C040000 		.word	.L112
 1046 007c 5C040000 		.word	.L112
 1047 0080 5C040000 		.word	.L112
 1048 0084 5C040000 		.word	.L112
 1049 0088 5C040000 		.word	.L112
 1050 008c 5C040000 		.word	.L112
 1051 0090 8C010000 		.word	.L63
 1052 0094 5C040000 		.word	.L112
 1053 0098 5C040000 		.word	.L112
 1054 009c 5C040000 		.word	.L112
ARM GAS  C:\Users\run1009\AppData\Local\Temp\ccSZtXoF.s 			page 48


 1055 00a0 5C040000 		.word	.L112
 1056 00a4 28020000 		.word	.L65
 1057 00a8 04020000 		.word	.L66
 1058 00ac 20020000 		.word	.L67
 1059 00b0 5C040000 		.word	.L112
 1060 00b4 FA010000 		.word	.L68
 1061 00b8 A0020000 		.word	.L69
 1062 00bc 5C040000 		.word	.L112
 1063 00c0 5C040000 		.word	.L112
 1064 00c4 5C040000 		.word	.L112
 1065 00c8 5C040000 		.word	.L112
 1066 00cc 5C040000 		.word	.L112
 1067 00d0 5C040000 		.word	.L112
 1068 00d4 5C040000 		.word	.L112
 1069 00d8 5C040000 		.word	.L112
 1070 00dc 5C040000 		.word	.L112
 1071 00e0 5C040000 		.word	.L112
 1072 00e4 5C040000 		.word	.L112
 1073 00e8 5C040000 		.word	.L112
 1074 00ec 5C040000 		.word	.L112
 1075 00f0 5C040000 		.word	.L112
 1076 00f4 5C040000 		.word	.L112
 1077 00f8 5C040000 		.word	.L112
 1078 00fc 5C040000 		.word	.L112
 1079 0100 5C040000 		.word	.L112
 1080 0104 5C040000 		.word	.L112
 1081 0108 5C040000 		.word	.L112
 1082 010c 02040000 		.word	.L70
 1083 0110 24030000 		.word	.L71
 1084 0114 46030000 		.word	.L72
 1085 0118 4C030000 		.word	.L73
 1086 011c 5C040000 		.word	.L112
 1087 0120 DE030000 		.word	.L74
 1088 0124 E8030000 		.word	.L75
 1089 0128 F8030000 		.word	.L76
 1090 012c 5C040000 		.word	.L112
 1091 0130 3E040000 		.word	.L77
 1092 0134 5C040000 		.word	.L112
 1093 0138 48040000 		.word	.L79
 1094 013c CA030000 		.word	.L80
 1095 0140 52040000 		.word	.L81
 1096 0144 5C040000 		.word	.L112
 1097 0148 5C040000 		.word	.L112
 1098 014c 5C040000 		.word	.L112
 1099 0150 5C040000 		.word	.L112
 1100 0154 0C040000 		.word	.L86
 1101 0158 16040000 		.word	.L87
 1102 015c D4030000 		.word	.L88
 1103 0160 5C040000 		.word	.L112
 1104 0164 5C040000 		.word	.L112
 1105 0168 5C040000 		.word	.L112
 1106 016c F2030000 		.word	.L90
 1107 0170 5C040000 		.word	.L112
 1108 0174 5C040000 		.word	.L112
 1109 0178 5C040000 		.word	.L112
 1110 017c 5C040000 		.word	.L112
 1111 0180 5C040000 		.word	.L112
ARM GAS  C:\Users\run1009\AppData\Local\Temp\ccSZtXoF.s 			page 49


 1112 0184 5C040000 		.word	.L112
 1113 0188 5C040000 		.word	.L112
 1114 018c 5C040000 		.word	.L112
 1115 0190 5C040000 		.word	.L112
 1116 0194 5C040000 		.word	.L112
 1117 0198 5C040000 		.word	.L112
 1118 019c 5C040000 		.word	.L112
 1119 01a0 5C040000 		.word	.L112
 1120 01a4 5C040000 		.word	.L112
 1121 01a8 5C040000 		.word	.L112
 1122 01ac 5C040000 		.word	.L112
 1123 01b0 5C040000 		.word	.L112
 1124 01b4 5C040000 		.word	.L112
 1125 01b8 5C040000 		.word	.L112
 1126 01bc 5C040000 		.word	.L112
 1127 01c0 5C040000 		.word	.L112
 1128 01c4 5C040000 		.word	.L112
 1129 01c8 5C040000 		.word	.L112
 1130 01cc 5C040000 		.word	.L112
 1131 01d0 18030000 		.word	.L91
 1132              		.section	.text.CyBle_EventHandler
 1133              	.L57:
 1134              	.LBB5:
1607:Generated_Source\PSoC4/BLE_eventHandler.c ****     {
1608:Generated_Source\PSoC4/BLE_eventHandler.c ****         /**********************************************************
1609:Generated_Source\PSoC4/BLE_eventHandler.c ****         * General events
1610:Generated_Source\PSoC4/BLE_eventHandler.c ****         ************************************************************/
1611:Generated_Source\PSoC4/BLE_eventHandler.c ****         case CYBLE_EVT_STACK_ON:
1612:Generated_Source\PSoC4/BLE_eventHandler.c ****         #if(CYBLE_MODE_PROFILE)
1613:Generated_Source\PSoC4/BLE_eventHandler.c ****         {
1614:Generated_Source\PSoC4/BLE_eventHandler.c ****             CYBLE_BLESS_PWR_IN_DB_T bleSsPowerLevel;
1615:Generated_Source\PSoC4/BLE_eventHandler.c ****             
1616:Generated_Source\PSoC4/BLE_eventHandler.c ****             /* Set Tx Power Level for advertising and connection channels */
1617:Generated_Source\PSoC4/BLE_eventHandler.c ****             bleSsPowerLevel.blePwrLevelInDbm = CYBLE_TX_POWER_LEVEL_ADV;
 1135              		.loc 1 1617 0
 1136 0032 1023     		movs	r3, #16
 1137 0034 FB18     		adds	r3, r7, r3
 1138 0036 0722     		movs	r2, #7
 1139 0038 1A70     		strb	r2, [r3]
1618:Generated_Source\PSoC4/BLE_eventHandler.c ****             bleSsPowerLevel.bleSsChId = CYBLE_LL_ADV_CH_TYPE;
 1140              		.loc 1 1618 0
 1141 003a 1023     		movs	r3, #16
 1142 003c FB18     		adds	r3, r7, r3
 1143 003e 0022     		movs	r2, #0
 1144 0040 5A70     		strb	r2, [r3, #1]
1619:Generated_Source\PSoC4/BLE_eventHandler.c ****             (void) CyBle_SetTxPowerLevel (&bleSsPowerLevel);
 1145              		.loc 1 1619 0
 1146 0042 1023     		movs	r3, #16
 1147 0044 FB18     		adds	r3, r7, r3
 1148 0046 1800     		movs	r0, r3
 1149 0048 FFF7FEFF 		bl	CyBle_SetTxPowerLevel
1620:Generated_Source\PSoC4/BLE_eventHandler.c ****             bleSsPowerLevel.blePwrLevelInDbm = CYBLE_TX_POWER_LEVEL_CONN;
 1150              		.loc 1 1620 0
 1151 004c 1023     		movs	r3, #16
 1152 004e FB18     		adds	r3, r7, r3
 1153 0050 0722     		movs	r2, #7
 1154 0052 1A70     		strb	r2, [r3]
ARM GAS  C:\Users\run1009\AppData\Local\Temp\ccSZtXoF.s 			page 50


1621:Generated_Source\PSoC4/BLE_eventHandler.c ****             bleSsPowerLevel.bleSsChId = CYBLE_LL_CONN_CH_TYPE;
 1155              		.loc 1 1621 0
 1156 0054 1023     		movs	r3, #16
 1157 0056 FB18     		adds	r3, r7, r3
 1158 0058 0122     		movs	r2, #1
 1159 005a 5A70     		strb	r2, [r3, #1]
1622:Generated_Source\PSoC4/BLE_eventHandler.c ****             (void) CyBle_SetTxPowerLevel (&bleSsPowerLevel);
 1160              		.loc 1 1622 0
 1161 005c 1023     		movs	r3, #16
 1162 005e FB18     		adds	r3, r7, r3
 1163 0060 1800     		movs	r0, r3
 1164 0062 FFF7FEFF 		bl	CyBle_SetTxPowerLevel
1623:Generated_Source\PSoC4/BLE_eventHandler.c ****             
1624:Generated_Source\PSoC4/BLE_eventHandler.c ****             #if (CYBLE_GATT_ROLE_SERVER)
1625:Generated_Source\PSoC4/BLE_eventHandler.c ****                 /* As per Privacy Errata a call to CyBle_EnableDefaultDevicePrivacy() is
1626:Generated_Source\PSoC4/BLE_eventHandler.c ****                   required to set a device to use device privacy instead of network privacy
1627:Generated_Source\PSoC4/BLE_eventHandler.c ****                   that is enabled by default starting from BLE Stack 3.3.
1628:Generated_Source\PSoC4/BLE_eventHandler.c ****                 */
1629:Generated_Source\PSoC4/BLE_eventHandler.c ****                 if(cyBle_gaps.rpaOnlyCharHandle != CYBLE_GATT_INVALID_ATTR_HANDLE_VALUE)
 1165              		.loc 1 1629 0
 1166 0066 0023     		movs	r3, #0
 1167 0068 002B     		cmp	r3, #0
 1168 006a 01D0     		beq	.L92
1630:Generated_Source\PSoC4/BLE_eventHandler.c ****                 {
1631:Generated_Source\PSoC4/BLE_eventHandler.c ****                     CyBle_EnableDefaultDevicePrivacy();
 1169              		.loc 1 1631 0
 1170 006c FFF7FEFF 		bl	CyBle_EnableDefaultDevicePrivacy
 1171              	.L92:
 1172              	.LBE5:
1632:Generated_Source\PSoC4/BLE_eventHandler.c ****                 }
1633:Generated_Source\PSoC4/BLE_eventHandler.c ****             #endif /* (CYBLE_GATT_ROLE_SERVER) */
1634:Generated_Source\PSoC4/BLE_eventHandler.c ****             
1635:Generated_Source\PSoC4/BLE_eventHandler.c ****             #if (CYBLE_STRICT_PAIRING_ENABLED)
1636:Generated_Source\PSoC4/BLE_eventHandler.c ****                 (void) CyBle_GapSetSecurityRequirements(CYBLE_STRICT_PAIRING_REQ_VALUE, CYBLE_SECUR
1637:Generated_Source\PSoC4/BLE_eventHandler.c ****             #endif /* (CYBLE_STRICT_PAIRING_ENABLED) */
1638:Generated_Source\PSoC4/BLE_eventHandler.c ****             
1639:Generated_Source\PSoC4/BLE_eventHandler.c ****         }
1640:Generated_Source\PSoC4/BLE_eventHandler.c ****         #endif /* CYBLE_MODE_PROFILE */
1641:Generated_Source\PSoC4/BLE_eventHandler.c ****         #if (CYBLE_GATT_ROLE_SERVER || CYBLE_GATT_ROLE_CLIENT)
1642:Generated_Source\PSoC4/BLE_eventHandler.c ****             /* Set device Address  */
1643:Generated_Source\PSoC4/BLE_eventHandler.c ****             if(CyBle_IsDeviceAddressValid(cyBle_sflashDeviceAddress) != 0u)
 1173              		.loc 1 1643 0
 1174 0070 BD4B     		ldr	r3, .L119+8
 1175 0072 1B68     		ldr	r3, [r3]
 1176 0074 1800     		movs	r0, r3
 1177 0076 FFF7FEFF 		bl	CyBle_IsDeviceAddressValid
 1178 007a 031E     		subs	r3, r0, #0
 1179 007c 11D0     		beq	.L93
1644:Generated_Source\PSoC4/BLE_eventHandler.c ****             {
1645:Generated_Source\PSoC4/BLE_eventHandler.c ****                 (void) CyBle_SetDeviceAddress(cyBle_sflashDeviceAddress);
 1180              		.loc 1 1645 0
 1181 007e BA4B     		ldr	r3, .L119+8
 1182 0080 1B68     		ldr	r3, [r3]
 1183 0082 1800     		movs	r0, r3
 1184 0084 FFF7FEFF 		bl	CyBle_SetDeviceAddress
1646:Generated_Source\PSoC4/BLE_eventHandler.c ****                 #if(CYBLE_GAP_ROLE_PERIPHERAL || CYBLE_GAP_ROLE_BROADCASTER)
1647:Generated_Source\PSoC4/BLE_eventHandler.c ****                     CyBle_ChangeAdDeviceAddress(cyBle_sflashDeviceAddress, 0u);
ARM GAS  C:\Users\run1009\AppData\Local\Temp\ccSZtXoF.s 			page 51


 1185              		.loc 1 1647 0
 1186 0088 B74B     		ldr	r3, .L119+8
 1187 008a 1B68     		ldr	r3, [r3]
 1188 008c 0021     		movs	r1, #0
 1189 008e 1800     		movs	r0, r3
 1190 0090 FFF7FEFF 		bl	CyBle_ChangeAdDeviceAddress
1648:Generated_Source\PSoC4/BLE_eventHandler.c ****                     CyBle_ChangeAdDeviceAddress(cyBle_sflashDeviceAddress, 1u);
 1191              		.loc 1 1648 0
 1192 0094 B44B     		ldr	r3, .L119+8
 1193 0096 1B68     		ldr	r3, [r3]
 1194 0098 0121     		movs	r1, #1
 1195 009a 1800     		movs	r0, r3
 1196 009c FFF7FEFF 		bl	CyBle_ChangeAdDeviceAddress
 1197 00a0 36E0     		b	.L94
 1198              	.L93:
 1199              	.LBB6:
1649:Generated_Source\PSoC4/BLE_eventHandler.c ****                 #endif /* CYBLE_GAP_ROLE_PERIPHERAL || CYBLE_GAP_ROLE_BROADCASTER */    
1650:Generated_Source\PSoC4/BLE_eventHandler.c ****             }
1651:Generated_Source\PSoC4/BLE_eventHandler.c ****             else
1652:Generated_Source\PSoC4/BLE_eventHandler.c ****             {
1653:Generated_Source\PSoC4/BLE_eventHandler.c ****             #if (SILICON_GENERATED_DEVICE_ADDRESS != 0u)
1654:Generated_Source\PSoC4/BLE_eventHandler.c ****             {
1655:Generated_Source\PSoC4/BLE_eventHandler.c ****                 uint32 bdAddrLoc;
1656:Generated_Source\PSoC4/BLE_eventHandler.c ****                 bdAddrLoc = (CYBLE_SFLASH_DIE_X_REG & CYBLE_SFLASH_DIE_X_MASK) |
 1200              		.loc 1 1656 0
 1201 00a2 B24B     		ldr	r3, .L119+12
 1202 00a4 1B78     		ldrb	r3, [r3]
 1203 00a6 1A00     		movs	r2, r3
 1204 00a8 3F23     		movs	r3, #63
 1205 00aa 1A40     		ands	r2, r3
1657:Generated_Source\PSoC4/BLE_eventHandler.c ****                     ((uint32)(((uint32)CYBLE_SFLASH_DIE_Y_REG) & ((uint32)CYBLE_SFLASH_DIE_Y_MASK))
 1206              		.loc 1 1657 0
 1207 00ac B04B     		ldr	r3, .L119+16
 1208 00ae 1B78     		ldrb	r3, [r3]
 1209 00b0 9901     		lsls	r1, r3, #6
 1210 00b2 FC23     		movs	r3, #252
 1211 00b4 1B01     		lsls	r3, r3, #4
 1212 00b6 0B40     		ands	r3, r1
1656:Generated_Source\PSoC4/BLE_eventHandler.c ****                     ((uint32)(((uint32)CYBLE_SFLASH_DIE_Y_REG) & ((uint32)CYBLE_SFLASH_DIE_Y_MASK))
 1213              		.loc 1 1656 0
 1214 00b8 1A43     		orrs	r2, r3
1658:Generated_Source\PSoC4/BLE_eventHandler.c ****                         CYBLE_SFLASH_DIE_X_BITS) |
1659:Generated_Source\PSoC4/BLE_eventHandler.c ****                     ((uint32)(((uint32)CYBLE_SFLASH_DIE_WAFER_REG) & ((uint32)CYBLE_SFLASH_DIE_WAFE
 1215              		.loc 1 1659 0
 1216 00ba AE4B     		ldr	r3, .L119+20
 1217 00bc 1B78     		ldrb	r3, [r3]
 1218 00be 1903     		lsls	r1, r3, #12
 1219 00c0 F823     		movs	r3, #248
 1220 00c2 5B02     		lsls	r3, r3, #9
 1221 00c4 0B40     		ands	r3, r1
1658:Generated_Source\PSoC4/BLE_eventHandler.c ****                         CYBLE_SFLASH_DIE_X_BITS) |
 1222              		.loc 1 1658 0
 1223 00c6 1A43     		orrs	r2, r3
1660:Generated_Source\PSoC4/BLE_eventHandler.c ****                         CYBLE_SFLASH_DIE_XY_BITS) |
1661:Generated_Source\PSoC4/BLE_eventHandler.c ****                     ((uint32)(((uint32)CYBLE_SFLASH_DIE_LOT_REG) & ((uint32)CYBLE_SFLASH_DIE_LOT_MA
 1224              		.loc 1 1661 0
 1225 00c8 AB4B     		ldr	r3, .L119+24
ARM GAS  C:\Users\run1009\AppData\Local\Temp\ccSZtXoF.s 			page 52


 1226 00ca 1B78     		ldrb	r3, [r3]
 1227 00cc 5904     		lsls	r1, r3, #17
 1228 00ce FE23     		movs	r3, #254
 1229 00d0 1B04     		lsls	r3, r3, #16
 1230 00d2 0B40     		ands	r3, r1
1656:Generated_Source\PSoC4/BLE_eventHandler.c ****                     ((uint32)(((uint32)CYBLE_SFLASH_DIE_Y_REG) & ((uint32)CYBLE_SFLASH_DIE_Y_MASK))
 1231              		.loc 1 1656 0
 1232 00d4 1343     		orrs	r3, r2
 1233 00d6 BB61     		str	r3, [r7, #24]
1662:Generated_Source\PSoC4/BLE_eventHandler.c ****                         CYBLE_SFLASH_DIE_XYWAFER_BITS);
1663:Generated_Source\PSoC4/BLE_eventHandler.c ****                             
1664:Generated_Source\PSoC4/BLE_eventHandler.c ****                 cyBle_deviceAddress.bdAddr[0] = (uint8)bdAddrLoc;
 1234              		.loc 1 1664 0
 1235 00d8 BB69     		ldr	r3, [r7, #24]
 1236 00da DAB2     		uxtb	r2, r3
 1237 00dc A74B     		ldr	r3, .L119+28
 1238 00de 1A70     		strb	r2, [r3]
1665:Generated_Source\PSoC4/BLE_eventHandler.c ****                 cyBle_deviceAddress.bdAddr[1] = (uint8)(bdAddrLoc >> 8u);
 1239              		.loc 1 1665 0
 1240 00e0 BB69     		ldr	r3, [r7, #24]
 1241 00e2 1B0A     		lsrs	r3, r3, #8
 1242 00e4 DAB2     		uxtb	r2, r3
 1243 00e6 A54B     		ldr	r3, .L119+28
 1244 00e8 5A70     		strb	r2, [r3, #1]
1666:Generated_Source\PSoC4/BLE_eventHandler.c ****                 cyBle_deviceAddress.bdAddr[2] = (uint8)(bdAddrLoc >> 16u);
 1245              		.loc 1 1666 0
 1246 00ea BB69     		ldr	r3, [r7, #24]
 1247 00ec 1B0C     		lsrs	r3, r3, #16
 1248 00ee DAB2     		uxtb	r2, r3
 1249 00f0 A24B     		ldr	r3, .L119+28
 1250 00f2 9A70     		strb	r2, [r3, #2]
 1251              	.LBE6:
1667:Generated_Source\PSoC4/BLE_eventHandler.c ****             }
1668:Generated_Source\PSoC4/BLE_eventHandler.c ****             #endif /* SILICON_GENERATED_DEVICE_ADDRESS != 0u */
1669:Generated_Source\PSoC4/BLE_eventHandler.c ****                 (void) CyBle_SetDeviceAddress(&cyBle_deviceAddress);
 1252              		.loc 1 1669 0
 1253 00f4 A14B     		ldr	r3, .L119+28
 1254 00f6 1800     		movs	r0, r3
 1255 00f8 FFF7FEFF 		bl	CyBle_SetDeviceAddress
1670:Generated_Source\PSoC4/BLE_eventHandler.c ****                 #if(CYBLE_GAP_ROLE_PERIPHERAL || CYBLE_GAP_ROLE_BROADCASTER)
1671:Generated_Source\PSoC4/BLE_eventHandler.c ****                     CyBle_ChangeAdDeviceAddress(&cyBle_deviceAddress, 0u);
 1256              		.loc 1 1671 0
 1257 00fc 9F4B     		ldr	r3, .L119+28
 1258 00fe 0021     		movs	r1, #0
 1259 0100 1800     		movs	r0, r3
 1260 0102 FFF7FEFF 		bl	CyBle_ChangeAdDeviceAddress
1672:Generated_Source\PSoC4/BLE_eventHandler.c ****                     CyBle_ChangeAdDeviceAddress(&cyBle_deviceAddress, 1u);
 1261              		.loc 1 1672 0
 1262 0106 9D4B     		ldr	r3, .L119+28
 1263 0108 0121     		movs	r1, #1
 1264 010a 1800     		movs	r0, r3
 1265 010c FFF7FEFF 		bl	CyBle_ChangeAdDeviceAddress
 1266              	.L94:
1673:Generated_Source\PSoC4/BLE_eventHandler.c ****                 #endif /* CYBLE_GAP_ROLE_PERIPHERAL || CYBLE_GAP_ROLE_BROADCASTER */    
1674:Generated_Source\PSoC4/BLE_eventHandler.c ****             }
1675:Generated_Source\PSoC4/BLE_eventHandler.c ****             /* Set device IO Capability  */
1676:Generated_Source\PSoC4/BLE_eventHandler.c ****             (void) CyBle_GapSetIoCap(CYBLE_IO_CAPABILITY);    
ARM GAS  C:\Users\run1009\AppData\Local\Temp\ccSZtXoF.s 			page 53


 1267              		.loc 1 1676 0
 1268 0110 0320     		movs	r0, #3
 1269 0112 FFF7FEFF 		bl	CyBle_GapSetIoCap
 1270              	.LBB7:
1677:Generated_Source\PSoC4/BLE_eventHandler.c ****             {
1678:Generated_Source\PSoC4/BLE_eventHandler.c ****                 /* Enable all 4.1 events and configured 4.2 events */
1679:Generated_Source\PSoC4/BLE_eventHandler.c ****                 uint8 leMask[CYBLE_LE_MASK_LENGTH] = {LO8(CYBLE_LE_MASK), HI8(CYBLE_LE_MASK)};
 1271              		.loc 1 1679 0
 1272 0116 0C23     		movs	r3, #12
 1273 0118 FB18     		adds	r3, r7, r3
 1274 011a 3F22     		movs	r2, #63
 1275 011c 1A70     		strb	r2, [r3]
 1276 011e 0C23     		movs	r3, #12
 1277 0120 FB18     		adds	r3, r7, r3
 1278 0122 0022     		movs	r2, #0
 1279 0124 5A70     		strb	r2, [r3, #1]
1680:Generated_Source\PSoC4/BLE_eventHandler.c ****                 (void) CyBle_GapSetLeEventMask(leMask);
 1280              		.loc 1 1680 0
 1281 0126 0C23     		movs	r3, #12
 1282 0128 FB18     		adds	r3, r7, r3
 1283 012a 1800     		movs	r0, r3
 1284 012c FFF7FEFF 		bl	CyBle_GapSetLeEventMask
 1285              	.LBE7:
1681:Generated_Source\PSoC4/BLE_eventHandler.c ****             }
1682:Generated_Source\PSoC4/BLE_eventHandler.c ****         #if(CYBLE_DLE_FEATURE_ENABLED)
1683:Generated_Source\PSoC4/BLE_eventHandler.c ****         {
1684:Generated_Source\PSoC4/BLE_eventHandler.c ****             /* Set maximum suggested TX payload size */
1685:Generated_Source\PSoC4/BLE_eventHandler.c ****             uint16 payloadTime = CYBLE_LL_MAX_TX_TIME;
1686:Generated_Source\PSoC4/BLE_eventHandler.c ****             (void) CyBle_GapConvertOctetToTime(CYBLE_GAP_PHY_1MBPS, CYBLE_LL_MAX_TX_PAYLOAD_SIZE, &
1687:Generated_Source\PSoC4/BLE_eventHandler.c ****             (void) CyBle_GapSetSuggestedDataLength(CYBLE_LL_MAX_TX_PAYLOAD_SIZE, payloadTime); 
1688:Generated_Source\PSoC4/BLE_eventHandler.c ****         }
1689:Generated_Source\PSoC4/BLE_eventHandler.c ****         #endif /* CYBLE_DLE_FEATURE != 0u */
1690:Generated_Source\PSoC4/BLE_eventHandler.c ****         
1691:Generated_Source\PSoC4/BLE_eventHandler.c ****         #endif /* CYBLE_GATT_ROLE_SERVER || CYBLE_GATT_ROLE_CLIENT */
1692:Generated_Source\PSoC4/BLE_eventHandler.c ****             CyBle_SetState(CYBLE_STATE_DISCONNECTED);
 1286              		.loc 1 1692 0
 1287 0130 934B     		ldr	r3, .L119+32
 1288 0132 0622     		movs	r2, #6
 1289 0134 1A70     		strb	r2, [r3]
1693:Generated_Source\PSoC4/BLE_eventHandler.c ****             break;
 1290              		.loc 1 1693 0
 1291 0136 9CE1     		b	.L95
 1292              	.L59:
1694:Generated_Source\PSoC4/BLE_eventHandler.c ****         case CYBLE_EVT_TIMEOUT:
1695:Generated_Source\PSoC4/BLE_eventHandler.c ****             CyBle_TimeOutEventHandler((CYBLE_TO_REASON_CODE_T *)eventParam);
 1293              		.loc 1 1695 0
 1294 0138 3B68     		ldr	r3, [r7]
 1295 013a 1800     		movs	r0, r3
 1296 013c FFF7FEFF 		bl	CyBle_TimeOutEventHandler
1696:Generated_Source\PSoC4/BLE_eventHandler.c ****             break;
 1297              		.loc 1 1696 0
 1298 0140 97E1     		b	.L95
 1299              	.L60:
1697:Generated_Source\PSoC4/BLE_eventHandler.c ****     	case CYBLE_EVT_STACK_BUSY_STATUS:
1698:Generated_Source\PSoC4/BLE_eventHandler.c ****             cyBle_busyStatus = *(uint8 *)eventParam;
 1300              		.loc 1 1698 0
 1301 0142 3B68     		ldr	r3, [r7]
ARM GAS  C:\Users\run1009\AppData\Local\Temp\ccSZtXoF.s 			page 54


 1302 0144 1A78     		ldrb	r2, [r3]
 1303 0146 8F4B     		ldr	r3, .L119+36
 1304 0148 1A70     		strb	r2, [r3]
1699:Generated_Source\PSoC4/BLE_eventHandler.c ****             break;
 1305              		.loc 1 1699 0
 1306 014a 92E1     		b	.L95
 1307              	.L61:
 1308              	.LBB8:
1700:Generated_Source\PSoC4/BLE_eventHandler.c ****     	case CYBLE_EVT_MEMORY_REQUEST:
1701:Generated_Source\PSoC4/BLE_eventHandler.c ****         #if(CYBLE_MODE_PROFILE)
1702:Generated_Source\PSoC4/BLE_eventHandler.c ****         {
1703:Generated_Source\PSoC4/BLE_eventHandler.c ****             CYBLE_MEMORY_REQUEST_T *memReq = (CYBLE_MEMORY_REQUEST_T *)eventParam;
 1309              		.loc 1 1703 0
 1310 014c 3B68     		ldr	r3, [r7]
 1311 014e 7B61     		str	r3, [r7, #20]
1704:Generated_Source\PSoC4/BLE_eventHandler.c ****             if(memReq->request == CYBLE_PREPARED_WRITE_REQUEST)
 1312              		.loc 1 1704 0
 1313 0150 7B69     		ldr	r3, [r7, #20]
 1314 0152 1B78     		ldrb	r3, [r3]
 1315 0154 002B     		cmp	r3, #0
 1316 0156 00D0     		beq	.LCB999
 1317 0158 82E1     		b	.L113	@long jump
 1318              	.LCB999:
1705:Generated_Source\PSoC4/BLE_eventHandler.c ****             {  
1706:Generated_Source\PSoC4/BLE_eventHandler.c ****             #if(CYBLE_GATT_ENABLE_EXTERNAL_PREP_WRITE_BUFF == 0u)
1707:Generated_Source\PSoC4/BLE_eventHandler.c ****                 /* Stack requests to provide memory to process remote request */
1708:Generated_Source\PSoC4/BLE_eventHandler.c ****                 if(memReq->allocFree == CYBLE_ALLOC_MEMORY)
 1319              		.loc 1 1708 0
 1320 015a 7B69     		ldr	r3, [r7, #20]
 1321 015c 5B78     		ldrb	r3, [r3, #1]
 1322 015e 002B     		cmp	r3, #0
 1323 0160 0BD1     		bne	.L97
 1324              	.LBB9:
1709:Generated_Source\PSoC4/BLE_eventHandler.c ****                 {
1710:Generated_Source\PSoC4/BLE_eventHandler.c ****                     static CYBLE_PREPARE_WRITE_REQUEST_MEMORY_T gPrepWriteReqMem;
1711:Generated_Source\PSoC4/BLE_eventHandler.c ****                     
1712:Generated_Source\PSoC4/BLE_eventHandler.c ****                     /* Configure and return statically allocated buffer at the end of cyBle_stackMe
1713:Generated_Source\PSoC4/BLE_eventHandler.c ****                     gPrepWriteReqMem.prepareWriteQueueSize = CYBLE_GATT_MAX_PREPARE_BUFF_COUNT;
 1325              		.loc 1 1713 0
 1326 0162 894B     		ldr	r3, .L119+40
 1327 0164 0222     		movs	r2, #2
 1328 0166 DA80     		strh	r2, [r3, #6]
1714:Generated_Source\PSoC4/BLE_eventHandler.c ****                     gPrepWriteReqMem.totalAttrValueLength = CYBLE_GATT_PREPARE_LENGTH_ALIGN;
 1329              		.loc 1 1714 0
 1330 0168 874B     		ldr	r3, .L119+40
 1331 016a 1C22     		movs	r2, #28
 1332 016c 9A80     		strh	r2, [r3, #4]
1715:Generated_Source\PSoC4/BLE_eventHandler.c ****                     gPrepWriteReqMem.queueBuffer = &cyBle_stackMemoryRam[CYBLE_STACK_RAM_SIZE - 
 1333              		.loc 1 1715 0
 1334 016e 864B     		ldr	r3, .L119+40
 1335 0170 864A     		ldr	r2, .L119+44
 1336 0172 1A60     		str	r2, [r3]
1716:Generated_Source\PSoC4/BLE_eventHandler.c ****                                                                          CYBLE_GATT_PREPARE_WRITE_B
1717:Generated_Source\PSoC4/BLE_eventHandler.c ****                     memReq->configMemory = &gPrepWriteReqMem;  
 1337              		.loc 1 1717 0
 1338 0174 7B69     		ldr	r3, [r7, #20]
 1339 0176 844A     		ldr	r2, .L119+40
ARM GAS  C:\Users\run1009\AppData\Local\Temp\ccSZtXoF.s 			page 55


 1340 0178 5A60     		str	r2, [r3, #4]
 1341              	.L97:
 1342              	.LBE9:
1718:Generated_Source\PSoC4/BLE_eventHandler.c ****                 }                
1719:Generated_Source\PSoC4/BLE_eventHandler.c ****                 /* Clear CYBLE_CALLBACK flag not to provide handled event to application */
1720:Generated_Source\PSoC4/BLE_eventHandler.c ****                 cyBle_eventHandlerFlag &= (uint8)~CYBLE_CALLBACK;
 1343              		.loc 1 1720 0
 1344 017a 794B     		ldr	r3, .L119
 1345 017c 1B78     		ldrb	r3, [r3]
 1346 017e DBB2     		uxtb	r3, r3
 1347 0180 0122     		movs	r2, #1
 1348 0182 9343     		bics	r3, r2
 1349 0184 DAB2     		uxtb	r2, r3
 1350 0186 764B     		ldr	r3, .L119
 1351 0188 1A70     		strb	r2, [r3]
 1352              	.LBE8:
1721:Generated_Source\PSoC4/BLE_eventHandler.c ****             #endif  /* CYBLE_GATT_ENABLE_EXTERNAL_PREP_WRITE_BUFF == 0u */
1722:Generated_Source\PSoC4/BLE_eventHandler.c ****             }
1723:Generated_Source\PSoC4/BLE_eventHandler.c ****         }
1724:Generated_Source\PSoC4/BLE_eventHandler.c ****         #endif /* CYBLE_MODE_PROFILE */
1725:Generated_Source\PSoC4/BLE_eventHandler.c ****             break;
 1353              		.loc 1 1725 0
 1354 018a 69E1     		b	.L113
 1355              	.L63:
1726:Generated_Source\PSoC4/BLE_eventHandler.c ****         /**********************************************************
1727:Generated_Source\PSoC4/BLE_eventHandler.c ****         * GAP events
1728:Generated_Source\PSoC4/BLE_eventHandler.c ****         ************************************************************/
1729:Generated_Source\PSoC4/BLE_eventHandler.c ****         case CYBLE_EVT_GAP_AUTH_REQ:
1730:Generated_Source\PSoC4/BLE_eventHandler.c ****         #if(CYBLE_MODE_PROFILE)
1731:Generated_Source\PSoC4/BLE_eventHandler.c ****             if((cyBle_eventHandlerFlag & CYBLE_DISABLE_AUTOMATIC_AUTH) == 0u)
 1356              		.loc 1 1731 0
 1357 018c 744B     		ldr	r3, .L119
 1358 018e 1B78     		ldrb	r3, [r3]
 1359 0190 DBB2     		uxtb	r3, r3
 1360 0192 1A00     		movs	r2, r3
 1361 0194 2023     		movs	r3, #32
 1362 0196 1340     		ands	r3, r2
 1363 0198 00D0     		beq	.LCB1040
 1364 019a 63E1     		b	.L114	@long jump
 1365              	.LCB1040:
1732:Generated_Source\PSoC4/BLE_eventHandler.c ****             {
1733:Generated_Source\PSoC4/BLE_eventHandler.c ****                 /* If the responding device does not support pairing then the responding 
1734:Generated_Source\PSoC4/BLE_eventHandler.c ****                    device shall respond using the Pairing Failed message with the error 
1735:Generated_Source\PSoC4/BLE_eventHandler.c ****                    code "Pairing Not Supported" otherwise it responds with a Pairing 
1736:Generated_Source\PSoC4/BLE_eventHandler.c ****                    Response message.
1737:Generated_Source\PSoC4/BLE_eventHandler.c ****                 */
1738:Generated_Source\PSoC4/BLE_eventHandler.c ****                 if(cyBle_authInfo.security == (CYBLE_GAP_SEC_MODE_1 | CYBLE_GAP_SEC_LEVEL_1))
 1366              		.loc 1 1738 0
 1367 019c 7C4B     		ldr	r3, .L119+48
 1368 019e 1B78     		ldrb	r3, [r3]
 1369 01a0 102B     		cmp	r3, #16
 1370 01a2 02D1     		bne	.L99
1739:Generated_Source\PSoC4/BLE_eventHandler.c ****                 {
1740:Generated_Source\PSoC4/BLE_eventHandler.c ****                     cyBle_authInfo.authErr = CYBLE_GAP_AUTH_ERROR_PAIRING_NOT_SUPPORTED;
 1371              		.loc 1 1740 0
 1372 01a4 7A4B     		ldr	r3, .L119+48
 1373 01a6 0522     		movs	r2, #5
ARM GAS  C:\Users\run1009\AppData\Local\Temp\ccSZtXoF.s 			page 56


 1374 01a8 DA70     		strb	r2, [r3, #3]
 1375              	.L99:
 1376              	.LBB10:
1741:Generated_Source\PSoC4/BLE_eventHandler.c ****                 }    
1742:Generated_Source\PSoC4/BLE_eventHandler.c ****             #if(CYBLE_GAP_ROLE_PERIPHERAL)
1743:Generated_Source\PSoC4/BLE_eventHandler.c ****                 {
1744:Generated_Source\PSoC4/BLE_eventHandler.c ****                     CYBLE_API_RESULT_T apiResult;
1745:Generated_Source\PSoC4/BLE_eventHandler.c ****                     
1746:Generated_Source\PSoC4/BLE_eventHandler.c ****                     apiResult = CyBle_GappAuthReqReply(cyBle_connHandle.bdHandle, &cyBle_authInfo);
 1377              		.loc 1 1746 0
 1378 01aa 7A4B     		ldr	r3, .L119+52
 1379 01ac 1B78     		ldrb	r3, [r3]
 1380 01ae 784A     		ldr	r2, .L119+48
 1381 01b0 1100     		movs	r1, r2
 1382 01b2 1800     		movs	r0, r3
 1383 01b4 FFF7FEFF 		bl	CyBle_GappAuthReqReply
 1384 01b8 0300     		movs	r3, r0
 1385 01ba 1A00     		movs	r2, r3
 1386 01bc 0A23     		movs	r3, #10
 1387 01be FB18     		adds	r3, r7, r3
 1388 01c0 1A80     		strh	r2, [r3]
1747:Generated_Source\PSoC4/BLE_eventHandler.c ****                     /* Setting callback flag again as CyBle_GappAuthReqReply() will generate
1748:Generated_Source\PSoC4/BLE_eventHandler.c ****                     * CYBLE_EVT_GAP_SMP_NEGOTIATED_AUTH_INFO event which will clear the callback
1749:Generated_Source\PSoC4/BLE_eventHandler.c ****                     * flag.
1750:Generated_Source\PSoC4/BLE_eventHandler.c ****                     */
1751:Generated_Source\PSoC4/BLE_eventHandler.c ****                     if (apiResult != CYBLE_ERROR_OK)
 1389              		.loc 1 1751 0
 1390 01c2 0A23     		movs	r3, #10
 1391 01c4 FB18     		adds	r3, r7, r3
 1392 01c6 1B88     		ldrh	r3, [r3]
 1393 01c8 002B     		cmp	r3, #0
 1394 01ca 06D0     		beq	.L100
1752:Generated_Source\PSoC4/BLE_eventHandler.c ****                     {   
1753:Generated_Source\PSoC4/BLE_eventHandler.c ****                         CyBle_ApplCallback(CYBLE_EVT_GAP_AUTH_REQ_REPLY_ERR , &apiResult);
 1395              		.loc 1 1753 0
 1396 01cc 724B     		ldr	r3, .L119+56
 1397 01ce 1B68     		ldr	r3, [r3]
 1398 01d0 0A22     		movs	r2, #10
 1399 01d2 BA18     		adds	r2, r7, r2
 1400 01d4 1100     		movs	r1, r2
 1401 01d6 3620     		movs	r0, #54
 1402 01d8 9847     		blx	r3
 1403              	.L100:
1754:Generated_Source\PSoC4/BLE_eventHandler.c ****                     }
1755:Generated_Source\PSoC4/BLE_eventHandler.c ****                     cyBle_eventHandlerFlag |= CYBLE_CALLBACK;
 1404              		.loc 1 1755 0
 1405 01da 614B     		ldr	r3, .L119
 1406 01dc 1B78     		ldrb	r3, [r3]
 1407 01de DBB2     		uxtb	r3, r3
 1408 01e0 0122     		movs	r2, #1
 1409 01e2 1343     		orrs	r3, r2
 1410 01e4 DAB2     		uxtb	r2, r3
 1411 01e6 5E4B     		ldr	r3, .L119
 1412 01e8 1A70     		strb	r2, [r3]
 1413              	.LBE10:
1756:Generated_Source\PSoC4/BLE_eventHandler.c ****                 }
1757:Generated_Source\PSoC4/BLE_eventHandler.c ****             #endif /* CYBLE_GAP_ROLE_PERIPHERAL */
ARM GAS  C:\Users\run1009\AppData\Local\Temp\ccSZtXoF.s 			page 57


1758:Generated_Source\PSoC4/BLE_eventHandler.c ****             #if (CYBLE_GAP_ROLE_CENTRAL)
1759:Generated_Source\PSoC4/BLE_eventHandler.c ****                 (void)CyBle_GapAuthReq(cyBle_connHandle.bdHandle, &cyBle_authInfo);
 1414              		.loc 1 1759 0
 1415 01ea 6A4B     		ldr	r3, .L119+52
 1416 01ec 1B78     		ldrb	r3, [r3]
 1417 01ee 684A     		ldr	r2, .L119+48
 1418 01f0 1100     		movs	r1, r2
 1419 01f2 1800     		movs	r0, r3
 1420 01f4 FFF7FEFF 		bl	CyBle_GapAuthReq
1760:Generated_Source\PSoC4/BLE_eventHandler.c ****             #endif /* CYBLE_GAP_ROLE_CENTRAL */
1761:Generated_Source\PSoC4/BLE_eventHandler.c ****             }
1762:Generated_Source\PSoC4/BLE_eventHandler.c ****         #endif /* CYBLE_MODE_PROFILE */
1763:Generated_Source\PSoC4/BLE_eventHandler.c ****             break;
 1421              		.loc 1 1763 0
 1422 01f8 34E1     		b	.L114
 1423              	.L68:
1764:Generated_Source\PSoC4/BLE_eventHandler.c ****         
1765:Generated_Source\PSoC4/BLE_eventHandler.c ****         case CYBLE_EVT_GAP_AUTH_COMPLETE:
1766:Generated_Source\PSoC4/BLE_eventHandler.c ****         #if((CYBLE_GAP_ROLE_PERIPHERAL || CYBLE_GAP_ROLE_CENTRAL) && (CYBLE_BONDING_REQUIREMENT == 
1767:Generated_Source\PSoC4/BLE_eventHandler.c ****             cyBle_peerBonding = ((CYBLE_GAP_AUTH_INFO_T *)eventParam)->bonding;
1768:Generated_Source\PSoC4/BLE_eventHandler.c ****         #endif  /* CYBLE_BONDING_REQUIREMENT == CYBLE_BONDING_YES */
1769:Generated_Source\PSoC4/BLE_eventHandler.c ****             break;
1770:Generated_Source\PSoC4/BLE_eventHandler.c ****         
1771:Generated_Source\PSoC4/BLE_eventHandler.c ****         case CYBLE_EVT_GAP_CONNECTION_UPDATE_COMPLETE:
1772:Generated_Source\PSoC4/BLE_eventHandler.c ****             CyBle_GapConnUpdateCompleteEventHandler((const CYBLE_GAP_CONN_PARAM_UPDATED_IN_CONTROLL
 1424              		.loc 1 1772 0
 1425 01fa 3B68     		ldr	r3, [r7]
 1426 01fc 1800     		movs	r0, r3
 1427 01fe FFF7FEFF 		bl	CyBle_GapConnUpdateCompleteEventHandler
1773:Generated_Source\PSoC4/BLE_eventHandler.c ****             break;
 1428              		.loc 1 1773 0
 1429 0202 36E1     		b	.L95
 1430              	.L66:
1774:Generated_Source\PSoC4/BLE_eventHandler.c ****             
1775:Generated_Source\PSoC4/BLE_eventHandler.c ****     #if(CYBLE_LL_PRIVACY_FEATURE != 0u)        
1776:Generated_Source\PSoC4/BLE_eventHandler.c ****         case CYBLE_EVT_GAP_ENHANCE_CONN_COMPLETE:
1777:Generated_Source\PSoC4/BLE_eventHandler.c ****         {
1778:Generated_Source\PSoC4/BLE_eventHandler.c ****             CYBLE_GAP_CONN_PARAM_UPDATED_IN_CONTROLLER_T  connCParam;
1779:Generated_Source\PSoC4/BLE_eventHandler.c ****             CYBLE_GAP_ENHANCE_CONN_COMPLETE_T *connEnhanceParam;
1780:Generated_Source\PSoC4/BLE_eventHandler.c ****             
1781:Generated_Source\PSoC4/BLE_eventHandler.c ****             connEnhanceParam = (CYBLE_GAP_ENHANCE_CONN_COMPLETE_T *)eventParam;
1782:Generated_Source\PSoC4/BLE_eventHandler.c ****             connCParam.status = connEnhanceParam->status;
1783:Generated_Source\PSoC4/BLE_eventHandler.c ****             connCParam.connIntv = connEnhanceParam->connIntv;
1784:Generated_Source\PSoC4/BLE_eventHandler.c ****             connCParam.connLatency = connEnhanceParam->connLatency;
1785:Generated_Source\PSoC4/BLE_eventHandler.c ****             connCParam.supervisionTO = connEnhanceParam->supervisionTo;
1786:Generated_Source\PSoC4/BLE_eventHandler.c ****             CyBle_GapConnUpdateCompleteEventHandler((const CYBLE_GAP_CONN_PARAM_UPDATED_IN_CONTROLL
1787:Generated_Source\PSoC4/BLE_eventHandler.c ****             
1788:Generated_Source\PSoC4/BLE_eventHandler.c ****             #if(CYBLE_GAP_ROLE_CENTRAL)
1789:Generated_Source\PSoC4/BLE_eventHandler.c ****                 if(cyBle_connectingTimeout != 0u)
1790:Generated_Source\PSoC4/BLE_eventHandler.c ****                 {
1791:Generated_Source\PSoC4/BLE_eventHandler.c ****                    (void)CyBle_StopTimer();
1792:Generated_Source\PSoC4/BLE_eventHandler.c ****                 }
1793:Generated_Source\PSoC4/BLE_eventHandler.c ****             #endif /* CYBLE_GAP_ROLE_CENTRAL */
1794:Generated_Source\PSoC4/BLE_eventHandler.c ****             CyBle_SetState(CYBLE_STATE_CONNECTED);
1795:Generated_Source\PSoC4/BLE_eventHandler.c ****         }
1796:Generated_Source\PSoC4/BLE_eventHandler.c ****             break;
1797:Generated_Source\PSoC4/BLE_eventHandler.c ****     #endif /* CYBLE_LL_PRIVACY_FEATURE != 0u */      
ARM GAS  C:\Users\run1009\AppData\Local\Temp\ccSZtXoF.s 			page 58


1798:Generated_Source\PSoC4/BLE_eventHandler.c ****             
1799:Generated_Source\PSoC4/BLE_eventHandler.c ****         case CYBLE_EVT_GAP_DEVICE_CONNECTED:
1800:Generated_Source\PSoC4/BLE_eventHandler.c ****             CyBle_GapConnUpdateCompleteEventHandler((const CYBLE_GAP_CONN_PARAM_UPDATED_IN_CONTROLL
 1431              		.loc 1 1800 0
 1432 0204 3B68     		ldr	r3, [r7]
 1433 0206 1800     		movs	r0, r3
 1434 0208 FFF7FEFF 		bl	CyBle_GapConnUpdateCompleteEventHandler
1801:Generated_Source\PSoC4/BLE_eventHandler.c ****             #if(CYBLE_GAP_ROLE_CENTRAL)
1802:Generated_Source\PSoC4/BLE_eventHandler.c ****                 if(cyBle_connectingTimeout != 0u)
 1435              		.loc 1 1802 0
 1436 020c 634B     		ldr	r3, .L119+60
 1437 020e 1B88     		ldrh	r3, [r3]
 1438 0210 002B     		cmp	r3, #0
 1439 0212 01D0     		beq	.L101
1803:Generated_Source\PSoC4/BLE_eventHandler.c ****                 {
1804:Generated_Source\PSoC4/BLE_eventHandler.c ****                    (void)CyBle_StopTimer();
 1440              		.loc 1 1804 0
 1441 0214 FFF7FEFF 		bl	CyBle_StopTimer
 1442              	.L101:
1805:Generated_Source\PSoC4/BLE_eventHandler.c ****                 }
1806:Generated_Source\PSoC4/BLE_eventHandler.c ****             #endif /* CYBLE_GAP_ROLE_CENTRAL */
1807:Generated_Source\PSoC4/BLE_eventHandler.c ****             CyBle_SetState(CYBLE_STATE_CONNECTED);
 1443              		.loc 1 1807 0
 1444 0218 594B     		ldr	r3, .L119+32
 1445 021a 0222     		movs	r2, #2
 1446 021c 1A70     		strb	r2, [r3]
1808:Generated_Source\PSoC4/BLE_eventHandler.c ****             break;
 1447              		.loc 1 1808 0
 1448 021e 28E1     		b	.L95
 1449              	.L67:
1809:Generated_Source\PSoC4/BLE_eventHandler.c **** 
1810:Generated_Source\PSoC4/BLE_eventHandler.c ****         case CYBLE_EVT_GAP_DEVICE_DISCONNECTED:
1811:Generated_Source\PSoC4/BLE_eventHandler.c ****             CyBle_SetState(CYBLE_STATE_DISCONNECTED);
 1450              		.loc 1 1811 0
 1451 0220 574B     		ldr	r3, .L119+32
 1452 0222 0622     		movs	r2, #6
 1453 0224 1A70     		strb	r2, [r3]
1812:Generated_Source\PSoC4/BLE_eventHandler.c ****             break;
 1454              		.loc 1 1812 0
 1455 0226 24E1     		b	.L95
 1456              	.L65:
1813:Generated_Source\PSoC4/BLE_eventHandler.c ****         #if(CYBLE_GAP_ROLE_PERIPHERAL || CYBLE_GAP_ROLE_BROADCASTER)
1814:Generated_Source\PSoC4/BLE_eventHandler.c ****             
1815:Generated_Source\PSoC4/BLE_eventHandler.c ****         case CYBLE_EVT_GAPP_ADVERTISEMENT_START_STOP:
1816:Generated_Source\PSoC4/BLE_eventHandler.c ****             #ifdef CYBLE_CPS_SERVER
1817:Generated_Source\PSoC4/BLE_eventHandler.c ****                 #if(CYBLE_GAP_ROLE_BROADCASTER)
1818:Generated_Source\PSoC4/BLE_eventHandler.c ****                     CyBle_CpssAdvertisementStartStopEventHandler();
1819:Generated_Source\PSoC4/BLE_eventHandler.c ****                 #endif /* CYBLE_GAP_ROLE_BROADCASTER */
1820:Generated_Source\PSoC4/BLE_eventHandler.c ****             #endif /* CYBLE_CPS_SERVER */
1821:Generated_Source\PSoC4/BLE_eventHandler.c ****             
1822:Generated_Source\PSoC4/BLE_eventHandler.c ****             if((CYBLE_STATE_CONNECTED != CyBle_GetState()) && ((cyBle_eventHandlerFlag & CYBLE_CALL
 1457              		.loc 1 1822 0
 1458 0228 554B     		ldr	r3, .L119+32
 1459 022a 1B78     		ldrb	r3, [r3]
 1460 022c 022B     		cmp	r3, #2
 1461 022e 00D1     		bne	.LCB1129
 1462 0230 1AE1     		b	.L115	@long jump
ARM GAS  C:\Users\run1009\AppData\Local\Temp\ccSZtXoF.s 			page 59


 1463              	.LCB1129:
 1464              		.loc 1 1822 0 is_stmt 0 discriminator 1
 1465 0232 4B4B     		ldr	r3, .L119
 1466 0234 1B78     		ldrb	r3, [r3]
 1467 0236 DBB2     		uxtb	r3, r3
 1468 0238 1A00     		movs	r2, r3
 1469 023a 0123     		movs	r3, #1
 1470 023c 1340     		ands	r3, r2
 1471 023e 00D1     		bne	.LCB1137
 1472 0240 12E1     		b	.L115	@long jump
 1473              	.LCB1137:
1823:Generated_Source\PSoC4/BLE_eventHandler.c ****             {
1824:Generated_Source\PSoC4/BLE_eventHandler.c ****                 /* After CyBle_GappStartAdvertisement first event indicates that advertising has be
1825:Generated_Source\PSoC4/BLE_eventHandler.c ****                 if(0u != (cyBle_eventHandlerFlag & CYBLE_START_FLAG))
 1474              		.loc 1 1825 0 is_stmt 1
 1475 0242 474B     		ldr	r3, .L119
 1476 0244 1B78     		ldrb	r3, [r3]
 1477 0246 DBB2     		uxtb	r3, r3
 1478 0248 1A00     		movs	r2, r3
 1479 024a 0423     		movs	r3, #4
 1480 024c 1340     		ands	r3, r2
 1481 024e 0BD0     		beq	.L103
1826:Generated_Source\PSoC4/BLE_eventHandler.c ****                 {
1827:Generated_Source\PSoC4/BLE_eventHandler.c ****                     CyBle_SetState(CYBLE_STATE_ADVERTISING);
 1482              		.loc 1 1827 0
 1483 0250 4B4B     		ldr	r3, .L119+32
 1484 0252 0322     		movs	r2, #3
 1485 0254 1A70     		strb	r2, [r3]
1828:Generated_Source\PSoC4/BLE_eventHandler.c ****                     cyBle_eventHandlerFlag &= (uint8)~CYBLE_START_FLAG;
 1486              		.loc 1 1828 0
 1487 0256 424B     		ldr	r3, .L119
 1488 0258 1B78     		ldrb	r3, [r3]
 1489 025a DBB2     		uxtb	r3, r3
 1490 025c 0422     		movs	r2, #4
 1491 025e 9343     		bics	r3, r2
 1492 0260 DAB2     		uxtb	r2, r3
 1493 0262 3F4B     		ldr	r3, .L119
 1494 0264 1A70     		strb	r2, [r3]
1829:Generated_Source\PSoC4/BLE_eventHandler.c ****                 }
1830:Generated_Source\PSoC4/BLE_eventHandler.c ****                 /* When application initiated stop advertisement */
1831:Generated_Source\PSoC4/BLE_eventHandler.c ****                 else if(0u != (cyBle_eventHandlerFlag & CYBLE_STOP_FLAG))
1832:Generated_Source\PSoC4/BLE_eventHandler.c ****                 {
1833:Generated_Source\PSoC4/BLE_eventHandler.c ****                     CyBle_SetState(CYBLE_STATE_DISCONNECTED);  
1834:Generated_Source\PSoC4/BLE_eventHandler.c ****                     cyBle_eventHandlerFlag &= (uint8)~CYBLE_STOP_FLAG;
1835:Generated_Source\PSoC4/BLE_eventHandler.c ****                 }
1836:Generated_Source\PSoC4/BLE_eventHandler.c ****                 else /* Following event indicates that advertising has been stopped */
1837:Generated_Source\PSoC4/BLE_eventHandler.c ****                 {
1838:Generated_Source\PSoC4/BLE_eventHandler.c ****                     if(CyBle_GetState() == CYBLE_STATE_ADVERTISING)
1839:Generated_Source\PSoC4/BLE_eventHandler.c ****                     {
1840:Generated_Source\PSoC4/BLE_eventHandler.c ****                         CyBle_SetState(CYBLE_STATE_DISCONNECTED);
1841:Generated_Source\PSoC4/BLE_eventHandler.c ****                     #if ((CYBLE_SLOW_ADV_ENABLED != 0u) && (CYBLE_FAST_ADV_TIMEOUT != 0u))
1842:Generated_Source\PSoC4/BLE_eventHandler.c ****                         if(cyBle_advertisingIntervalType == CYBLE_ADVERTISING_FAST)
1843:Generated_Source\PSoC4/BLE_eventHandler.c ****                         {
1844:Generated_Source\PSoC4/BLE_eventHandler.c ****                             /* When fast advertising time out occur: Start slow advertising */
1845:Generated_Source\PSoC4/BLE_eventHandler.c ****                             if(CyBle_GappStartAdvertisement(CYBLE_ADVERTISING_SLOW) == CYBLE_ERROR_
1846:Generated_Source\PSoC4/BLE_eventHandler.c ****                             {
1847:Generated_Source\PSoC4/BLE_eventHandler.c ****                                 CyBle_SetState(CYBLE_STATE_ADVERTISING);
ARM GAS  C:\Users\run1009\AppData\Local\Temp\ccSZtXoF.s 			page 60


1848:Generated_Source\PSoC4/BLE_eventHandler.c ****                             }
1849:Generated_Source\PSoC4/BLE_eventHandler.c ****                         }
1850:Generated_Source\PSoC4/BLE_eventHandler.c ****                     #endif /* CYBLE_SLOW_ADV_ENABLED */
1851:Generated_Source\PSoC4/BLE_eventHandler.c ****                     }
1852:Generated_Source\PSoC4/BLE_eventHandler.c ****                 }
1853:Generated_Source\PSoC4/BLE_eventHandler.c ****             }
1854:Generated_Source\PSoC4/BLE_eventHandler.c ****             break;
 1495              		.loc 1 1854 0
 1496 0266 FFE0     		b	.L115
 1497              	.L103:
1831:Generated_Source\PSoC4/BLE_eventHandler.c ****                 {
 1498              		.loc 1 1831 0
 1499 0268 3D4B     		ldr	r3, .L119
 1500 026a 1B78     		ldrb	r3, [r3]
 1501 026c DBB2     		uxtb	r3, r3
 1502 026e 1A00     		movs	r2, r3
 1503 0270 0823     		movs	r3, #8
 1504 0272 1340     		ands	r3, r2
 1505 0274 0BD0     		beq	.L104
1833:Generated_Source\PSoC4/BLE_eventHandler.c ****                     cyBle_eventHandlerFlag &= (uint8)~CYBLE_STOP_FLAG;
 1506              		.loc 1 1833 0
 1507 0276 424B     		ldr	r3, .L119+32
 1508 0278 0622     		movs	r2, #6
 1509 027a 1A70     		strb	r2, [r3]
1834:Generated_Source\PSoC4/BLE_eventHandler.c ****                 }
 1510              		.loc 1 1834 0
 1511 027c 384B     		ldr	r3, .L119
 1512 027e 1B78     		ldrb	r3, [r3]
 1513 0280 DBB2     		uxtb	r3, r3
 1514 0282 0822     		movs	r2, #8
 1515 0284 9343     		bics	r3, r2
 1516 0286 DAB2     		uxtb	r2, r3
 1517 0288 354B     		ldr	r3, .L119
 1518 028a 1A70     		strb	r2, [r3]
 1519              		.loc 1 1854 0
 1520 028c ECE0     		b	.L115
 1521              	.L104:
1838:Generated_Source\PSoC4/BLE_eventHandler.c ****                     {
 1522              		.loc 1 1838 0
 1523 028e 3C4B     		ldr	r3, .L119+32
 1524 0290 1B78     		ldrb	r3, [r3]
 1525 0292 032B     		cmp	r3, #3
 1526 0294 00D0     		beq	.LCB1187
 1527 0296 E7E0     		b	.L115	@long jump
 1528              	.LCB1187:
1840:Generated_Source\PSoC4/BLE_eventHandler.c ****                     #if ((CYBLE_SLOW_ADV_ENABLED != 0u) && (CYBLE_FAST_ADV_TIMEOUT != 0u))
 1529              		.loc 1 1840 0
 1530 0298 394B     		ldr	r3, .L119+32
 1531 029a 0622     		movs	r2, #6
 1532 029c 1A70     		strb	r2, [r3]
 1533              		.loc 1 1854 0
 1534 029e E3E0     		b	.L115
 1535              	.L69:
1855:Generated_Source\PSoC4/BLE_eventHandler.c ****         #endif /* CYBLE_GAP_ROLE_PERIPHERAL || CYBLE_GAP_ROLE_BROADCASTER */
1856:Generated_Source\PSoC4/BLE_eventHandler.c ****         
1857:Generated_Source\PSoC4/BLE_eventHandler.c ****         #if(CYBLE_GAP_ROLE_CENTRAL || CYBLE_GAP_ROLE_OBSERVER)    
1858:Generated_Source\PSoC4/BLE_eventHandler.c ****         case CYBLE_EVT_GAPC_SCAN_START_STOP:
ARM GAS  C:\Users\run1009\AppData\Local\Temp\ccSZtXoF.s 			page 61


1859:Generated_Source\PSoC4/BLE_eventHandler.c ****             #ifdef CYBLE_CPS_CLIENT
1860:Generated_Source\PSoC4/BLE_eventHandler.c ****                 CyBle_CpscScanStartStopEventHandler();
1861:Generated_Source\PSoC4/BLE_eventHandler.c ****             #endif /* CYBLE_CPS_CLIENT */
1862:Generated_Source\PSoC4/BLE_eventHandler.c ****             
1863:Generated_Source\PSoC4/BLE_eventHandler.c ****             if((CYBLE_STATE_CONNECTED != CyBle_GetState()) && ((cyBle_eventHandlerFlag & CYBLE_CALL
 1536              		.loc 1 1863 0
 1537 02a0 374B     		ldr	r3, .L119+32
 1538 02a2 1B78     		ldrb	r3, [r3]
 1539 02a4 022B     		cmp	r3, #2
 1540 02a6 00D1     		bne	.LCB1198
 1541 02a8 E0E0     		b	.L116	@long jump
 1542              	.LCB1198:
 1543              		.loc 1 1863 0 is_stmt 0 discriminator 1
 1544 02aa 2D4B     		ldr	r3, .L119
 1545 02ac 1B78     		ldrb	r3, [r3]
 1546 02ae DBB2     		uxtb	r3, r3
 1547 02b0 1A00     		movs	r2, r3
 1548 02b2 0123     		movs	r3, #1
 1549 02b4 1340     		ands	r3, r2
 1550 02b6 00D1     		bne	.LCB1206
 1551 02b8 D8E0     		b	.L116	@long jump
 1552              	.LCB1206:
1864:Generated_Source\PSoC4/BLE_eventHandler.c ****             {
1865:Generated_Source\PSoC4/BLE_eventHandler.c ****                 /* After CyBle_GapcStartScan first event indicates that scanning has been started *
1866:Generated_Source\PSoC4/BLE_eventHandler.c ****                 if(0u != (cyBle_eventHandlerFlag & CYBLE_START_FLAG))
 1553              		.loc 1 1866 0 is_stmt 1
 1554 02ba 294B     		ldr	r3, .L119
 1555 02bc 1B78     		ldrb	r3, [r3]
 1556 02be DBB2     		uxtb	r3, r3
 1557 02c0 1A00     		movs	r2, r3
 1558 02c2 0423     		movs	r3, #4
 1559 02c4 1340     		ands	r3, r2
 1560 02c6 0BD0     		beq	.L106
1867:Generated_Source\PSoC4/BLE_eventHandler.c ****                 {
1868:Generated_Source\PSoC4/BLE_eventHandler.c ****                     CyBle_SetState(CYBLE_STATE_SCANNING);
 1561              		.loc 1 1868 0
 1562 02c8 2D4B     		ldr	r3, .L119+32
 1563 02ca 0422     		movs	r2, #4
 1564 02cc 1A70     		strb	r2, [r3]
1869:Generated_Source\PSoC4/BLE_eventHandler.c ****                     cyBle_eventHandlerFlag &= (uint8)~CYBLE_START_FLAG;
 1565              		.loc 1 1869 0
 1566 02ce 244B     		ldr	r3, .L119
 1567 02d0 1B78     		ldrb	r3, [r3]
 1568 02d2 DBB2     		uxtb	r3, r3
 1569 02d4 0422     		movs	r2, #4
 1570 02d6 9343     		bics	r3, r2
 1571 02d8 DAB2     		uxtb	r2, r3
 1572 02da 214B     		ldr	r3, .L119
 1573 02dc 1A70     		strb	r2, [r3]
1870:Generated_Source\PSoC4/BLE_eventHandler.c ****                 }
1871:Generated_Source\PSoC4/BLE_eventHandler.c ****                 /* When application initiated stop scanning */
1872:Generated_Source\PSoC4/BLE_eventHandler.c ****                 else if(0u != (cyBle_eventHandlerFlag & CYBLE_STOP_FLAG))
1873:Generated_Source\PSoC4/BLE_eventHandler.c ****                 {
1874:Generated_Source\PSoC4/BLE_eventHandler.c ****                     CyBle_SetState(CYBLE_STATE_DISCONNECTED);  
1875:Generated_Source\PSoC4/BLE_eventHandler.c ****                     cyBle_eventHandlerFlag &= (uint8)~CYBLE_STOP_FLAG;
1876:Generated_Source\PSoC4/BLE_eventHandler.c ****                 }
1877:Generated_Source\PSoC4/BLE_eventHandler.c ****                 else /* Following event indicates that scanning has been stopped by stack */
ARM GAS  C:\Users\run1009\AppData\Local\Temp\ccSZtXoF.s 			page 62


1878:Generated_Source\PSoC4/BLE_eventHandler.c ****                 {
1879:Generated_Source\PSoC4/BLE_eventHandler.c ****                     if(CyBle_GetState() == CYBLE_STATE_SCANNING)
1880:Generated_Source\PSoC4/BLE_eventHandler.c ****                     {
1881:Generated_Source\PSoC4/BLE_eventHandler.c ****                         CyBle_SetState(CYBLE_STATE_DISCONNECTED);  
1882:Generated_Source\PSoC4/BLE_eventHandler.c ****                     #if ((CYBLE_SLOW_SCAN_ENABLED != 0u) && (CYBLE_FAST_SCAN_TIMEOUT != 0u))
1883:Generated_Source\PSoC4/BLE_eventHandler.c ****                         if(cyBle_scanningIntervalType == CYBLE_SCANNING_FAST)
1884:Generated_Source\PSoC4/BLE_eventHandler.c ****                         {
1885:Generated_Source\PSoC4/BLE_eventHandler.c ****                             /* When fast scanning time out occur: Start slow scanning */
1886:Generated_Source\PSoC4/BLE_eventHandler.c ****                             if(CyBle_GapcStartScan(CYBLE_SCANNING_SLOW) == CYBLE_ERROR_OK)
1887:Generated_Source\PSoC4/BLE_eventHandler.c ****                             {
1888:Generated_Source\PSoC4/BLE_eventHandler.c ****                                 CyBle_SetState(CYBLE_STATE_SCANNING);
1889:Generated_Source\PSoC4/BLE_eventHandler.c ****                             }
1890:Generated_Source\PSoC4/BLE_eventHandler.c ****                         }
1891:Generated_Source\PSoC4/BLE_eventHandler.c ****                     #endif /* CYBLE_SLOW_SCAN_ENABLED */
1892:Generated_Source\PSoC4/BLE_eventHandler.c ****                     }
1893:Generated_Source\PSoC4/BLE_eventHandler.c ****                 }
1894:Generated_Source\PSoC4/BLE_eventHandler.c ****             }
1895:Generated_Source\PSoC4/BLE_eventHandler.c ****             break;
 1574              		.loc 1 1895 0
 1575 02de C5E0     		b	.L116
 1576              	.L106:
1872:Generated_Source\PSoC4/BLE_eventHandler.c ****                 {
 1577              		.loc 1 1872 0
 1578 02e0 1F4B     		ldr	r3, .L119
 1579 02e2 1B78     		ldrb	r3, [r3]
 1580 02e4 DBB2     		uxtb	r3, r3
 1581 02e6 1A00     		movs	r2, r3
 1582 02e8 0823     		movs	r3, #8
 1583 02ea 1340     		ands	r3, r2
 1584 02ec 0BD0     		beq	.L107
1874:Generated_Source\PSoC4/BLE_eventHandler.c ****                     cyBle_eventHandlerFlag &= (uint8)~CYBLE_STOP_FLAG;
 1585              		.loc 1 1874 0
 1586 02ee 244B     		ldr	r3, .L119+32
 1587 02f0 0622     		movs	r2, #6
 1588 02f2 1A70     		strb	r2, [r3]
1875:Generated_Source\PSoC4/BLE_eventHandler.c ****                 }
 1589              		.loc 1 1875 0
 1590 02f4 1A4B     		ldr	r3, .L119
 1591 02f6 1B78     		ldrb	r3, [r3]
 1592 02f8 DBB2     		uxtb	r3, r3
 1593 02fa 0822     		movs	r2, #8
 1594 02fc 9343     		bics	r3, r2
 1595 02fe DAB2     		uxtb	r2, r3
 1596 0300 174B     		ldr	r3, .L119
 1597 0302 1A70     		strb	r2, [r3]
 1598              		.loc 1 1895 0
 1599 0304 B2E0     		b	.L116
 1600              	.L107:
1879:Generated_Source\PSoC4/BLE_eventHandler.c ****                     {
 1601              		.loc 1 1879 0
 1602 0306 1E4B     		ldr	r3, .L119+32
 1603 0308 1B78     		ldrb	r3, [r3]
 1604 030a 042B     		cmp	r3, #4
 1605 030c 00D0     		beq	.LCB1256
 1606 030e ADE0     		b	.L116	@long jump
 1607              	.LCB1256:
1881:Generated_Source\PSoC4/BLE_eventHandler.c ****                     #if ((CYBLE_SLOW_SCAN_ENABLED != 0u) && (CYBLE_FAST_SCAN_TIMEOUT != 0u))
ARM GAS  C:\Users\run1009\AppData\Local\Temp\ccSZtXoF.s 			page 63


 1608              		.loc 1 1881 0
 1609 0310 1B4B     		ldr	r3, .L119+32
 1610 0312 0622     		movs	r2, #6
 1611 0314 1A70     		strb	r2, [r3]
 1612              		.loc 1 1895 0
 1613 0316 A9E0     		b	.L116
 1614              	.L91:
1896:Generated_Source\PSoC4/BLE_eventHandler.c ****         #endif /* CYBLE_GAP_ROLE_CENTRAL || CYBLE_GAP_ROLE_OBSERVER */
1897:Generated_Source\PSoC4/BLE_eventHandler.c **** 
1898:Generated_Source\PSoC4/BLE_eventHandler.c ****         /**********************************************************
1899:Generated_Source\PSoC4/BLE_eventHandler.c ****         * L2AP events 
1900:Generated_Source\PSoC4/BLE_eventHandler.c ****         ************************************************************/
1901:Generated_Source\PSoC4/BLE_eventHandler.c ****         case CYBLE_EVT_L2CAP_CONN_PARAM_UPDATE_RSP:
1902:Generated_Source\PSoC4/BLE_eventHandler.c ****             CyBle_L2Cap_ConnParamUpdateRspEventHandler(*(uint16 *)eventParam);
 1615              		.loc 1 1902 0
 1616 0318 3B68     		ldr	r3, [r7]
 1617 031a 1B88     		ldrh	r3, [r3]
 1618 031c 1800     		movs	r0, r3
 1619 031e FFF7FEFF 		bl	CyBle_L2Cap_ConnParamUpdateRspEventHandler
1903:Generated_Source\PSoC4/BLE_eventHandler.c ****             break;
 1620              		.loc 1 1903 0
 1621 0322 A6E0     		b	.L95
 1622              	.L71:
1904:Generated_Source\PSoC4/BLE_eventHandler.c ****         
1905:Generated_Source\PSoC4/BLE_eventHandler.c ****         /**********************************************************
1906:Generated_Source\PSoC4/BLE_eventHandler.c ****         * GATT events
1907:Generated_Source\PSoC4/BLE_eventHandler.c ****         ************************************************************/        
1908:Generated_Source\PSoC4/BLE_eventHandler.c ****         case CYBLE_EVT_GATT_CONNECT_IND:
1909:Generated_Source\PSoC4/BLE_eventHandler.c ****             cyBle_connHandle = *(CYBLE_CONN_HANDLE_T *)eventParam;
 1623              		.loc 1 1909 0
 1624 0324 1B4A     		ldr	r2, .L119+52
 1625 0326 3B68     		ldr	r3, [r7]
 1626 0328 1000     		movs	r0, r2
 1627 032a 1900     		movs	r1, r3
 1628 032c 0223     		movs	r3, #2
 1629 032e 1A00     		movs	r2, r3
 1630 0330 FFF7FEFF 		bl	memcpy
1910:Generated_Source\PSoC4/BLE_eventHandler.c ****             cyBle_busyStatus = CYBLE_STACK_STATE_FREE;
 1631              		.loc 1 1910 0
 1632 0334 134B     		ldr	r3, .L119+36
 1633 0336 0022     		movs	r2, #0
 1634 0338 1A70     		strb	r2, [r3]
1911:Generated_Source\PSoC4/BLE_eventHandler.c ****             
1912:Generated_Source\PSoC4/BLE_eventHandler.c ****         #if((CYBLE_GATT_ROLE_SERVER) && (CYBLE_GATT_DB_CCCD_COUNT != 0u) && \
1913:Generated_Source\PSoC4/BLE_eventHandler.c ****             (CYBLE_BONDING_REQUIREMENT == CYBLE_BONDING_YES))
1914:Generated_Source\PSoC4/BLE_eventHandler.c ****             /* Init CCCD values in RAM when bonding is enabled */
1915:Generated_Source\PSoC4/BLE_eventHandler.c ****         	(void) memcpy (cyBle_attValuesCCCD, cyBle_flashStorage.attValuesCCCDFlashMemory[cyBle_conn
1916:Generated_Source\PSoC4/BLE_eventHandler.c ****                             CYBLE_GATT_DB_CCCD_COUNT);
1917:Generated_Source\PSoC4/BLE_eventHandler.c ****         #endif /* CYBLE_GATT_ROLE_SERVER && (CYBLE_BONDING_REQUIREMENT == CYBLE_BONDING_YES) */
1918:Generated_Source\PSoC4/BLE_eventHandler.c ****         
1919:Generated_Source\PSoC4/BLE_eventHandler.c ****         #if (CYBLE_GATT_ROLE_CLIENT)
1920:Generated_Source\PSoC4/BLE_eventHandler.c ****             CyBle_SetClientState(CYBLE_CLIENT_STATE_CONNECTED);
 1635              		.loc 1 1920 0
 1636 033a 194B     		ldr	r3, .L119+64
 1637 033c 0022     		movs	r2, #0
 1638 033e 1A70     		strb	r2, [r3]
1921:Generated_Source\PSoC4/BLE_eventHandler.c ****         #endif /* CYBLE_GATT_ROLE_CLIENT */
ARM GAS  C:\Users\run1009\AppData\Local\Temp\ccSZtXoF.s 			page 64


1922:Generated_Source\PSoC4/BLE_eventHandler.c ****         
1923:Generated_Source\PSoC4/BLE_eventHandler.c ****             CyBle_GattConnectReqHandler();
 1639              		.loc 1 1923 0
 1640 0340 FFF7FEFF 		bl	CyBle_GattConnectReqHandler
1924:Generated_Source\PSoC4/BLE_eventHandler.c ****             break;
 1641              		.loc 1 1924 0
 1642 0344 95E0     		b	.L95
 1643              	.L72:
1925:Generated_Source\PSoC4/BLE_eventHandler.c **** 
1926:Generated_Source\PSoC4/BLE_eventHandler.c ****         case CYBLE_EVT_GATT_DISCONNECT_IND:
1927:Generated_Source\PSoC4/BLE_eventHandler.c ****             CyBle_GattDisconnectEventHandler();
 1644              		.loc 1 1927 0
 1645 0346 FFF7FEFF 		bl	CyBle_GattDisconnectEventHandler
1928:Generated_Source\PSoC4/BLE_eventHandler.c ****             break;
 1646              		.loc 1 1928 0
 1647 034a 92E0     		b	.L95
 1648              	.L73:
 1649              	.LBB11:
1929:Generated_Source\PSoC4/BLE_eventHandler.c **** 
1930:Generated_Source\PSoC4/BLE_eventHandler.c ****     #if((CYBLE_GATT_ROLE_SERVER) || (CYBLE_GATT_ROLE_CLIENT))
1931:Generated_Source\PSoC4/BLE_eventHandler.c ****         case CYBLE_EVT_GATTS_XCNHG_MTU_REQ:
1932:Generated_Source\PSoC4/BLE_eventHandler.c ****             {
1933:Generated_Source\PSoC4/BLE_eventHandler.c ****                 uint16 cyBle_mtuSize;
1934:Generated_Source\PSoC4/BLE_eventHandler.c ****                 if(CYBLE_GATT_MTU > ((CYBLE_GATT_XCHG_MTU_PARAM_T *)eventParam)->mtu)
 1650              		.loc 1 1934 0
 1651 034c 3B68     		ldr	r3, [r7]
 1652 034e 5B88     		ldrh	r3, [r3, #2]
 1653 0350 162B     		cmp	r3, #22
 1654 0352 27D8     		bhi	.L108
1935:Generated_Source\PSoC4/BLE_eventHandler.c ****                 {
1936:Generated_Source\PSoC4/BLE_eventHandler.c ****                     cyBle_mtuSize = ((CYBLE_GATT_XCHG_MTU_PARAM_T *)eventParam)->mtu;
 1655              		.loc 1 1936 0
 1656 0354 1E23     		movs	r3, #30
 1657 0356 FB18     		adds	r3, r7, r3
 1658 0358 3A68     		ldr	r2, [r7]
 1659 035a 5288     		ldrh	r2, [r2, #2]
 1660 035c 1A80     		strh	r2, [r3]
 1661 035e 25E0     		b	.L109
 1662              	.L120:
 1663              		.align	2
 1664              	.L119:
 1665 0360 00000000 		.word	cyBle_eventHandlerFlag
 1666 0364 0C000000 		.word	.L58
 1667 0368 00000000 		.word	cyBle_sflashDeviceAddress
 1668 036c 7CF1FF0F 		.word	268431740
 1669 0370 7DF1FF0F 		.word	268431741
 1670 0374 7BF1FF0F 		.word	268431739
 1671 0378 78F1FF0F 		.word	268431736
 1672 037c 00000000 		.word	cyBle_deviceAddress
 1673 0380 00000000 		.word	cyBle_state
 1674 0384 00000000 		.word	cyBle_busyStatus
 1675 0388 18000000 		.word	gPrepWriteReqMem.6802
 1676 038c E00A0000 		.word	cyBle_stackMemoryRam+2784
 1677 0390 00000000 		.word	cyBle_authInfo
 1678 0394 00000000 		.word	cyBle_connHandle
 1679 0398 00000000 		.word	CyBle_ApplCallback
 1680 039c 00000000 		.word	cyBle_connectingTimeout
ARM GAS  C:\Users\run1009\AppData\Local\Temp\ccSZtXoF.s 			page 65


 1681 03a0 00000000 		.word	cyBle_clientState
 1682              	.L108:
1937:Generated_Source\PSoC4/BLE_eventHandler.c ****                 }
1938:Generated_Source\PSoC4/BLE_eventHandler.c ****                 else
1939:Generated_Source\PSoC4/BLE_eventHandler.c ****                 {
1940:Generated_Source\PSoC4/BLE_eventHandler.c ****                     cyBle_mtuSize = CYBLE_GATT_MTU;
 1683              		.loc 1 1940 0
 1684 03a4 1E23     		movs	r3, #30
 1685 03a6 FB18     		adds	r3, r7, r3
 1686 03a8 1722     		movs	r2, #23
 1687 03aa 1A80     		strh	r2, [r3]
 1688              	.L109:
1941:Generated_Source\PSoC4/BLE_eventHandler.c ****                 }
1942:Generated_Source\PSoC4/BLE_eventHandler.c ****                 (void)CyBle_GattsExchangeMtuRsp(((CYBLE_GATT_XCHG_MTU_PARAM_T *)eventParam)->connHa
 1689              		.loc 1 1942 0
 1690 03ac 1E23     		movs	r3, #30
 1691 03ae FB18     		adds	r3, r7, r3
 1692 03b0 1988     		ldrh	r1, [r3]
 1693 03b2 3B68     		ldr	r3, [r7]
 1694 03b4 1A88     		ldrh	r2, [r3]
 1695 03b6 0023     		movs	r3, #0
 1696 03b8 1204     		lsls	r2, r2, #16
 1697 03ba 120C     		lsrs	r2, r2, #16
 1698 03bc 1B0C     		lsrs	r3, r3, #16
 1699 03be 1B04     		lsls	r3, r3, #16
 1700 03c0 1343     		orrs	r3, r2
 1701 03c2 1800     		movs	r0, r3
 1702 03c4 FFF7FEFF 		bl	CyBle_GattsExchangeMtuRsp
 1703              	.LBE11:
1943:Generated_Source\PSoC4/BLE_eventHandler.c ****             }
1944:Generated_Source\PSoC4/BLE_eventHandler.c ****             break;
 1704              		.loc 1 1944 0
 1705 03c8 53E0     		b	.L95
 1706              	.L80:
1945:Generated_Source\PSoC4/BLE_eventHandler.c ****     #endif /* CYBLE_GATT_ROLE_SERVER || CYBLE_GATT_ROLE_CLIENT */
1946:Generated_Source\PSoC4/BLE_eventHandler.c ****     
1947:Generated_Source\PSoC4/BLE_eventHandler.c ****     #if (CYBLE_GATT_ROLE_CLIENT)
1948:Generated_Source\PSoC4/BLE_eventHandler.c ****         case CYBLE_EVT_GAPC_SCAN_PROGRESS_RESULT:
1949:Generated_Source\PSoC4/BLE_eventHandler.c ****         #ifdef CYBLE_CPS_CLIENT
1950:Generated_Source\PSoC4/BLE_eventHandler.c ****             CyBle_CpscScanProcessEventHandler((CYBLE_GAPC_ADV_REPORT_T *)eventParam);
1951:Generated_Source\PSoC4/BLE_eventHandler.c ****         #endif /* CYBLE_CPS_CLIENT */
1952:Generated_Source\PSoC4/BLE_eventHandler.c ****             break;
1953:Generated_Source\PSoC4/BLE_eventHandler.c ****     #endif /* CYBLE_GATT_ROLE_CLIENT */
1954:Generated_Source\PSoC4/BLE_eventHandler.c **** 
1955:Generated_Source\PSoC4/BLE_eventHandler.c ****     #if(CYBLE_GATT_ROLE_SERVER)
1956:Generated_Source\PSoC4/BLE_eventHandler.c ****         case CYBLE_EVT_GATTS_WRITE_REQ:
1957:Generated_Source\PSoC4/BLE_eventHandler.c ****             CyBle_WriteReqHandler((CYBLE_GATTS_WRITE_REQ_PARAM_T *)eventParam);
 1707              		.loc 1 1957 0
 1708 03ca 3B68     		ldr	r3, [r7]
 1709 03cc 1800     		movs	r0, r3
 1710 03ce FFF7FEFF 		bl	CyBle_WriteReqHandler
1958:Generated_Source\PSoC4/BLE_eventHandler.c ****             break;
 1711              		.loc 1 1958 0
 1712 03d2 4EE0     		b	.L95
 1713              	.L88:
1959:Generated_Source\PSoC4/BLE_eventHandler.c **** 
1960:Generated_Source\PSoC4/BLE_eventHandler.c ****         case CYBLE_EVT_GATTS_WRITE_CMD_REQ:
ARM GAS  C:\Users\run1009\AppData\Local\Temp\ccSZtXoF.s 			page 66


1961:Generated_Source\PSoC4/BLE_eventHandler.c ****         #ifdef CYBLE_AIOS_SERVER
1962:Generated_Source\PSoC4/BLE_eventHandler.c ****             if((cyBle_eventHandlerFlag & CYBLE_CALLBACK) != 0u)
1963:Generated_Source\PSoC4/BLE_eventHandler.c ****             {
1964:Generated_Source\PSoC4/BLE_eventHandler.c ****                 (void)CyBle_AiossWriteEventHandler((CYBLE_GATTS_WRITE_REQ_PARAM_T *)eventParam);
1965:Generated_Source\PSoC4/BLE_eventHandler.c ****             }
1966:Generated_Source\PSoC4/BLE_eventHandler.c ****         #endif /* CYBLE_AIOS_SERVER */
1967:Generated_Source\PSoC4/BLE_eventHandler.c ****         #ifdef CYBLE_IAS_SERVER
1968:Generated_Source\PSoC4/BLE_eventHandler.c ****             if((cyBle_eventHandlerFlag & CYBLE_CALLBACK) != 0u)
1969:Generated_Source\PSoC4/BLE_eventHandler.c ****             {
1970:Generated_Source\PSoC4/BLE_eventHandler.c ****                 (void)CyBle_IassWriteCmdEventHandler((CYBLE_GATTS_WRITE_REQ_PARAM_T *)eventParam);
1971:Generated_Source\PSoC4/BLE_eventHandler.c ****             }
1972:Generated_Source\PSoC4/BLE_eventHandler.c ****         #endif /* CYBLE_IAS_SERVER */
1973:Generated_Source\PSoC4/BLE_eventHandler.c ****         #ifdef CYBLE_IPS_SERVER
1974:Generated_Source\PSoC4/BLE_eventHandler.c ****             if((cyBle_eventHandlerFlag & CYBLE_CALLBACK) != 0u)
1975:Generated_Source\PSoC4/BLE_eventHandler.c ****             {
1976:Generated_Source\PSoC4/BLE_eventHandler.c ****                 (void)CyBle_IpssWriteCmdEventHandler((CYBLE_GATTS_WRITE_REQ_PARAM_T *)eventParam);
1977:Generated_Source\PSoC4/BLE_eventHandler.c ****             }
1978:Generated_Source\PSoC4/BLE_eventHandler.c ****         #endif /* CYBLE_IPS_SERVER */
1979:Generated_Source\PSoC4/BLE_eventHandler.c ****         #ifdef CYBLE_HIDS_SERVER
1980:Generated_Source\PSoC4/BLE_eventHandler.c ****             if((cyBle_eventHandlerFlag & CYBLE_CALLBACK) != 0u)
1981:Generated_Source\PSoC4/BLE_eventHandler.c ****             {
1982:Generated_Source\PSoC4/BLE_eventHandler.c ****                 (void)CyBle_HidssWriteEventHandler((CYBLE_GATTS_WRITE_REQ_PARAM_T *)eventParam);
1983:Generated_Source\PSoC4/BLE_eventHandler.c ****             }
1984:Generated_Source\PSoC4/BLE_eventHandler.c ****         #endif /* CYBLE_HIDS_SERVER */
1985:Generated_Source\PSoC4/BLE_eventHandler.c ****         #ifdef CYBLE_PASS_SERVER
1986:Generated_Source\PSoC4/BLE_eventHandler.c ****             if((cyBle_eventHandlerFlag & CYBLE_CALLBACK) != 0u)
1987:Generated_Source\PSoC4/BLE_eventHandler.c ****             {
1988:Generated_Source\PSoC4/BLE_eventHandler.c ****                 (void)CyBle_PasssWriteCmdEventHandler((CYBLE_GATTS_WRITE_REQ_PARAM_T *)eventParam);
1989:Generated_Source\PSoC4/BLE_eventHandler.c ****             }
1990:Generated_Source\PSoC4/BLE_eventHandler.c ****         #endif /* CYBLE_PASS_SERVER */
1991:Generated_Source\PSoC4/BLE_eventHandler.c ****         #ifdef CYBLE_RTUS_SERVER
1992:Generated_Source\PSoC4/BLE_eventHandler.c ****             if((cyBle_eventHandlerFlag & CYBLE_CALLBACK) != 0u)
1993:Generated_Source\PSoC4/BLE_eventHandler.c ****             {
1994:Generated_Source\PSoC4/BLE_eventHandler.c ****                 (void)CyBle_RtussWriteCmdEventHandler((CYBLE_GATTS_WRITE_REQ_PARAM_T *)eventParam);
1995:Generated_Source\PSoC4/BLE_eventHandler.c ****             }
1996:Generated_Source\PSoC4/BLE_eventHandler.c ****         #endif /* CYBLE_RTUS_SERVER */
1997:Generated_Source\PSoC4/BLE_eventHandler.c ****         #ifdef CYBLE_SCPS_SERVER
1998:Generated_Source\PSoC4/BLE_eventHandler.c ****             if((cyBle_eventHandlerFlag & CYBLE_CALLBACK) != 0u)
1999:Generated_Source\PSoC4/BLE_eventHandler.c ****             {
2000:Generated_Source\PSoC4/BLE_eventHandler.c ****                 (void)CyBle_ScpssWriteEventHandler((CYBLE_GATTS_WRITE_REQ_PARAM_T *)eventParam);
2001:Generated_Source\PSoC4/BLE_eventHandler.c ****             }
2002:Generated_Source\PSoC4/BLE_eventHandler.c ****         #endif /* CYBLE_SCPS_SERVER */
2003:Generated_Source\PSoC4/BLE_eventHandler.c ****             break;
2004:Generated_Source\PSoC4/BLE_eventHandler.c ****         
2005:Generated_Source\PSoC4/BLE_eventHandler.c ****         case CYBLE_EVT_GATTS_PREP_WRITE_REQ:
2006:Generated_Source\PSoC4/BLE_eventHandler.c ****         #ifdef CYBLE_BMS_SERVER
2007:Generated_Source\PSoC4/BLE_eventHandler.c ****             CyBle_BmssPrepareWriteRequestEventHandler((CYBLE_GATTS_PREP_WRITE_REQ_PARAM_T *)eventPa
2008:Generated_Source\PSoC4/BLE_eventHandler.c ****         #endif /* CYBLE_BMS_SERVER */
2009:Generated_Source\PSoC4/BLE_eventHandler.c ****         #ifdef CYBLE_BTS_SERVER
2010:Generated_Source\PSoC4/BLE_eventHandler.c ****             if((cyBle_eventHandlerFlag & CYBLE_CALLBACK) != 0u)
2011:Generated_Source\PSoC4/BLE_eventHandler.c ****             {
2012:Generated_Source\PSoC4/BLE_eventHandler.c ****                 CyBle_BtssPrepareWriteRequestEventHandler((CYBLE_GATTS_PREP_WRITE_REQ_PARAM_T *)eve
2013:Generated_Source\PSoC4/BLE_eventHandler.c ****             }
2014:Generated_Source\PSoC4/BLE_eventHandler.c ****         #endif /* CYBLE_BTS_SERVER */
2015:Generated_Source\PSoC4/BLE_eventHandler.c ****         #ifdef CYBLE_ESS_SERVER
2016:Generated_Source\PSoC4/BLE_eventHandler.c ****             if((cyBle_eventHandlerFlag & CYBLE_CALLBACK) != 0u)
2017:Generated_Source\PSoC4/BLE_eventHandler.c ****             {
ARM GAS  C:\Users\run1009\AppData\Local\Temp\ccSZtXoF.s 			page 67


2018:Generated_Source\PSoC4/BLE_eventHandler.c ****                 CyBle_EsssPrepareWriteRequestEventHandler((CYBLE_GATTS_PREP_WRITE_REQ_PARAM_T *)eve
2019:Generated_Source\PSoC4/BLE_eventHandler.c ****             }
2020:Generated_Source\PSoC4/BLE_eventHandler.c ****         #endif /* CYBLE_ESS_SERVER */
2021:Generated_Source\PSoC4/BLE_eventHandler.c ****         #ifdef CYBLE_HPS_SERVER
2022:Generated_Source\PSoC4/BLE_eventHandler.c ****             if((cyBle_eventHandlerFlag & CYBLE_CALLBACK) != 0u)
2023:Generated_Source\PSoC4/BLE_eventHandler.c ****             {
2024:Generated_Source\PSoC4/BLE_eventHandler.c ****                 CyBle_HpssPrepareWriteRequestEventHandler((CYBLE_GATTS_PREP_WRITE_REQ_PARAM_T *)eve
2025:Generated_Source\PSoC4/BLE_eventHandler.c ****             }
2026:Generated_Source\PSoC4/BLE_eventHandler.c ****         #endif /* CYBLE_HPS_SERVER */
2027:Generated_Source\PSoC4/BLE_eventHandler.c ****         #ifdef CYBLE_IPS_SERVER
2028:Generated_Source\PSoC4/BLE_eventHandler.c ****             if((cyBle_eventHandlerFlag & CYBLE_CALLBACK) != 0u)
2029:Generated_Source\PSoC4/BLE_eventHandler.c ****             {
2030:Generated_Source\PSoC4/BLE_eventHandler.c ****                 CyBle_IpssPrepareWriteRequestEventHandler((CYBLE_GATTS_PREP_WRITE_REQ_PARAM_T *)eve
2031:Generated_Source\PSoC4/BLE_eventHandler.c ****             }
2032:Generated_Source\PSoC4/BLE_eventHandler.c ****         #endif /* CYBLE_IPS_SERVER */
2033:Generated_Source\PSoC4/BLE_eventHandler.c ****         #ifdef CYBLE_UDS_SERVER
2034:Generated_Source\PSoC4/BLE_eventHandler.c ****             if((cyBle_eventHandlerFlag & CYBLE_CALLBACK) != 0u)
2035:Generated_Source\PSoC4/BLE_eventHandler.c ****             {
