ARM GAS  C:\Users\run1009\AppData\Local\Temp\ccJxhBPK.s 			page 1


   1              		.syntax unified
   2              		.cpu cortex-m0
   3              		.fpu softvfp
   4              		.eabi_attribute 20, 1
   5              		.eabi_attribute 21, 1
   6              		.eabi_attribute 23, 3
   7              		.eabi_attribute 24, 1
   8              		.eabi_attribute 25, 1
   9              		.eabi_attribute 26, 1
  10              		.eabi_attribute 30, 6
  11              		.eabi_attribute 34, 0
  12              		.eabi_attribute 18, 4
  13              		.thumb
  14              		.syntax unified
  15              		.file	"ble_process.c"
  16              		.text
  17              	.Ltext0:
  18              		.cfi_sections	.debug_frame
  19              		.comm	RGBData,4,4
  20              		.comm	tempData,4,4
  21              		.comm	recvTempData,4,4
  22              		.global	dataADVCounter
  23              		.data
  24              		.type	dataADVCounter, %object
  25              		.size	dataADVCounter, 1
  26              	dataADVCounter:
  27 0000 01       		.byte	1
  28              		.global	switch_Role
  29              		.bss
  30              		.type	switch_Role, %object
  31              		.size	switch_Role, 1
  32              	switch_Role:
  33 0000 00       		.space	1
  34              		.global	node_address
  35 0001 00       		.align	1
  36              		.type	node_address, %object
  37              		.size	node_address, 2
  38              	node_address:
  39 0002 0000     		.space	2
  40              		.comm	new_advData,32,4
  41              		.global	potential_node_found
  42              		.type	potential_node_found, %object
  43              		.size	potential_node_found, 1
  44              	potential_node_found:
  45 0004 00       		.space	1
  46              		.comm	potential_node_bdAddr,6,4
  47              		.global	potential_node_bdAddrType
  48              		.type	potential_node_bdAddrType, %object
  49              		.size	potential_node_bdAddrType, 1
  50              	potential_node_bdAddrType:
  51 0005 00       		.space	1
  52              		.global	scan_tag
  53              		.data
  54 0001 000000   		.align	2
  55              		.type	scan_tag, %object
  56              		.size	scan_tag, 20
  57              	scan_tag:
ARM GAS  C:\Users\run1009\AppData\Local\Temp\ccJxhBPK.s 			page 2


  58 0004 13       		.byte	19
  59 0005 21       		.byte	33
  60 0006 31       		.byte	49
  61 0007 01       		.byte	1
  62 0008 9B       		.byte	-101
  63 0009 5F       		.byte	95
  64 000a 80       		.byte	-128
  65 000b 00       		.byte	0
  66 000c 00       		.byte	0
  67 000d 80       		.byte	-128
  68 000e 00       		.byte	0
  69 000f 10       		.byte	16
  70 0010 00       		.byte	0
  71 0011 00       		.byte	0
  72 0012 BB       		.byte	-69
  73 0013 C2       		.byte	-62
  74 0014 03       		.byte	3
  75 0015 00       		.byte	0
  76 0016 BB       		.byte	-69
  77 0017 CB       		.byte	-53
  78              		.comm	peripAddr,7,4
  79              		.global	clientConnectToDevice
  80              		.bss
  81              		.type	clientConnectToDevice, %object
  82              		.size	clientConnectToDevice, 1
  83              	clientConnectToDevice:
  84 0006 00       		.space	1
  85              		.global	ble_gap_state
  86              		.data
  87              		.type	ble_gap_state, %object
  88              		.size	ble_gap_state, 1
  89              	ble_gap_state:
  90 0018 01       		.byte	1
  91              		.global	deviceConnected
  92              		.bss
  93              		.type	deviceConnected, %object
  94              		.size	deviceConnected, 1
  95              	deviceConnected:
  96 0007 00       		.space	1
  97              		.global	restartScanning
  98              		.type	restartScanning, %object
  99              		.size	restartScanning, 1
 100              	restartScanning:
 101 0008 00       		.space	1
 102              		.global	centralStartedTime
 103 0009 00       		.align	1
 104              		.type	centralStartedTime, %object
 105              		.size	centralStartedTime, 2
 106              	centralStartedTime:
 107 000a 0000     		.space	2
 108              		.comm	val,31,4
 109              		.global	bt_addr
 110              		.align	2
 111              		.type	bt_addr, %object
 112              		.size	bt_addr, 6
 113              	bt_addr:
 114 000c 00000000 		.space	6
ARM GAS  C:\Users\run1009\AppData\Local\Temp\ccJxhBPK.s 			page 3


 114      0000
 115              		.comm	result,68,4
 116              		.section	.rodata
 117              		.align	2
 118              	.LC0:
 119 0000 4359424C 		.ascii	"CYBLE_EVT_STACK_ON \000"
 119      455F4556 
 119      545F5354 
 119      41434B5F 
 119      4F4E2000 
 120              		.align	2
 121              	.LC4:
 122 0014 53746172 		.ascii	"Start scan after Stack RESET \000"
 122      74207363 
 122      616E2061 
 122      66746572 
 122      20537461 
 123 0032 0000     		.align	2
 124              	.LC10:
 125 0034 52657374 		.ascii	"Restart Advertisement \000"
 125      61727420 
 125      41647665 
 125      72746973 
 125      656D656E 
 126 004b 00       		.align	2
 127              	.LC12:
 128 004c 4359424C 		.ascii	"CYBLE_EVT_GATTC_READ_BLOB_RSP :\000"
 128      455F4556 
 128      545F4741 
 128      5454435F 
 128      52454144 
 129              		.align	2
 130              	.LC14:
 131 006c 4359424C 		.ascii	"CYBLE_EVT_GAPC_SCAN_START_STOP :\000"
 131      455F4556 
 131      545F4741 
 131      50435F53 
 131      43414E5F 
 132 008d 000000   		.align	2
 133              	.LC16:
 134 0090 31323220 		.ascii	"122 \000"
 134      00
 135 0095 000000   		.align	2
 136              	.LC18:
 137 0098 4359424C 		.ascii	"CYBLE_EVT_GATT_DISCONNECT_IND \000"
 137      455F4556 
 137      545F4741 
 137      54545F44 
 137      4953434F 
 138 00b7 00       		.align	2
 139              	.LC20:
 140 00b8 4359424C 		.ascii	"CYBLE_EVT_GATTS_WRITE_REQ \000"
 140      455F4556 
 140      545F4741 
 140      5454535F 
 140      57524954 
 141 00d3 00       		.align	2
ARM GAS  C:\Users\run1009\AppData\Local\Temp\ccJxhBPK.s 			page 4


 142              	.LC22:
 143 00d4 4E6F6465 		.ascii	"Node Address Written: \000"
 143      20416464 
 143      72657373 
 143      20577269 
 143      7474656E 
 144 00eb 00       		.align	2
 145              	.LC25:
 146 00ec 4572726F 		.ascii	"Error ERR_INVALID_PDU \000"
 146      72204552 
 146      525F494E 
 146      56414C49 
 146      445F5044 
 147 0103 00       		.align	2
 148              	.LC29:
 149 0104 6E6F6465 		.ascii	"node_address = 0 \000"
 149      5F616464 
 149      72657373 
 149      203D2030 
 149      2000
 150 0116 0000     		.align	2
 151              	.LC31:
 152 0118 54454D50 		.ascii	"TEMP CYBLE_EVT_GATTS_WRITE_REQ \000"
 152      20435942 
 152      4C455F45 
 152      56545F47 
 152      41545453 
 153              		.align	2
 154              	.LC36:
 155 0138 74656D70 		.ascii	"tempData: \000"
 155      44617461 
 155      3A2000
 156              		.global	__aeabi_i2d
 157              		.global	__aeabi_ddiv
 158              		.global	__aeabi_d2f
 159 0143 00       		.align	2
 160              	.LC38:
 161 0144 72656365 		.ascii	"receive temperature: \000"
 161      69766520 
 161      74656D70 
 161      65726174 
 161      7572653A 
 162 015a 0000     		.align	2
 163              	.LC40:
 164 015c 55706461 		.ascii	"UpdateTempData \000"
 164      74655465 
 164      6D704461 
 164      74612000 
 165              		.align	2
 166              	.LC43:
 167 016c 696E6372 		.ascii	"incremented dataADVCounter value in CYBLE_EVT_GATTS"
 167      656D656E 
 167      74656420 
 167      64617461 
 167      41445643 
 168 019f 5F575249 		.ascii	"_WRITE_REQ= \000"
 168      54455F52 
ARM GAS  C:\Users\run1009\AppData\Local\Temp\ccJxhBPK.s 			page 5


 168      45513D20 
 168      00
 169              		.align	2
 170              	.LC45:
 171 01ac 73776974 		.ascii	"switchRole to Central\000"
 171      6368526F 
 171      6C652074 
 171      6F204365 
 171      6E747261 
 172 01c2 0000     		.align	2
 173              	.LC47:
 174 01c4 64617461 		.ascii	"dataADVCounter from CYBLE_EVT_GATTS_WRITE_CMD_REQ ="
 174      41445643 
 174      6F756E74 
 174      65722066 
 174      726F6D20 
 175 01f7 2000     		.ascii	" \000"
 176 01f9 000000   		.align	2
 177              	.LC52:
 178 01fc 706F7465 		.ascii	"potential_node_found \000"
 178      6E746961 
 178      6C5F6E6F 
 178      64655F66 
 178      6F756E64 
 179 0212 0000     		.align	2
 180              	.LC55:
 181 0214 53746F70 		.ascii	"Stop Scan called \000"
 181      20536361 
 181      6E206361 
 181      6C6C6564 
 181      2000
 182 0226 0000     		.align	2
 183              	.LC57:
 184 0228 4556454E 		.ascii	"EVENType: \000"
 184      54797065 
 184      3A2000
 185 0233 00       		.align	2
 186              	.LC59:
 187 0234 256400   		.ascii	"%d\000"
 188 0237 00       		.align	2
 189              	.LC61:
 190 0238 0D0A00   		.ascii	"\015\012\000"
 191 023b 00       		.align	2
 192              	.LC63:
 193 023c 52535349 		.ascii	"RSSI: \000"
 193      3A2000
 194 0243 00       		.align	2
 195              	.LC65:
 196 0244 424C4520 		.ascii	"BLE Address: 0x\000"
 196      41646472 
 196      6573733A 
 196      20307800 
 197              		.align	2
 198              	.LC67:
 199 0254 2A2A2A2A 		.ascii	"****************Device Found***************\015\012"
 199      2A2A2A2A 
 199      2A2A2A2A 
ARM GAS  C:\Users\run1009\AppData\Local\Temp\ccJxhBPK.s 			page 6


 199      2A2A2A2A 
 199      44657669 
 200 0281 00       		.ascii	"\000"
 201 0282 0000     		.align	2
 202              	.LC71:
 203 0284 74656D70 		.ascii	"temperature: \000"
 203      65726174 
 203      7572653A 
 203      2000
 204 0292 0000     		.align	2
 205              	.LC73:
 206 0294 25686900 		.ascii	"%hi\000"
 207              		.align	2
 208              	.LC75:
 209 0298 6C696768 		.ascii	"light: \000"
 209      743A2000 
 210              		.align	2
 211              	.LC77:
 212 02a0 6E6F6973 		.ascii	"noise: \000"
 212      653A2000 
 213              		.align	2
 214              	.LC79:
 215 02a8 68756D69 		.ascii	"humidity: \000"
 215      64697479 
 215      3A2000
 216 02b3 00       		.align	2
 217              	.LC81:
 218 02b4 75763A20 		.ascii	"uv: \000"
 218      00
 219 02b9 000000   		.align	2
 220              	.LC83:
 221 02bc 70726573 		.ascii	"pressure: \000"
 221      73757265 
 221      3A2000
 222 02c7 00       		.align	2
 223              	.LC85:
 224 02c8 64696D65 		.ascii	"dimention: \000"
 224      6E74696F 
 224      6E3A2000 
 225              		.align	2
 226              	.LC87:
 227 02d4 68656174 		.ascii	"heat: \000"
 227      3A2000
 228 02db 00       		.align	2
 229              	.LC89:
 230 02dc 62617474 		.ascii	"battery: \000"
 230      6572793A 
 230      2000
 231 02e6 0000     		.align	2
 232              	.LC91:
 233 02e8 64697374 		.ascii	"distance: \000"
 233      616E6365 
 233      3A2000
 234 02f3 00       		.align	2
 235              	.LC94:
 236 02f4 74696D65 		.ascii	"timestamp: \000"
 236      7374616D 
ARM GAS  C:\Users\run1009\AppData\Local\Temp\ccJxhBPK.s 			page 7


 236      703A2000 
 237              		.align	2
 238              	.LC98:
 239 0300 2A2A2A2A 		.ascii	"*********** Titan Found ***********\000"
 239      2A2A2A2A 
 239      2A2A2A20 
 239      54697461 
 239      6E20466F 
 240              		.align	2
 241              	.LC102:
 242 0324 4359424C 		.ascii	"CYBLE_EVT_GAP_DEVICE_CONNECTED: \000"
 242      455F4556 
 242      545F4741 
 242      505F4445 
 242      56494345 
 243 0345 000000   		.align	2
 244              	.LC104:
 245 0348 4359424C 		.ascii	"CYBLE_EVT_GAP_DEVICE_CONNECTED \000"
 245      455F4556 
 245      545F4741 
 245      505F4445 
 245      56494345 
 246              		.align	2
 247              	.LC107:
 248 0368 4359424C 		.ascii	"CYBLE_EVT_GATTC_DISCOVERY_COMPLET \000"
 248      455F4556 
 248      545F4741 
 248      5454435F 
 248      44495343 
 249 038b 00       		.align	2
 250              	.LC109:
 251 038c 4359424C 		.ascii	"CYBLE_EVT_GATTC_WRITE_RSP \000"
 251      455F4556 
 251      545F4741 
 251      5454435F 
 251      57524954 
 252 03a7 00       		.align	2
 253              	.LC112:
 254 03a8 44697363 		.ascii	"Disconnect and restart scanning \000"
 254      6F6E6E65 
 254      63742061 
 254      6E642072 
 254      65737461 
 255 03c9 000000   		.align	2
 256              	.LC114:
 257 03cc 4359424C 		.ascii	"CYBLE_EVT_GAP_DEVICE_DISCONNECTED \000"
 257      455F4556 
 257      545F4741 
 257      505F4445 
 257      56494345 
 258 03ef 00       		.align	2
 259              	.LC116:
 260 03f0 52657374 		.ascii	"Restart Scanning \000"
 260      61727420 
 260      5363616E 
 260      6E696E67 
 260      2000
ARM GAS  C:\Users\run1009\AppData\Local\Temp\ccJxhBPK.s 			page 8


 261              		.section	.text.GenericEventHandler,"ax",%progbits
 262              		.align	2
 263              		.global	GenericEventHandler
 264              		.code	16
 265              		.thumb_func
 266              		.type	GenericEventHandler, %function
 267              	GenericEventHandler:
 268              	.LFB36:
 269              		.file 1 "ble_process.c"
   1:ble_process.c **** /*******************************************************************************
   2:ble_process.c **** * File Name: ble_process.c
   3:ble_process.c **** *
   4:ble_process.c **** * Version: 1.0
   5:ble_process.c **** *
   6:ble_process.c **** * Description:
   7:ble_process.c **** * This file contains the definiton for BLE related functions, such as event handler,
   8:ble_process.c **** * GAP role switching, central scanning and connection to peripherals.
   9:ble_process.c **** *
  10:ble_process.c **** ********************************************************************************
  11:ble_process.c **** * Copyright 2015, Cypress Semiconductor Corporation.  All rights reserved.
  12:ble_process.c **** * You may use this file only in accordance with the license, terms, conditions,
  13:ble_process.c **** * disclaimers, and limitations in the end user license agreement accompanying
  14:ble_process.c **** * the software package with which this file was provided.
  15:ble_process.c **** *******************************************************************************/
  16:ble_process.c **** 
  17:ble_process.c **** #include <main.h>
  18:ble_process.c **** 
  19:ble_process.c **** uint8 RGBData[4];
  20:ble_process.c **** uint8 tempData[4];
  21:ble_process.c **** uint8 recvTempData[4];
  22:ble_process.c **** uint8 dataADVCounter = 1;
  23:ble_process.c **** uint8 switch_Role = FALSE;
  24:ble_process.c **** 
  25:ble_process.c **** uint16 node_address = 0;
  26:ble_process.c **** extern uint16 sensorReceiveStartedTime;
  27:ble_process.c **** 
  28:ble_process.c **** #ifdef ENABLE_ADV_DATA_COUNTER
  29:ble_process.c **** CYBLE_GAPP_DISC_DATA_T  new_advData;
  30:ble_process.c **** uint8 potential_node_found = 0;
  31:ble_process.c **** uint8 potential_node_bdAddr[6];
  32:ble_process.c **** uint8 potential_node_bdAddrType = 0;
  33:ble_process.c **** #endif
  34:ble_process.c **** 
  35:ble_process.c **** /* DO NOT CHANGE: This tag allows system to filter the correct nodes and resemble to 
  36:ble_process.c **** * value set in BLE component Scan Response Packet settings */
  37:ble_process.c **** uint8 scan_tag[SCAN_TAG_DATA_LEN] = {0x13, 0x21, 0x31, 0x01, 0x9B, 0x5F, 0x80, 0x00,
  38:ble_process.c **** 									0x00, 0x80, 0x00, 0x10, 0x00, 0x00, 0xBB, 0xC2, 
  39:ble_process.c **** 									0x03, 0x00, 0xBB, 0xCB};
  40:ble_process.c **** 
  41:ble_process.c **** CYBLE_GAP_BD_ADDR_T				peripAddr;
  42:ble_process.c **** volatile uint8 clientConnectToDevice = FALSE;
  43:ble_process.c **** uint8 ble_gap_state = BLE_PERIPHERAL;
  44:ble_process.c **** 
  45:ble_process.c **** uint8 deviceConnected = FALSE;
  46:ble_process.c **** uint8 restartScanning = FALSE;
  47:ble_process.c **** volatile uint16 centralStartedTime = 0;
  48:ble_process.c **** char val[31];
ARM GAS  C:\Users\run1009\AppData\Local\Temp\ccJxhBPK.s 			page 9


  49:ble_process.c **** //uint8 bt_addr[6] = {0x04,0x27,0xA8,0x1B,0x00,0xC4};
  50:ble_process.c **** uint8 bt_addr[6] = {0x00,0x00,0x00,0x00,0x00,0x00};
  51:ble_process.c **** ENV_SENSOR_T                    result;
  52:ble_process.c **** #ifdef RESTART_BLE_STACK
  53:ble_process.c **** extern uint8 stackRestartIssued;
  54:ble_process.c **** #endif
  55:ble_process.c **** /*******************************************************************************
  56:ble_process.c **** * Function Name: GenericEventHandler
  57:ble_process.c **** ********************************************************************************
  58:ble_process.c **** * Summary:
  59:ble_process.c **** *        Event handler function for the BLE stack. All the events by BLE stack
  60:ble_process.c **** * are received by application through this function. For this, CyBle_ProcessEvents()
  61:ble_process.c **** * should be called continuously in main loop and wherever required.
  62:ble_process.c **** *
  63:ble_process.c **** * Parameters:
  64:ble_process.c **** *  event: 		event value
  65:ble_process.c **** *  eventParame: pointer to the location where relevant event data is stored
  66:ble_process.c **** *
  67:ble_process.c **** * Return:
  68:ble_process.c **** *  void
  69:ble_process.c **** *
  70:ble_process.c **** *******************************************************************************/
  71:ble_process.c **** void GenericEventHandler(uint32 event, void * eventParam)
  72:ble_process.c **** {
 270              		.loc 1 72 0
 271              		.cfi_startproc
 272              		@ args = 0, pretend = 0, frame = 264
 273              		@ frame_needed = 1, uses_anonymous_args = 0
 274 0000 90B5     		push	{r4, r7, lr}
 275              		.cfi_def_cfa_offset 12
 276              		.cfi_offset 4, -12
 277              		.cfi_offset 7, -8
 278              		.cfi_offset 14, -4
 279 0002 C3B0     		sub	sp, sp, #268
 280              		.cfi_def_cfa_offset 280
 281 0004 00AF     		add	r7, sp, #0
 282              		.cfi_def_cfa_register 7
 283 0006 F864     		str	r0, [r7, #76]
 284 0008 B964     		str	r1, [r7, #72]
  73:ble_process.c **** 	/* Local variables and data structures*/
  74:ble_process.c **** 	CYBLE_GATTS_WRITE_REQ_PARAM_T 		writeReqData;
  75:ble_process.c **** 	CYBLE_GATTC_WRITE_REQ_T				writeADVcounterdata;
  76:ble_process.c **** 	CYBLE_GAPC_ADV_REPORT_T				scan_report;
  77:ble_process.c **** 	CYBLE_GATTS_WRITE_CMD_REQ_PARAM_T	writeCmdData;
  78:ble_process.c **** 	CYBLE_API_RESULT_T					apiResult;
  79:ble_process.c **** 	CYBLE_GATTC_WRITE_REQ_T 			writeRGBdata;
  80:ble_process.c ****     CYBLE_GATTC_READ_BLOB_REQ_T         readBlobdata;
  81:ble_process.c **** 	static uint16 						received_node_addr ;
  82:ble_process.c **** 	static uint8 						received_node_addr_type ;
  83:ble_process.c **** 
  84:ble_process.c **** 	
  85:ble_process.c **** 	#if (DEBUG_ENABLED == 1)
  86:ble_process.c **** 	CYBLE_GAP_BD_ADDR_T					gap_bdaddr;
  87:ble_process.c **** 	#endif
  88:ble_process.c ****     	
  89:ble_process.c **** 	switch(event)
 285              		.loc 1 89 0
ARM GAS  C:\Users\run1009\AppData\Local\Temp\ccJxhBPK.s 			page 10


 286 000a FB6C     		ldr	r3, [r7, #76]
 287 000c 412B     		cmp	r3, #65
 288 000e 00D1     		bne	.LCB17
 289 0010 ACE0     		b	.L3	@long jump
 290              	.LCB17:
 291 0012 16D8     		bhi	.L4
 292 0014 262B     		cmp	r3, #38
 293 0016 00D1     		bne	.LCB21
 294 0018 67E0     		b	.L5	@long jump
 295              	.LCB21:
 296 001a 06D8     		bhi	.L6
 297 001c 012B     		cmp	r3, #1
 298 001e 29D0     		beq	.L7
 299 0020 202B     		cmp	r3, #32
 300 0022 00D1     		bne	.LCB27
 301 0024 BBE2     		b	.L8	@long jump
 302              	.LCB27:
 303              	.LBB2:
  90:ble_process.c **** 	{
  91:ble_process.c **** 		case CYBLE_EVT_STACK_ON:
  92:ble_process.c **** 			#if (DEBUG_ENABLED == 1)
  93:ble_process.c **** 			UART_UartPutString("CYBLE_EVT_STACK_ON ");
  94:ble_process.c **** 			UART_UartPutCRLF(' ');
  95:ble_process.c **** 			#endif
  96:ble_process.c **** 			
  97:ble_process.c **** 			#ifdef RESTART_BLE_STACK
  98:ble_process.c **** 			if(!stackRestartIssued)
  99:ble_process.c **** 			{
 100:ble_process.c **** 			#endif
 101:ble_process.c **** 				/* At the start of the BLE stack, start advertisement */
 102:ble_process.c **** 				apiResult = CyBle_GappStartAdvertisement(CYBLE_ADVERTISING_FAST);
 103:ble_process.c **** 				
 104:ble_process.c **** 				if(CYBLE_ERROR_OK == apiResult)
 105:ble_process.c **** 				{
 106:ble_process.c **** 					/* Set the BLE gap state flag */
 107:ble_process.c **** 					ble_gap_state = BLE_PERIPHERAL;
 108:ble_process.c **** 				}
 109:ble_process.c **** 			#ifdef RESTART_BLE_STACK
 110:ble_process.c **** 				
 111:ble_process.c **** 			}
 112:ble_process.c **** 			else
 113:ble_process.c **** 			{
 114:ble_process.c **** 				apiResult = CyBle_GapcStartScan(CYBLE_SCANNING_FAST);
 115:ble_process.c **** 					
 116:ble_process.c **** 				if(CYBLE_ERROR_OK == apiResult)
 117:ble_process.c **** 				{
 118:ble_process.c **** 					#if (DEBUG_ENABLED == 1)
 119:ble_process.c **** 					UART_UartPutString("Start scan after Stack RESET ");
 120:ble_process.c **** 					UART_UartPutCRLF(' ');
 121:ble_process.c **** 					#endif
 122:ble_process.c **** 					
 123:ble_process.c **** 					/* Record the time at which Central role was started. This will be 
 124:ble_process.c **** 					* used for timeout and switching to Peripheral operation*/
 125:ble_process.c **** 					centralStartedTime = WatchDog_CurrentCount();
 126:ble_process.c **** 					
 127:ble_process.c **** 					/* Update the current BLE role to Central */
 128:ble_process.c **** 					ble_gap_state = BLE_CENTRAL;
ARM GAS  C:\Users\run1009\AppData\Local\Temp\ccJxhBPK.s 			page 11


 129:ble_process.c **** 				}
 130:ble_process.c **** 			}
 131:ble_process.c **** 			
 132:ble_process.c **** 			/*Reset stackRestartIssued flag */
 133:ble_process.c **** 			stackRestartIssued = FALSE;
 134:ble_process.c **** 			#endif
 135:ble_process.c **** 		break;
 136:ble_process.c **** 			
 137:ble_process.c **** 		case CYBLE_EVT_GAPP_ADVERTISEMENT_START_STOP:
 138:ble_process.c **** 			/* This event is received at every start or stop of peripheral advertisement*/
 139:ble_process.c **** 			#if (DEBUG_ENABLED == 1)
 140:ble_process.c **** 			//UART_UartPutString("CYBLE_EVT_GAPP_ADVERTISEMENT_START_STOP :");
 141:ble_process.c **** 			//PrintHex(*(uint8*)eventParam);
 142:ble_process.c **** 			//SendBLEStatetoUART(CyBle_GetState());
 143:ble_process.c **** 			//UART_UartPutCRLF(' ');
 144:ble_process.c **** 			#endif
 145:ble_process.c **** 			
 146:ble_process.c **** 			if((CYBLE_STATE_DISCONNECTED == CyBle_GetState()) && (switch_Role == FALSE))
 147:ble_process.c **** 			{
 148:ble_process.c **** 				/* If the current state of the BLE is Disconnected, then restart advertisement.
 149:ble_process.c **** 				* Note that the advertisement should only be restarted if the switch flag is not
 150:ble_process.c **** 				* TRUE. If switch role flag is TRUE, then there is no need to start advertisement
 151:ble_process.c **** 				* as the GAP role has to be switched*/
 152:ble_process.c **** 				apiResult = CyBle_GappStartAdvertisement(CYBLE_ADVERTISING_FAST);	
 153:ble_process.c **** 				
 154:ble_process.c **** 				if(apiResult == CYBLE_ERROR_OK)
 155:ble_process.c **** 				{
 156:ble_process.c **** 					#if (DEBUG_ENABLED == 1)
 157:ble_process.c **** 					UART_UartPutString("Restart Advertisement ");
 158:ble_process.c **** 					SendBLEStatetoUART(CyBle_GetState());
 159:ble_process.c **** 					UART_UartPutCRLF(' ');
 160:ble_process.c **** 					#endif
 161:ble_process.c **** 				}
 162:ble_process.c **** 			}
 163:ble_process.c **** 		break;
 164:ble_process.c ****             
 165:ble_process.c ****         case CYBLE_EVT_GATTC_READ_BLOB_RSP:
 166:ble_process.c ****             //CyBle_ReadByTypeEventHandler((CYBLE_GATTC_READ_BY_TYPE_RSP_PARAM_T *)eventParam);
 167:ble_process.c ****             UART_UartPutString("CYBLE_EVT_GATTC_READ_BLOB_RSP :");
 168:ble_process.c ****             break;
 169:ble_process.c **** 			
 170:ble_process.c **** 		case CYBLE_EVT_GAPC_SCAN_START_STOP:
 171:ble_process.c **** 			/* This event is received at every start or stop of central scanning*/
 172:ble_process.c **** 			#if (DEBUG_ENABLED == 1)
 173:ble_process.c **** 			UART_UartPutString("CYBLE_EVT_GAPC_SCAN_START_STOP :");
 174:ble_process.c **** 			PrintHex(*(uint8*)eventParam);
 175:ble_process.c **** 			SendBLEStatetoUART(CyBle_GetState());
 176:ble_process.c **** 			UART_UartPutCRLF(' ');
 177:ble_process.c **** 			#endif
 178:ble_process.c **** 		break;
 179:ble_process.c **** 			
 180:ble_process.c **** 		case CYBLE_EVT_GATT_CONNECT_IND:
 181:ble_process.c **** 			/* This event is received at GATT connection with a device. This event
 182:ble_process.c **** 			* is received for both Client or Server role */
 183:ble_process.c **** 			#if (DEBUG_ENABLED == 1)
 184:ble_process.c **** 			UART_UartPutString("122 ");
 185:ble_process.c **** 			UART_UartPutCRLF(' ');
ARM GAS  C:\Users\run1009\AppData\Local\Temp\ccJxhBPK.s 			page 12


 186:ble_process.c ****             /*
 187:ble_process.c ****             writeReqData = *(CYBLE_GATTS_WRITE_REQ_PARAM_T*)eventParam;
 188:ble_process.c ****                         int index = 0;
 189:ble_process.c ****                         UART_UartPutString("writeReqData: ");
 190:ble_process.c ****                         for(int i=0;i<writeReqData.handleValPair.value.len;i++){
 191:ble_process.c ****                             char val = writeReqData.handleValPair.value.val[i];
 192:ble_process.c ****                             PrintHex(val);
 193:ble_process.c ****                         }
 194:ble_process.c ****             */
 195:ble_process.c **** 			#endif
 196:ble_process.c **** 		break;
 197:ble_process.c **** 		
 198:ble_process.c **** 		case CYBLE_EVT_GATT_DISCONNECT_IND:
 199:ble_process.c **** 			/* This event is received at GATT disconnection with a device. This event
 200:ble_process.c **** 			* is received for both Client or Server role */
 201:ble_process.c **** 			#if (DEBUG_ENABLED == 1)
 202:ble_process.c **** 			UART_UartPutString("CYBLE_EVT_GATT_DISCONNECT_IND ");
 203:ble_process.c **** 			UART_UartPutCRLF(' ');
 204:ble_process.c **** 			#endif
 205:ble_process.c **** 		break;
 206:ble_process.c **** 			
 207:ble_process.c **** 		case CYBLE_EVT_GATTS_WRITE_REQ:
 208:ble_process.c **** 			/* This event is received at when Server receives a Write request from */
 209:ble_process.c **** 			
 210:ble_process.c **** 			/* Save the associated event parameter in local variable */
 211:ble_process.c ****             writeReqData = *(CYBLE_GATTS_WRITE_REQ_PARAM_T*)eventParam;
 212:ble_process.c ****             
 213:ble_process.c ****             /* connected Client device */
 214:ble_process.c ****             #if (DEBUG_ENABLED == 1)
 215:ble_process.c ****                         UART_UartPutString("CYBLE_EVT_GATTS_WRITE_REQ ");  
 216:ble_process.c ****                         PrintHex(writeReqData.handleValPair.attrHandle);
 217:ble_process.c ****                         
 218:ble_process.c ****                         UART_UartPutCRLF(' ');
 219:ble_process.c **** 			#endif
 220:ble_process.c **** 			if(writeReqData.handleValPair.attrHandle == CYBLE_NODE_ADDRESS_CHAR_HANDLE)
 221:ble_process.c **** 			{
 222:ble_process.c **** 				/* If the Write request is on Node Address Characteristic, then Client is 
 223:ble_process.c **** 				* trying to set a node address to this device */
 224:ble_process.c **** 				if(writeReqData.handleValPair.value.len == NODE_ADDR_DATA_LEN)
 225:ble_process.c **** 				{
 226:ble_process.c **** 					#if (DEBUG_ENABLED == 1)
 227:ble_process.c **** 					UART_UartPutString("Node Address Written: ");
 228:ble_process.c **** 					#endif
 229:ble_process.c **** 					/* Extract the node address from the event parameter */
 230:ble_process.c **** 					node_address = (uint16)(((uint16)writeReqData.handleValPair.value.val[NODE_ADDR_MSB_VAL_INDEX]
 231:ble_process.c **** 													| writeReqData.handleValPair.value.val[NODE_ADDR_LSB_VAL_INDEX]);
 232:ble_process.c **** 					
 233:ble_process.c **** 					if(node_address == 0x0000 || node_address == 0xFFFF)
 234:ble_process.c **** 					{
 235:ble_process.c **** 						/* A node address with value 0x0000 or 0xFFFF is invalid. Sent the 
 236:ble_process.c **** 						* appropriate error code to the Client device*/
 237:ble_process.c **** 						SendErrorCode(CYBLE_GATT_WRITE_REQ, 
 238:ble_process.c **** 										writeReqData.handleValPair.attrHandle, 
 239:ble_process.c **** 										ERR_INVALID_PDU);
 240:ble_process.c **** 						
 241:ble_process.c **** 						#if (DEBUG_ENABLED == 1)
 242:ble_process.c **** 							UART_UartPutString("Error ERR_INVALID_PDU ");
ARM GAS  C:\Users\run1009\AppData\Local\Temp\ccJxhBPK.s 			page 13


 243:ble_process.c **** 						#endif
 244:ble_process.c **** 						/* Reset Node Address and return */
 245:ble_process.c **** 						node_address = 0x0000;
 246:ble_process.c **** 						
 247:ble_process.c **** 						return;
 248:ble_process.c **** 					}
 249:ble_process.c **** 					else
 250:ble_process.c **** 					{
 251:ble_process.c **** 						/* If node address is valid, then save the value */
 252:ble_process.c **** 						#ifdef STORE_SFLASH_NODE_ADDRESS
 253:ble_process.c **** 							/* Save the set node address to user SFLASH to allow it to be
 254:ble_process.c **** 							* permanently set. This will still exist even on device reset. */
 255:ble_process.c **** 							UpdateSFlashNodeAddress(node_address);
 256:ble_process.c **** 						#endif
 257:ble_process.c **** 						
 258:ble_process.c **** 						/* Update the Node address Characteristic GATT DB value so that Client 
 259:ble_process.c **** 						* can read the current set node address */
 260:ble_process.c **** 						CyBle_GattsWriteAttributeValue(&writeReqData.handleValPair,
 261:ble_process.c **** 														0,
 262:ble_process.c **** 														&cyBle_connHandle,
 263:ble_process.c **** 														CYBLE_GATT_DB_LOCALLY_INITIATED);
 264:ble_process.c **** 						
 265:ble_process.c **** 						#if (DEBUG_ENABLED == 1)
 266:ble_process.c **** 							UART_UartPutCRLF(' ');
 267:ble_process.c **** 						#endif
 268:ble_process.c **** 						
 269:ble_process.c **** 						/* Reset the name of the device to 'Titan'. This indicates to the Central
 270:ble_process.c **** 						* device that the device has valie node address set */
 271:ble_process.c **** 						new_advData.advData[ADV_DATA_NAME_START_INDEX] = 'T';
 272:ble_process.c **** 						new_advData.advData[ADV_DATA_NAME_START_INDEX+1] = 'i';
 273:ble_process.c **** 						new_advData.advData[ADV_DATA_NAME_START_INDEX+2] = 't';
 274:ble_process.c **** 						new_advData.advData[ADV_DATA_NAME_START_INDEX+3] = 'a';
 275:ble_process.c **** 						new_advData.advData[ADV_DATA_NAME_START_INDEX+4] = 'n';
 276:ble_process.c **** 					}
 277:ble_process.c **** 				}
 278:ble_process.c **** 				else	/* if(writeReqData.handleValPair.value.len == NODE_ADDR_DATA_LEN) */
 279:ble_process.c **** 				{
 280:ble_process.c **** 						/* If the length of the data sent from the Client does not match the
 281:ble_process.c **** 						* expected data length on Node Address characteristic, then send a 
 282:ble_process.c **** 						* Error code indicating invalid length */
 283:ble_process.c **** 						SendErrorCode(CYBLE_GATT_WRITE_REQ, 
 284:ble_process.c **** 										writeReqData.handleValPair.attrHandle, 
 285:ble_process.c **** 										ERR_INVALID_ATT_LEN);
 286:ble_process.c **** 						node_address = 0x0000;
 287:ble_process.c **** 						UART_UartPutString("node_address = 0 ");
 288:ble_process.c ****                         UART_UartPutCRLF(' ');
 289:ble_process.c **** 						/* Do not proceed further */
 290:ble_process.c **** 						return;
 291:ble_process.c **** 				}
 292:ble_process.c **** 			}
 293:ble_process.c **** 		if(writeReqData.handleValPair.attrHandle == CYBLE_TEMP_DATA_CONTROL_CHAR_HANDLE)
 294:ble_process.c **** 			{
 295:ble_process.c **** 				/* If the Write request is on RGB LED Control Characteristic, then Client is 
 296:ble_process.c **** 				* trying to set a new color to the device. */
 297:ble_process.c **** 				/* Proceed with color setting only if the node address has been set for the 
 298:ble_process.c **** 				* device. Else, send error code */
 299:ble_process.c **** 				if(node_address != 0)
ARM GAS  C:\Users\run1009\AppData\Local\Temp\ccJxhBPK.s 			page 14


 300:ble_process.c **** 				{
 301:ble_process.c **** 					/* If the data length of the received data meets the expected data 
 302:ble_process.c **** 					* length, then proceeed. Else send error code */
 303:ble_process.c ****                     
 304:ble_process.c **** 					if(writeReqData.handleValPair.value.len == TEMP_DATA_LEN)
 305:ble_process.c **** 					{
 306:ble_process.c **** 						#if (DEBUG_ENABLED == 1)
 307:ble_process.c **** 							UART_UartPutString("TEMP CYBLE_EVT_GATTS_WRITE_REQ ");
 308:ble_process.c **** 							UART_UartPutCRLF(' ');
 309:ble_process.c **** 						#endif
 310:ble_process.c **** 						
 311:ble_process.c **** 						/* Extract the node address and its type sent as part of the RGB LED control data.  
 312:ble_process.c **** 						* The first byte is node address type (piconet addressing or not).
 313:ble_process.c **** 						* The third and fourth bytes of the received data has the desired node address */
 314:ble_process.c **** 						received_node_addr_type = writeReqData.handleValPair.value.val[DATA_NODE_ADDR_TYPE_INDEX];
 315:ble_process.c **** 						received_node_addr = (uint16)(((uint16)writeReqData.handleValPair.value.val[DATA_NODE_ADDR_MS
 316:ble_process.c **** 													| writeReqData.handleValPair.value.val[DATA_NODE_ADDR_LSB_INDEX]);
 317:ble_process.c **** 						
 318:ble_process.c **** 						/* Next four bytes contain the color value. Store the temperature Value */
 319:ble_process.c ****                         
 320:ble_process.c **** 						recvTempData[RGB_RED_INDEX] = writeReqData.handleValPair.value.val[RGB_RED_INDEX];
 321:ble_process.c **** 						recvTempData[RGB_GREEN_INDEX] = writeReqData.handleValPair.value.val[RGB_GREEN_INDEX];
 322:ble_process.c **** 						recvTempData[RGB_BLUE_INDEX] = writeReqData.handleValPair.value.val[RGB_BLUE_INDEX];
 323:ble_process.c **** 					    recvTempData[RGB_INTENSITY_INDEX] = writeReqData.handleValPair.value.val[RGB_INTENSITY_IND
 324:ble_process.c ****                         
 325:ble_process.c ****                         UART_UartPutString("tempData: ");
 326:ble_process.c ****                         for(int i=0;i<writeReqData.handleValPair.value.len;i++)
 327:ble_process.c ****                             PrintHex(writeReqData.handleValPair.value.val[i]);
 328:ble_process.c **** 						UART_UartPutCRLF(' ');
 329:ble_process.c ****                         
 330:ble_process.c ****                         char* temperture = ftoa(Byte2Short(recvTempData[RGB_RED_INDEX],recvTempData
 331:ble_process.c ****                         UART_UartPutString("receive temperature: ");
 332:ble_process.c ****                         UART_UartPutString(temperture);
 333:ble_process.c ****                         UART_UartPutCRLF(' ');
 334:ble_process.c **** 						
 335:ble_process.c **** 						if(writeReqData.handleValPair.value.val[DATA_NODE_ADDR_TYPE_INDEX] == NODE_ADDR_TYPE_PICONET)
 336:ble_process.c **** 						{
 337:ble_process.c **** 							/* If the Address type in received packet is of Piconet type, then update data
 338:ble_process.c **** 							* for all nodes in a Piconet. Nodes in Piconet have the same MSB in address */
 339:ble_process.c **** 							if((received_node_addr & PICONET_SUBMASK) == (node_address & PICONET_SUBMASK))
 340:ble_process.c **** 							{
 341:ble_process.c **** 								/* If the MSB of node address matches the MSB of address in write request packet, 
 342:ble_process.c **** 								* then the Piconet address matches; change the RGB Color */
 343:ble_process.c **** 								//UpdateRGBled(RGBData, RGB_PAYLOAD_LEN);
 344:ble_process.c **** 								
 345:ble_process.c **** 								/* Update the RGB LED Control characteristic in GATT DB  to allow
 346:ble_process.c **** 								* Client to read the latest RGB LED color value set */
 347:ble_process.c **** 								CyBle_GattsWriteAttributeValue(&writeReqData.handleValPair,0,&cyBle_connHandle,CYBLE_GATT_D
 348:ble_process.c **** 								
 349:ble_process.c **** 								#if (DEBUG_ENABLED == 1)
 350:ble_process.c ****                                    
 351:ble_process.c **** 									UART_UartPutString("UpdateTempData ");
 352:ble_process.c **** 									SendBLEStatetoUART(CyBle_GetState());
 353:ble_process.c **** 									UART_UartPutCRLF(' ');
 354:ble_process.c **** 								#endif
 355:ble_process.c **** 							}
 356:ble_process.c **** 						}
ARM GAS  C:\Users\run1009\AppData\Local\Temp\ccJxhBPK.s 			page 15


 357:ble_process.c **** 						else
 358:ble_process.c **** 						{
 359:ble_process.c **** 							/* If the Address type in received packet is NOT of Piconet type, then update data
 360:ble_process.c **** 							* for particular node or all nodes, depending on address. */
 361:ble_process.c **** 							if((received_node_addr == node_address) ||
 362:ble_process.c **** 								(received_node_addr == BROADCAST_ADDR))
 363:ble_process.c **** 							{
 364:ble_process.c **** 								/* If the node address matches the address in write request packet, 
 365:ble_process.c **** 								* or if the address is broadcast all, change the RGB Color */
 366:ble_process.c **** 								//UpdateRGBled(RGBData, RGB_PAYLOAD_LEN);
 367:ble_process.c **** 								
 368:ble_process.c **** 								/* Update the RGB LED Control characteristic in GATT DB  to allow
 369:ble_process.c **** 								* Client to read the latest RGB LED color value set */
 370:ble_process.c **** 								CyBle_GattsWriteAttributeValue(&writeReqData.handleValPair,0,&cyBle_connHandle,CYBLE_GATT_D
 371:ble_process.c **** 								
 372:ble_process.c **** 								#if (DEBUG_ENABLED == 1)
 373:ble_process.c ****                                     /*
 374:ble_process.c **** 									UART_UartPutString("UpdateRGBled ");
 375:ble_process.c **** 									SendBLEStatetoUART(CyBle_GetState());
 376:ble_process.c **** 									UART_UartPutCRLF(' ');*/
 377:ble_process.c **** 								#endif
 378:ble_process.c **** 							}
 379:ble_process.c **** 						}
 380:ble_process.c **** 						
 381:ble_process.c **** 						#ifdef ENABLE_ADV_DATA_COUNTER
 382:ble_process.c **** 						/* Increment the ADV data counter so that scanning Central device knows
 383:ble_process.c **** 						* if this device has updated RGB LED data or not */
 384:ble_process.c **** 						dataADVCounter++;
 385:ble_process.c **** 						#endif
 386:ble_process.c **** 						
 387:ble_process.c **** 						#if (DEBUG_ENABLED == 1)
 388:ble_process.c **** 						UART_UartPutString("incremented dataADVCounter value in CYBLE_EVT_GATTS_WRITE_REQ= ");
 389:ble_process.c **** 						PrintNum(dataADVCounter);
 390:ble_process.c **** 						UART_UartPutCRLF(' ');
 391:ble_process.c ****                         
 392:ble_process.c **** 						#endif
 393:ble_process.c **** 						
 394:ble_process.c **** 						/* After receiveing the color value, set the switch role flag to allow the system
 395:ble_process.c **** 						* to switch role to Central role */
 396:ble_process.c **** 						switch_Role = TRUE;
 397:ble_process.c **** 						
 398:ble_process.c **** 						#if (DEBUG_ENABLED == 1)
 399:ble_process.c **** 						UART_UartPutString("switchRole to Central");
 400:ble_process.c **** 						UART_UartPutCRLF(' ');
 401:ble_process.c **** 						#endif
 402:ble_process.c **** 					}
 403:ble_process.c **** 					else	/* if(writeReqData.handleValPair.value.len == RGB_LED_DATA_LEN) */
 404:ble_process.c **** 					{
 405:ble_process.c **** 						/* Send the error code for invalid attribute length packet */
 406:ble_process.c **** 						SendErrorCode(CYBLE_GATT_WRITE_REQ, 
 407:ble_process.c **** 										writeReqData.handleValPair.attrHandle, 
 408:ble_process.c **** 										ERR_INVALID_ATT_LEN);
 409:ble_process.c **** 						return;
 410:ble_process.c **** 					}	/* if(writeReqData.handleValPair.value.len == RGB_LED_DATA_LEN) */
 411:ble_process.c **** 				}
 412:ble_process.c **** 				else	/* if(node_address != 0) */
 413:ble_process.c **** 				{
ARM GAS  C:\Users\run1009\AppData\Local\Temp\ccJxhBPK.s 			page 16


 414:ble_process.c **** 						/* As the node has not been assigned any address yet, send a error response to RGB
 415:ble_process.c **** 						* LED data Write request*/
 416:ble_process.c **** 						SendErrorCode(CYBLE_GATT_WRITE_REQ, 
 417:ble_process.c **** 										writeReqData.handleValPair.attrHandle, 
 418:ble_process.c **** 										ERR_INSUFF_RESOURCE);
 419:ble_process.c **** 						return;
 420:ble_process.c **** 				}
 421:ble_process.c **** 			}
 422:ble_process.c **** 			
 423:ble_process.c **** 			/* As part of every write request, the server needs to send a write response. Note
 424:ble_process.c **** 			* that this will be sent only if all the application layer conditions are met on a 
 425:ble_process.c **** 			* write request. Else, an appropriate error code is sent. */
 426:ble_process.c **** 	        CyBle_GattsWriteRsp(cyBle_connHandle);
 427:ble_process.c **** 		break;
 428:ble_process.c **** 			
 429:ble_process.c **** 		case CYBLE_EVT_GATTS_WRITE_CMD_REQ:
 430:ble_process.c **** 			/* This event is generated whenever a Client device sends a Write Command (Write 
 431:ble_process.c **** 			* without response) to a connected Server. Save the associated event parameter in
 432:ble_process.c **** 			* local variable. */
 433:ble_process.c **** 			writeCmdData = *(CYBLE_GATTS_WRITE_CMD_REQ_PARAM_T*)eventParam;
 434:ble_process.c **** 			
 435:ble_process.c **** 			/* Entertain the Write command only when the node address has been set to a valid 
 436:ble_process.c **** 			* value. Else, ignore the request. */
 437:ble_process.c **** 			if(node_address != 0)
 438:ble_process.c **** 			{
 439:ble_process.c **** 				/* Check if the Write command is for ADV Data counter characteristic */
 440:ble_process.c **** 				if(writeCmdData.handleValPair.attrHandle == CYBLE_RGB_DATA_COUNT_CHAR_HANDLE)
 441:ble_process.c **** 				{
 442:ble_process.c **** 					/* If the data sent is of one byte, then proceed. */
 443:ble_process.c **** 					if(writeCmdData.handleValPair.value.len == 1)
 444:ble_process.c **** 					{
 445:ble_process.c **** 						/* Extract and save the set ADV data counter value */
 446:ble_process.c **** 						dataADVCounter = *(writeCmdData.handleValPair.value.val);
 447:ble_process.c **** 						
 448:ble_process.c **** 						/* This increment is done to balance the ++ done as part of CYBLE_EVT_GATTS_WRITE_REQ */
 449:ble_process.c **** 						dataADVCounter--;
 450:ble_process.c **** 						
 451:ble_process.c **** 						/* Update the ADV data counter characteristic in GATT DB  to allow
 452:ble_process.c **** 						* Client to read the latest ADV data counter value */
 453:ble_process.c **** 						CyBle_GattsWriteAttributeValue(&writeCmdData.handleValPair,
 454:ble_process.c **** 														0,
 455:ble_process.c **** 														&cyBle_connHandle,
 456:ble_process.c **** 														CYBLE_GATT_DB_LOCALLY_INITIATED);
 457:ble_process.c **** 						
 458:ble_process.c **** 						#if (DEBUG_ENABLED == 1)
 459:ble_process.c **** 						UART_UartPutString("dataADVCounter from CYBLE_EVT_GATTS_WRITE_CMD_REQ = ");
 460:ble_process.c **** 						PrintNum(dataADVCounter);
 461:ble_process.c **** 						UART_UartPutCRLF(' ');
 462:ble_process.c **** 						#endif
 463:ble_process.c **** 					} /* if(writeCmdData.handleValPair.value.len == 1) */
 464:ble_process.c ****                    
 465:ble_process.c **** 				}
 466:ble_process.c **** 			}	/* if(node_address != 0) */
 467:ble_process.c **** 			break;
 468:ble_process.c **** 		
 469:ble_process.c **** 		case CYBLE_EVT_GAPC_SCAN_PROGRESS_RESULT:
 470:ble_process.c **** 			/* This event is generated whenever there is a peripheral device found by 
ARM GAS  C:\Users\run1009\AppData\Local\Temp\ccJxhBPK.s 			page 17


 471:ble_process.c **** 			* while scanning */
 472:ble_process.c **** 			if(CYBLE_STATE_CONNECTED != CyBle_GetState())	
 473:ble_process.c **** 			{
 474:ble_process.c **** 				/* If we are not connected to any peripheral device, then save the new device  
 475:ble_process.c **** 				* information so to add it to our list */
 476:ble_process.c **** 				scan_report = *(CYBLE_GAPC_ADV_REPORT_T*)eventParam;
 477:ble_process.c **** 				
 478:ble_process.c **** 				#if (DEBUG_ENABLED == 1)
 479:ble_process.c ****                     
 480:ble_process.c **** 					//UART_UartPutString("CYBLE_EVT_GAPC_SCAN_PROGRESS_RESULT ");
 481:ble_process.c ****                     //UART_UartPutCRLF(' ');
 482:ble_process.c ****                     //UART_UartPutCRLF(' ');
 483:ble_process.c ****                     
 484:ble_process.c **** 				#endif
 485:ble_process.c **** 				
 486:ble_process.c **** 				#ifdef ENABLE_ADV_DATA_COUNTER
 487:ble_process.c **** 				/* If ADV DATA COUNTER is enabled, then the central device would check
 488:ble_process.c **** 				* if the counter in ADV packet of peripheral is less than its own counter
 489:ble_process.c **** 				* or not. If yes, then it will consider the peripheral has a older RGB LED
 490:ble_process.c **** 				* data and treat it as a potential device to connect to.*/
 491:ble_process.c **** 				if(scan_report.eventType == CYBLE_GAPC_CONN_UNDIRECTED_ADV)
 492:ble_process.c **** 				{                          
 493:ble_process.c **** 					/* If the scan report received is of advertising nature and the data 
 494:ble_process.c **** 					* length is as expected... */
 495:ble_process.c ****                     
 496:ble_process.c **** 					if(scan_report.dataLen == new_advData.advDataLen)
 497:ble_process.c **** 					{
 498:ble_process.c **** 						/* If the second last value of the advertising data matches the custom 
 499:ble_process.c **** 						* marker, then the peripheral is a node of the network */
 500:ble_process.c **** 						if(scan_report.data[scan_report.dataLen-2] == CUSTOM_ADV_DATA_MARKER)
 501:ble_process.c **** 						{
 502:ble_process.c **** 							/* If the ADV counter data in Advertising data is less than that of
 503:ble_process.c **** 							* the value in this scanning device, then the node is a potential node 
 504:ble_process.c **** 							* whose color has to be updated. */
 505:ble_process.c **** 							if((scan_report.data[scan_report.dataLen-1] < dataADVCounter) ||
 506:ble_process.c **** 							((scan_report.data[scan_report.dataLen-1] == 255) && (dataADVCounter == 0)))
 507:ble_process.c **** 							{
 508:ble_process.c **** 								/* Potential node found*/
 509:ble_process.c **** 								potential_node_found = TRUE;
 510:ble_process.c **** 								/* Save the advertising peripheral address and type*/
 511:ble_process.c **** 								memcpy(potential_node_bdAddr, scan_report.peerBdAddr, 6);
 512:ble_process.c **** 								potential_node_bdAddrType = scan_report.peerAddrType;
 513:ble_process.c **** 								
 514:ble_process.c **** 								#if (DEBUG_ENABLED == 1)
 515:ble_process.c **** 								UART_UartPutString("potential_node_found ");
 516:ble_process.c **** 								UART_UartPutCRLF(' ');
 517:ble_process.c **** 								#endif
 518:ble_process.c **** 							}
 519:ble_process.c **** 							else
 520:ble_process.c **** 							{
 521:ble_process.c **** 								/* If the ADV data counter is equal or more than the data counter
 522:ble_process.c **** 								* in this scanning device, then the node has latest RGB LED data
 523:ble_process.c **** 								* and does not need to be connected to. Reset the potential node 
 524:ble_process.c **** 								* address */
 525:ble_process.c **** 								potential_node_found = FALSE;
 526:ble_process.c **** 								
 527:ble_process.c **** 								potential_node_bdAddrType = 0;
ARM GAS  C:\Users\run1009\AppData\Local\Temp\ccJxhBPK.s 			page 18


 528:ble_process.c **** 								
 529:ble_process.c **** 								potential_node_bdAddr[0] = 0x00;
 530:ble_process.c **** 								potential_node_bdAddr[1] = 0x00;
 531:ble_process.c **** 								potential_node_bdAddr[2] = 0x00;
 532:ble_process.c **** 								potential_node_bdAddr[3] = 0x00;
 533:ble_process.c **** 								potential_node_bdAddr[4] = 0x00;
 534:ble_process.c **** 								potential_node_bdAddr[5] = 0x00;
 535:ble_process.c **** 							}
 536:ble_process.c **** 						}
 537:ble_process.c ****                         
 538:ble_process.c ****                     }
 539:ble_process.c ****                     else{
 540:ble_process.c ****                     int check = 0;                   
 541:ble_process.c ****                     
 542:ble_process.c ****                     for(uint8 i=0u;i<6u;i++){
 543:ble_process.c ****                         if(scan_report.peerBdAddr[i] == bt_addr[i]){
 544:ble_process.c ****                             check++;   
 545:ble_process.c ****                         }
 546:ble_process.c ****                     }
 547:ble_process.c ****                     
 548:ble_process.c ****                     if(check == 6){
 549:ble_process.c ****                         /* Stop existing scan */
 550:ble_process.c ****     					CyBle_GapcStopScan();
 551:ble_process.c ****     					
 552:ble_process.c ****     					#if (DEBUG_ENABLED == 1)
 553:ble_process.c ****     					UART_UartPutString("Stop Scan called ");
 554:ble_process.c ****     					UART_UartPutCRLF(' ');
 555:ble_process.c ****                         UART_UartPutCRLF(' ');
 556:ble_process.c ****                
 557:ble_process.c ****                         UART_UartPutString("EVENType: ");
 558:ble_process.c ****                         char eventType[1];
 559:ble_process.c ****                         sprintf(eventType, "%d", scan_report.eventType);
 560:ble_process.c ****                         UART_UartPutString(eventType);
 561:ble_process.c ****                         UART_UartPutString("\r\n");
 562:ble_process.c ****                         UART_UartPutString("RSSI: ");
 563:ble_process.c ****                         char rssi[12];
 564:ble_process.c ****                         sprintf(rssi, "%d", scan_report.rssi);
 565:ble_process.c ****                         UART_UartPutString(rssi);
 566:ble_process.c ****                         UART_UartPutString("\r\n");
 567:ble_process.c ****                         UART_UartPutString("BLE Address: 0x");
 568:ble_process.c **** 
 569:ble_process.c ****                         PrintHex(scan_report.peerBdAddr[5u]);
 570:ble_process.c ****     				    PrintHex(scan_report.peerBdAddr[4u]);
 571:ble_process.c ****     				    PrintHex(scan_report.peerBdAddr[3u]);
 572:ble_process.c ****                         PrintHex(scan_report.peerBdAddr[2u]);
 573:ble_process.c ****                         PrintHex(scan_report.peerBdAddr[1u]);
 574:ble_process.c ****                         PrintHex(scan_report.peerBdAddr[0u]);
 575:ble_process.c ****                         
 576:ble_process.c ****                         UART_UartPutCRLF(' ');
 577:ble_process.c ****                         UART_UartPutCRLF(' ');
 578:ble_process.c ****     					
 579:ble_process.c ****                         UART_UartPutString("****************Device Found***************\r\n");
 580:ble_process.c **** 
 581:ble_process.c ****                         int index = 0;
 582:ble_process.c **** 
 583:ble_process.c ****                         for(int i=0;i<scan_report.dataLen;i++){
 584:ble_process.c ****                             val[i] = (uint8_t) scan_report.data[i];
ARM GAS  C:\Users\run1009\AppData\Local\Temp\ccJxhBPK.s 			page 19


 585:ble_process.c ****                         }
 586:ble_process.c ****               
 587:ble_process.c ****                         UART_UartPutCRLF(' ');                     
 588:ble_process.c ****                         
 589:ble_process.c ****                         EnvSensorProcess(scan_report.rssi,scan_report.data);
 590:ble_process.c ****                         result = GetSensorData();
 591:ble_process.c ****                         char* temp = ftoa(result.temp);
 592:ble_process.c ****                         UART_UartPutString("temperature: ");
 593:ble_process.c ****                         UART_UartPutString(temp);
 594:ble_process.c ****                         UART_UartPutCRLF(' ');
 595:ble_process.c ****                         char li[1];
 596:ble_process.c ****                         sprintf(li, "%hi", result.light);
 597:ble_process.c ****                         UART_UartPutString("light: ");
 598:ble_process.c ****                         PrintNum(result.light);
 599:ble_process.c ****                         UART_UartPutCRLF(' ');
 600:ble_process.c ****                         char* noise = ftoa(result.noise);
 601:ble_process.c ****                         UART_UartPutString("noise: ");
 602:ble_process.c ****                         UART_UartPutString(noise);
 603:ble_process.c ****                         UART_UartPutCRLF(' ');
 604:ble_process.c ****                         char* humi = ftoa(result.humi);
 605:ble_process.c ****                         UART_UartPutString("humidity: ");
 606:ble_process.c ****                         UART_UartPutString(humi);
 607:ble_process.c ****                         UART_UartPutCRLF(' ');
 608:ble_process.c ****                         char* uv = ftoa(result.uv);
 609:ble_process.c ****                         UART_UartPutString("uv: ");
 610:ble_process.c ****                         UART_UartPutString(uv);
 611:ble_process.c ****                         UART_UartPutCRLF(' ');
 612:ble_process.c ****                         char* press = ftoa(result.pressure);
 613:ble_process.c ****                         UART_UartPutString("pressure: ");
 614:ble_process.c ****                         UART_UartPutString(press);
 615:ble_process.c ****                         UART_UartPutCRLF(' ');
 616:ble_process.c ****                         char* di = ftoa(result.di);
 617:ble_process.c ****                         UART_UartPutString("dimention: ");
 618:ble_process.c ****                         UART_UartPutString(di);
 619:ble_process.c ****                         UART_UartPutCRLF(' ');
 620:ble_process.c ****                         char* heat = ftoa(result.heat);
 621:ble_process.c ****                         UART_UartPutString("heat: ");
 622:ble_process.c ****                         UART_UartPutString(heat);
 623:ble_process.c ****                         UART_UartPutCRLF(' ');
 624:ble_process.c ****                         char* battery = ftoa(result.battery);
 625:ble_process.c ****                         UART_UartPutString("battery: ");
 626:ble_process.c ****                         UART_UartPutString(battery);
 627:ble_process.c ****                         UART_UartPutCRLF(' ');
 628:ble_process.c ****                         char* distance = ftoa(result.distance);
 629:ble_process.c ****                         UART_UartPutString("distance: ");
 630:ble_process.c ****                         UART_UartPutString(distance);
 631:ble_process.c ****                         UART_UartPutCRLF(' ');
 632:ble_process.c ****                         UART_UartPutCRLF(' ');
 633:ble_process.c ****                         
 634:ble_process.c ****                        
 635:ble_process.c ****                         //if(result.flagActive == TRUE){
 636:ble_process.c ****                         tempData[RGB_RED_INDEX] = scan_report.data[9];
 637:ble_process.c ****                         tempData[RGB_GREEN_INDEX] = scan_report.data[8];
 638:ble_process.c ****                         tempData[RGB_BLUE_INDEX] = 0x00; //reserved
 639:ble_process.c ****                         tempData[RGB_INTENSITY_INDEX] = 0x00; //reserved
 640:ble_process.c ****                         //result.flagActive = FALSE;
 641:ble_process.c ****                         //}
ARM GAS  C:\Users\run1009\AppData\Local\Temp\ccJxhBPK.s 			page 20


 642:ble_process.c ****                        
 643:ble_process.c ****                         UART_UartPutString("tempData: ");
 644:ble_process.c ****                         for(int i=0;i<5;i++)
 645:ble_process.c ****                             PrintHex(tempData[i]);
 646:ble_process.c **** 						UART_UartPutCRLF(' ');
 647:ble_process.c ****                         
 648:ble_process.c ****                         /* After receiveing the sensor data, set the switch role flag to allow the 
 649:ble_process.c **** 						* to switch role to Central role */
 650:ble_process.c ****                         dataADVCounter++;
 651:ble_process.c **** 						//switch_Role = TRUE;                       
 652:ble_process.c ****                         
 653:ble_process.c ****                         UART_UartPutString("timestamp: ");
 654:ble_process.c ****                         PrintNum(sensorReceiveStartedTime);
 655:ble_process.c **** 						UART_UartPutCRLF(' ');
 656:ble_process.c **** 						#if (DEBUG_ENABLED == 1)
 657:ble_process.c **** 						//UART_UartPutString("switchRole to Pheripheral");
 658:ble_process.c **** 						//UART_UartPutCRLF(' ');
 659:ble_process.c **** 						#endif
 660:ble_process.c ****                         
 661:ble_process.c ****                         #endif
 662:ble_process.c ****                     }
 663:ble_process.c ****                     //reset timer to receive sensor data every 1 min
 664:ble_process.c ****                      sensorReceiveStartedTime = WatchDog_CurrentCount();
 665:ble_process.c **** 					}
 666:ble_process.c **** 				}
 667:ble_process.c **** 				#endif
 668:ble_process.c **** 				
 669:ble_process.c **** 				/* If the received scan data is part of scan response from a peripheral... */
 670:ble_process.c **** 				if(scan_report.eventType == CYBLE_GAPC_SCAN_RSP)
 671:ble_process.c **** 				{
 672:ble_process.c **** 					/* If the data lenght of the scan reponse packet is equal to expected
 673:ble_process.c **** 					* scan response data lenght...*/
 674:ble_process.c **** 					if(scan_report.dataLen == SCAN_TAG_DATA_LEN)
 675:ble_process.c **** 					{
 676:ble_process.c **** 						#ifdef ENABLE_ADV_DATA_COUNTER
 677:ble_process.c **** 						/* If a potential node had been found earlier as part of received 
 678:ble_process.c **** 						* advertising data, then compare the address of stored potential 
 679:ble_process.c **** 						* node and received address of the scan response */
 680:ble_process.c **** 						if(potential_node_found)
 681:ble_process.c **** 						{
 682:ble_process.c **** 							/* Compare the two addresses and type */
 683:ble_process.c **** 							if((!memcmp(scan_report.peerBdAddr, potential_node_bdAddr, 6))  
 684:ble_process.c **** 								&& (potential_node_bdAddrType == scan_report.peerAddrType))
 685:ble_process.c **** 							{
 686:ble_process.c **** 						#endif
 687:ble_process.c **** 								/* If the scan report data matches the expected data (scan_tag),
 688:ble_process.c **** 								* then it is our desired node */
 689:ble_process.c **** 								if(!memcmp(scan_report.data, scan_tag, scan_report.dataLen))
 690:ble_process.c **** 								{
 691:ble_process.c **** 									#if (DEBUG_ENABLED == 1)
 692:ble_process.c **** 									UART_UartPutString("*********** Titan Found ***********");
 693:ble_process.c **** 									UART_UartPutCRLF(' ');
 694:ble_process.c **** 									#endif
 695:ble_process.c **** 									/* Stop existing scan */
 696:ble_process.c **** 									CyBle_GapcStopScan();
 697:ble_process.c **** 									
 698:ble_process.c **** 									#if (DEBUG_ENABLED == 1)
ARM GAS  C:\Users\run1009\AppData\Local\Temp\ccJxhBPK.s 			page 21


 699:ble_process.c **** 									UART_UartPutString("Stop Scan called ");
 700:ble_process.c **** 									UART_UartPutCRLF(' ');
 701:ble_process.c **** 									#endif
 702:ble_process.c **** 									
 703:ble_process.c **** 									/* Save the peripheral BD address and type */
 704:ble_process.c **** 									peripAddr.type = scan_report.peerAddrType;
 705:ble_process.c **** 									peripAddr.bdAddr[0] = scan_report.peerBdAddr[0];
 706:ble_process.c **** 									peripAddr.bdAddr[1] = scan_report.peerBdAddr[1];
 707:ble_process.c **** 									peripAddr.bdAddr[2] = scan_report.peerBdAddr[2];
 708:ble_process.c **** 									peripAddr.bdAddr[3] = scan_report.peerBdAddr[3];
 709:ble_process.c **** 									peripAddr.bdAddr[4] = scan_report.peerBdAddr[4];
 710:ble_process.c **** 									peripAddr.bdAddr[5] = scan_report.peerBdAddr[5];
 711:ble_process.c **** 									
 712:ble_process.c **** 									/* Set the flag to allow application to connect to the
 713:ble_process.c **** 									* peripheral found */
 714:ble_process.c **** 									clientConnectToDevice = TRUE;
 715:ble_process.c **** 									
 716:ble_process.c **** 									#ifdef ENABLE_ADV_DATA_COUNTER
 717:ble_process.c **** 									/* Reset the potential node flag*/
 718:ble_process.c **** 									potential_node_found = FALSE;
 719:ble_process.c **** 									#endif
 720:ble_process.c **** 									
 721:ble_process.c **** 								}
 722:ble_process.c **** 						#ifdef ENABLE_ADV_DATA_COUNTER
 723:ble_process.c **** 							}
 724:ble_process.c **** 						}
 725:ble_process.c **** 						#endif
 726:ble_process.c **** 					}
 727:ble_process.c **** 				}
 728:ble_process.c **** 			}
 729:ble_process.c **** 
 730:ble_process.c **** 		break;
 731:ble_process.c **** 			
 732:ble_process.c **** 		case CYBLE_EVT_GAP_DEVICE_CONNECTED:
 733:ble_process.c **** 			/* This event is received whenever the device connect on GAP layer */
 734:ble_process.c **** 			#if (DEBUG_ENABLED == 1)
 735:ble_process.c **** 				UART_UartPutString("CYBLE_EVT_GAP_DEVICE_CONNECTED: ");
 736:ble_process.c **** 				CyBle_GapGetPeerBdAddr(cyBle_connHandle.bdHandle, &gap_bdaddr);
 737:ble_process.c **** 				PrintHex(gap_bdaddr.bdAddr[0]);
 738:ble_process.c **** 				PrintHex(gap_bdaddr.bdAddr[1]);
 739:ble_process.c **** 				PrintHex(gap_bdaddr.bdAddr[2]);
 740:ble_process.c **** 				UART_UartPutCRLF(' ');
 741:ble_process.c **** 			#endif
 742:ble_process.c **** 			
 743:ble_process.c **** 			if(ble_gap_state == BLE_CENTRAL)
 744:ble_process.c **** 			{
 745:ble_process.c **** 				//uint8 rgb_data[RGB_LED_DATA_LEN];
 746:ble_process.c **** 				
 747:ble_process.c **** 				#ifdef ENABLE_CENTRAL_DISCOVERY
 748:ble_process.c **** 					/* The Device is connected now. Start Attributes discovery process.*/
 749:ble_process.c **** 					CyBle_GattcStartDiscovery(cyBle_connHandle);
 750:ble_process.c **** 					#if (DEBUG_ENABLED == 1)
 751:ble_process.c **** 						UART_UartPutString("CYBLE_EVT_GAP_DEVICE_CONNECTED ");
 752:ble_process.c **** 						SendBLEStatetoUART(CyBle_GetState());
 753:ble_process.c **** 						UART_UartPutCRLF(' ');                  
 754:ble_process.c **** 					#endif
 755:ble_process.c **** 				#else
ARM GAS  C:\Users\run1009\AppData\Local\Temp\ccJxhBPK.s 			page 22


 756:ble_process.c **** 					/* If this system is currently acting in Central role and has connected
 757:ble_process.c **** 					* to a peripheral device, then write directly the ADV counter data and
 758:ble_process.c **** 					* RGB LED control data using attribute handles */
 759:ble_process.c **** 					
 760:ble_process.c **** 					/* Set the device connected flag */
 761:ble_process.c **** 					deviceConnected = TRUE;
 762:ble_process.c **** 					#if (DEBUG_ENABLED == 1)
 763:ble_process.c **** 						UART_UartPutString("Directly write RGB using Attr handle ");
 764:ble_process.c **** 						SendBLEStatetoUART(CyBle_GetState());
 765:ble_process.c **** 						UART_UartPutCRLF(' ');
 766:ble_process.c **** 					#endif
 767:ble_process.c **** 					
 768:ble_process.c **** 					/* Write the Data Counter value */
 769:ble_process.c **** 					writeADVcounterdata.attrHandle = CYBLE_RGB_DATA_COUNT_CHAR_HANDLE;
 770:ble_process.c **** 					writeADVcounterdata.value.val = &dataADVCounter;
 771:ble_process.c **** 					writeADVcounterdata.value.len = 1;
 772:ble_process.c **** 					CyBle_GattcWriteWithoutResponse(cyBle_connHandle, &writeADVcounterdata);
 773:ble_process.c **** 				
 774:ble_process.c **** 					/* Write the RGB LED Data */
 775:ble_process.c **** 					rgb_data[DATA_NODE_ADDR_TYPE_INDEX] = 	received_node_addr_type;
 776:ble_process.c **** 					rgb_data[RESERVED_BYTE_INDEX] = 		RESERVED_BYTE_VALUE;
 777:ble_process.c **** 					rgb_data[DATA_NODE_ADDR_LSB_INDEX] = 	(uint8)(received_node_addr & 0x00FF);
 778:ble_process.c **** 					rgb_data[DATA_NODE_ADDR_MSB_INDEX] = 	(uint8)((received_node_addr & 0xFF00) >> 8);
 779:ble_process.c **** 					rgb_data[DATA_INDEX] = 					tempData[RGB_RED_INDEX];//RGBData[RGB_RED_INDEX];
 780:ble_process.c **** 					rgb_data[DATA_INDEX+1] = 				tempData[RGB_GREEN_INDEX];//RGBData[RGB_GREEN_INDEX];
 781:ble_process.c **** 					rgb_data[DATA_INDEX+2] = 				tempData[RGB_BLUE_INDEX];//RGBData[RGB_BLUE_INDEX];
 782:ble_process.c **** 					rgb_data[DATA_INDEX+3] = 				tempData[RGB_INTENSITY_INDEX];//RGBData[RGB_INTENSITY_INDEX];
 783:ble_process.c **** 					
 784:ble_process.c **** 					writeRGBdata.attrHandle = CYBLE_RGB_LED_CONTROL_CHAR_HANDLE;
 785:ble_process.c **** 					writeRGBdata.value.val = rgb_data;
 786:ble_process.c **** 					writeRGBdata.value.len = RGB_LED_DATA_LEN;
 787:ble_process.c ****                     
 788:ble_process.c ****                     for(int i=0;i<8;i++)
 789:ble_process.c ****                             PrintHex(tempData[i]);
 790:ble_process.c ****                     UART_UartPutCRLF(' ');        
 791:ble_process.c ****                     char* temperture = ftoa(Byte2Short(tempData[RGB_RED_INDEX],tempData[RGB_GREEN_I
 792:ble_process.c ****                         UART_UartPutString("receive temperature: ");
 793:ble_process.c ****                         UART_UartPutString(temperture);
 794:ble_process.c ****                         UART_UartPutCRLF(' ');
 795:ble_process.c **** 					CyBle_GattcWriteCharacteristicDescriptors(cyBle_connHandle, &writeRGBdata);
 796:ble_process.c ****                     //CyBle_GattcWriteWithoutResponse(cyBle_connHandle, &writeRGBdata);
 797:ble_process.c **** 				#endif
 798:ble_process.c **** 			}	
 799:ble_process.c ****         break;
 800:ble_process.c **** 			
 801:ble_process.c **** 		case CYBLE_EVT_GATTC_DISCOVERY_COMPLETE:
 802:ble_process.c **** 			/* This event is generated whenever the discovery procedure is complete*/
 803:ble_process.c **** 			
 804:ble_process.c **** 			#ifdef ENABLE_CENTRAL_DISCOVERY
 805:ble_process.c **** 			deviceConnected = TRUE;
 806:ble_process.c **** 			#if (DEBUG_ENABLED == 1)
 807:ble_process.c **** 				UART_UartPutString("CYBLE_EVT_GATTC_DISCOVERY_COMPLET ");
 808:ble_process.c **** 				SendBLEStatetoUART(CyBle_GetState());
 809:ble_process.c **** 				UART_UartPutCRLF(' ');
 810:ble_process.c **** 
 811:ble_process.c **** 			#endif
 812:ble_process.c **** 			
ARM GAS  C:\Users\run1009\AppData\Local\Temp\ccJxhBPK.s 			page 23


 813:ble_process.c **** 			/* Write the Data Counter value */
 814:ble_process.c **** 			writeADVcounterdata.attrHandle = CYBLE_RGB_DATA_COUNT_CHAR_HANDLE;
 815:ble_process.c **** 			writeADVcounterdata.value.val = &dataADVCounter;
 816:ble_process.c **** 			writeADVcounterdata.value.len = 1;
 817:ble_process.c **** 			CyBle_GattcWriteWithoutResponse(cyBle_connHandle, &writeADVcounterdata);
 818:ble_process.c ****             
 819:ble_process.c ****             char* tem = ftoa(Byte2Short(tempData[RGB_RED_INDEX],tempData[RGB_GREEN_INDEX])/100.0);
 820:ble_process.c ****             UART_UartPutString("receive temperature: ");
 821:ble_process.c ****             UART_UartPutString(tem);
 822:ble_process.c ****             UART_UartPutCRLF(' ');
 823:ble_process.c **** 						
 824:ble_process.c **** 		
 825:ble_process.c **** 			/* Write the RGB LED Value */
 826:ble_process.c **** 			writeRGBdata.attrHandle = CYBLE_TEMP_DATA_CONTROL_CHAR_HANDLE;
 827:ble_process.c **** 			writeRGBdata.value.val = tempData;
 828:ble_process.c **** 			writeRGBdata.value.len = TEMP_DATA_LEN;
 829:ble_process.c **** 			CyBle_GattcWriteCharacteristicValue(cyBle_connHandle, &writeRGBdata);
 830:ble_process.c ****             //CyBle_GattcWriteWithoutResponse(cyBle_connHandle, &writeRGBdata);
 831:ble_process.c **** 			#endif
 832:ble_process.c ****             
 833:ble_process.c **** 		break;
 834:ble_process.c **** 			
 835:ble_process.c **** 		case CYBLE_EVT_GATTC_WRITE_RSP:
 836:ble_process.c **** 			/* This event is generated when the Client device receives a response
 837:ble_process.c **** 			* as part of the Write request sent earlier. This indicates that
 838:ble_process.c **** 			* the RGB LED data was written successfully */
 839:ble_process.c **** 			#if (DEBUG_ENABLED == 1)
 840:ble_process.c **** 				UART_UartPutString("CYBLE_EVT_GATTC_WRITE_RSP ");
 841:ble_process.c **** 				SendBLEStatetoUART(CyBle_GetState());
 842:ble_process.c **** 				UART_UartPutCRLF(' ');          
 843:ble_process.c ****                
 844:ble_process.c **** 			#endif
 845:ble_process.c **** 			
 846:ble_process.c **** 			/* Disconnect the existing connection and restart scanning */
 847:ble_process.c **** 			if((cyBle_connHandle.bdHandle != 0))
 848:ble_process.c **** 			{
 849:ble_process.c **** 				CyBle_GapDisconnect(cyBle_connHandle.bdHandle);
 850:ble_process.c **** 				
 851:ble_process.c **** 				restartScanning = TRUE;
 852:ble_process.c **** 				
 853:ble_process.c **** 				#if (DEBUG_ENABLED == 1)
 854:ble_process.c **** 				UART_UartPutString("Disconnect and restart scanning ");
 855:ble_process.c **** 				SendBLEStatetoUART(CyBle_GetState());
 856:ble_process.c **** 				UART_UartPutCRLF(' ');
 857:ble_process.c **** 				#endif
 858:ble_process.c **** 			}
 859:ble_process.c **** 		break;
 860:ble_process.c **** 			
 861:ble_process.c **** 		case CYBLE_EVT_GAP_DEVICE_DISCONNECTED:
 862:ble_process.c **** 			/* This event is generated when the device disconnects from an 
 863:ble_process.c **** 			* existing connection */
 864:ble_process.c **** 			deviceConnected = FALSE;
 865:ble_process.c **** 			
 866:ble_process.c **** 			#if (DEBUG_ENABLED == 1)
 867:ble_process.c **** 				UART_UartPutString("CYBLE_EVT_GAP_DEVICE_DISCONNECTED ");
 868:ble_process.c **** 				SendBLEStatetoUART(CyBle_GetState());
 869:ble_process.c **** 				UART_UartPutCRLF(' ');
ARM GAS  C:\Users\run1009\AppData\Local\Temp\ccJxhBPK.s 			page 24


 870:ble_process.c **** 			#endif
 871:ble_process.c **** 			
 872:ble_process.c **** 			if((ble_gap_state == BLE_PERIPHERAL) && (switch_Role != TRUE))
 873:ble_process.c **** 			{
 874:ble_process.c **** 				/* If the current role of this system was Peripheral and the role
 875:ble_process.c **** 				* is not to be switched, then restart advertisement */
 876:ble_process.c **** 				if(CYBLE_STATE_DISCONNECTED == CyBle_GetState())
 877:ble_process.c **** 				{
 878:ble_process.c **** 					CyBle_GappStartAdvertisement(CYBLE_ADVERTISING_FAST);	
 879:ble_process.c **** 					#if (DEBUG_ENABLED == 1)
 880:ble_process.c **** 					UART_UartPutString("Restart Advertisement ");
 881:ble_process.c **** 					SendBLEStatetoUART(CyBle_GetState());
 882:ble_process.c **** 					UART_UartPutCRLF(' ');
 883:ble_process.c **** 					#endif
 884:ble_process.c **** 				}
 885:ble_process.c **** 			}
 886:ble_process.c **** 			else if((ble_gap_state == BLE_CENTRAL) && (switch_Role != TRUE))
 887:ble_process.c **** 			{
 888:ble_process.c **** 				/* If the current role of this system was Central and the role
 889:ble_process.c **** 				* is not to be switched, then restart scanning */
 890:ble_process.c **** 				if(CYBLE_STATE_DISCONNECTED == CyBle_GetState())
 891:ble_process.c **** 				{
 892:ble_process.c **** 					CyBle_GapcStartScan(CYBLE_SCANNING_FAST);	
 893:ble_process.c **** 					#if (DEBUG_ENABLED == 1)
 894:ble_process.c **** 					UART_UartPutString("Restart Scanning ");
 895:ble_process.c **** 					SendBLEStatetoUART(CyBle_GetState());
 896:ble_process.c **** 					UART_UartPutCRLF(' ');
 897:ble_process.c **** 					#endif
 898:ble_process.c **** 				}	
 899:ble_process.c **** 			}
 900:ble_process.c **** 		break;
 901:ble_process.c **** 			
 902:ble_process.c **** 		default:
 903:ble_process.c **** 			eventParam = eventParam;
 904:ble_process.c **** 		break;
 304              		.loc 1 904 0
 305 0026 00F07AFF 		bl	.L1	@ far jump
 306              	.L6:
 307              	.LBE2:
  89:ble_process.c **** 	{
 308              		.loc 1 89 0
 309 002a 282B     		cmp	r3, #40
 310 002c 01D1     		bne	.LCB35
 311 002e 00F0E8FE 		bl	.L9	@far jump
 312              	.LCB35:
 313 0032 01D2     		bcs	.LCB37
 314 0034 00F00CFE 		bl	.L10	@far jump
 315              	.LCB37:
 316 0038 2B2B     		cmp	r3, #43
 317 003a 00D1     		bne	.LCB39
 318 003c 83E0     		b	.L11	@long jump
 319              	.LCB39:
 320              	.LBB10:
 321              		.loc 1 904 0
 322 003e 00F06EFF 		bl	.L1	@ far jump
 323              	.L4:
 324              	.LBE10:
ARM GAS  C:\Users\run1009\AppData\Local\Temp\ccJxhBPK.s 			page 25


  89:ble_process.c **** 	{
 325              		.loc 1 89 0
 326 0042 4C2B     		cmp	r3, #76
 327 0044 00D1     		bne	.LCB47
 328 0046 A3E0     		b	.L12	@long jump
 329              	.LCB47:
 330 0048 06D8     		bhi	.L13
 331 004a 422B     		cmp	r3, #66
 332 004c 00D1     		bne	.LCB51
 333 004e 96E0     		b	.L14	@long jump
 334              	.LCB51:
 335 0050 4A2B     		cmp	r3, #74
 336 0052 72D0     		beq	.L15
 337              	.LBB11:
 338              		.loc 1 904 0
 339 0054 00F063FF 		bl	.L1	@ far jump
 340              	.L13:
 341              	.LBE11:
  89:ble_process.c **** 	{
 342              		.loc 1 89 0
 343 0058 4E2B     		cmp	r3, #78
 344 005a 00D1     		bne	.LCB61
 345 005c 62E2     		b	.L16	@long jump
 346              	.LCB61:
 347 005e 01D2     		bcs	.LCB63
 348 0060 00F0AAFE 		bl	.L17	@far jump
 349              	.LCB63:
 350 0064 8922     		movs	r2, #137
 351 0066 5200     		lsls	r2, r2, #1
 352 0068 9342     		cmp	r3, r2
 353 006a 01D1     		bne	.LCB67
 354 006c 00F031FE 		bl	.L18	@far jump
 355              	.LCB67:
 356              	.LBB12:
 357              		.loc 1 904 0
 358 0070 00F055FF 		bl	.L1	@ far jump
 359              	.L7:
  93:ble_process.c **** 			UART_UartPutCRLF(' ');
 360              		.loc 1 93 0
 361 0074 B04B     		ldr	r3, .L65
 362 0076 1800     		movs	r0, r3
 363 0078 FFF7FEFF 		bl	UART_UartPutString
  94:ble_process.c **** 			#endif
 364              		.loc 1 94 0
 365 007c 2020     		movs	r0, #32
 366 007e FFF7FEFF 		bl	UART_UartPutCRLF
  98:ble_process.c **** 			{
 367              		.loc 1 98 0
 368 0082 AE4B     		ldr	r3, .L65+4
 369 0084 1B78     		ldrb	r3, [r3]
 370 0086 002B     		cmp	r3, #0
 371 0088 0FD1     		bne	.L19
 102:ble_process.c **** 				
 372              		.loc 1 102 0
 373 008a F223     		movs	r3, #242
 374 008c FC18     		adds	r4, r7, r3
 375 008e 0020     		movs	r0, #0
ARM GAS  C:\Users\run1009\AppData\Local\Temp\ccJxhBPK.s 			page 26


 376 0090 FFF7FEFF 		bl	CyBle_GappStartAdvertisement
 377 0094 0300     		movs	r3, r0
 378 0096 2380     		strh	r3, [r4]
 104:ble_process.c **** 				{
 379              		.loc 1 104 0
 380 0098 F223     		movs	r3, #242
 381 009a FB18     		adds	r3, r7, r3
 382 009c 1B88     		ldrh	r3, [r3]
 383 009e 002B     		cmp	r3, #0
 384 00a0 1ED1     		bne	.L21
 107:ble_process.c **** 				}
 385              		.loc 1 107 0
 386 00a2 A74B     		ldr	r3, .L65+8
 387 00a4 0122     		movs	r2, #1
 388 00a6 1A70     		strb	r2, [r3]
 389 00a8 1AE0     		b	.L21
 390              	.L19:
 114:ble_process.c **** 					
 391              		.loc 1 114 0
 392 00aa F223     		movs	r3, #242
 393 00ac FC18     		adds	r4, r7, r3
 394 00ae 0020     		movs	r0, #0
 395 00b0 FFF7FEFF 		bl	CyBle_GapcStartScan
 396 00b4 0300     		movs	r3, r0
 397 00b6 2380     		strh	r3, [r4]
 116:ble_process.c **** 				{
 398              		.loc 1 116 0
 399 00b8 F223     		movs	r3, #242
 400 00ba FB18     		adds	r3, r7, r3
 401 00bc 1B88     		ldrh	r3, [r3]
 402 00be 002B     		cmp	r3, #0
 403 00c0 0ED1     		bne	.L21
 119:ble_process.c **** 					UART_UartPutCRLF(' ');
 404              		.loc 1 119 0
 405 00c2 A04B     		ldr	r3, .L65+12
 406 00c4 1800     		movs	r0, r3
 407 00c6 FFF7FEFF 		bl	UART_UartPutString
 120:ble_process.c **** 					#endif
 408              		.loc 1 120 0
 409 00ca 2020     		movs	r0, #32
 410 00cc FFF7FEFF 		bl	UART_UartPutCRLF
 125:ble_process.c **** 					
 411              		.loc 1 125 0
 412 00d0 9D4B     		ldr	r3, .L65+16
 413 00d2 1B88     		ldrh	r3, [r3]
 414 00d4 9AB2     		uxth	r2, r3
 415 00d6 9D4B     		ldr	r3, .L65+20
 416 00d8 1A80     		strh	r2, [r3]
 128:ble_process.c **** 				}
 417              		.loc 1 128 0
 418 00da 994B     		ldr	r3, .L65+8
 419 00dc 0222     		movs	r2, #2
 420 00de 1A70     		strb	r2, [r3]
 421              	.L21:
 133:ble_process.c **** 			#endif
 422              		.loc 1 133 0
 423 00e0 964B     		ldr	r3, .L65+4
ARM GAS  C:\Users\run1009\AppData\Local\Temp\ccJxhBPK.s 			page 27


 424 00e2 0022     		movs	r2, #0
 425 00e4 1A70     		strb	r2, [r3]
 135:ble_process.c **** 			
 426              		.loc 1 135 0
 427 00e6 00F01AFF 		bl	.L1	@ far jump
 428              	.L5:
 146:ble_process.c **** 			{
 429              		.loc 1 146 0
 430 00ea 994B     		ldr	r3, .L65+24
 431 00ec 1B78     		ldrb	r3, [r3]
 432 00ee 062B     		cmp	r3, #6
 433 00f0 01D0     		beq	.LCB136
 434 00f2 00F0CEFE 		bl	.L59	@far jump
 435              	.LCB136:
 146:ble_process.c **** 			{
 436              		.loc 1 146 0 is_stmt 0 discriminator 1
 437 00f6 974B     		ldr	r3, .L65+28
 438 00f8 1B78     		ldrb	r3, [r3]
 439 00fa 002B     		cmp	r3, #0
 440 00fc 01D0     		beq	.LCB140
 441 00fe 00F0C8FE 		bl	.L59	@far jump
 442              	.LCB140:
 152:ble_process.c **** 				
 443              		.loc 1 152 0 is_stmt 1
 444 0102 F223     		movs	r3, #242
 445 0104 FC18     		adds	r4, r7, r3
 446 0106 0020     		movs	r0, #0
 447 0108 FFF7FEFF 		bl	CyBle_GappStartAdvertisement
 448 010c 0300     		movs	r3, r0
 449 010e 2380     		strh	r3, [r4]
 154:ble_process.c **** 				{
 450              		.loc 1 154 0
 451 0110 F223     		movs	r3, #242
 452 0112 FB18     		adds	r3, r7, r3
 453 0114 1B88     		ldrh	r3, [r3]
 454 0116 002B     		cmp	r3, #0
 455 0118 01D0     		beq	.LCB151
 456 011a 00F0BAFE 		bl	.L59	@far jump
 457              	.LCB151:
 157:ble_process.c **** 					SendBLEStatetoUART(CyBle_GetState());
 458              		.loc 1 157 0
 459 011e 8E4B     		ldr	r3, .L65+32
 460 0120 1800     		movs	r0, r3
 461 0122 FFF7FEFF 		bl	UART_UartPutString
 158:ble_process.c **** 					UART_UartPutCRLF(' ');
 462              		.loc 1 158 0
 463 0126 8A4B     		ldr	r3, .L65+24
 464 0128 1B78     		ldrb	r3, [r3]
 465 012a 1800     		movs	r0, r3
 466 012c FFF7FEFF 		bl	SendBLEStatetoUART
 159:ble_process.c **** 					#endif
 467              		.loc 1 159 0
 468 0130 2020     		movs	r0, #32
 469 0132 FFF7FEFF 		bl	UART_UartPutCRLF
 163:ble_process.c ****             
 470              		.loc 1 163 0
 471 0136 00F0ACFE 		bl	.L59	@ far jump
ARM GAS  C:\Users\run1009\AppData\Local\Temp\ccJxhBPK.s 			page 28


 472              	.L15:
 167:ble_process.c ****             break;
 473              		.loc 1 167 0
 474 013a 884B     		ldr	r3, .L65+36
 475 013c 1800     		movs	r0, r3
 476 013e FFF7FEFF 		bl	UART_UartPutString
 168:ble_process.c **** 			
 477              		.loc 1 168 0
 478 0142 00F0ECFE 		bl	.L1	@ far jump
 479              	.L11:
 173:ble_process.c **** 			PrintHex(*(uint8*)eventParam);
 480              		.loc 1 173 0
 481 0146 864B     		ldr	r3, .L65+40
 482 0148 1800     		movs	r0, r3
 483 014a FFF7FEFF 		bl	UART_UartPutString
 174:ble_process.c **** 			SendBLEStatetoUART(CyBle_GetState());
 484              		.loc 1 174 0
 485 014e BB6C     		ldr	r3, [r7, #72]
 486 0150 1B78     		ldrb	r3, [r3]
 487 0152 1800     		movs	r0, r3
 488 0154 FFF7FEFF 		bl	PrintHex
 175:ble_process.c **** 			UART_UartPutCRLF(' ');
 489              		.loc 1 175 0
 490 0158 7D4B     		ldr	r3, .L65+24
 491 015a 1B78     		ldrb	r3, [r3]
 492 015c 1800     		movs	r0, r3
 493 015e FFF7FEFF 		bl	SendBLEStatetoUART
 176:ble_process.c **** 			#endif
 494              		.loc 1 176 0
 495 0162 2020     		movs	r0, #32
 496 0164 FFF7FEFF 		bl	UART_UartPutCRLF
 178:ble_process.c **** 			
 497              		.loc 1 178 0
 498 0168 00F0D9FE 		bl	.L1	@ far jump
 499              	.L3:
 184:ble_process.c **** 			UART_UartPutCRLF(' ');
 500              		.loc 1 184 0
 501 016c 7D4B     		ldr	r3, .L65+44
 502 016e 1800     		movs	r0, r3
 503 0170 FFF7FEFF 		bl	UART_UartPutString
 185:ble_process.c ****             /*
 504              		.loc 1 185 0
 505 0174 2020     		movs	r0, #32
 506 0176 FFF7FEFF 		bl	UART_UartPutCRLF
 196:ble_process.c **** 		
 507              		.loc 1 196 0
 508 017a 00F0D0FE 		bl	.L1	@ far jump
 509              	.L14:
 202:ble_process.c **** 			UART_UartPutCRLF(' ');
 510              		.loc 1 202 0
 511 017e 7A4B     		ldr	r3, .L65+48
 512 0180 1800     		movs	r0, r3
 513 0182 FFF7FEFF 		bl	UART_UartPutString
 203:ble_process.c **** 			#endif
 514              		.loc 1 203 0
 515 0186 2020     		movs	r0, #32
 516 0188 FFF7FEFF 		bl	UART_UartPutCRLF
ARM GAS  C:\Users\run1009\AppData\Local\Temp\ccJxhBPK.s 			page 29


 205:ble_process.c **** 			
 517              		.loc 1 205 0
 518 018c 00F0C7FE 		bl	.L1	@ far jump
 519              	.L12:
 211:ble_process.c ****             
 520              		.loc 1 211 0
 521 0190 B023     		movs	r3, #176
 522 0192 FB18     		adds	r3, r7, r3
 523 0194 BA6C     		ldr	r2, [r7, #72]
 524 0196 13CA     		ldmia	r2!, {r0, r1, r4}
 525 0198 13C3     		stmia	r3!, {r0, r1, r4}
 526 019a 1268     		ldr	r2, [r2]
 527 019c 1A60     		str	r2, [r3]
 215:ble_process.c ****                         PrintHex(writeReqData.handleValPair.attrHandle);
 528              		.loc 1 215 0
 529 019e 734B     		ldr	r3, .L65+52
 530 01a0 1800     		movs	r0, r3
 531 01a2 FFF7FEFF 		bl	UART_UartPutString
 216:ble_process.c ****                         
 532              		.loc 1 216 0
 533 01a6 B023     		movs	r3, #176
 534 01a8 FB18     		adds	r3, r7, r3
 535 01aa 9B89     		ldrh	r3, [r3, #12]
 536 01ac DBB2     		uxtb	r3, r3
 537 01ae 1800     		movs	r0, r3
 538 01b0 FFF7FEFF 		bl	PrintHex
 218:ble_process.c **** 			#endif
 539              		.loc 1 218 0
 540 01b4 2020     		movs	r0, #32
 541 01b6 FFF7FEFF 		bl	UART_UartPutCRLF
 220:ble_process.c **** 			{
 542              		.loc 1 220 0
 543 01ba B023     		movs	r3, #176
 544 01bc FB18     		adds	r3, r7, r3
 545 01be 9B89     		ldrh	r3, [r3, #12]
 546 01c0 152B     		cmp	r3, #21
 547 01c2 67D1     		bne	.L24
 224:ble_process.c **** 				{
 548              		.loc 1 224 0
 549 01c4 B023     		movs	r3, #176
 550 01c6 FB18     		adds	r3, r7, r3
 551 01c8 1B89     		ldrh	r3, [r3, #8]
 552 01ca 022B     		cmp	r3, #2
 553 01cc 4ED1     		bne	.L25
 227:ble_process.c **** 					#endif
 554              		.loc 1 227 0
 555 01ce 684B     		ldr	r3, .L65+56
 556 01d0 1800     		movs	r0, r3
 557 01d2 FFF7FEFF 		bl	UART_UartPutString
 230:ble_process.c **** 													| writeReqData.handleValPair.value.val[NODE_ADDR_LSB_VAL_INDEX]);
 558              		.loc 1 230 0
 559 01d6 B023     		movs	r3, #176
 560 01d8 FB18     		adds	r3, r7, r3
 561 01da 5B68     		ldr	r3, [r3, #4]
 562 01dc 0133     		adds	r3, r3, #1
 563 01de 1B78     		ldrb	r3, [r3]
 564 01e0 1B02     		lsls	r3, r3, #8
ARM GAS  C:\Users\run1009\AppData\Local\Temp\ccJxhBPK.s 			page 30


 565 01e2 1AB2     		sxth	r2, r3
 231:ble_process.c **** 					
 566              		.loc 1 231 0
 567 01e4 B023     		movs	r3, #176
 568 01e6 FB18     		adds	r3, r7, r3
 569 01e8 5B68     		ldr	r3, [r3, #4]
 570 01ea 1B78     		ldrb	r3, [r3]
 230:ble_process.c **** 													| writeReqData.handleValPair.value.val[NODE_ADDR_LSB_VAL_INDEX]);
 571              		.loc 1 230 0
 572 01ec 1BB2     		sxth	r3, r3
 573 01ee 1343     		orrs	r3, r2
 574 01f0 1BB2     		sxth	r3, r3
 575 01f2 9AB2     		uxth	r2, r3
 576 01f4 5F4B     		ldr	r3, .L65+60
 577 01f6 1A80     		strh	r2, [r3]
 233:ble_process.c **** 					{
 578              		.loc 1 233 0
 579 01f8 5E4B     		ldr	r3, .L65+60
 580 01fa 1B88     		ldrh	r3, [r3]
 581 01fc 002B     		cmp	r3, #0
 582 01fe 04D0     		beq	.L26
 233:ble_process.c **** 					{
 583              		.loc 1 233 0 is_stmt 0 discriminator 1
 584 0200 5C4B     		ldr	r3, .L65+60
 585 0202 1B88     		ldrh	r3, [r3]
 586 0204 5C4A     		ldr	r2, .L65+64
 587 0206 9342     		cmp	r3, r2
 588 0208 10D1     		bne	.L27
 589              	.L26:
 237:ble_process.c **** 										writeReqData.handleValPair.attrHandle, 
 590              		.loc 1 237 0 is_stmt 1
 591 020a B023     		movs	r3, #176
 592 020c FB18     		adds	r3, r7, r3
 593 020e 9B89     		ldrh	r3, [r3, #12]
 594 0210 0422     		movs	r2, #4
 595 0212 1900     		movs	r1, r3
 596 0214 1220     		movs	r0, #18
 597 0216 FFF7FEFF 		bl	SendErrorCode
 242:ble_process.c **** 						#endif
 598              		.loc 1 242 0
 599 021a 584B     		ldr	r3, .L65+68
 600 021c 1800     		movs	r0, r3
 601 021e FFF7FEFF 		bl	UART_UartPutString
 245:ble_process.c **** 						
 602              		.loc 1 245 0
 603 0222 544B     		ldr	r3, .L65+60
 604 0224 0022     		movs	r2, #0
 605 0226 1A80     		strh	r2, [r3]
 247:ble_process.c **** 					}
 606              		.loc 1 247 0
 607 0228 00F079FE 		bl	.L1	@ far jump
 608              	.L27:
 255:ble_process.c **** 						#endif
 609              		.loc 1 255 0
 610 022c 514B     		ldr	r3, .L65+60
 611 022e 1B88     		ldrh	r3, [r3]
 612 0230 1800     		movs	r0, r3
ARM GAS  C:\Users\run1009\AppData\Local\Temp\ccJxhBPK.s 			page 31


 613 0232 FFF7FEFF 		bl	UpdateSFlashNodeAddress
 260:ble_process.c **** 														0,
 614              		.loc 1 260 0
 615 0236 524A     		ldr	r2, .L65+72
 616 0238 B023     		movs	r3, #176
 617 023a FB18     		adds	r3, r7, r3
 618 023c 181D     		adds	r0, r3, #4
 619 023e 0023     		movs	r3, #0
 620 0240 0021     		movs	r1, #0
 621 0242 FFF7FEFF 		bl	CyBle_GattsWriteAttributeValue
 266:ble_process.c **** 						#endif
 622              		.loc 1 266 0
 623 0246 2020     		movs	r0, #32
 624 0248 FFF7FEFF 		bl	UART_UartPutCRLF
 271:ble_process.c **** 						new_advData.advData[ADV_DATA_NAME_START_INDEX+1] = 'i';
 625              		.loc 1 271 0
 626 024c 4D4B     		ldr	r3, .L65+76
 627 024e 5422     		movs	r2, #84
 628 0250 5A71     		strb	r2, [r3, #5]
 272:ble_process.c **** 						new_advData.advData[ADV_DATA_NAME_START_INDEX+2] = 't';
 629              		.loc 1 272 0
 630 0252 4C4B     		ldr	r3, .L65+76
 631 0254 6922     		movs	r2, #105
 632 0256 9A71     		strb	r2, [r3, #6]
 273:ble_process.c **** 						new_advData.advData[ADV_DATA_NAME_START_INDEX+3] = 'a';
 633              		.loc 1 273 0
 634 0258 4A4B     		ldr	r3, .L65+76
 635 025a 7422     		movs	r2, #116
 636 025c DA71     		strb	r2, [r3, #7]
 274:ble_process.c **** 						new_advData.advData[ADV_DATA_NAME_START_INDEX+4] = 'n';
 637              		.loc 1 274 0
 638 025e 494B     		ldr	r3, .L65+76
 639 0260 6122     		movs	r2, #97
 640 0262 1A72     		strb	r2, [r3, #8]
 275:ble_process.c **** 					}
 641              		.loc 1 275 0
 642 0264 474B     		ldr	r3, .L65+76
 643 0266 6E22     		movs	r2, #110
 644 0268 5A72     		strb	r2, [r3, #9]
 645 026a 13E0     		b	.L24
 646              	.L25:
 283:ble_process.c **** 										writeReqData.handleValPair.attrHandle, 
 647              		.loc 1 283 0
 648 026c B023     		movs	r3, #176
 649 026e FB18     		adds	r3, r7, r3
 650 0270 9B89     		ldrh	r3, [r3, #12]
 651 0272 0D22     		movs	r2, #13
 652 0274 1900     		movs	r1, r3
 653 0276 1220     		movs	r0, #18
 654 0278 FFF7FEFF 		bl	SendErrorCode
 286:ble_process.c **** 						UART_UartPutString("node_address = 0 ");
 655              		.loc 1 286 0
 656 027c 3D4B     		ldr	r3, .L65+60
 657 027e 0022     		movs	r2, #0
 658 0280 1A80     		strh	r2, [r3]
 287:ble_process.c ****                         UART_UartPutCRLF(' ');
 659              		.loc 1 287 0
ARM GAS  C:\Users\run1009\AppData\Local\Temp\ccJxhBPK.s 			page 32


 660 0282 414B     		ldr	r3, .L65+80
 661 0284 1800     		movs	r0, r3
 662 0286 FFF7FEFF 		bl	UART_UartPutString
 288:ble_process.c **** 						/* Do not proceed further */
 663              		.loc 1 288 0
 664 028a 2020     		movs	r0, #32
 665 028c FFF7FEFF 		bl	UART_UartPutCRLF
 290:ble_process.c **** 				}
 666              		.loc 1 290 0
 667 0290 00F045FE 		bl	.L1	@ far jump
 668              	.L24:
 293:ble_process.c **** 			{
 669              		.loc 1 293 0
 670 0294 B023     		movs	r3, #176
 671 0296 FB18     		adds	r3, r7, r3
 672 0298 9B89     		ldrh	r3, [r3, #12]
 673 029a 0E2B     		cmp	r3, #14
 674 029c 00D0     		beq	.LCB336
 675 029e 31E1     		b	.L29	@long jump
 676              	.LCB336:
 299:ble_process.c **** 				{
 677              		.loc 1 299 0
 678 02a0 344B     		ldr	r3, .L65+60
 679 02a2 1B88     		ldrh	r3, [r3]
 680 02a4 002B     		cmp	r3, #0
 681 02a6 00D1     		bne	.LCB340
 682 02a8 22E1     		b	.L30	@long jump
 683              	.LCB340:
 304:ble_process.c **** 					{
 684              		.loc 1 304 0
 685 02aa B023     		movs	r3, #176
 686 02ac FB18     		adds	r3, r7, r3
 687 02ae 1B89     		ldrh	r3, [r3, #8]
 688 02b0 082B     		cmp	r3, #8
 689 02b2 00D0     		beq	.LCB345
 690 02b4 12E1     		b	.L31	@long jump
 691              	.LCB345:
 692              	.LBB3:
 307:ble_process.c **** 							UART_UartPutCRLF(' ');
 693              		.loc 1 307 0
 694 02b6 354B     		ldr	r3, .L65+84
 695 02b8 1800     		movs	r0, r3
 696 02ba FFF7FEFF 		bl	UART_UartPutString
 308:ble_process.c **** 						#endif
 697              		.loc 1 308 0
 698 02be 2020     		movs	r0, #32
 699 02c0 FFF7FEFF 		bl	UART_UartPutCRLF
 314:ble_process.c **** 						received_node_addr = (uint16)(((uint16)writeReqData.handleValPair.value.val[DATA_NODE_ADDR_MS
 700              		.loc 1 314 0
 701 02c4 B023     		movs	r3, #176
 702 02c6 FB18     		adds	r3, r7, r3
 703 02c8 5B68     		ldr	r3, [r3, #4]
 704 02ca 1A78     		ldrb	r2, [r3]
 705 02cc 304B     		ldr	r3, .L65+88
 706 02ce 1A70     		strb	r2, [r3]
 315:ble_process.c **** 													| writeReqData.handleValPair.value.val[DATA_NODE_ADDR_LSB_INDEX]);
 707              		.loc 1 315 0
ARM GAS  C:\Users\run1009\AppData\Local\Temp\ccJxhBPK.s 			page 33


 708 02d0 B023     		movs	r3, #176
 709 02d2 FB18     		adds	r3, r7, r3
 710 02d4 5B68     		ldr	r3, [r3, #4]
 711 02d6 0333     		adds	r3, r3, #3
 712 02d8 1B78     		ldrb	r3, [r3]
 713 02da 1B02     		lsls	r3, r3, #8
 714 02dc 1AB2     		sxth	r2, r3
 316:ble_process.c **** 						
 715              		.loc 1 316 0
 716 02de B023     		movs	r3, #176
 717 02e0 FB18     		adds	r3, r7, r3
 718 02e2 5B68     		ldr	r3, [r3, #4]
 719 02e4 0233     		adds	r3, r3, #2
 720 02e6 1B78     		ldrb	r3, [r3]
 315:ble_process.c **** 													| writeReqData.handleValPair.value.val[DATA_NODE_ADDR_LSB_INDEX]);
 721              		.loc 1 315 0
 722 02e8 1BB2     		sxth	r3, r3
 723 02ea 1343     		orrs	r3, r2
 724 02ec 1BB2     		sxth	r3, r3
 725 02ee 9AB2     		uxth	r2, r3
 726 02f0 284B     		ldr	r3, .L65+92
 727 02f2 1A80     		strh	r2, [r3]
 320:ble_process.c **** 						recvTempData[RGB_GREEN_INDEX] = writeReqData.handleValPair.value.val[RGB_GREEN_INDEX];
 728              		.loc 1 320 0
 729 02f4 B023     		movs	r3, #176
 730 02f6 FB18     		adds	r3, r7, r3
 731 02f8 5B68     		ldr	r3, [r3, #4]
 732 02fa 1A78     		ldrb	r2, [r3]
 733 02fc 264B     		ldr	r3, .L65+96
 734 02fe 1A70     		strb	r2, [r3]
 321:ble_process.c **** 						recvTempData[RGB_BLUE_INDEX] = writeReqData.handleValPair.value.val[RGB_BLUE_INDEX];
 735              		.loc 1 321 0
 736 0300 B023     		movs	r3, #176
 737 0302 FB18     		adds	r3, r7, r3
 738 0304 5B68     		ldr	r3, [r3, #4]
 739 0306 5A78     		ldrb	r2, [r3, #1]
 740 0308 234B     		ldr	r3, .L65+96
 741 030a 5A70     		strb	r2, [r3, #1]
 322:ble_process.c **** 					    recvTempData[RGB_INTENSITY_INDEX] = writeReqData.handleValPair.value.val[RGB_INTENSITY_IND
 742              		.loc 1 322 0
 743 030c B023     		movs	r3, #176
 744 030e FB18     		adds	r3, r7, r3
 745 0310 5B68     		ldr	r3, [r3, #4]
 746 0312 9A78     		ldrb	r2, [r3, #2]
 747 0314 204B     		ldr	r3, .L65+96
 748 0316 9A70     		strb	r2, [r3, #2]
 323:ble_process.c ****                         
 749              		.loc 1 323 0
 750 0318 B023     		movs	r3, #176
 751 031a FB18     		adds	r3, r7, r3
 752 031c 5B68     		ldr	r3, [r3, #4]
 753 031e DA78     		ldrb	r2, [r3, #3]
 754 0320 1D4B     		ldr	r3, .L65+96
 755 0322 DA70     		strb	r2, [r3, #3]
 325:ble_process.c ****                         for(int i=0;i<writeReqData.handleValPair.value.len;i++)
 756              		.loc 1 325 0
 757 0324 1D4B     		ldr	r3, .L65+100
ARM GAS  C:\Users\run1009\AppData\Local\Temp\ccJxhBPK.s 			page 34


 758 0326 1800     		movs	r0, r3
 759 0328 FFF7FEFF 		bl	UART_UartPutString
 760              	.LBB4:
 326:ble_process.c ****                             PrintHex(writeReqData.handleValPair.value.val[i]);
 761              		.loc 1 326 0
 762 032c 0023     		movs	r3, #0
 763 032e 7A1D     		adds	r2, r7, #5
 764 0330 FF32     		adds	r2, r2, #255
 765 0332 1360     		str	r3, [r2]
 766 0334 46E0     		b	.L32
 767              	.L66:
 768 0336 C046     		.align	2
 769              	.L65:
 770 0338 00000000 		.word	.LC0
 771 033c 00000000 		.word	stackRestartIssued
 772 0340 00000000 		.word	ble_gap_state
 773 0344 14000000 		.word	.LC4
 774 0348 00000000 		.word	current_watchdog_counter
 775 034c 00000000 		.word	centralStartedTime
 776 0350 00000000 		.word	cyBle_state
 777 0354 00000000 		.word	switch_Role
 778 0358 34000000 		.word	.LC10
 779 035c 4C000000 		.word	.LC12
 780 0360 6C000000 		.word	.LC14
 781 0364 90000000 		.word	.LC16
 782 0368 98000000 		.word	.LC18
 783 036c B8000000 		.word	.LC20
 784 0370 D4000000 		.word	.LC22
 785 0374 00000000 		.word	node_address
 786 0378 FFFF0000 		.word	65535
 787 037c EC000000 		.word	.LC25
 788 0380 00000000 		.word	cyBle_connHandle
 789 0384 00000000 		.word	new_advData
 790 0388 04010000 		.word	.LC29
 791 038c 18010000 		.word	.LC31
 792 0390 12000000 		.word	received_node_addr_type.8811
 793 0394 14000000 		.word	received_node_addr.8810
 794 0398 00000000 		.word	recvTempData
 795 039c 38010000 		.word	.LC36
 796              	.L33:
 327:ble_process.c **** 						UART_UartPutCRLF(' ');
 797              		.loc 1 327 0 discriminator 3
 798 03a0 B023     		movs	r3, #176
 799 03a2 FB18     		adds	r3, r7, r3
 800 03a4 5A68     		ldr	r2, [r3, #4]
 801 03a6 7B1D     		adds	r3, r7, #5
 802 03a8 FF33     		adds	r3, r3, #255
 803 03aa 1B68     		ldr	r3, [r3]
 804 03ac D318     		adds	r3, r2, r3
 805 03ae 1B78     		ldrb	r3, [r3]
 806 03b0 1800     		movs	r0, r3
 807 03b2 FFF7FEFF 		bl	PrintHex
 326:ble_process.c ****                             PrintHex(writeReqData.handleValPair.value.val[i]);
 808              		.loc 1 326 0 discriminator 3
 809 03b6 7B1D     		adds	r3, r7, #5
 810 03b8 FF33     		adds	r3, r3, #255
 811 03ba 1B68     		ldr	r3, [r3]
ARM GAS  C:\Users\run1009\AppData\Local\Temp\ccJxhBPK.s 			page 35


 812 03bc 0133     		adds	r3, r3, #1
 813 03be 7A1D     		adds	r2, r7, #5
 814 03c0 FF32     		adds	r2, r2, #255
 815 03c2 1360     		str	r3, [r2]
 816              	.L32:
 326:ble_process.c ****                             PrintHex(writeReqData.handleValPair.value.val[i]);
 817              		.loc 1 326 0 is_stmt 0 discriminator 1
 818 03c4 B023     		movs	r3, #176
 819 03c6 FB18     		adds	r3, r7, r3
 820 03c8 1B89     		ldrh	r3, [r3, #8]
 821 03ca 1A00     		movs	r2, r3
 822 03cc 7B1D     		adds	r3, r7, #5
 823 03ce FF33     		adds	r3, r3, #255
 824 03d0 1B68     		ldr	r3, [r3]
 825 03d2 9A42     		cmp	r2, r3
 826 03d4 E4DC     		bgt	.L33
 827              	.LBE4:
 328:ble_process.c ****                         
 828              		.loc 1 328 0 is_stmt 1
 829 03d6 2020     		movs	r0, #32
 830 03d8 FFF7FEFF 		bl	UART_UartPutCRLF
 330:ble_process.c ****                         UART_UartPutString("receive temperature: ");
 831              		.loc 1 330 0
 832 03dc AF4B     		ldr	r3, .L67
 833 03de 1A78     		ldrb	r2, [r3]
 834 03e0 AE4B     		ldr	r3, .L67
 835 03e2 5B78     		ldrb	r3, [r3, #1]
 836 03e4 1900     		movs	r1, r3
 837 03e6 1000     		movs	r0, r2
 838 03e8 FFF7FEFF 		bl	Byte2Short
 839 03ec 0300     		movs	r3, r0
 840 03ee 1800     		movs	r0, r3
 841 03f0 FFF7FEFF 		bl	__aeabi_i2d
 842 03f4 0022     		movs	r2, #0
 843 03f6 AA4B     		ldr	r3, .L67+4
 844 03f8 FFF7FEFF 		bl	__aeabi_ddiv
 845 03fc 0300     		movs	r3, r0
 846 03fe 0C00     		movs	r4, r1
 847 0400 1800     		movs	r0, r3
 848 0402 2100     		movs	r1, r4
 849 0404 FFF7FEFF 		bl	__aeabi_d2f
 850 0408 031C     		adds	r3, r0, #0
 851 040a 181C     		adds	r0, r3, #0
 852 040c FFF7FEFF 		bl	ftoa
 853 0410 0300     		movs	r3, r0
 854 0412 EC22     		movs	r2, #236
 855 0414 BA18     		adds	r2, r7, r2
 856 0416 1360     		str	r3, [r2]
 331:ble_process.c ****                         UART_UartPutString(temperture);
 857              		.loc 1 331 0
 858 0418 A24B     		ldr	r3, .L67+8
 859 041a 1800     		movs	r0, r3
 860 041c FFF7FEFF 		bl	UART_UartPutString
 332:ble_process.c ****                         UART_UartPutCRLF(' ');
 861              		.loc 1 332 0
 862 0420 EC23     		movs	r3, #236
 863 0422 FB18     		adds	r3, r7, r3
ARM GAS  C:\Users\run1009\AppData\Local\Temp\ccJxhBPK.s 			page 36


 864 0424 1B68     		ldr	r3, [r3]
 865 0426 1800     		movs	r0, r3
 866 0428 FFF7FEFF 		bl	UART_UartPutString
 333:ble_process.c **** 						
 867              		.loc 1 333 0
 868 042c 2020     		movs	r0, #32
 869 042e FFF7FEFF 		bl	UART_UartPutCRLF
 335:ble_process.c **** 						{
 870              		.loc 1 335 0
 871 0432 B023     		movs	r3, #176
 872 0434 FB18     		adds	r3, r7, r3
 873 0436 5B68     		ldr	r3, [r3, #4]
 874 0438 1B78     		ldrb	r3, [r3]
 875 043a 012B     		cmp	r3, #1
 876 043c 1FD1     		bne	.L34
 339:ble_process.c **** 							{
 877              		.loc 1 339 0
 878 043e 9A4B     		ldr	r3, .L67+12
 879 0440 1A88     		ldrh	r2, [r3]
 880 0442 9A4B     		ldr	r3, .L67+16
 881 0444 1B88     		ldrh	r3, [r3]
 882 0446 5340     		eors	r3, r2
 883 0448 9BB2     		uxth	r3, r3
 884 044a 1A00     		movs	r2, r3
 885 044c FF23     		movs	r3, #255
 886 044e 1B02     		lsls	r3, r3, #8
 887 0450 1340     		ands	r3, r2
 888 0452 26D1     		bne	.L36
 347:ble_process.c **** 								
 889              		.loc 1 347 0
 890 0454 964A     		ldr	r2, .L67+20
 891 0456 B023     		movs	r3, #176
 892 0458 FB18     		adds	r3, r7, r3
 893 045a 181D     		adds	r0, r3, #4
 894 045c 0023     		movs	r3, #0
 895 045e 0021     		movs	r1, #0
 896 0460 FFF7FEFF 		bl	CyBle_GattsWriteAttributeValue
 351:ble_process.c **** 									SendBLEStatetoUART(CyBle_GetState());
 897              		.loc 1 351 0
 898 0464 934B     		ldr	r3, .L67+24
 899 0466 1800     		movs	r0, r3
 900 0468 FFF7FEFF 		bl	UART_UartPutString
 352:ble_process.c **** 									UART_UartPutCRLF(' ');
 901              		.loc 1 352 0
 902 046c 924B     		ldr	r3, .L67+28
 903 046e 1B78     		ldrb	r3, [r3]
 904 0470 1800     		movs	r0, r3
 905 0472 FFF7FEFF 		bl	SendBLEStatetoUART
 353:ble_process.c **** 								#endif
 906              		.loc 1 353 0
 907 0476 2020     		movs	r0, #32
 908 0478 FFF7FEFF 		bl	UART_UartPutCRLF
 909 047c 11E0     		b	.L36
 910              	.L34:
 361:ble_process.c **** 								(received_node_addr == BROADCAST_ADDR))
 911              		.loc 1 361 0
 912 047e 8A4B     		ldr	r3, .L67+12
ARM GAS  C:\Users\run1009\AppData\Local\Temp\ccJxhBPK.s 			page 37


 913 0480 1A88     		ldrh	r2, [r3]
 914 0482 8A4B     		ldr	r3, .L67+16
 915 0484 1B88     		ldrh	r3, [r3]
 916 0486 9A42     		cmp	r2, r3
 917 0488 03D0     		beq	.L37
 362:ble_process.c **** 							{
 918              		.loc 1 362 0 discriminator 1
 919 048a 874B     		ldr	r3, .L67+12
 920 048c 1B88     		ldrh	r3, [r3]
 361:ble_process.c **** 								(received_node_addr == BROADCAST_ADDR))
 921              		.loc 1 361 0 discriminator 1
 922 048e 002B     		cmp	r3, #0
 923 0490 07D1     		bne	.L36
 924              	.L37:
 370:ble_process.c **** 								
 925              		.loc 1 370 0
 926 0492 874A     		ldr	r2, .L67+20
 927 0494 B023     		movs	r3, #176
 928 0496 FB18     		adds	r3, r7, r3
 929 0498 181D     		adds	r0, r3, #4
 930 049a 0023     		movs	r3, #0
 931 049c 0021     		movs	r1, #0
 932 049e FFF7FEFF 		bl	CyBle_GattsWriteAttributeValue
 933              	.L36:
 384:ble_process.c **** 						#endif
 934              		.loc 1 384 0
 935 04a2 864B     		ldr	r3, .L67+32
 936 04a4 1B78     		ldrb	r3, [r3]
 937 04a6 0133     		adds	r3, r3, #1
 938 04a8 DAB2     		uxtb	r2, r3
 939 04aa 844B     		ldr	r3, .L67+32
 940 04ac 1A70     		strb	r2, [r3]
 388:ble_process.c **** 						PrintNum(dataADVCounter);
 941              		.loc 1 388 0
 942 04ae 844B     		ldr	r3, .L67+36
 943 04b0 1800     		movs	r0, r3
 944 04b2 FFF7FEFF 		bl	UART_UartPutString
 389:ble_process.c **** 						UART_UartPutCRLF(' ');
 945              		.loc 1 389 0
 946 04b6 814B     		ldr	r3, .L67+32
 947 04b8 1B78     		ldrb	r3, [r3]
 948 04ba 1800     		movs	r0, r3
 949 04bc FFF7FEFF 		bl	PrintNum
 390:ble_process.c ****                         
 950              		.loc 1 390 0
 951 04c0 2020     		movs	r0, #32
 952 04c2 FFF7FEFF 		bl	UART_UartPutCRLF
 396:ble_process.c **** 						
 953              		.loc 1 396 0
 954 04c6 7F4B     		ldr	r3, .L67+40
 955 04c8 0122     		movs	r2, #1
 956 04ca 1A70     		strb	r2, [r3]
 399:ble_process.c **** 						UART_UartPutCRLF(' ');
 957              		.loc 1 399 0
 958 04cc 7E4B     		ldr	r3, .L67+44
 959 04ce 1800     		movs	r0, r3
 960 04d0 FFF7FEFF 		bl	UART_UartPutString
ARM GAS  C:\Users\run1009\AppData\Local\Temp\ccJxhBPK.s 			page 38


 400:ble_process.c **** 						#endif
 961              		.loc 1 400 0
 962 04d4 2020     		movs	r0, #32
 963 04d6 FFF7FEFF 		bl	UART_UartPutCRLF
 964              	.LBE3:
 965 04da 13E0     		b	.L29
 966              	.L31:
 406:ble_process.c **** 										writeReqData.handleValPair.attrHandle, 
 967              		.loc 1 406 0
 968 04dc B023     		movs	r3, #176
 969 04de FB18     		adds	r3, r7, r3
 970 04e0 9B89     		ldrh	r3, [r3, #12]
 971 04e2 0D22     		movs	r2, #13
 972 04e4 1900     		movs	r1, r3
 973 04e6 1220     		movs	r0, #18
 974 04e8 FFF7FEFF 		bl	SendErrorCode
 409:ble_process.c **** 					}	/* if(writeReqData.handleValPair.value.len == RGB_LED_DATA_LEN) */
 975              		.loc 1 409 0
 976 04ec 00F017FD 		bl	.L1	@ far jump
 977              	.L30:
 416:ble_process.c **** 										writeReqData.handleValPair.attrHandle, 
 978              		.loc 1 416 0
 979 04f0 B023     		movs	r3, #176
 980 04f2 FB18     		adds	r3, r7, r3
 981 04f4 9B89     		ldrh	r3, [r3, #12]
 982 04f6 1122     		movs	r2, #17
 983 04f8 1900     		movs	r1, r3
 984 04fa 1220     		movs	r0, #18
 985 04fc FFF7FEFF 		bl	SendErrorCode
 419:ble_process.c **** 				}
 986              		.loc 1 419 0
 987 0500 00F00DFD 		bl	.L1	@ far jump
 988              	.L29:
 426:ble_process.c **** 		break;
 989              		.loc 1 426 0
 990 0504 6A4B     		ldr	r3, .L67+20
 991 0506 1A78     		ldrb	r2, [r3]
 992 0508 5B78     		ldrb	r3, [r3, #1]
 993 050a 1B02     		lsls	r3, r3, #8
 994 050c 1A43     		orrs	r2, r3
 995 050e 0023     		movs	r3, #0
 996 0510 1204     		lsls	r2, r2, #16
 997 0512 120C     		lsrs	r2, r2, #16
 998 0514 1B0C     		lsrs	r3, r3, #16
 999 0516 1B04     		lsls	r3, r3, #16
 1000 0518 1343     		orrs	r3, r2
 1001 051a 1800     		movs	r0, r3
 1002 051c FFF7FEFF 		bl	CyBle_GattsWriteRsp
 427:ble_process.c **** 			
 1003              		.loc 1 427 0
 1004 0520 00F0FDFC 		bl	.L1	@ far jump
 1005              	.L16:
 433:ble_process.c **** 			
 1006              		.loc 1 433 0
 1007 0524 8023     		movs	r3, #128
 1008 0526 FB18     		adds	r3, r7, r3
 1009 0528 BA6C     		ldr	r2, [r7, #72]
ARM GAS  C:\Users\run1009\AppData\Local\Temp\ccJxhBPK.s 			page 39


 1010 052a 13CA     		ldmia	r2!, {r0, r1, r4}
 1011 052c 13C3     		stmia	r3!, {r0, r1, r4}
 1012 052e 1268     		ldr	r2, [r2]
 1013 0530 1A60     		str	r2, [r3]
 437:ble_process.c **** 			{
 1014              		.loc 1 437 0
 1015 0532 5E4B     		ldr	r3, .L67+16
 1016 0534 1B88     		ldrh	r3, [r3]
 1017 0536 002B     		cmp	r3, #0
 1018 0538 01D1     		bne	.LCB643
 1019 053a 00F0ACFC 		bl	.L60	@far jump
 1020              	.LCB643:
 440:ble_process.c **** 				{
 1021              		.loc 1 440 0
 1022 053e 8023     		movs	r3, #128
 1023 0540 FB18     		adds	r3, r7, r3
 1024 0542 9B89     		ldrh	r3, [r3, #12]
 1025 0544 112B     		cmp	r3, #17
 1026 0546 01D0     		beq	.LCB648
 1027 0548 00F0A5FC 		bl	.L60	@far jump
 1028              	.LCB648:
 443:ble_process.c **** 					{
 1029              		.loc 1 443 0
 1030 054c 8023     		movs	r3, #128
 1031 054e FB18     		adds	r3, r7, r3
 1032 0550 1B89     		ldrh	r3, [r3, #8]
 1033 0552 012B     		cmp	r3, #1
 1034 0554 01D0     		beq	.LCB653
 1035 0556 00F09EFC 		bl	.L60	@far jump
 1036              	.LCB653:
 446:ble_process.c **** 						
 1037              		.loc 1 446 0
 1038 055a 8023     		movs	r3, #128
 1039 055c FB18     		adds	r3, r7, r3
 1040 055e 5B68     		ldr	r3, [r3, #4]
 1041 0560 1A78     		ldrb	r2, [r3]
 1042 0562 564B     		ldr	r3, .L67+32
 1043 0564 1A70     		strb	r2, [r3]
 449:ble_process.c **** 						
 1044              		.loc 1 449 0
 1045 0566 554B     		ldr	r3, .L67+32
 1046 0568 1B78     		ldrb	r3, [r3]
 1047 056a 013B     		subs	r3, r3, #1
 1048 056c DAB2     		uxtb	r2, r3
 1049 056e 534B     		ldr	r3, .L67+32
 1050 0570 1A70     		strb	r2, [r3]
 453:ble_process.c **** 														0,
 1051              		.loc 1 453 0
 1052 0572 4F4A     		ldr	r2, .L67+20
 1053 0574 8023     		movs	r3, #128
 1054 0576 FB18     		adds	r3, r7, r3
 1055 0578 181D     		adds	r0, r3, #4
 1056 057a 0023     		movs	r3, #0
 1057 057c 0021     		movs	r1, #0
 1058 057e FFF7FEFF 		bl	CyBle_GattsWriteAttributeValue
 459:ble_process.c **** 						PrintNum(dataADVCounter);
 1059              		.loc 1 459 0
ARM GAS  C:\Users\run1009\AppData\Local\Temp\ccJxhBPK.s 			page 40


 1060 0582 524B     		ldr	r3, .L67+48
 1061 0584 1800     		movs	r0, r3
 1062 0586 FFF7FEFF 		bl	UART_UartPutString
 460:ble_process.c **** 						UART_UartPutCRLF(' ');
 1063              		.loc 1 460 0
 1064 058a 4C4B     		ldr	r3, .L67+32
 1065 058c 1B78     		ldrb	r3, [r3]
 1066 058e 1800     		movs	r0, r3
 1067 0590 FFF7FEFF 		bl	PrintNum
 461:ble_process.c **** 						#endif
 1068              		.loc 1 461 0
 1069 0594 2020     		movs	r0, #32
 1070 0596 FFF7FEFF 		bl	UART_UartPutCRLF
 467:ble_process.c **** 		
 1071              		.loc 1 467 0
 1072 059a 00F07CFC 		bl	.L60	@ far jump
 1073              	.L8:
 472:ble_process.c **** 			{
 1074              		.loc 1 472 0
 1075 059e 464B     		ldr	r3, .L67+28
 1076 05a0 1B78     		ldrb	r3, [r3]
 1077 05a2 022B     		cmp	r3, #2
 1078 05a4 01D1     		bne	.LCB689
 1079 05a6 00F078FC 		bl	.L61	@far jump
 1080              	.LCB689:
 476:ble_process.c **** 				
 1081              		.loc 1 476 0
 1082 05aa 9023     		movs	r3, #144
 1083 05ac FB18     		adds	r3, r7, r3
 1084 05ae BA6C     		ldr	r2, [r7, #72]
 1085 05b0 13CA     		ldmia	r2!, {r0, r1, r4}
 1086 05b2 13C3     		stmia	r3!, {r0, r1, r4}
 1087 05b4 03CA     		ldmia	r2!, {r0, r1}
 1088 05b6 03C3     		stmia	r3!, {r0, r1}
 491:ble_process.c **** 				{                          
 1089              		.loc 1 491 0
 1090 05b8 9023     		movs	r3, #144
 1091 05ba FB18     		adds	r3, r7, r3
 1092 05bc 1B78     		ldrb	r3, [r3]
 1093 05be 002B     		cmp	r3, #0
 1094 05c0 00D0     		beq	.LCB699
 1095 05c2 D3E2     		b	.L40	@long jump
 1096              	.LCB699:
 496:ble_process.c **** 					{
 1097              		.loc 1 496 0
 1098 05c4 9023     		movs	r3, #144
 1099 05c6 FB18     		adds	r3, r7, r3
 1100 05c8 1A7A     		ldrb	r2, [r3, #8]
 1101 05ca 414B     		ldr	r3, .L67+52
 1102 05cc DB7F     		ldrb	r3, [r3, #31]
 1103 05ce 9A42     		cmp	r2, r3
 1104 05d0 5AD1     		bne	.L41
 500:ble_process.c **** 						{
 1105              		.loc 1 500 0
 1106 05d2 9023     		movs	r3, #144
 1107 05d4 FB18     		adds	r3, r7, r3
 1108 05d6 DA68     		ldr	r2, [r3, #12]
ARM GAS  C:\Users\run1009\AppData\Local\Temp\ccJxhBPK.s 			page 41


 1109 05d8 9023     		movs	r3, #144
 1110 05da FB18     		adds	r3, r7, r3
 1111 05dc 1B7A     		ldrb	r3, [r3, #8]
 1112 05de 023B     		subs	r3, r3, #2
 1113 05e0 D318     		adds	r3, r2, r3
 1114 05e2 1B78     		ldrb	r3, [r3]
 1115 05e4 012B     		cmp	r3, #1
 1116 05e6 00D0     		beq	.LCB717
 1117 05e8 C0E2     		b	.L40	@long jump
 1118              	.LCB717:
 505:ble_process.c **** 							((scan_report.data[scan_report.dataLen-1] == 255) && (dataADVCounter == 0)))
 1119              		.loc 1 505 0
 1120 05ea 9023     		movs	r3, #144
 1121 05ec FB18     		adds	r3, r7, r3
 1122 05ee DA68     		ldr	r2, [r3, #12]
 1123 05f0 9023     		movs	r3, #144
 1124 05f2 FB18     		adds	r3, r7, r3
 1125 05f4 1B7A     		ldrb	r3, [r3, #8]
 1126 05f6 013B     		subs	r3, r3, #1
 1127 05f8 D318     		adds	r3, r2, r3
 1128 05fa 1A78     		ldrb	r2, [r3]
 1129 05fc 2F4B     		ldr	r3, .L67+32
 1130 05fe 1B78     		ldrb	r3, [r3]
 1131 0600 9A42     		cmp	r2, r3
 1132 0602 0ED3     		bcc	.L43
 506:ble_process.c **** 							{
 1133              		.loc 1 506 0 discriminator 1
 1134 0604 9023     		movs	r3, #144
 1135 0606 FB18     		adds	r3, r7, r3
 1136 0608 DA68     		ldr	r2, [r3, #12]
 1137 060a 9023     		movs	r3, #144
 1138 060c FB18     		adds	r3, r7, r3
 1139 060e 1B7A     		ldrb	r3, [r3, #8]
 1140 0610 013B     		subs	r3, r3, #1
 1141 0612 D318     		adds	r3, r2, r3
 1142 0614 1B78     		ldrb	r3, [r3]
 505:ble_process.c **** 							((scan_report.data[scan_report.dataLen-1] == 255) && (dataADVCounter == 0)))
 1143              		.loc 1 505 0 discriminator 1
 1144 0616 FF2B     		cmp	r3, #255
 1145 0618 1DD1     		bne	.L44
 506:ble_process.c **** 							{
 1146              		.loc 1 506 0
 1147 061a 284B     		ldr	r3, .L67+32
 1148 061c 1B78     		ldrb	r3, [r3]
 1149 061e 002B     		cmp	r3, #0
 1150 0620 19D1     		bne	.L44
 1151              	.L43:
 509:ble_process.c **** 								/* Save the advertising peripheral address and type*/
 1152              		.loc 1 509 0
 1153 0622 2C4B     		ldr	r3, .L67+56
 1154 0624 0122     		movs	r2, #1
 1155 0626 1A70     		strb	r2, [r3]
 511:ble_process.c **** 								potential_node_bdAddrType = scan_report.peerAddrType;
 1156              		.loc 1 511 0
 1157 0628 9023     		movs	r3, #144
 1158 062a FB18     		adds	r3, r7, r3
 1159 062c 5B68     		ldr	r3, [r3, #4]
ARM GAS  C:\Users\run1009\AppData\Local\Temp\ccJxhBPK.s 			page 42


 1160 062e 2A4A     		ldr	r2, .L67+60
 1161 0630 1000     		movs	r0, r2
 1162 0632 1900     		movs	r1, r3
 1163 0634 0623     		movs	r3, #6
 1164 0636 1A00     		movs	r2, r3
 1165 0638 FFF7FEFF 		bl	memcpy
 512:ble_process.c **** 								
 1166              		.loc 1 512 0
 1167 063c 9023     		movs	r3, #144
 1168 063e FB18     		adds	r3, r7, r3
 1169 0640 5A78     		ldrb	r2, [r3, #1]
 1170 0642 264B     		ldr	r3, .L67+64
 1171 0644 1A70     		strb	r2, [r3]
 515:ble_process.c **** 								UART_UartPutCRLF(' ');
 1172              		.loc 1 515 0
 1173 0646 264B     		ldr	r3, .L67+68
 1174 0648 1800     		movs	r0, r3
 1175 064a FFF7FEFF 		bl	UART_UartPutString
 516:ble_process.c **** 								#endif
 1176              		.loc 1 516 0
 1177 064e 2020     		movs	r0, #32
 1178 0650 FFF7FEFF 		bl	UART_UartPutCRLF
 1179 0654 8AE2     		b	.L40
 1180              	.L44:
 525:ble_process.c **** 								
 1181              		.loc 1 525 0
 1182 0656 1F4B     		ldr	r3, .L67+56
 1183 0658 0022     		movs	r2, #0
 1184 065a 1A70     		strb	r2, [r3]
 527:ble_process.c **** 								
 1185              		.loc 1 527 0
 1186 065c 1F4B     		ldr	r3, .L67+64
 1187 065e 0022     		movs	r2, #0
 1188 0660 1A70     		strb	r2, [r3]
 529:ble_process.c **** 								potential_node_bdAddr[1] = 0x00;
 1189              		.loc 1 529 0
 1190 0662 1D4B     		ldr	r3, .L67+60
 1191 0664 0022     		movs	r2, #0
 1192 0666 1A70     		strb	r2, [r3]
 530:ble_process.c **** 								potential_node_bdAddr[2] = 0x00;
 1193              		.loc 1 530 0
 1194 0668 1B4B     		ldr	r3, .L67+60
 1195 066a 0022     		movs	r2, #0
 1196 066c 5A70     		strb	r2, [r3, #1]
 531:ble_process.c **** 								potential_node_bdAddr[3] = 0x00;
 1197              		.loc 1 531 0
 1198 066e 1A4B     		ldr	r3, .L67+60
 1199 0670 0022     		movs	r2, #0
 1200 0672 9A70     		strb	r2, [r3, #2]
 532:ble_process.c **** 								potential_node_bdAddr[4] = 0x00;
 1201              		.loc 1 532 0
 1202 0674 184B     		ldr	r3, .L67+60
 1203 0676 0022     		movs	r2, #0
 1204 0678 DA70     		strb	r2, [r3, #3]
 533:ble_process.c **** 								potential_node_bdAddr[5] = 0x00;
 1205              		.loc 1 533 0
 1206 067a 174B     		ldr	r3, .L67+60
ARM GAS  C:\Users\run1009\AppData\Local\Temp\ccJxhBPK.s 			page 43


 1207 067c 0022     		movs	r2, #0
 1208 067e 1A71     		strb	r2, [r3, #4]
 534:ble_process.c **** 							}
 1209              		.loc 1 534 0
 1210 0680 154B     		ldr	r3, .L67+60
 1211 0682 0022     		movs	r2, #0
 1212 0684 5A71     		strb	r2, [r3, #5]
 1213 0686 71E2     		b	.L40
 1214              	.L41:
 1215              	.LBB5:
 540:ble_process.c ****                     
 1216              		.loc 1 540 0
 1217 0688 0023     		movs	r3, #0
 1218 068a 7A1C     		adds	r2, r7, #1
 1219 068c FF32     		adds	r2, r2, #255
 1220 068e 1360     		str	r3, [r2]
 1221              	.LBB6:
 542:ble_process.c ****                         if(scan_report.peerBdAddr[i] == bt_addr[i]){
 1222              		.loc 1 542 0
 1223 0690 FF23     		movs	r3, #255
 1224 0692 FB18     		adds	r3, r7, r3
 1225 0694 0022     		movs	r2, #0
 1226 0696 1A70     		strb	r2, [r3]
 1227 0698 41E0     		b	.L45
 1228              	.L68:
 1229 069a C046     		.align	2
 1230              	.L67:
 1231 069c 00000000 		.word	recvTempData
 1232 06a0 00005940 		.word	1079574528
 1233 06a4 44010000 		.word	.LC38
 1234 06a8 14000000 		.word	received_node_addr.8810
 1235 06ac 00000000 		.word	node_address
 1236 06b0 00000000 		.word	cyBle_connHandle
 1237 06b4 5C010000 		.word	.LC40
 1238 06b8 00000000 		.word	cyBle_state
 1239 06bc 00000000 		.word	dataADVCounter
 1240 06c0 6C010000 		.word	.LC43
 1241 06c4 00000000 		.word	switch_Role
 1242 06c8 AC010000 		.word	.LC45
 1243 06cc C4010000 		.word	.LC47
 1244 06d0 00000000 		.word	new_advData
 1245 06d4 00000000 		.word	potential_node_found
 1246 06d8 00000000 		.word	potential_node_bdAddr
 1247 06dc 00000000 		.word	potential_node_bdAddrType
 1248 06e0 FC010000 		.word	.LC52
 1249              	.L47:
 543:ble_process.c ****                             check++;   
 1250              		.loc 1 543 0
 1251 06e4 9023     		movs	r3, #144
 1252 06e6 FB18     		adds	r3, r7, r3
 1253 06e8 5A68     		ldr	r2, [r3, #4]
 1254 06ea FF23     		movs	r3, #255
 1255 06ec FB18     		adds	r3, r7, r3
 1256 06ee 1B78     		ldrb	r3, [r3]
 1257 06f0 D318     		adds	r3, r2, r3
 1258 06f2 1A78     		ldrb	r2, [r3]
 1259 06f4 FF23     		movs	r3, #255
ARM GAS  C:\Users\run1009\AppData\Local\Temp\ccJxhBPK.s 			page 44


 1260 06f6 FB18     		adds	r3, r7, r3
 1261 06f8 1B78     		ldrb	r3, [r3]
 1262 06fa EC49     		ldr	r1, .L69
 1263 06fc CB5C     		ldrb	r3, [r1, r3]
 1264 06fe 9A42     		cmp	r2, r3
 1265 0700 06D1     		bne	.L46
 544:ble_process.c ****                         }
 1266              		.loc 1 544 0
 1267 0702 7B1C     		adds	r3, r7, #1
 1268 0704 FF33     		adds	r3, r3, #255
 1269 0706 1B68     		ldr	r3, [r3]
 1270 0708 0133     		adds	r3, r3, #1
 1271 070a 7A1C     		adds	r2, r7, #1
 1272 070c FF32     		adds	r2, r2, #255
 1273 070e 1360     		str	r3, [r2]
 1274              	.L46:
 542:ble_process.c ****                         if(scan_report.peerBdAddr[i] == bt_addr[i]){
 1275              		.loc 1 542 0 discriminator 2
 1276 0710 FF23     		movs	r3, #255
 1277 0712 FB18     		adds	r3, r7, r3
 1278 0714 1A78     		ldrb	r2, [r3]
 1279 0716 FF23     		movs	r3, #255
 1280 0718 FB18     		adds	r3, r7, r3
 1281 071a 0132     		adds	r2, r2, #1
 1282 071c 1A70     		strb	r2, [r3]
 1283              	.L45:
 542:ble_process.c ****                         if(scan_report.peerBdAddr[i] == bt_addr[i]){
 1284              		.loc 1 542 0 is_stmt 0 discriminator 1
 1285 071e FF23     		movs	r3, #255
 1286 0720 FB18     		adds	r3, r7, r3
 1287 0722 1B78     		ldrb	r3, [r3]
 1288 0724 052B     		cmp	r3, #5
 1289 0726 DDD9     		bls	.L47
 1290              	.LBE6:
 548:ble_process.c ****                         /* Stop existing scan */
 1291              		.loc 1 548 0 is_stmt 1
 1292 0728 7B1C     		adds	r3, r7, #1
 1293 072a FF33     		adds	r3, r3, #255
 1294 072c 1B68     		ldr	r3, [r3]
 1295 072e 062B     		cmp	r3, #6
 1296 0730 00D0     		beq	.LCB881
 1297 0732 16E2     		b	.L48	@long jump
 1298              	.LCB881:
 1299              	.LBB7:
 550:ble_process.c ****     					
 1300              		.loc 1 550 0
 1301 0734 FFF7FEFF 		bl	CyBle_GapcStopScan
 553:ble_process.c ****     					UART_UartPutCRLF(' ');
 1302              		.loc 1 553 0
 1303 0738 DD4B     		ldr	r3, .L69+4
 1304 073a 1800     		movs	r0, r3
 1305 073c FFF7FEFF 		bl	UART_UartPutString
 554:ble_process.c ****                         UART_UartPutCRLF(' ');
 1306              		.loc 1 554 0
 1307 0740 2020     		movs	r0, #32
 1308 0742 FFF7FEFF 		bl	UART_UartPutCRLF
 555:ble_process.c ****                
ARM GAS  C:\Users\run1009\AppData\Local\Temp\ccJxhBPK.s 			page 45


 1309              		.loc 1 555 0
 1310 0746 2020     		movs	r0, #32
 1311 0748 FFF7FEFF 		bl	UART_UartPutCRLF
 557:ble_process.c ****                         char eventType[1];
 1312              		.loc 1 557 0
 1313 074c D94B     		ldr	r3, .L69+8
 1314 074e 1800     		movs	r0, r3
 1315 0750 FFF7FEFF 		bl	UART_UartPutString
 559:ble_process.c ****                         UART_UartPutString(eventType);
 1316              		.loc 1 559 0
 1317 0754 9023     		movs	r3, #144
 1318 0756 FB18     		adds	r3, r7, r3
 1319 0758 1B78     		ldrb	r3, [r3]
 1320 075a 1A00     		movs	r2, r3
 1321 075c D649     		ldr	r1, .L69+12
 1322 075e 6423     		movs	r3, #100
 1323 0760 FB18     		adds	r3, r7, r3
 1324 0762 1800     		movs	r0, r3
 1325 0764 FFF7FEFF 		bl	sprintf
 560:ble_process.c ****                         UART_UartPutString("\r\n");
 1326              		.loc 1 560 0
 1327 0768 6423     		movs	r3, #100
 1328 076a FB18     		adds	r3, r7, r3
 1329 076c 1800     		movs	r0, r3
 1330 076e FFF7FEFF 		bl	UART_UartPutString
 561:ble_process.c ****                         UART_UartPutString("RSSI: ");
 1331              		.loc 1 561 0
 1332 0772 D24B     		ldr	r3, .L69+16
 1333 0774 1800     		movs	r0, r3
 1334 0776 FFF7FEFF 		bl	UART_UartPutString
 562:ble_process.c ****                         char rssi[12];
 1335              		.loc 1 562 0
 1336 077a D14B     		ldr	r3, .L69+20
 1337 077c 1800     		movs	r0, r3
 1338 077e FFF7FEFF 		bl	UART_UartPutString
 564:ble_process.c ****                         UART_UartPutString(rssi);
 1339              		.loc 1 564 0
 1340 0782 9023     		movs	r3, #144
 1341 0784 FB18     		adds	r3, r7, r3
 1342 0786 1B7C     		ldrb	r3, [r3, #16]
 1343 0788 5BB2     		sxtb	r3, r3
 1344 078a 1A00     		movs	r2, r3
 1345 078c CA49     		ldr	r1, .L69+12
 1346 078e 5823     		movs	r3, #88
 1347 0790 FB18     		adds	r3, r7, r3
 1348 0792 1800     		movs	r0, r3
 1349 0794 FFF7FEFF 		bl	sprintf
 565:ble_process.c ****                         UART_UartPutString("\r\n");
 1350              		.loc 1 565 0
 1351 0798 5823     		movs	r3, #88
 1352 079a FB18     		adds	r3, r7, r3
 1353 079c 1800     		movs	r0, r3
 1354 079e FFF7FEFF 		bl	UART_UartPutString
 566:ble_process.c ****                         UART_UartPutString("BLE Address: 0x");
 1355              		.loc 1 566 0
 1356 07a2 C64B     		ldr	r3, .L69+16
 1357 07a4 1800     		movs	r0, r3
ARM GAS  C:\Users\run1009\AppData\Local\Temp\ccJxhBPK.s 			page 46


 1358 07a6 FFF7FEFF 		bl	UART_UartPutString
 567:ble_process.c **** 
 1359              		.loc 1 567 0
 1360 07aa C64B     		ldr	r3, .L69+24
 1361 07ac 1800     		movs	r0, r3
 1362 07ae FFF7FEFF 		bl	UART_UartPutString
 569:ble_process.c ****     				    PrintHex(scan_report.peerBdAddr[4u]);
 1363              		.loc 1 569 0
 1364 07b2 9023     		movs	r3, #144
 1365 07b4 FB18     		adds	r3, r7, r3
 1366 07b6 5B68     		ldr	r3, [r3, #4]
 1367 07b8 0533     		adds	r3, r3, #5
 1368 07ba 1B78     		ldrb	r3, [r3]
 1369 07bc 1800     		movs	r0, r3
 1370 07be FFF7FEFF 		bl	PrintHex
 570:ble_process.c ****     				    PrintHex(scan_report.peerBdAddr[3u]);
 1371              		.loc 1 570 0
 1372 07c2 9023     		movs	r3, #144
 1373 07c4 FB18     		adds	r3, r7, r3
 1374 07c6 5B68     		ldr	r3, [r3, #4]
 1375 07c8 0433     		adds	r3, r3, #4
 1376 07ca 1B78     		ldrb	r3, [r3]
 1377 07cc 1800     		movs	r0, r3
 1378 07ce FFF7FEFF 		bl	PrintHex
 571:ble_process.c ****                         PrintHex(scan_report.peerBdAddr[2u]);
 1379              		.loc 1 571 0
 1380 07d2 9023     		movs	r3, #144
 1381 07d4 FB18     		adds	r3, r7, r3
 1382 07d6 5B68     		ldr	r3, [r3, #4]
 1383 07d8 0333     		adds	r3, r3, #3
 1384 07da 1B78     		ldrb	r3, [r3]
 1385 07dc 1800     		movs	r0, r3
 1386 07de FFF7FEFF 		bl	PrintHex
 572:ble_process.c ****                         PrintHex(scan_report.peerBdAddr[1u]);
 1387              		.loc 1 572 0
 1388 07e2 9023     		movs	r3, #144
 1389 07e4 FB18     		adds	r3, r7, r3
 1390 07e6 5B68     		ldr	r3, [r3, #4]
 1391 07e8 0233     		adds	r3, r3, #2
 1392 07ea 1B78     		ldrb	r3, [r3]
 1393 07ec 1800     		movs	r0, r3
 1394 07ee FFF7FEFF 		bl	PrintHex
 573:ble_process.c ****                         PrintHex(scan_report.peerBdAddr[0u]);
 1395              		.loc 1 573 0
 1396 07f2 9023     		movs	r3, #144
 1397 07f4 FB18     		adds	r3, r7, r3
 1398 07f6 5B68     		ldr	r3, [r3, #4]
 1399 07f8 0133     		adds	r3, r3, #1
 1400 07fa 1B78     		ldrb	r3, [r3]
 1401 07fc 1800     		movs	r0, r3
 1402 07fe FFF7FEFF 		bl	PrintHex
 574:ble_process.c ****                         
 1403              		.loc 1 574 0
 1404 0802 9023     		movs	r3, #144
 1405 0804 FB18     		adds	r3, r7, r3
 1406 0806 5B68     		ldr	r3, [r3, #4]
 1407 0808 1B78     		ldrb	r3, [r3]
ARM GAS  C:\Users\run1009\AppData\Local\Temp\ccJxhBPK.s 			page 47


 1408 080a 1800     		movs	r0, r3
 1409 080c FFF7FEFF 		bl	PrintHex
 576:ble_process.c ****                         UART_UartPutCRLF(' ');
 1410              		.loc 1 576 0
 1411 0810 2020     		movs	r0, #32
 1412 0812 FFF7FEFF 		bl	UART_UartPutCRLF
 577:ble_process.c ****     					
 1413              		.loc 1 577 0
 1414 0816 2020     		movs	r0, #32
 1415 0818 FFF7FEFF 		bl	UART_UartPutCRLF
 579:ble_process.c **** 
 1416              		.loc 1 579 0
 1417 081c AA4B     		ldr	r3, .L69+28
 1418 081e 1800     		movs	r0, r3
 1419 0820 FFF7FEFF 		bl	UART_UartPutString
 581:ble_process.c **** 
 1420              		.loc 1 581 0
 1421 0824 0023     		movs	r3, #0
 1422 0826 E822     		movs	r2, #232
 1423 0828 BA18     		adds	r2, r7, r2
 1424 082a 1360     		str	r3, [r2]
 1425              	.LBB8:
 583:ble_process.c ****                             val[i] = (uint8_t) scan_report.data[i];
 1426              		.loc 1 583 0
 1427 082c 0023     		movs	r3, #0
 1428 082e F822     		movs	r2, #248
 1429 0830 BA18     		adds	r2, r7, r2
 1430 0832 1360     		str	r3, [r2]
 1431 0834 15E0     		b	.L49
 1432              	.L50:
 584:ble_process.c ****                         }
 1433              		.loc 1 584 0 discriminator 3
 1434 0836 9023     		movs	r3, #144
 1435 0838 FB18     		adds	r3, r7, r3
 1436 083a DA68     		ldr	r2, [r3, #12]
 1437 083c F823     		movs	r3, #248
 1438 083e FB18     		adds	r3, r7, r3
 1439 0840 1B68     		ldr	r3, [r3]
 1440 0842 D318     		adds	r3, r2, r3
 1441 0844 1978     		ldrb	r1, [r3]
 1442 0846 A14A     		ldr	r2, .L69+32
 1443 0848 F823     		movs	r3, #248
 1444 084a FB18     		adds	r3, r7, r3
 1445 084c 1B68     		ldr	r3, [r3]
 1446 084e D318     		adds	r3, r2, r3
 1447 0850 0A1C     		adds	r2, r1, #0
 1448 0852 1A70     		strb	r2, [r3]
 583:ble_process.c ****                             val[i] = (uint8_t) scan_report.data[i];
 1449              		.loc 1 583 0 discriminator 3
 1450 0854 F823     		movs	r3, #248
 1451 0856 FB18     		adds	r3, r7, r3
 1452 0858 1B68     		ldr	r3, [r3]
 1453 085a 0133     		adds	r3, r3, #1
 1454 085c F822     		movs	r2, #248
 1455 085e BA18     		adds	r2, r7, r2
 1456 0860 1360     		str	r3, [r2]
 1457              	.L49:
ARM GAS  C:\Users\run1009\AppData\Local\Temp\ccJxhBPK.s 			page 48


 583:ble_process.c ****                             val[i] = (uint8_t) scan_report.data[i];
 1458              		.loc 1 583 0 is_stmt 0 discriminator 1
 1459 0862 9023     		movs	r3, #144
 1460 0864 FB18     		adds	r3, r7, r3
 1461 0866 1B7A     		ldrb	r3, [r3, #8]
 1462 0868 1A00     		movs	r2, r3
 1463 086a F823     		movs	r3, #248
 1464 086c FB18     		adds	r3, r7, r3
 1465 086e 1B68     		ldr	r3, [r3]
 1466 0870 9A42     		cmp	r2, r3
 1467 0872 E0DC     		bgt	.L50
 1468              	.LBE8:
 587:ble_process.c ****                         
 1469              		.loc 1 587 0 is_stmt 1
 1470 0874 2020     		movs	r0, #32
 1471 0876 FFF7FEFF 		bl	UART_UartPutCRLF
 589:ble_process.c ****                         result = GetSensorData();
 1472              		.loc 1 589 0
 1473 087a 9023     		movs	r3, #144
 1474 087c FB18     		adds	r3, r7, r3
 1475 087e 1022     		movs	r2, #16
 1476 0880 9A56     		ldrsb	r2, [r3, r2]
 1477 0882 9023     		movs	r3, #144
 1478 0884 FB18     		adds	r3, r7, r3
 1479 0886 DB68     		ldr	r3, [r3, #12]
 1480 0888 1900     		movs	r1, r3
 1481 088a 1000     		movs	r0, r2
 1482 088c FFF7FEFF 		bl	EnvSensorProcess
 590:ble_process.c ****                         char* temp = ftoa(result.temp);
 1483              		.loc 1 590 0
 1484 0890 8F4C     		ldr	r4, .L69+36
 1485 0892 3B00     		movs	r3, r7
 1486 0894 1800     		movs	r0, r3
 1487 0896 FFF7FEFF 		bl	GetSensorData
 1488 089a 8E4B     		ldr	r3, .L69+40
 1489 089c 8422     		movs	r2, #132
 1490 089e 5200     		lsls	r2, r2, #1
 1491 08a0 9446     		mov	ip, r2
 1492 08a2 BC44     		add	ip, ip, r7
 1493 08a4 6344     		add	r3, r3, ip
 1494 08a6 2000     		movs	r0, r4
 1495 08a8 1900     		movs	r1, r3
 1496 08aa 4423     		movs	r3, #68
 1497 08ac 1A00     		movs	r2, r3
 1498 08ae FFF7FEFF 		bl	memcpy
 591:ble_process.c ****                         UART_UartPutString("temperature: ");
 1499              		.loc 1 591 0
 1500 08b2 874B     		ldr	r3, .L69+36
 1501 08b4 9B68     		ldr	r3, [r3, #8]
 1502 08b6 181C     		adds	r0, r3, #0
 1503 08b8 FFF7FEFF 		bl	ftoa
 1504 08bc 0300     		movs	r3, r0
 1505 08be E422     		movs	r2, #228
 1506 08c0 BA18     		adds	r2, r7, r2
 1507 08c2 1360     		str	r3, [r2]
 592:ble_process.c ****                         UART_UartPutString(temp);
 1508              		.loc 1 592 0
ARM GAS  C:\Users\run1009\AppData\Local\Temp\ccJxhBPK.s 			page 49


 1509 08c4 844B     		ldr	r3, .L69+44
 1510 08c6 1800     		movs	r0, r3
 1511 08c8 FFF7FEFF 		bl	UART_UartPutString
 593:ble_process.c ****                         UART_UartPutCRLF(' ');
 1512              		.loc 1 593 0
 1513 08cc E423     		movs	r3, #228
 1514 08ce FB18     		adds	r3, r7, r3
 1515 08d0 1B68     		ldr	r3, [r3]
 1516 08d2 1800     		movs	r0, r3
 1517 08d4 FFF7FEFF 		bl	UART_UartPutString
 594:ble_process.c ****                         char li[1];
 1518              		.loc 1 594 0
 1519 08d8 2020     		movs	r0, #32
 1520 08da FFF7FEFF 		bl	UART_UartPutCRLF
 596:ble_process.c ****                         UART_UartPutString("light: ");
 1521              		.loc 1 596 0
 1522 08de 7C4B     		ldr	r3, .L69+36
 1523 08e0 1022     		movs	r2, #16
 1524 08e2 9B5E     		ldrsh	r3, [r3, r2]
 1525 08e4 1A00     		movs	r2, r3
 1526 08e6 7D49     		ldr	r1, .L69+48
 1527 08e8 5423     		movs	r3, #84
 1528 08ea FB18     		adds	r3, r7, r3
 1529 08ec 1800     		movs	r0, r3
 1530 08ee FFF7FEFF 		bl	sprintf
 597:ble_process.c ****                         PrintNum(result.light);
 1531              		.loc 1 597 0
 1532 08f2 7B4B     		ldr	r3, .L69+52
 1533 08f4 1800     		movs	r0, r3
 1534 08f6 FFF7FEFF 		bl	UART_UartPutString
 598:ble_process.c ****                         UART_UartPutCRLF(' ');
 1535              		.loc 1 598 0
 1536 08fa 754B     		ldr	r3, .L69+36
 1537 08fc 1022     		movs	r2, #16
 1538 08fe 9B5E     		ldrsh	r3, [r3, r2]
 1539 0900 DBB2     		uxtb	r3, r3
 1540 0902 1800     		movs	r0, r3
 1541 0904 FFF7FEFF 		bl	PrintNum
 599:ble_process.c ****                         char* noise = ftoa(result.noise);
 1542              		.loc 1 599 0
 1543 0908 2020     		movs	r0, #32
 1544 090a FFF7FEFF 		bl	UART_UartPutCRLF
 600:ble_process.c ****                         UART_UartPutString("noise: ");
 1545              		.loc 1 600 0
 1546 090e 704B     		ldr	r3, .L69+36
 1547 0910 DB69     		ldr	r3, [r3, #28]
 1548 0912 181C     		adds	r0, r3, #0
 1549 0914 FFF7FEFF 		bl	ftoa
 1550 0918 0300     		movs	r3, r0
 1551 091a E022     		movs	r2, #224
 1552 091c BA18     		adds	r2, r7, r2
 1553 091e 1360     		str	r3, [r2]
 601:ble_process.c ****                         UART_UartPutString(noise);
 1554              		.loc 1 601 0
 1555 0920 704B     		ldr	r3, .L69+56
 1556 0922 1800     		movs	r0, r3
 1557 0924 FFF7FEFF 		bl	UART_UartPutString
ARM GAS  C:\Users\run1009\AppData\Local\Temp\ccJxhBPK.s 			page 50


 602:ble_process.c ****                         UART_UartPutCRLF(' ');
 1558              		.loc 1 602 0
 1559 0928 E023     		movs	r3, #224
 1560 092a FB18     		adds	r3, r7, r3
 1561 092c 1B68     		ldr	r3, [r3]
 1562 092e 1800     		movs	r0, r3
 1563 0930 FFF7FEFF 		bl	UART_UartPutString
 603:ble_process.c ****                         char* humi = ftoa(result.humi);
 1564              		.loc 1 603 0
 1565 0934 2020     		movs	r0, #32
 1566 0936 FFF7FEFF 		bl	UART_UartPutCRLF
 604:ble_process.c ****                         UART_UartPutString("humidity: ");
 1567              		.loc 1 604 0
 1568 093a 654B     		ldr	r3, .L69+36
 1569 093c DB68     		ldr	r3, [r3, #12]
 1570 093e 181C     		adds	r0, r3, #0
 1571 0940 FFF7FEFF 		bl	ftoa
 1572 0944 0300     		movs	r3, r0
 1573 0946 DC22     		movs	r2, #220
 1574 0948 BA18     		adds	r2, r7, r2
 1575 094a 1360     		str	r3, [r2]
 605:ble_process.c ****                         UART_UartPutString(humi);
 1576              		.loc 1 605 0
 1577 094c 664B     		ldr	r3, .L69+60
 1578 094e 1800     		movs	r0, r3
 1579 0950 FFF7FEFF 		bl	UART_UartPutString
 606:ble_process.c ****                         UART_UartPutCRLF(' ');
 1580              		.loc 1 606 0
 1581 0954 DC23     		movs	r3, #220
 1582 0956 FB18     		adds	r3, r7, r3
 1583 0958 1B68     		ldr	r3, [r3]
 1584 095a 1800     		movs	r0, r3
 1585 095c FFF7FEFF 		bl	UART_UartPutString
 607:ble_process.c ****                         char* uv = ftoa(result.uv);
 1586              		.loc 1 607 0
 1587 0960 2020     		movs	r0, #32
 1588 0962 FFF7FEFF 		bl	UART_UartPutCRLF
 608:ble_process.c ****                         UART_UartPutString("uv: ");
 1589              		.loc 1 608 0
 1590 0966 5A4B     		ldr	r3, .L69+36
 1591 0968 5B69     		ldr	r3, [r3, #20]
 1592 096a 181C     		adds	r0, r3, #0
 1593 096c FFF7FEFF 		bl	ftoa
 1594 0970 0300     		movs	r3, r0
 1595 0972 D822     		movs	r2, #216
 1596 0974 BA18     		adds	r2, r7, r2
 1597 0976 1360     		str	r3, [r2]
 609:ble_process.c ****                         UART_UartPutString(uv);
 1598              		.loc 1 609 0
 1599 0978 5C4B     		ldr	r3, .L69+64
 1600 097a 1800     		movs	r0, r3
 1601 097c FFF7FEFF 		bl	UART_UartPutString
 610:ble_process.c ****                         UART_UartPutCRLF(' ');
 1602              		.loc 1 610 0
 1603 0980 D823     		movs	r3, #216
 1604 0982 FB18     		adds	r3, r7, r3
 1605 0984 1B68     		ldr	r3, [r3]
ARM GAS  C:\Users\run1009\AppData\Local\Temp\ccJxhBPK.s 			page 51


 1606 0986 1800     		movs	r0, r3
 1607 0988 FFF7FEFF 		bl	UART_UartPutString
 611:ble_process.c ****                         char* press = ftoa(result.pressure);
 1608              		.loc 1 611 0
 1609 098c 2020     		movs	r0, #32
 1610 098e FFF7FEFF 		bl	UART_UartPutCRLF
 612:ble_process.c ****                         UART_UartPutString("pressure: ");
 1611              		.loc 1 612 0
 1612 0992 4F4B     		ldr	r3, .L69+36
 1613 0994 9B69     		ldr	r3, [r3, #24]
 1614 0996 181C     		adds	r0, r3, #0
 1615 0998 FFF7FEFF 		bl	ftoa
 1616 099c 0300     		movs	r3, r0
 1617 099e D422     		movs	r2, #212
 1618 09a0 BA18     		adds	r2, r7, r2
 1619 09a2 1360     		str	r3, [r2]
 613:ble_process.c ****                         UART_UartPutString(press);
 1620              		.loc 1 613 0
 1621 09a4 524B     		ldr	r3, .L69+68
 1622 09a6 1800     		movs	r0, r3
 1623 09a8 FFF7FEFF 		bl	UART_UartPutString
 614:ble_process.c ****                         UART_UartPutCRLF(' ');
 1624              		.loc 1 614 0
 1625 09ac D423     		movs	r3, #212
 1626 09ae FB18     		adds	r3, r7, r3
 1627 09b0 1B68     		ldr	r3, [r3]
 1628 09b2 1800     		movs	r0, r3
 1629 09b4 FFF7FEFF 		bl	UART_UartPutString
 615:ble_process.c ****                         char* di = ftoa(result.di);
 1630              		.loc 1 615 0
 1631 09b8 2020     		movs	r0, #32
 1632 09ba FFF7FEFF 		bl	UART_UartPutCRLF
 616:ble_process.c ****                         UART_UartPutString("dimention: ");
 1633              		.loc 1 616 0
 1634 09be 444B     		ldr	r3, .L69+36
 1635 09c0 1B6A     		ldr	r3, [r3, #32]
 1636 09c2 181C     		adds	r0, r3, #0
 1637 09c4 FFF7FEFF 		bl	ftoa
 1638 09c8 0300     		movs	r3, r0
 1639 09ca D022     		movs	r2, #208
 1640 09cc BA18     		adds	r2, r7, r2
 1641 09ce 1360     		str	r3, [r2]
 617:ble_process.c ****                         UART_UartPutString(di);
 1642              		.loc 1 617 0
 1643 09d0 484B     		ldr	r3, .L69+72
 1644 09d2 1800     		movs	r0, r3
 1645 09d4 FFF7FEFF 		bl	UART_UartPutString
 618:ble_process.c ****                         UART_UartPutCRLF(' ');
 1646              		.loc 1 618 0
 1647 09d8 D023     		movs	r3, #208
 1648 09da FB18     		adds	r3, r7, r3
 1649 09dc 1B68     		ldr	r3, [r3]
 1650 09de 1800     		movs	r0, r3
 1651 09e0 FFF7FEFF 		bl	UART_UartPutString
 619:ble_process.c ****                         char* heat = ftoa(result.heat);
 1652              		.loc 1 619 0
 1653 09e4 2020     		movs	r0, #32
ARM GAS  C:\Users\run1009\AppData\Local\Temp\ccJxhBPK.s 			page 52


 1654 09e6 FFF7FEFF 		bl	UART_UartPutCRLF
 620:ble_process.c ****                         UART_UartPutString("heat: ");
 1655              		.loc 1 620 0
 1656 09ea 394B     		ldr	r3, .L69+36
 1657 09ec 5B6A     		ldr	r3, [r3, #36]
 1658 09ee 181C     		adds	r0, r3, #0
 1659 09f0 FFF7FEFF 		bl	ftoa
 1660 09f4 0300     		movs	r3, r0
 1661 09f6 CC22     		movs	r2, #204
 1662 09f8 BA18     		adds	r2, r7, r2
 1663 09fa 1360     		str	r3, [r2]
 621:ble_process.c ****                         UART_UartPutString(heat);
 1664              		.loc 1 621 0
 1665 09fc 3E4B     		ldr	r3, .L69+76
 1666 09fe 1800     		movs	r0, r3
 1667 0a00 FFF7FEFF 		bl	UART_UartPutString
 622:ble_process.c ****                         UART_UartPutCRLF(' ');
 1668              		.loc 1 622 0
 1669 0a04 CC23     		movs	r3, #204
 1670 0a06 FB18     		adds	r3, r7, r3
 1671 0a08 1B68     		ldr	r3, [r3]
 1672 0a0a 1800     		movs	r0, r3
 1673 0a0c FFF7FEFF 		bl	UART_UartPutString
 623:ble_process.c ****                         char* battery = ftoa(result.battery);
 1674              		.loc 1 623 0
 1675 0a10 2020     		movs	r0, #32
 1676 0a12 FFF7FEFF 		bl	UART_UartPutCRLF
 624:ble_process.c ****                         UART_UartPutString("battery: ");
 1677              		.loc 1 624 0
 1678 0a16 2E4B     		ldr	r3, .L69+36
 1679 0a18 5B6B     		ldr	r3, [r3, #52]
 1680 0a1a 181C     		adds	r0, r3, #0
 1681 0a1c FFF7FEFF 		bl	ftoa
 1682 0a20 0300     		movs	r3, r0
 1683 0a22 C822     		movs	r2, #200
 1684 0a24 BA18     		adds	r2, r7, r2
 1685 0a26 1360     		str	r3, [r2]
 625:ble_process.c ****                         UART_UartPutString(battery);
 1686              		.loc 1 625 0
 1687 0a28 344B     		ldr	r3, .L69+80
 1688 0a2a 1800     		movs	r0, r3
 1689 0a2c FFF7FEFF 		bl	UART_UartPutString
 626:ble_process.c ****                         UART_UartPutCRLF(' ');
 1690              		.loc 1 626 0
 1691 0a30 C823     		movs	r3, #200
 1692 0a32 FB18     		adds	r3, r7, r3
 1693 0a34 1B68     		ldr	r3, [r3]
 1694 0a36 1800     		movs	r0, r3
 1695 0a38 FFF7FEFF 		bl	UART_UartPutString
 627:ble_process.c ****                         char* distance = ftoa(result.distance);
 1696              		.loc 1 627 0
 1697 0a3c 2020     		movs	r0, #32
 1698 0a3e FFF7FEFF 		bl	UART_UartPutCRLF
 628:ble_process.c ****                         UART_UartPutString("distance: ");
 1699              		.loc 1 628 0
 1700 0a42 234B     		ldr	r3, .L69+36
 1701 0a44 DB6B     		ldr	r3, [r3, #60]
ARM GAS  C:\Users\run1009\AppData\Local\Temp\ccJxhBPK.s 			page 53


 1702 0a46 181C     		adds	r0, r3, #0
 1703 0a48 FFF7FEFF 		bl	ftoa
 1704 0a4c 0300     		movs	r3, r0
 1705 0a4e C422     		movs	r2, #196
 1706 0a50 BA18     		adds	r2, r7, r2
 1707 0a52 1360     		str	r3, [r2]
 629:ble_process.c ****                         UART_UartPutString(distance);
 1708              		.loc 1 629 0
 1709 0a54 2A4B     		ldr	r3, .L69+84
 1710 0a56 1800     		movs	r0, r3
 1711 0a58 FFF7FEFF 		bl	UART_UartPutString
 630:ble_process.c ****                         UART_UartPutCRLF(' ');
 1712              		.loc 1 630 0
 1713 0a5c C423     		movs	r3, #196
 1714 0a5e FB18     		adds	r3, r7, r3
 1715 0a60 1B68     		ldr	r3, [r3]
 1716 0a62 1800     		movs	r0, r3
 1717 0a64 FFF7FEFF 		bl	UART_UartPutString
 631:ble_process.c ****                         UART_UartPutCRLF(' ');
 1718              		.loc 1 631 0
 1719 0a68 2020     		movs	r0, #32
 1720 0a6a FFF7FEFF 		bl	UART_UartPutCRLF
 632:ble_process.c ****                         
 1721              		.loc 1 632 0
 1722 0a6e 2020     		movs	r0, #32
 1723 0a70 FFF7FEFF 		bl	UART_UartPutCRLF
 636:ble_process.c ****                         tempData[RGB_GREEN_INDEX] = scan_report.data[8];
 1724              		.loc 1 636 0
 1725 0a74 9023     		movs	r3, #144
 1726 0a76 FB18     		adds	r3, r7, r3
 1727 0a78 DB68     		ldr	r3, [r3, #12]
 1728 0a7a 5A7A     		ldrb	r2, [r3, #9]
 1729 0a7c 214B     		ldr	r3, .L69+88
 1730 0a7e 1A70     		strb	r2, [r3]
 637:ble_process.c ****                         tempData[RGB_BLUE_INDEX] = 0x00; //reserved
 1731              		.loc 1 637 0
 1732 0a80 9023     		movs	r3, #144
 1733 0a82 FB18     		adds	r3, r7, r3
 1734 0a84 DB68     		ldr	r3, [r3, #12]
 1735 0a86 1A7A     		ldrb	r2, [r3, #8]
 1736 0a88 1E4B     		ldr	r3, .L69+88
 1737 0a8a 5A70     		strb	r2, [r3, #1]
 638:ble_process.c ****                         tempData[RGB_INTENSITY_INDEX] = 0x00; //reserved
 1738              		.loc 1 638 0
 1739 0a8c 1D4B     		ldr	r3, .L69+88
 1740 0a8e 0022     		movs	r2, #0
 1741 0a90 9A70     		strb	r2, [r3, #2]
 639:ble_process.c ****                         //result.flagActive = FALSE;
 1742              		.loc 1 639 0
 1743 0a92 1C4B     		ldr	r3, .L69+88
 1744 0a94 0022     		movs	r2, #0
 1745 0a96 DA70     		strb	r2, [r3, #3]
 643:ble_process.c ****                         for(int i=0;i<5;i++)
 1746              		.loc 1 643 0
 1747 0a98 1B4B     		ldr	r3, .L69+92
 1748 0a9a 1800     		movs	r0, r3
 1749 0a9c FFF7FEFF 		bl	UART_UartPutString
ARM GAS  C:\Users\run1009\AppData\Local\Temp\ccJxhBPK.s 			page 54


 1750              	.LBB9:
 644:ble_process.c ****                             PrintHex(tempData[i]);
 1751              		.loc 1 644 0
 1752 0aa0 0023     		movs	r3, #0
 1753 0aa2 F422     		movs	r2, #244
 1754 0aa4 BA18     		adds	r2, r7, r2
 1755 0aa6 1360     		str	r3, [r2]
 1756 0aa8 40E0     		b	.L51
 1757              	.L70:
 1758 0aaa C046     		.align	2
 1759              	.L69:
 1760 0aac 00000000 		.word	bt_addr
 1761 0ab0 14020000 		.word	.LC55
 1762 0ab4 28020000 		.word	.LC57
 1763 0ab8 34020000 		.word	.LC59
 1764 0abc 38020000 		.word	.LC61
 1765 0ac0 3C020000 		.word	.LC63
 1766 0ac4 44020000 		.word	.LC65
 1767 0ac8 54020000 		.word	.LC67
 1768 0acc 00000000 		.word	val
 1769 0ad0 00000000 		.word	result
 1770 0ad4 F8FEFFFF 		.word	-264
 1771 0ad8 84020000 		.word	.LC71
 1772 0adc 94020000 		.word	.LC73
 1773 0ae0 98020000 		.word	.LC75
 1774 0ae4 A0020000 		.word	.LC77
 1775 0ae8 A8020000 		.word	.LC79
 1776 0aec B4020000 		.word	.LC81
 1777 0af0 BC020000 		.word	.LC83
 1778 0af4 C8020000 		.word	.LC85
 1779 0af8 D4020000 		.word	.LC87
 1780 0afc DC020000 		.word	.LC89
 1781 0b00 E8020000 		.word	.LC91
 1782 0b04 00000000 		.word	tempData
 1783 0b08 38010000 		.word	.LC36
 1784              	.L52:
 645:ble_process.c **** 						UART_UartPutCRLF(' ');
 1785              		.loc 1 645 0 discriminator 3
 1786 0b0c E64A     		ldr	r2, .L71
 1787 0b0e F423     		movs	r3, #244
 1788 0b10 FB18     		adds	r3, r7, r3
 1789 0b12 1B68     		ldr	r3, [r3]
 1790 0b14 D318     		adds	r3, r2, r3
 1791 0b16 1B78     		ldrb	r3, [r3]
 1792 0b18 1800     		movs	r0, r3
 1793 0b1a FFF7FEFF 		bl	PrintHex
 644:ble_process.c ****                             PrintHex(tempData[i]);
 1794              		.loc 1 644 0 discriminator 3
 1795 0b1e F423     		movs	r3, #244
 1796 0b20 FB18     		adds	r3, r7, r3
 1797 0b22 1B68     		ldr	r3, [r3]
 1798 0b24 0133     		adds	r3, r3, #1
 1799 0b26 F422     		movs	r2, #244
 1800 0b28 BA18     		adds	r2, r7, r2
 1801 0b2a 1360     		str	r3, [r2]
 1802              	.L51:
 644:ble_process.c ****                             PrintHex(tempData[i]);
ARM GAS  C:\Users\run1009\AppData\Local\Temp\ccJxhBPK.s 			page 55


 1803              		.loc 1 644 0 is_stmt 0 discriminator 1
 1804 0b2c F423     		movs	r3, #244
 1805 0b2e FB18     		adds	r3, r7, r3
 1806 0b30 1B68     		ldr	r3, [r3]
 1807 0b32 042B     		cmp	r3, #4
 1808 0b34 EADD     		ble	.L52
 1809              	.LBE9:
 646:ble_process.c ****                         
 1810              		.loc 1 646 0 is_stmt 1
 1811 0b36 2020     		movs	r0, #32
 1812 0b38 FFF7FEFF 		bl	UART_UartPutCRLF
 650:ble_process.c **** 						//switch_Role = TRUE;                       
 1813              		.loc 1 650 0
 1814 0b3c DB4B     		ldr	r3, .L71+4
 1815 0b3e 1B78     		ldrb	r3, [r3]
 1816 0b40 0133     		adds	r3, r3, #1
 1817 0b42 DAB2     		uxtb	r2, r3
 1818 0b44 D94B     		ldr	r3, .L71+4
 1819 0b46 1A70     		strb	r2, [r3]
 653:ble_process.c ****                         PrintNum(sensorReceiveStartedTime);
 1820              		.loc 1 653 0
 1821 0b48 D94B     		ldr	r3, .L71+8
 1822 0b4a 1800     		movs	r0, r3
 1823 0b4c FFF7FEFF 		bl	UART_UartPutString
 654:ble_process.c **** 						UART_UartPutCRLF(' ');
 1824              		.loc 1 654 0
 1825 0b50 D84B     		ldr	r3, .L71+12
 1826 0b52 1B88     		ldrh	r3, [r3]
 1827 0b54 DBB2     		uxtb	r3, r3
 1828 0b56 1800     		movs	r0, r3
 1829 0b58 FFF7FEFF 		bl	PrintNum
 655:ble_process.c **** 						#if (DEBUG_ENABLED == 1)
 1830              		.loc 1 655 0
 1831 0b5c 2020     		movs	r0, #32
 1832 0b5e FFF7FEFF 		bl	UART_UartPutCRLF
 1833              	.L48:
 1834              	.LBE7:
 664:ble_process.c **** 					}
 1835              		.loc 1 664 0
 1836 0b62 D54B     		ldr	r3, .L71+16
 1837 0b64 1B88     		ldrh	r3, [r3]
 1838 0b66 9AB2     		uxth	r2, r3
 1839 0b68 D24B     		ldr	r3, .L71+12
 1840 0b6a 1A80     		strh	r2, [r3]
 1841              	.L40:
 1842              	.LBE5:
 670:ble_process.c **** 				{
 1843              		.loc 1 670 0
 1844 0b6c 9023     		movs	r3, #144
 1845 0b6e FB18     		adds	r3, r7, r3
 1846 0b70 1B78     		ldrb	r3, [r3]
 1847 0b72 042B     		cmp	r3, #4
 1848 0b74 00D0     		beq	.LCB1352
 1849 0b76 90E1     		b	.L61	@long jump
 1850              	.LCB1352:
 674:ble_process.c **** 					{
 1851              		.loc 1 674 0
ARM GAS  C:\Users\run1009\AppData\Local\Temp\ccJxhBPK.s 			page 56


 1852 0b78 9023     		movs	r3, #144
 1853 0b7a FB18     		adds	r3, r7, r3
 1854 0b7c 1B7A     		ldrb	r3, [r3, #8]
 1855 0b7e 142B     		cmp	r3, #20
 1856 0b80 00D0     		beq	.LCB1357
 1857 0b82 8AE1     		b	.L61	@long jump
 1858              	.LCB1357:
 680:ble_process.c **** 						{
 1859              		.loc 1 680 0
 1860 0b84 CD4B     		ldr	r3, .L71+20
 1861 0b86 1B78     		ldrb	r3, [r3]
 1862 0b88 002B     		cmp	r3, #0
 1863 0b8a 00D1     		bne	.LCB1361
 1864 0b8c 85E1     		b	.L61	@long jump
 1865              	.LCB1361:
 683:ble_process.c **** 								&& (potential_node_bdAddrType == scan_report.peerAddrType))
 1866              		.loc 1 683 0
 1867 0b8e 9023     		movs	r3, #144
 1868 0b90 FB18     		adds	r3, r7, r3
 1869 0b92 5B68     		ldr	r3, [r3, #4]
 1870 0b94 CA49     		ldr	r1, .L71+24
 1871 0b96 0622     		movs	r2, #6
 1872 0b98 1800     		movs	r0, r3
 1873 0b9a FFF7FEFF 		bl	memcmp
 1874 0b9e 031E     		subs	r3, r0, #0
 1875 0ba0 00D0     		beq	.LCB1371
 1876 0ba2 7AE1     		b	.L61	@long jump
 1877              	.LCB1371:
 684:ble_process.c **** 							{
 1878              		.loc 1 684 0
 1879 0ba4 9023     		movs	r3, #144
 1880 0ba6 FB18     		adds	r3, r7, r3
 1881 0ba8 5A78     		ldrb	r2, [r3, #1]
 1882 0baa C64B     		ldr	r3, .L71+28
 1883 0bac 1B78     		ldrb	r3, [r3]
 1884 0bae 9A42     		cmp	r2, r3
 1885 0bb0 00D0     		beq	.LCB1378
 1886 0bb2 72E1     		b	.L61	@long jump
 1887              	.LCB1378:
 689:ble_process.c **** 								{
 1888              		.loc 1 689 0
 1889 0bb4 9023     		movs	r3, #144
 1890 0bb6 FB18     		adds	r3, r7, r3
 1891 0bb8 D868     		ldr	r0, [r3, #12]
 1892 0bba 9023     		movs	r3, #144
 1893 0bbc FB18     		adds	r3, r7, r3
 1894 0bbe 1B7A     		ldrb	r3, [r3, #8]
 1895 0bc0 1A00     		movs	r2, r3
 1896 0bc2 C14B     		ldr	r3, .L71+32
 1897 0bc4 1900     		movs	r1, r3
 1898 0bc6 FFF7FEFF 		bl	memcmp
 1899 0bca 031E     		subs	r3, r0, #0
 1900 0bcc 00D0     		beq	.LCB1391
 1901 0bce 64E1     		b	.L61	@long jump
 1902              	.LCB1391:
 692:ble_process.c **** 									UART_UartPutCRLF(' ');
 1903              		.loc 1 692 0
ARM GAS  C:\Users\run1009\AppData\Local\Temp\ccJxhBPK.s 			page 57


 1904 0bd0 BE4B     		ldr	r3, .L71+36
 1905 0bd2 1800     		movs	r0, r3
 1906 0bd4 FFF7FEFF 		bl	UART_UartPutString
 693:ble_process.c **** 									#endif
 1907              		.loc 1 693 0
 1908 0bd8 2020     		movs	r0, #32
 1909 0bda FFF7FEFF 		bl	UART_UartPutCRLF
 696:ble_process.c **** 									
 1910              		.loc 1 696 0
 1911 0bde FFF7FEFF 		bl	CyBle_GapcStopScan
 699:ble_process.c **** 									UART_UartPutCRLF(' ');
 1912              		.loc 1 699 0
 1913 0be2 BB4B     		ldr	r3, .L71+40
 1914 0be4 1800     		movs	r0, r3
 1915 0be6 FFF7FEFF 		bl	UART_UartPutString
 700:ble_process.c **** 									#endif
 1916              		.loc 1 700 0
 1917 0bea 2020     		movs	r0, #32
 1918 0bec FFF7FEFF 		bl	UART_UartPutCRLF
 704:ble_process.c **** 									peripAddr.bdAddr[0] = scan_report.peerBdAddr[0];
 1919              		.loc 1 704 0
 1920 0bf0 9023     		movs	r3, #144
 1921 0bf2 FB18     		adds	r3, r7, r3
 1922 0bf4 5A78     		ldrb	r2, [r3, #1]
 1923 0bf6 B74B     		ldr	r3, .L71+44
 1924 0bf8 9A71     		strb	r2, [r3, #6]
 705:ble_process.c **** 									peripAddr.bdAddr[1] = scan_report.peerBdAddr[1];
 1925              		.loc 1 705 0
 1926 0bfa 9023     		movs	r3, #144
 1927 0bfc FB18     		adds	r3, r7, r3
 1928 0bfe 5B68     		ldr	r3, [r3, #4]
 1929 0c00 1A78     		ldrb	r2, [r3]
 1930 0c02 B44B     		ldr	r3, .L71+44
 1931 0c04 1A70     		strb	r2, [r3]
 706:ble_process.c **** 									peripAddr.bdAddr[2] = scan_report.peerBdAddr[2];
 1932              		.loc 1 706 0
 1933 0c06 9023     		movs	r3, #144
 1934 0c08 FB18     		adds	r3, r7, r3
 1935 0c0a 5B68     		ldr	r3, [r3, #4]
 1936 0c0c 5A78     		ldrb	r2, [r3, #1]
 1937 0c0e B14B     		ldr	r3, .L71+44
 1938 0c10 5A70     		strb	r2, [r3, #1]
 707:ble_process.c **** 									peripAddr.bdAddr[3] = scan_report.peerBdAddr[3];
 1939              		.loc 1 707 0
 1940 0c12 9023     		movs	r3, #144
 1941 0c14 FB18     		adds	r3, r7, r3
 1942 0c16 5B68     		ldr	r3, [r3, #4]
 1943 0c18 9A78     		ldrb	r2, [r3, #2]
 1944 0c1a AE4B     		ldr	r3, .L71+44
 1945 0c1c 9A70     		strb	r2, [r3, #2]
 708:ble_process.c **** 									peripAddr.bdAddr[4] = scan_report.peerBdAddr[4];
 1946              		.loc 1 708 0
 1947 0c1e 9023     		movs	r3, #144
 1948 0c20 FB18     		adds	r3, r7, r3
 1949 0c22 5B68     		ldr	r3, [r3, #4]
 1950 0c24 DA78     		ldrb	r2, [r3, #3]
 1951 0c26 AB4B     		ldr	r3, .L71+44
ARM GAS  C:\Users\run1009\AppData\Local\Temp\ccJxhBPK.s 			page 58


 1952 0c28 DA70     		strb	r2, [r3, #3]
 709:ble_process.c **** 									peripAddr.bdAddr[5] = scan_report.peerBdAddr[5];
 1953              		.loc 1 709 0
 1954 0c2a 9023     		movs	r3, #144
 1955 0c2c FB18     		adds	r3, r7, r3
 1956 0c2e 5B68     		ldr	r3, [r3, #4]
 1957 0c30 1A79     		ldrb	r2, [r3, #4]
 1958 0c32 A84B     		ldr	r3, .L71+44
 1959 0c34 1A71     		strb	r2, [r3, #4]
 710:ble_process.c **** 									
 1960              		.loc 1 710 0
 1961 0c36 9023     		movs	r3, #144
 1962 0c38 FB18     		adds	r3, r7, r3
 1963 0c3a 5B68     		ldr	r3, [r3, #4]
 1964 0c3c 5A79     		ldrb	r2, [r3, #5]
 1965 0c3e A54B     		ldr	r3, .L71+44
 1966 0c40 5A71     		strb	r2, [r3, #5]
 714:ble_process.c **** 									
 1967              		.loc 1 714 0
 1968 0c42 A54B     		ldr	r3, .L71+48
 1969 0c44 0122     		movs	r2, #1
 1970 0c46 1A70     		strb	r2, [r3]
 718:ble_process.c **** 									#endif
 1971              		.loc 1 718 0
 1972 0c48 9C4B     		ldr	r3, .L71+20
 1973 0c4a 0022     		movs	r2, #0
 1974 0c4c 1A70     		strb	r2, [r3]
 730:ble_process.c **** 			
 1975              		.loc 1 730 0
 1976 0c4e 24E1     		b	.L61
 1977              	.L10:
 735:ble_process.c **** 				CyBle_GapGetPeerBdAddr(cyBle_connHandle.bdHandle, &gap_bdaddr);
 1978              		.loc 1 735 0
 1979 0c50 A24B     		ldr	r3, .L71+52
 1980 0c52 1800     		movs	r0, r3
 1981 0c54 FFF7FEFF 		bl	UART_UartPutString
 736:ble_process.c **** 				PrintHex(gap_bdaddr.bdAddr[0]);
 1982              		.loc 1 736 0
 1983 0c58 A14B     		ldr	r3, .L71+56
 1984 0c5a 1B78     		ldrb	r3, [r3]
 1985 0c5c 6822     		movs	r2, #104
 1986 0c5e BA18     		adds	r2, r7, r2
 1987 0c60 1100     		movs	r1, r2
 1988 0c62 1800     		movs	r0, r3
 1989 0c64 FFF7FEFF 		bl	CyBle_GapGetPeerBdAddr
 737:ble_process.c **** 				PrintHex(gap_bdaddr.bdAddr[1]);
 1990              		.loc 1 737 0
 1991 0c68 6823     		movs	r3, #104
 1992 0c6a FB18     		adds	r3, r7, r3
 1993 0c6c 1B78     		ldrb	r3, [r3]
 1994 0c6e 1800     		movs	r0, r3
 1995 0c70 FFF7FEFF 		bl	PrintHex
 738:ble_process.c **** 				PrintHex(gap_bdaddr.bdAddr[2]);
 1996              		.loc 1 738 0
 1997 0c74 6823     		movs	r3, #104
 1998 0c76 FB18     		adds	r3, r7, r3
 1999 0c78 5B78     		ldrb	r3, [r3, #1]
ARM GAS  C:\Users\run1009\AppData\Local\Temp\ccJxhBPK.s 			page 59


 2000 0c7a 1800     		movs	r0, r3
 2001 0c7c FFF7FEFF 		bl	PrintHex
 739:ble_process.c **** 				UART_UartPutCRLF(' ');
 2002              		.loc 1 739 0
 2003 0c80 6823     		movs	r3, #104
 2004 0c82 FB18     		adds	r3, r7, r3
 2005 0c84 9B78     		ldrb	r3, [r3, #2]
 2006 0c86 1800     		movs	r0, r3
 2007 0c88 FFF7FEFF 		bl	PrintHex
 740:ble_process.c **** 			#endif
 2008              		.loc 1 740 0
 2009 0c8c 2020     		movs	r0, #32
 2010 0c8e FFF7FEFF 		bl	UART_UartPutCRLF
 743:ble_process.c **** 			{
 2011              		.loc 1 743 0
 2012 0c92 944B     		ldr	r3, .L71+60
 2013 0c94 1B78     		ldrb	r3, [r3]
 2014 0c96 022B     		cmp	r3, #2
 2015 0c98 00D0     		beq	.LCB1484
 2016 0c9a 00E1     		b	.L62	@long jump
 2017              	.LCB1484:
 749:ble_process.c **** 					#if (DEBUG_ENABLED == 1)
 2018              		.loc 1 749 0
 2019 0c9c 904B     		ldr	r3, .L71+56
 2020 0c9e 1A78     		ldrb	r2, [r3]
 2021 0ca0 5B78     		ldrb	r3, [r3, #1]
 2022 0ca2 1B02     		lsls	r3, r3, #8
 2023 0ca4 1A43     		orrs	r2, r3
 2024 0ca6 0023     		movs	r3, #0
 2025 0ca8 1204     		lsls	r2, r2, #16
 2026 0caa 120C     		lsrs	r2, r2, #16
 2027 0cac 1B0C     		lsrs	r3, r3, #16
 2028 0cae 1B04     		lsls	r3, r3, #16
 2029 0cb0 1343     		orrs	r3, r2
 2030 0cb2 1800     		movs	r0, r3
 2031 0cb4 FFF7FEFF 		bl	CyBle_GattcStartDiscovery
 751:ble_process.c **** 						SendBLEStatetoUART(CyBle_GetState());
 2032              		.loc 1 751 0
 2033 0cb8 8B4B     		ldr	r3, .L71+64
 2034 0cba 1800     		movs	r0, r3
 2035 0cbc FFF7FEFF 		bl	UART_UartPutString
 752:ble_process.c **** 						UART_UartPutCRLF(' ');                  
 2036              		.loc 1 752 0
 2037 0cc0 8A4B     		ldr	r3, .L71+68
 2038 0cc2 1B78     		ldrb	r3, [r3]
 2039 0cc4 1800     		movs	r0, r3
 2040 0cc6 FFF7FEFF 		bl	SendBLEStatetoUART
 753:ble_process.c **** 					#endif
 2041              		.loc 1 753 0
 2042 0cca 2020     		movs	r0, #32
 2043 0ccc FFF7FEFF 		bl	UART_UartPutCRLF
 799:ble_process.c **** 			
 2044              		.loc 1 799 0
 2045 0cd0 E5E0     		b	.L62
 2046              	.L18:
 805:ble_process.c **** 			#if (DEBUG_ENABLED == 1)
 2047              		.loc 1 805 0
ARM GAS  C:\Users\run1009\AppData\Local\Temp\ccJxhBPK.s 			page 60


 2048 0cd2 874B     		ldr	r3, .L71+72
 2049 0cd4 0122     		movs	r2, #1
 2050 0cd6 1A70     		strb	r2, [r3]
 807:ble_process.c **** 				SendBLEStatetoUART(CyBle_GetState());
 2051              		.loc 1 807 0
 2052 0cd8 864B     		ldr	r3, .L71+76
 2053 0cda 1800     		movs	r0, r3
 2054 0cdc FFF7FEFF 		bl	UART_UartPutString
 808:ble_process.c **** 				UART_UartPutCRLF(' ');
 2055              		.loc 1 808 0
 2056 0ce0 824B     		ldr	r3, .L71+68
 2057 0ce2 1B78     		ldrb	r3, [r3]
 2058 0ce4 1800     		movs	r0, r3
 2059 0ce6 FFF7FEFF 		bl	SendBLEStatetoUART
 809:ble_process.c **** 
 2060              		.loc 1 809 0
 2061 0cea 2020     		movs	r0, #32
 2062 0cec FFF7FEFF 		bl	UART_UartPutCRLF
 814:ble_process.c **** 			writeADVcounterdata.value.val = &dataADVCounter;
 2063              		.loc 1 814 0
 2064 0cf0 A423     		movs	r3, #164
 2065 0cf2 FB18     		adds	r3, r7, r3
 2066 0cf4 1122     		movs	r2, #17
 2067 0cf6 1A81     		strh	r2, [r3, #8]
 815:ble_process.c **** 			writeADVcounterdata.value.len = 1;
 2068              		.loc 1 815 0
 2069 0cf8 A423     		movs	r3, #164
 2070 0cfa FB18     		adds	r3, r7, r3
 2071 0cfc 6B4A     		ldr	r2, .L71+4
 2072 0cfe 1A60     		str	r2, [r3]
 816:ble_process.c **** 			CyBle_GattcWriteWithoutResponse(cyBle_connHandle, &writeADVcounterdata);
 2073              		.loc 1 816 0
 2074 0d00 A423     		movs	r3, #164
 2075 0d02 FB18     		adds	r3, r7, r3
 2076 0d04 0122     		movs	r2, #1
 2077 0d06 9A80     		strh	r2, [r3, #4]
 817:ble_process.c ****             
 2078              		.loc 1 817 0
 2079 0d08 A423     		movs	r3, #164
 2080 0d0a F918     		adds	r1, r7, r3
 2081 0d0c 744B     		ldr	r3, .L71+56
 2082 0d0e 1A78     		ldrb	r2, [r3]
 2083 0d10 5B78     		ldrb	r3, [r3, #1]
 2084 0d12 1B02     		lsls	r3, r3, #8
 2085 0d14 1A43     		orrs	r2, r3
 2086 0d16 0023     		movs	r3, #0
 2087 0d18 1204     		lsls	r2, r2, #16
 2088 0d1a 120C     		lsrs	r2, r2, #16
 2089 0d1c 1B0C     		lsrs	r3, r3, #16
 2090 0d1e 1B04     		lsls	r3, r3, #16
 2091 0d20 1343     		orrs	r3, r2
 2092 0d22 1800     		movs	r0, r3
 2093 0d24 FFF7FEFF 		bl	CyBle_GattcWriteWithoutResponse
 819:ble_process.c ****             UART_UartPutString("receive temperature: ");
 2094              		.loc 1 819 0
 2095 0d28 5F4B     		ldr	r3, .L71
 2096 0d2a 1A78     		ldrb	r2, [r3]
ARM GAS  C:\Users\run1009\AppData\Local\Temp\ccJxhBPK.s 			page 61


 2097 0d2c 5E4B     		ldr	r3, .L71
 2098 0d2e 5B78     		ldrb	r3, [r3, #1]
 2099 0d30 1900     		movs	r1, r3
 2100 0d32 1000     		movs	r0, r2
 2101 0d34 FFF7FEFF 		bl	Byte2Short
 2102 0d38 0300     		movs	r3, r0
 2103 0d3a 1800     		movs	r0, r3
 2104 0d3c FFF7FEFF 		bl	__aeabi_i2d
 2105 0d40 0022     		movs	r2, #0
 2106 0d42 6D4B     		ldr	r3, .L71+80
 2107 0d44 FFF7FEFF 		bl	__aeabi_ddiv
 2108 0d48 0300     		movs	r3, r0
 2109 0d4a 0C00     		movs	r4, r1
 2110 0d4c 1800     		movs	r0, r3
 2111 0d4e 2100     		movs	r1, r4
 2112 0d50 FFF7FEFF 		bl	__aeabi_d2f
 2113 0d54 031C     		adds	r3, r0, #0
 2114 0d56 181C     		adds	r0, r3, #0
 2115 0d58 FFF7FEFF 		bl	ftoa
 2116 0d5c 0300     		movs	r3, r0
 2117 0d5e C022     		movs	r2, #192
 2118 0d60 BA18     		adds	r2, r7, r2
 2119 0d62 1360     		str	r3, [r2]
 820:ble_process.c ****             UART_UartPutString(tem);
 2120              		.loc 1 820 0
 2121 0d64 654B     		ldr	r3, .L71+84
 2122 0d66 1800     		movs	r0, r3
 2123 0d68 FFF7FEFF 		bl	UART_UartPutString
 821:ble_process.c ****             UART_UartPutCRLF(' ');
 2124              		.loc 1 821 0
 2125 0d6c C023     		movs	r3, #192
 2126 0d6e FB18     		adds	r3, r7, r3
 2127 0d70 1B68     		ldr	r3, [r3]
 2128 0d72 1800     		movs	r0, r3
 2129 0d74 FFF7FEFF 		bl	UART_UartPutString
 822:ble_process.c **** 						
 2130              		.loc 1 822 0
 2131 0d78 2020     		movs	r0, #32
 2132 0d7a FFF7FEFF 		bl	UART_UartPutCRLF
 826:ble_process.c **** 			writeRGBdata.value.val = tempData;
 2133              		.loc 1 826 0
 2134 0d7e 7423     		movs	r3, #116
 2135 0d80 FB18     		adds	r3, r7, r3
 2136 0d82 0E22     		movs	r2, #14
 2137 0d84 1A81     		strh	r2, [r3, #8]
 827:ble_process.c **** 			writeRGBdata.value.len = TEMP_DATA_LEN;
 2138              		.loc 1 827 0
 2139 0d86 7423     		movs	r3, #116
 2140 0d88 FB18     		adds	r3, r7, r3
 2141 0d8a 474A     		ldr	r2, .L71
 2142 0d8c 1A60     		str	r2, [r3]
 828:ble_process.c **** 			CyBle_GattcWriteCharacteristicValue(cyBle_connHandle, &writeRGBdata);
 2143              		.loc 1 828 0
 2144 0d8e 7423     		movs	r3, #116
 2145 0d90 FB18     		adds	r3, r7, r3
 2146 0d92 0822     		movs	r2, #8
 2147 0d94 9A80     		strh	r2, [r3, #4]
ARM GAS  C:\Users\run1009\AppData\Local\Temp\ccJxhBPK.s 			page 62


 829:ble_process.c ****             //CyBle_GattcWriteWithoutResponse(cyBle_connHandle, &writeRGBdata);
 2148              		.loc 1 829 0
 2149 0d96 7423     		movs	r3, #116
 2150 0d98 F918     		adds	r1, r7, r3
 2151 0d9a 514B     		ldr	r3, .L71+56
 2152 0d9c 1A78     		ldrb	r2, [r3]
 2153 0d9e 5B78     		ldrb	r3, [r3, #1]
 2154 0da0 1B02     		lsls	r3, r3, #8
 2155 0da2 1A43     		orrs	r2, r3
 2156 0da4 0023     		movs	r3, #0
 2157 0da6 1204     		lsls	r2, r2, #16
 2158 0da8 120C     		lsrs	r2, r2, #16
 2159 0daa 1B0C     		lsrs	r3, r3, #16
 2160 0dac 1B04     		lsls	r3, r3, #16
 2161 0dae 1343     		orrs	r3, r2
 2162 0db0 1800     		movs	r0, r3
 2163 0db2 FFF7FEFF 		bl	CyBle_GattcWriteCharacteristicValue
 833:ble_process.c **** 			
 2164              		.loc 1 833 0
 2165 0db6 B2E0     		b	.L1
 2166              	.L17:
 840:ble_process.c **** 				SendBLEStatetoUART(CyBle_GetState());
 2167              		.loc 1 840 0
 2168 0db8 514B     		ldr	r3, .L71+88
 2169 0dba 1800     		movs	r0, r3
 2170 0dbc FFF7FEFF 		bl	UART_UartPutString
 841:ble_process.c **** 				UART_UartPutCRLF(' ');          
 2171              		.loc 1 841 0
 2172 0dc0 4A4B     		ldr	r3, .L71+68
 2173 0dc2 1B78     		ldrb	r3, [r3]
 2174 0dc4 1800     		movs	r0, r3
 2175 0dc6 FFF7FEFF 		bl	SendBLEStatetoUART
 842:ble_process.c ****                
 2176              		.loc 1 842 0
 2177 0dca 2020     		movs	r0, #32
 2178 0dcc FFF7FEFF 		bl	UART_UartPutCRLF
 847:ble_process.c **** 			{
 2179              		.loc 1 847 0
 2180 0dd0 434B     		ldr	r3, .L71+56
 2181 0dd2 1B78     		ldrb	r3, [r3]
 2182 0dd4 002B     		cmp	r3, #0
 2183 0dd6 64D0     		beq	.L63
 849:ble_process.c **** 				
 2184              		.loc 1 849 0
 2185 0dd8 414B     		ldr	r3, .L71+56
 2186 0dda 1B78     		ldrb	r3, [r3]
 2187 0ddc 1800     		movs	r0, r3
 2188 0dde FFF7FEFF 		bl	CyBle_GapDisconnect
 851:ble_process.c **** 				
 2189              		.loc 1 851 0
 2190 0de2 484B     		ldr	r3, .L71+92
 2191 0de4 0122     		movs	r2, #1
 2192 0de6 1A70     		strb	r2, [r3]
 854:ble_process.c **** 				SendBLEStatetoUART(CyBle_GetState());
 2193              		.loc 1 854 0
 2194 0de8 474B     		ldr	r3, .L71+96
 2195 0dea 1800     		movs	r0, r3
ARM GAS  C:\Users\run1009\AppData\Local\Temp\ccJxhBPK.s 			page 63


 2196 0dec FFF7FEFF 		bl	UART_UartPutString
 855:ble_process.c **** 				UART_UartPutCRLF(' ');
 2197              		.loc 1 855 0
 2198 0df0 3E4B     		ldr	r3, .L71+68
 2199 0df2 1B78     		ldrb	r3, [r3]
 2200 0df4 1800     		movs	r0, r3
 2201 0df6 FFF7FEFF 		bl	SendBLEStatetoUART
 856:ble_process.c **** 				#endif
 2202              		.loc 1 856 0
 2203 0dfa 2020     		movs	r0, #32
 2204 0dfc FFF7FEFF 		bl	UART_UartPutCRLF
 859:ble_process.c **** 			
 2205              		.loc 1 859 0
 2206 0e00 4FE0     		b	.L63
 2207              	.L9:
 864:ble_process.c **** 			
 2208              		.loc 1 864 0
 2209 0e02 3B4B     		ldr	r3, .L71+72
 2210 0e04 0022     		movs	r2, #0
 2211 0e06 1A70     		strb	r2, [r3]
 867:ble_process.c **** 				SendBLEStatetoUART(CyBle_GetState());
 2212              		.loc 1 867 0
 2213 0e08 404B     		ldr	r3, .L71+100
 2214 0e0a 1800     		movs	r0, r3
 2215 0e0c FFF7FEFF 		bl	UART_UartPutString
 868:ble_process.c **** 				UART_UartPutCRLF(' ');
 2216              		.loc 1 868 0
 2217 0e10 364B     		ldr	r3, .L71+68
 2218 0e12 1B78     		ldrb	r3, [r3]
 2219 0e14 1800     		movs	r0, r3
 2220 0e16 FFF7FEFF 		bl	SendBLEStatetoUART
 869:ble_process.c **** 			#endif
 2221              		.loc 1 869 0
 2222 0e1a 2020     		movs	r0, #32
 2223 0e1c FFF7FEFF 		bl	UART_UartPutCRLF
 872:ble_process.c **** 			{
 2224              		.loc 1 872 0
 2225 0e20 304B     		ldr	r3, .L71+60
 2226 0e22 1B78     		ldrb	r3, [r3]
 2227 0e24 012B     		cmp	r3, #1
 2228 0e26 17D1     		bne	.L55
 872:ble_process.c **** 			{
 2229              		.loc 1 872 0 is_stmt 0 discriminator 1
 2230 0e28 394B     		ldr	r3, .L71+104
 2231 0e2a 1B78     		ldrb	r3, [r3]
 2232 0e2c 012B     		cmp	r3, #1
 2233 0e2e 13D0     		beq	.L55
 876:ble_process.c **** 				{
 2234              		.loc 1 876 0 is_stmt 1
 2235 0e30 2E4B     		ldr	r3, .L71+68
 2236 0e32 1B78     		ldrb	r3, [r3]
 2237 0e34 062B     		cmp	r3, #6
 2238 0e36 2BD1     		bne	.L57
 878:ble_process.c **** 					#if (DEBUG_ENABLED == 1)
 2239              		.loc 1 878 0
 2240 0e38 0020     		movs	r0, #0
 2241 0e3a FFF7FEFF 		bl	CyBle_GappStartAdvertisement
ARM GAS  C:\Users\run1009\AppData\Local\Temp\ccJxhBPK.s 			page 64


 880:ble_process.c **** 					SendBLEStatetoUART(CyBle_GetState());
 2242              		.loc 1 880 0
 2243 0e3e 354B     		ldr	r3, .L71+108
 2244 0e40 1800     		movs	r0, r3
 2245 0e42 FFF7FEFF 		bl	UART_UartPutString
 881:ble_process.c **** 					UART_UartPutCRLF(' ');
 2246              		.loc 1 881 0
 2247 0e46 294B     		ldr	r3, .L71+68
 2248 0e48 1B78     		ldrb	r3, [r3]
 2249 0e4a 1800     		movs	r0, r3
 2250 0e4c FFF7FEFF 		bl	SendBLEStatetoUART
 882:ble_process.c **** 					#endif
 2251              		.loc 1 882 0
 2252 0e50 2020     		movs	r0, #32
 2253 0e52 FFF7FEFF 		bl	UART_UartPutCRLF
 876:ble_process.c **** 				{
 2254              		.loc 1 876 0
 2255 0e56 1BE0     		b	.L57
 2256              	.L55:
 886:ble_process.c **** 			{
 2257              		.loc 1 886 0
 2258 0e58 224B     		ldr	r3, .L71+60
 2259 0e5a 1B78     		ldrb	r3, [r3]
 2260 0e5c 022B     		cmp	r3, #2
 2261 0e5e 5DD1     		bne	.L64
 886:ble_process.c **** 			{
 2262              		.loc 1 886 0 is_stmt 0 discriminator 1
 2263 0e60 2B4B     		ldr	r3, .L71+104
 2264 0e62 1B78     		ldrb	r3, [r3]
 2265 0e64 012B     		cmp	r3, #1
 2266 0e66 59D0     		beq	.L64
 890:ble_process.c **** 				{
 2267              		.loc 1 890 0 is_stmt 1
 2268 0e68 204B     		ldr	r3, .L71+68
 2269 0e6a 1B78     		ldrb	r3, [r3]
 2270 0e6c 062B     		cmp	r3, #6
 2271 0e6e 55D1     		bne	.L64
 892:ble_process.c **** 					#if (DEBUG_ENABLED == 1)
 2272              		.loc 1 892 0
 2273 0e70 0020     		movs	r0, #0
 2274 0e72 FFF7FEFF 		bl	CyBle_GapcStartScan
 894:ble_process.c **** 					SendBLEStatetoUART(CyBle_GetState());
 2275              		.loc 1 894 0
 2276 0e76 284B     		ldr	r3, .L71+112
 2277 0e78 1800     		movs	r0, r3
 2278 0e7a FFF7FEFF 		bl	UART_UartPutString
 895:ble_process.c **** 					UART_UartPutCRLF(' ');
 2279              		.loc 1 895 0
 2280 0e7e 1B4B     		ldr	r3, .L71+68
 2281 0e80 1B78     		ldrb	r3, [r3]
 2282 0e82 1800     		movs	r0, r3
 2283 0e84 FFF7FEFF 		bl	SendBLEStatetoUART
 896:ble_process.c **** 					#endif
 2284              		.loc 1 896 0
 2285 0e88 2020     		movs	r0, #32
 2286 0e8a FFF7FEFF 		bl	UART_UartPutCRLF
 900:ble_process.c **** 			
ARM GAS  C:\Users\run1009\AppData\Local\Temp\ccJxhBPK.s 			page 65


 2287              		.loc 1 900 0
 2288 0e8e 45E0     		b	.L64
 2289              	.L57:
 900:ble_process.c **** 			
 2290              		.loc 1 900 0 is_stmt 0 discriminator 6
 2291 0e90 44E0     		b	.L64
 2292              	.L59:
 163:ble_process.c ****             
 2293              		.loc 1 163 0 is_stmt 1
 2294 0e92 C046     		nop
 2295 0e94 43E0     		b	.L1
 2296              	.L60:
 467:ble_process.c **** 		
 2297              		.loc 1 467 0
 2298 0e96 C046     		nop
 2299 0e98 41E0     		b	.L1
 2300              	.L61:
 730:ble_process.c **** 			
 2301              		.loc 1 730 0
 2302 0e9a C046     		nop
 2303 0e9c 3FE0     		b	.L1
 2304              	.L62:
 799:ble_process.c **** 			
 2305              		.loc 1 799 0
 2306 0e9e C046     		nop
 2307 0ea0 3DE0     		b	.L1
 2308              	.L63:
 859:ble_process.c **** 			
 2309              		.loc 1 859 0
 2310 0ea2 C046     		nop
 2311 0ea4 3BE0     		b	.L1
 2312              	.L72:
 2313 0ea6 C046     		.align	2
 2314              	.L71:
 2315 0ea8 00000000 		.word	tempData
 2316 0eac 00000000 		.word	dataADVCounter
 2317 0eb0 F4020000 		.word	.LC94
 2318 0eb4 00000000 		.word	sensorReceiveStartedTime
 2319 0eb8 00000000 		.word	current_watchdog_counter
 2320 0ebc 00000000 		.word	potential_node_found
 2321 0ec0 00000000 		.word	potential_node_bdAddr
 2322 0ec4 00000000 		.word	potential_node_bdAddrType
 2323 0ec8 00000000 		.word	scan_tag
 2324 0ecc 00030000 		.word	.LC98
 2325 0ed0 14020000 		.word	.LC55
 2326 0ed4 00000000 		.word	peripAddr
 2327 0ed8 00000000 		.word	clientConnectToDevice
 2328 0edc 24030000 		.word	.LC102
 2329 0ee0 00000000 		.word	cyBle_connHandle
 2330 0ee4 00000000 		.word	ble_gap_state
 2331 0ee8 48030000 		.word	.LC104
 2332 0eec 00000000 		.word	cyBle_state
 2333 0ef0 00000000 		.word	deviceConnected
 2334 0ef4 68030000 		.word	.LC107
 2335 0ef8 00005940 		.word	1079574528
 2336 0efc 44010000 		.word	.LC38
 2337 0f00 8C030000 		.word	.LC109
ARM GAS  C:\Users\run1009\AppData\Local\Temp\ccJxhBPK.s 			page 66


 2338 0f04 00000000 		.word	restartScanning
 2339 0f08 A8030000 		.word	.LC112
 2340 0f0c CC030000 		.word	.LC114
 2341 0f10 00000000 		.word	switch_Role
 2342 0f14 34000000 		.word	.LC10
 2343 0f18 F0030000 		.word	.LC116
 2344              	.L64:
 900:ble_process.c **** 			
 2345              		.loc 1 900 0
 2346 0f1c C046     		nop
 2347              	.L1:
 2348              	.LBE12:
 905:ble_process.c **** 	}
 906:ble_process.c **** }
 2349              		.loc 1 906 0
 2350 0f1e BD46     		mov	sp, r7
 2351 0f20 43B0     		add	sp, sp, #268
 2352              		@ sp needed
 2353 0f22 90BD     		pop	{r4, r7, pc}
 2354              		.cfi_endproc
 2355              	.LFE36:
 2356              		.size	GenericEventHandler, .-GenericEventHandler
 2357              		.section	.rodata
 2358 0402 0000     		.align	2
 2359              	.LC119:
 2360 0404 73776974 		.ascii	"switch_Role\000"
 2360      63685F52 
 2360      6F6C6500 
 2361              		.align	2
 2362              	.LC122:
 2363 0410 50657269 		.ascii	"Peripheral closed connection \000"
 2363      70686572 
 2363      616C2063 
 2363      6C6F7365 
 2363      6420636F 
 2364 042e 0000     		.align	2
 2365              	.LC126:
 2366 0430 50657269 		.ascii	"Peripheral Advertisment Stopped \000"
 2366      70686572 
 2366      616C2041 
 2366      64766572 
 2366      7469736D 
 2367 0451 000000   		.align	2
 2368              	.LC128:
 2369 0454 53746172 		.ascii	"Start Scan API called \000"
 2369      74205363 
 2369      616E2041 
 2369      50492063 
 2369      616C6C65 
 2370 046b 00       		.align	2
 2371              	.LC132:
 2372 046c 53746172 		.ascii	"Start Scan API failed \000"
 2372      74205363 
 2372      616E2041 
 2372      50492066 
 2372      61696C65 
 2373 0483 00       		.align	2
ARM GAS  C:\Users\run1009\AppData\Local\Temp\ccJxhBPK.s 			page 67


 2374              	.LC134:
 2375 0484 43656E74 		.ascii	"Central Scan stopped \000"
 2375      72616C20 
 2375      5363616E 
 2375      2073746F 
 2375      70706564 
 2376 049a 0000     		.align	2
 2377              	.LC139:
 2378 049c 55706461 		.ascii	"Updated ADV data = \000"
 2378      74656420 
 2378      41445620 
 2378      64617461 
 2378      203D2000 
 2379              		.align	2
 2380              	.LC142:
 2381 04b0 50657269 		.ascii	"Peripheral Advertisment called \000"
 2381      70686572 
 2381      616C2041 
 2381      64766572 
 2381      7469736D 
 2382              		.align	2
 2383              	.LC144:
 2384 04d0 53746172 		.ascii	"Start Peripheral Advertisment Failed \000"
 2384      74205065 
 2384      72697068 
 2384      6572616C 
 2384      20416476 
 2385              		.section	.text.SwitchRole,"ax",%progbits
 2386              		.align	2
 2387              		.global	SwitchRole
 2388              		.code	16
 2389              		.thumb_func
 2390              		.type	SwitchRole, %function
 2391              	SwitchRole:
 2392              	.LFB37:
 907:ble_process.c **** 
 908:ble_process.c **** /*******************************************************************************
 909:ble_process.c **** * Function Name: SwitchRole
 910:ble_process.c **** ********************************************************************************
 911:ble_process.c **** * Summary:
 912:ble_process.c **** *        This function switches the role between Central and Peripheral. If device 
 913:ble_process.c **** * is connected while switching role, then it is first disconnected.
 914:ble_process.c **** *
 915:ble_process.c **** * Parameters:
 916:ble_process.c **** *  void
 917:ble_process.c **** *
 918:ble_process.c **** * Return:
 919:ble_process.c **** *  void
 920:ble_process.c **** *
 921:ble_process.c **** *******************************************************************************/
 922:ble_process.c **** void SwitchRole(void)
 923:ble_process.c **** {
 2393              		.loc 1 923 0
 2394              		.cfi_startproc
 2395              		@ args = 0, pretend = 0, frame = 8
 2396              		@ frame_needed = 1, uses_anonymous_args = 0
 2397 0000 90B5     		push	{r4, r7, lr}
ARM GAS  C:\Users\run1009\AppData\Local\Temp\ccJxhBPK.s 			page 68


 2398              		.cfi_def_cfa_offset 12
 2399              		.cfi_offset 4, -12
 2400              		.cfi_offset 7, -8
 2401              		.cfi_offset 14, -4
 2402 0002 83B0     		sub	sp, sp, #12
 2403              		.cfi_def_cfa_offset 24
 2404 0004 00AF     		add	r7, sp, #0
 2405              		.cfi_def_cfa_register 7
 924:ble_process.c **** 	CYBLE_API_RESULT_T  apiResult;
 925:ble_process.c **** 	
 926:ble_process.c **** 	/* if the switch role flag is set... */
 927:ble_process.c **** 	if(switch_Role == TRUE)
 2406              		.loc 1 927 0
 2407 0006 6B4B     		ldr	r3, .L86
 2408 0008 1B78     		ldrb	r3, [r3]
 2409 000a 012B     		cmp	r3, #1
 2410 000c 00D0     		beq	.LCB1808
 2411 000e CDE0     		b	.L85	@long jump
 2412              	.LCB1808:
 928:ble_process.c **** 	{	
 929:ble_process.c ****         UART_UartPutString("switch_Role");
 2413              		.loc 1 929 0
 2414 0010 694B     		ldr	r3, .L86+4
 2415 0012 1800     		movs	r0, r3
 2416 0014 FFF7FEFF 		bl	UART_UartPutString
 930:ble_process.c **** 		UART_UartPutCRLF(' ');
 2417              		.loc 1 930 0
 2418 0018 2020     		movs	r0, #32
 2419 001a FFF7FEFF 		bl	UART_UartPutCRLF
 931:ble_process.c **** 		/* Process pending BLE events */
 932:ble_process.c **** 		CyBle_ProcessEvents();
 2420              		.loc 1 932 0
 2421 001e FFF7FEFF 		bl	CyBle_ProcessEvents
 933:ble_process.c **** 		
 934:ble_process.c **** 		/* If there is an existing connection, then disconnect before switching
 935:ble_process.c **** 		* role. */
 936:ble_process.c **** 		if((cyBle_connHandle.bdHandle != 0))
 2422              		.loc 1 936 0
 2423 0022 664B     		ldr	r3, .L86+8
 2424 0024 1B78     		ldrb	r3, [r3]
 2425 0026 002B     		cmp	r3, #0
 2426 0028 12D0     		beq	.L75
 937:ble_process.c **** 		{
 938:ble_process.c **** 			/* Disconnect the device and process the event */
 939:ble_process.c **** 			CyBle_GapDisconnect(cyBle_connHandle.bdHandle);
 2427              		.loc 1 939 0
 2428 002a 644B     		ldr	r3, .L86+8
 2429 002c 1B78     		ldrb	r3, [r3]
 2430 002e 1800     		movs	r0, r3
 2431 0030 FFF7FEFF 		bl	CyBle_GapDisconnect
 940:ble_process.c **** 			CyBle_ProcessEvents();
 2432              		.loc 1 940 0
 2433 0034 FFF7FEFF 		bl	CyBle_ProcessEvents
 941:ble_process.c **** 			#if (DEBUG_ENABLED == 1)
 942:ble_process.c **** 			UART_UartPutString("Peripheral closed connection ");
 2434              		.loc 1 942 0
 2435 0038 614B     		ldr	r3, .L86+12
ARM GAS  C:\Users\run1009\AppData\Local\Temp\ccJxhBPK.s 			page 69


 2436 003a 1800     		movs	r0, r3
 2437 003c FFF7FEFF 		bl	UART_UartPutString
 943:ble_process.c **** 			SendBLEStatetoUART(CyBle_GetState());
 2438              		.loc 1 943 0
 2439 0040 604B     		ldr	r3, .L86+16
 2440 0042 1B78     		ldrb	r3, [r3]
 2441 0044 1800     		movs	r0, r3
 2442 0046 FFF7FEFF 		bl	SendBLEStatetoUART
 944:ble_process.c **** 			UART_UartPutCRLF(' ');
 2443              		.loc 1 944 0
 2444 004a 2020     		movs	r0, #32
 2445 004c FFF7FEFF 		bl	UART_UartPutCRLF
 2446              	.L75:
 945:ble_process.c **** 			#endif
 946:ble_process.c **** 		}		
 947:ble_process.c **** 		
 948:ble_process.c **** 		switch(ble_gap_state)
 2447              		.loc 1 948 0
 2448 0050 5D4B     		ldr	r3, .L86+20
 2449 0052 1B78     		ldrb	r3, [r3]
 2450 0054 012B     		cmp	r3, #1
 2451 0056 02D0     		beq	.L77
 2452 0058 022B     		cmp	r3, #2
 2453 005a 4CD0     		beq	.L78
 949:ble_process.c **** 		{
 950:ble_process.c ****             
 951:ble_process.c **** 			case BLE_PERIPHERAL:
 952:ble_process.c **** 				/* If the current role is Peripheral and system is advertising,
 953:ble_process.c **** 				* then stop advertisement before switching role */
 954:ble_process.c **** 				if(CyBle_GetState() == CYBLE_STATE_ADVERTISING)
 955:ble_process.c **** 				{		
 956:ble_process.c **** 					CyBle_GappStopAdvertisement();
 957:ble_process.c **** 					CyBle_ProcessEvents();
 958:ble_process.c **** 
 959:ble_process.c **** 					#if (DEBUG_ENABLED == 1)
 960:ble_process.c **** 						UART_UartPutString("Peripheral Advertisment Stopped ");
 961:ble_process.c **** 						SendBLEStatetoUART(CyBle_GetState());
 962:ble_process.c **** 						UART_UartPutCRLF(' ');
 963:ble_process.c **** 					#endif
 964:ble_process.c **** 				}
 965:ble_process.c **** 				
 966:ble_process.c **** 				if(CyBle_GetState() == CYBLE_STATE_DISCONNECTED)
 967:ble_process.c **** 				{
 968:ble_process.c **** 					/* Switch BLE role by starting scan. This way, the system is set
 969:ble_process.c **** 					* to Central role */
 970:ble_process.c **** 					apiResult = CyBle_GapcStartScan(CYBLE_SCANNING_FAST);
 971:ble_process.c **** 					
 972:ble_process.c **** 					if(CYBLE_ERROR_OK == apiResult)
 973:ble_process.c **** 					{
 974:ble_process.c **** 						#if (DEBUG_ENABLED == 1)
 975:ble_process.c **** 						UART_UartPutString("Start Scan API called ");
 976:ble_process.c **** 						SendBLEStatetoUART(CyBle_GetState());
 977:ble_process.c **** 						UART_UartPutCRLF(' ');
 978:ble_process.c **** 						#endif
 979:ble_process.c **** 						
 980:ble_process.c **** 						/* Record the time at which Central role was started. This will be 
 981:ble_process.c **** 						* used for timeout and switching to Peripheral operation*/
ARM GAS  C:\Users\run1009\AppData\Local\Temp\ccJxhBPK.s 			page 70


 982:ble_process.c **** 						centralStartedTime = WatchDog_CurrentCount();
 983:ble_process.c **** 						
 984:ble_process.c **** 						/* Update the current BLE role to Central */
 985:ble_process.c **** 						ble_gap_state = BLE_CENTRAL;
 986:ble_process.c **** 						
 987:ble_process.c **** 						/* Reset the switch role flag*/
 988:ble_process.c **** 						switch_Role = FALSE;
 989:ble_process.c **** 					}
 990:ble_process.c **** 					else
 991:ble_process.c **** 					{
 992:ble_process.c **** 						/* If scanning did not start, maintain the current role and retry later */
 993:ble_process.c **** 						ble_gap_state = BLE_PERIPHERAL;
 994:ble_process.c **** 						
 995:ble_process.c **** 						#if (DEBUG_ENABLED == 1)
 996:ble_process.c **** 						UART_UartPutString("Start Scan API failed ");
 997:ble_process.c **** 						SendBLEStatetoUART(CyBle_GetState());
 998:ble_process.c **** 						UART_UartPutCRLF(' ');
 999:ble_process.c **** 						#endif
1000:ble_process.c **** 					}
1001:ble_process.c **** 				}
1002:ble_process.c **** 				
1003:ble_process.c **** 				/* Process Pending BLE Events */
1004:ble_process.c **** 				CyBle_ProcessEvents();
1005:ble_process.c **** 				
1006:ble_process.c **** 			break;
1007:ble_process.c **** 			
1008:ble_process.c **** 			case BLE_CENTRAL:
1009:ble_process.c **** 				/* If the current role is Central and system is scanning,
1010:ble_process.c **** 				* then stop scanning before switching role */
1011:ble_process.c **** 				if(CyBle_GetState() == CYBLE_STATE_SCANNING)
1012:ble_process.c **** 				{
1013:ble_process.c **** 					CyBle_GapcStopScan();
1014:ble_process.c **** 					CyBle_ProcessEvents();
1015:ble_process.c **** 					
1016:ble_process.c **** 					#if (DEBUG_ENABLED == 1)
1017:ble_process.c **** 						UART_UartPutString("Central Scan stopped ");
1018:ble_process.c **** 						UART_UartPutCRLF(' ');
1019:ble_process.c **** 					#endif
1020:ble_process.c **** 				}
1021:ble_process.c **** 				
1022:ble_process.c **** 				if(CyBle_GetState() == CYBLE_STATE_DISCONNECTED)
1023:ble_process.c **** 				{
1024:ble_process.c **** 					#ifdef ENABLE_ADV_DATA_COUNTER
1025:ble_process.c **** 					/* Increment data counter */
1026:ble_process.c **** 					new_advData.advData[new_advData.advDataLen - 1] = dataADVCounter;
1027:ble_process.c **** 					
1028:ble_process.c **** 					cyBle_discoveryModeInfo.advData = &new_advData;
1029:ble_process.c **** 					
1030:ble_process.c **** 					#if (DEBUG_ENABLED == 1)
1031:ble_process.c **** 						UART_UartPutString("Updated ADV data = ");
1032:ble_process.c **** 						PrintNum(dataADVCounter);
1033:ble_process.c **** 						UART_UartPutCRLF(' ');
1034:ble_process.c **** 					#endif
1035:ble_process.c **** 					#endif
1036:ble_process.c **** 					
1037:ble_process.c **** 					/* Switch BLE role by starting advertisement. This way, the system is 
1038:ble_process.c **** 					* set to Peripheral role */
ARM GAS  C:\Users\run1009\AppData\Local\Temp\ccJxhBPK.s 			page 71


1039:ble_process.c **** 					apiResult = CyBle_GappStartAdvertisement(CYBLE_ADVERTISING_FAST);
1040:ble_process.c **** 					
1041:ble_process.c **** 					if(apiResult == CYBLE_ERROR_OK)
1042:ble_process.c **** 					{
1043:ble_process.c **** 						/* If advertisement started successfully, set the BLE state and
1044:ble_process.c **** 						* reset the switch role flag*/
1045:ble_process.c **** 						ble_gap_state = BLE_PERIPHERAL;
1046:ble_process.c **** 						clientConnectToDevice = FALSE;	
1047:ble_process.c **** 						switch_Role = FALSE;
1048:ble_process.c **** 						
1049:ble_process.c **** 						#if (DEBUG_ENABLED == 1)
1050:ble_process.c **** 						UART_UartPutString("Peripheral Advertisment called ");
1051:ble_process.c **** 						SendBLEStatetoUART(CyBle_GetState());
1052:ble_process.c **** 						UART_UartPutCRLF(' ');
1053:ble_process.c **** 						#endif
1054:ble_process.c **** 					}
1055:ble_process.c **** 					else
1056:ble_process.c **** 					{
1057:ble_process.c **** 						/* If advertisement did not start, maintain the current role and retry later */
1058:ble_process.c **** 						ble_gap_state = BLE_CENTRAL;
1059:ble_process.c **** 						
1060:ble_process.c **** 						#if (DEBUG_ENABLED == 1)
1061:ble_process.c **** 						UART_UartPutString("Start Peripheral Advertisment Failed ");
1062:ble_process.c **** 						SendBLEStatetoUART(CyBle_GetState());
1063:ble_process.c **** 						UART_UartPutCRLF(' ');
1064:ble_process.c **** 						#endif					
1065:ble_process.c **** 					}
1066:ble_process.c **** 				}
1067:ble_process.c **** 				
1068:ble_process.c **** 				/* Process Pending BLE Events */
1069:ble_process.c **** 				CyBle_ProcessEvents();
1070:ble_process.c **** 			break;
1071:ble_process.c **** 			
1072:ble_process.c **** 			default:
1073:ble_process.c **** 			
1074:ble_process.c **** 			break;
 2454              		.loc 1 1074 0
 2455 005c A6E0     		b	.L74
 2456              	.L77:
 954:ble_process.c **** 				{		
 2457              		.loc 1 954 0
 2458 005e 594B     		ldr	r3, .L86+16
 2459 0060 1B78     		ldrb	r3, [r3]
 2460 0062 032B     		cmp	r3, #3
 2461 0064 0FD1     		bne	.L79
 956:ble_process.c **** 					CyBle_ProcessEvents();
 2462              		.loc 1 956 0
 2463 0066 FFF7FEFF 		bl	CyBle_GappStopAdvertisement
 957:ble_process.c **** 
 2464              		.loc 1 957 0
 2465 006a FFF7FEFF 		bl	CyBle_ProcessEvents
 960:ble_process.c **** 						SendBLEStatetoUART(CyBle_GetState());
 2466              		.loc 1 960 0
 2467 006e 574B     		ldr	r3, .L86+24
 2468 0070 1800     		movs	r0, r3
 2469 0072 FFF7FEFF 		bl	UART_UartPutString
 961:ble_process.c **** 						UART_UartPutCRLF(' ');
ARM GAS  C:\Users\run1009\AppData\Local\Temp\ccJxhBPK.s 			page 72


 2470              		.loc 1 961 0
 2471 0076 534B     		ldr	r3, .L86+16
 2472 0078 1B78     		ldrb	r3, [r3]
 2473 007a 1800     		movs	r0, r3
 2474 007c FFF7FEFF 		bl	SendBLEStatetoUART
 962:ble_process.c **** 					#endif
 2475              		.loc 1 962 0
 2476 0080 2020     		movs	r0, #32
 2477 0082 FFF7FEFF 		bl	UART_UartPutCRLF
 2478              	.L79:
 966:ble_process.c **** 				{
 2479              		.loc 1 966 0
 2480 0086 4F4B     		ldr	r3, .L86+16
 2481 0088 1B78     		ldrb	r3, [r3]
 2482 008a 062B     		cmp	r3, #6
 2483 008c 30D1     		bne	.L80
 970:ble_process.c **** 					
 2484              		.loc 1 970 0
 2485 008e BC1D     		adds	r4, r7, #6
 2486 0090 0020     		movs	r0, #0
 2487 0092 FFF7FEFF 		bl	CyBle_GapcStartScan
 2488 0096 0300     		movs	r3, r0
 2489 0098 2380     		strh	r3, [r4]
 972:ble_process.c **** 					{
 2490              		.loc 1 972 0
 2491 009a BB1D     		adds	r3, r7, #6
 2492 009c 1B88     		ldrh	r3, [r3]
 2493 009e 002B     		cmp	r3, #0
 2494 00a0 17D1     		bne	.L81
 975:ble_process.c **** 						SendBLEStatetoUART(CyBle_GetState());
 2495              		.loc 1 975 0
 2496 00a2 4B4B     		ldr	r3, .L86+28
 2497 00a4 1800     		movs	r0, r3
 2498 00a6 FFF7FEFF 		bl	UART_UartPutString
 976:ble_process.c **** 						UART_UartPutCRLF(' ');
 2499              		.loc 1 976 0
 2500 00aa 464B     		ldr	r3, .L86+16
 2501 00ac 1B78     		ldrb	r3, [r3]
 2502 00ae 1800     		movs	r0, r3
 2503 00b0 FFF7FEFF 		bl	SendBLEStatetoUART
 977:ble_process.c **** 						#endif
 2504              		.loc 1 977 0
 2505 00b4 2020     		movs	r0, #32
 2506 00b6 FFF7FEFF 		bl	UART_UartPutCRLF
 982:ble_process.c **** 						
 2507              		.loc 1 982 0
 2508 00ba 464B     		ldr	r3, .L86+32
 2509 00bc 1B88     		ldrh	r3, [r3]
 2510 00be 9AB2     		uxth	r2, r3
 2511 00c0 454B     		ldr	r3, .L86+36
 2512 00c2 1A80     		strh	r2, [r3]
 985:ble_process.c **** 						
 2513              		.loc 1 985 0
 2514 00c4 404B     		ldr	r3, .L86+20
 2515 00c6 0222     		movs	r2, #2
 2516 00c8 1A70     		strb	r2, [r3]
 988:ble_process.c **** 					}
ARM GAS  C:\Users\run1009\AppData\Local\Temp\ccJxhBPK.s 			page 73


 2517              		.loc 1 988 0
 2518 00ca 3A4B     		ldr	r3, .L86
 2519 00cc 0022     		movs	r2, #0
 2520 00ce 1A70     		strb	r2, [r3]
 2521 00d0 0EE0     		b	.L80
 2522              	.L81:
 993:ble_process.c **** 						
 2523              		.loc 1 993 0
 2524 00d2 3D4B     		ldr	r3, .L86+20
 2525 00d4 0122     		movs	r2, #1
 2526 00d6 1A70     		strb	r2, [r3]
 996:ble_process.c **** 						SendBLEStatetoUART(CyBle_GetState());
 2527              		.loc 1 996 0
 2528 00d8 404B     		ldr	r3, .L86+40
 2529 00da 1800     		movs	r0, r3
 2530 00dc FFF7FEFF 		bl	UART_UartPutString
 997:ble_process.c **** 						UART_UartPutCRLF(' ');
 2531              		.loc 1 997 0
 2532 00e0 384B     		ldr	r3, .L86+16
 2533 00e2 1B78     		ldrb	r3, [r3]
 2534 00e4 1800     		movs	r0, r3
 2535 00e6 FFF7FEFF 		bl	SendBLEStatetoUART
 998:ble_process.c **** 						#endif
 2536              		.loc 1 998 0
 2537 00ea 2020     		movs	r0, #32
 2538 00ec FFF7FEFF 		bl	UART_UartPutCRLF
 2539              	.L80:
1004:ble_process.c **** 				
 2540              		.loc 1 1004 0
 2541 00f0 FFF7FEFF 		bl	CyBle_ProcessEvents
1006:ble_process.c **** 			
 2542              		.loc 1 1006 0
 2543 00f4 5AE0     		b	.L74
 2544              	.L78:
1011:ble_process.c **** 				{
 2545              		.loc 1 1011 0
 2546 00f6 334B     		ldr	r3, .L86+16
 2547 00f8 1B78     		ldrb	r3, [r3]
 2548 00fa 042B     		cmp	r3, #4
 2549 00fc 0AD1     		bne	.L82
1013:ble_process.c **** 					CyBle_ProcessEvents();
 2550              		.loc 1 1013 0
 2551 00fe FFF7FEFF 		bl	CyBle_GapcStopScan
1014:ble_process.c **** 					
 2552              		.loc 1 1014 0
 2553 0102 FFF7FEFF 		bl	CyBle_ProcessEvents
1017:ble_process.c **** 						UART_UartPutCRLF(' ');
 2554              		.loc 1 1017 0
 2555 0106 364B     		ldr	r3, .L86+44
 2556 0108 1800     		movs	r0, r3
 2557 010a FFF7FEFF 		bl	UART_UartPutString
1018:ble_process.c **** 					#endif
 2558              		.loc 1 1018 0
 2559 010e 2020     		movs	r0, #32
 2560 0110 FFF7FEFF 		bl	UART_UartPutCRLF
 2561              	.L82:
1022:ble_process.c **** 				{
ARM GAS  C:\Users\run1009\AppData\Local\Temp\ccJxhBPK.s 			page 74


 2562              		.loc 1 1022 0
 2563 0114 2B4B     		ldr	r3, .L86+16
 2564 0116 1B78     		ldrb	r3, [r3]
 2565 0118 062B     		cmp	r3, #6
 2566 011a 44D1     		bne	.L83
1026:ble_process.c **** 					
 2567              		.loc 1 1026 0
 2568 011c 314B     		ldr	r3, .L86+48
 2569 011e DB7F     		ldrb	r3, [r3, #31]
 2570 0120 013B     		subs	r3, r3, #1
 2571 0122 314A     		ldr	r2, .L86+52
 2572 0124 1178     		ldrb	r1, [r2]
 2573 0126 2F4A     		ldr	r2, .L86+48
 2574 0128 D154     		strb	r1, [r2, r3]
1028:ble_process.c **** 					
 2575              		.loc 1 1028 0
 2576 012a 304B     		ldr	r3, .L86+56
 2577 012c 2D4A     		ldr	r2, .L86+48
 2578 012e 9A60     		str	r2, [r3, #8]
1031:ble_process.c **** 						PrintNum(dataADVCounter);
 2579              		.loc 1 1031 0
 2580 0130 2F4B     		ldr	r3, .L86+60
 2581 0132 1800     		movs	r0, r3
 2582 0134 FFF7FEFF 		bl	UART_UartPutString
1032:ble_process.c **** 						UART_UartPutCRLF(' ');
 2583              		.loc 1 1032 0
 2584 0138 2B4B     		ldr	r3, .L86+52
 2585 013a 1B78     		ldrb	r3, [r3]
 2586 013c 1800     		movs	r0, r3
 2587 013e FFF7FEFF 		bl	PrintNum
1033:ble_process.c **** 					#endif
 2588              		.loc 1 1033 0
 2589 0142 2020     		movs	r0, #32
 2590 0144 FFF7FEFF 		bl	UART_UartPutCRLF
1039:ble_process.c **** 					
 2591              		.loc 1 1039 0
 2592 0148 BC1D     		adds	r4, r7, #6
 2593 014a 0020     		movs	r0, #0
 2594 014c FFF7FEFF 		bl	CyBle_GappStartAdvertisement
 2595 0150 0300     		movs	r3, r0
 2596 0152 2380     		strh	r3, [r4]
1041:ble_process.c **** 					{
 2597              		.loc 1 1041 0
 2598 0154 BB1D     		adds	r3, r7, #6
 2599 0156 1B88     		ldrh	r3, [r3]
 2600 0158 002B     		cmp	r3, #0
 2601 015a 15D1     		bne	.L84
1045:ble_process.c **** 						clientConnectToDevice = FALSE;	
 2602              		.loc 1 1045 0
 2603 015c 1A4B     		ldr	r3, .L86+20
 2604 015e 0122     		movs	r2, #1
 2605 0160 1A70     		strb	r2, [r3]
1046:ble_process.c **** 						switch_Role = FALSE;
 2606              		.loc 1 1046 0
 2607 0162 244B     		ldr	r3, .L86+64
 2608 0164 0022     		movs	r2, #0
 2609 0166 1A70     		strb	r2, [r3]
ARM GAS  C:\Users\run1009\AppData\Local\Temp\ccJxhBPK.s 			page 75


1047:ble_process.c **** 						
 2610              		.loc 1 1047 0
 2611 0168 124B     		ldr	r3, .L86
 2612 016a 0022     		movs	r2, #0
 2613 016c 1A70     		strb	r2, [r3]
1050:ble_process.c **** 						SendBLEStatetoUART(CyBle_GetState());
 2614              		.loc 1 1050 0
 2615 016e 224B     		ldr	r3, .L86+68
 2616 0170 1800     		movs	r0, r3
 2617 0172 FFF7FEFF 		bl	UART_UartPutString
1051:ble_process.c **** 						UART_UartPutCRLF(' ');
 2618              		.loc 1 1051 0
 2619 0176 134B     		ldr	r3, .L86+16
 2620 0178 1B78     		ldrb	r3, [r3]
 2621 017a 1800     		movs	r0, r3
 2622 017c FFF7FEFF 		bl	SendBLEStatetoUART
1052:ble_process.c **** 						#endif
 2623              		.loc 1 1052 0
 2624 0180 2020     		movs	r0, #32
 2625 0182 FFF7FEFF 		bl	UART_UartPutCRLF
 2626 0186 0EE0     		b	.L83
 2627              	.L84:
1058:ble_process.c **** 						
 2628              		.loc 1 1058 0
 2629 0188 0F4B     		ldr	r3, .L86+20
 2630 018a 0222     		movs	r2, #2
 2631 018c 1A70     		strb	r2, [r3]
1061:ble_process.c **** 						SendBLEStatetoUART(CyBle_GetState());
 2632              		.loc 1 1061 0
 2633 018e 1B4B     		ldr	r3, .L86+72
 2634 0190 1800     		movs	r0, r3
 2635 0192 FFF7FEFF 		bl	UART_UartPutString
1062:ble_process.c **** 						UART_UartPutCRLF(' ');
 2636              		.loc 1 1062 0
 2637 0196 0B4B     		ldr	r3, .L86+16
 2638 0198 1B78     		ldrb	r3, [r3]
 2639 019a 1800     		movs	r0, r3
 2640 019c FFF7FEFF 		bl	SendBLEStatetoUART
1063:ble_process.c **** 						#endif					
 2641              		.loc 1 1063 0
 2642 01a0 2020     		movs	r0, #32
 2643 01a2 FFF7FEFF 		bl	UART_UartPutCRLF
 2644              	.L83:
1069:ble_process.c **** 			break;
 2645              		.loc 1 1069 0
 2646 01a6 FFF7FEFF 		bl	CyBle_ProcessEvents
1070:ble_process.c **** 			
 2647              		.loc 1 1070 0
 2648 01aa C046     		nop
 2649              	.L74:
 2650              	.L85:
1075:ble_process.c **** 			
1076:ble_process.c **** 		}
1077:ble_process.c **** 	}
1078:ble_process.c **** }
 2651              		.loc 1 1078 0
 2652 01ac C046     		nop
ARM GAS  C:\Users\run1009\AppData\Local\Temp\ccJxhBPK.s 			page 76


 2653 01ae BD46     		mov	sp, r7
 2654 01b0 03B0     		add	sp, sp, #12
 2655              		@ sp needed
 2656 01b2 90BD     		pop	{r4, r7, pc}
 2657              	.L87:
 2658              		.align	2
 2659              	.L86:
 2660 01b4 00000000 		.word	switch_Role
 2661 01b8 04040000 		.word	.LC119
 2662 01bc 00000000 		.word	cyBle_connHandle
 2663 01c0 10040000 		.word	.LC122
 2664 01c4 00000000 		.word	cyBle_state
 2665 01c8 00000000 		.word	ble_gap_state
 2666 01cc 30040000 		.word	.LC126
 2667 01d0 54040000 		.word	.LC128
 2668 01d4 00000000 		.word	current_watchdog_counter
 2669 01d8 00000000 		.word	centralStartedTime
 2670 01dc 6C040000 		.word	.LC132
 2671 01e0 84040000 		.word	.LC134
 2672 01e4 00000000 		.word	new_advData
 2673 01e8 00000000 		.word	dataADVCounter
 2674 01ec 00000000 		.word	cyBle_discoveryModeInfo
 2675 01f0 9C040000 		.word	.LC139
 2676 01f4 00000000 		.word	clientConnectToDevice
 2677 01f8 B0040000 		.word	.LC142
 2678 01fc D0040000 		.word	.LC144
 2679              		.cfi_endproc
 2680              	.LFE37:
 2681              		.size	SwitchRole, .-SwitchRole
 2682              		.section	.rodata
 2683 04f6 0000     		.align	2
 2684              	.LC149:
 2685 04f8 436F6E6E 		.ascii	"Connect Request failed \000"
 2685      65637420 
 2685      52657175 
 2685      65737420 
 2685      6661696C 
 2686              		.align	2
 2687              	.LC151:
 2688 0510 436F6E6E 		.ascii	"Connect Request Sent: \000"
 2688      65637420 
 2688      52657175 
 2688      65737420 
 2688      53656E74 
 2689              		.section	.text.ConnectToPeripheralDevice,"ax",%progbits
 2690              		.align	2
 2691              		.global	ConnectToPeripheralDevice
 2692              		.code	16
 2693              		.thumb_func
 2694              		.type	ConnectToPeripheralDevice, %function
 2695              	ConnectToPeripheralDevice:
 2696              	.LFB38:
1079:ble_process.c **** 
1080:ble_process.c **** /*******************************************************************************
1081:ble_process.c **** * Function Name: ConnectToPeripheralDevice
1082:ble_process.c **** ********************************************************************************
1083:ble_process.c **** * Summary:
ARM GAS  C:\Users\run1009\AppData\Local\Temp\ccJxhBPK.s 			page 77


1084:ble_process.c **** *        Connects to Peripheral device with given BD Address.
1085:ble_process.c **** *
1086:ble_process.c **** * Parameters:
1087:ble_process.c **** *  void
1088:ble_process.c **** *
1089:ble_process.c **** * Return:
1090:ble_process.c **** *  void
1091:ble_process.c **** *
1092:ble_process.c **** *******************************************************************************/
1093:ble_process.c **** void ConnectToPeripheralDevice(void)
1094:ble_process.c **** {
 2697              		.loc 1 1094 0
 2698              		.cfi_startproc
 2699              		@ args = 0, pretend = 0, frame = 8
 2700              		@ frame_needed = 1, uses_anonymous_args = 0
 2701 0000 90B5     		push	{r4, r7, lr}
 2702              		.cfi_def_cfa_offset 12
 2703              		.cfi_offset 4, -12
 2704              		.cfi_offset 7, -8
 2705              		.cfi_offset 14, -4
 2706 0002 83B0     		sub	sp, sp, #12
 2707              		.cfi_def_cfa_offset 24
 2708 0004 00AF     		add	r7, sp, #0
 2709              		.cfi_def_cfa_register 7
1095:ble_process.c **** 	CYBLE_API_RESULT_T  apiResult;
1096:ble_process.c **** 	
1097:ble_process.c **** 	/* If flag has been set to connect to a device... */
1098:ble_process.c **** 	if(clientConnectToDevice)
 2710              		.loc 1 1098 0
 2711 0006 234B     		ldr	r3, .L93
 2712 0008 1B78     		ldrb	r3, [r3]
 2713 000a DBB2     		uxtb	r3, r3
 2714 000c 002B     		cmp	r3, #0
 2715 000e 3DD0     		beq	.L92
1099:ble_process.c **** 	{
1100:ble_process.c **** 		/* Process pending BLE events */
1101:ble_process.c **** 		CyBle_ProcessEvents();
 2716              		.loc 1 1101 0
 2717 0010 FFF7FEFF 		bl	CyBle_ProcessEvents
1102:ble_process.c **** 
1103:ble_process.c **** 		if(CYBLE_STATE_DISCONNECTED == CyBle_GetState())
 2718              		.loc 1 1103 0
 2719 0014 204B     		ldr	r3, .L93+4
 2720 0016 1B78     		ldrb	r3, [r3]
 2721 0018 062B     		cmp	r3, #6
 2722 001a 37D1     		bne	.L92
1104:ble_process.c **** 		{
1105:ble_process.c **** 			/* Reset the flag to connect to a device*/
1106:ble_process.c **** 			clientConnectToDevice = FALSE;
 2723              		.loc 1 1106 0
 2724 001c 1D4B     		ldr	r3, .L93
 2725 001e 0022     		movs	r2, #0
 2726 0020 1A70     		strb	r2, [r3]
1107:ble_process.c **** 			
1108:ble_process.c **** 			/* Connect to the device whose address has been saved as part of 
1109:ble_process.c **** 			* potential node search */
1110:ble_process.c **** 			apiResult = CyBle_GapcConnectDevice(&peripAddr);
ARM GAS  C:\Users\run1009\AppData\Local\Temp\ccJxhBPK.s 			page 78


 2727              		.loc 1 1110 0
 2728 0022 BC1D     		adds	r4, r7, #6
 2729 0024 1D4B     		ldr	r3, .L93+8
 2730 0026 1800     		movs	r0, r3
 2731 0028 FFF7FEFF 		bl	CyBle_GapcConnectDevice
 2732 002c 0300     		movs	r3, r0
 2733 002e 2380     		strh	r3, [r4]
1111:ble_process.c **** 			
1112:ble_process.c **** 			if(apiResult != CYBLE_ERROR_OK)
 2734              		.loc 1 1112 0
 2735 0030 BB1D     		adds	r3, r7, #6
 2736 0032 1B88     		ldrh	r3, [r3]
 2737 0034 002B     		cmp	r3, #0
 2738 0036 0CD0     		beq	.L90
1113:ble_process.c **** 			{
1114:ble_process.c **** 				#if (DEBUG_ENABLED == 1)
1115:ble_process.c **** 					UART_UartPutString("Connect Request failed ");
 2739              		.loc 1 1115 0
 2740 0038 194B     		ldr	r3, .L93+12
 2741 003a 1800     		movs	r0, r3
 2742 003c FFF7FEFF 		bl	UART_UartPutString
1116:ble_process.c **** 					SendBLEStatetoUART(CyBle_GetState());
 2743              		.loc 1 1116 0
 2744 0040 154B     		ldr	r3, .L93+4
 2745 0042 1B78     		ldrb	r3, [r3]
 2746 0044 1800     		movs	r0, r3
 2747 0046 FFF7FEFF 		bl	SendBLEStatetoUART
1117:ble_process.c **** 					UART_UartPutCRLF(' ');
 2748              		.loc 1 1117 0
 2749 004a 2020     		movs	r0, #32
 2750 004c FFF7FEFF 		bl	UART_UartPutCRLF
 2751 0050 1AE0     		b	.L91
 2752              	.L90:
1118:ble_process.c **** 				#endif
1119:ble_process.c **** 			}
1120:ble_process.c **** 			else
1121:ble_process.c **** 			{
1122:ble_process.c **** 				#if (DEBUG_ENABLED == 1)
1123:ble_process.c **** 					UART_UartPutString("Connect Request Sent: ");
 2753              		.loc 1 1123 0
 2754 0052 144B     		ldr	r3, .L93+16
 2755 0054 1800     		movs	r0, r3
 2756 0056 FFF7FEFF 		bl	UART_UartPutString
1124:ble_process.c **** 					PrintHex(peripAddr.bdAddr[0]);
 2757              		.loc 1 1124 0
 2758 005a 104B     		ldr	r3, .L93+8
 2759 005c 1B78     		ldrb	r3, [r3]
 2760 005e 1800     		movs	r0, r3
 2761 0060 FFF7FEFF 		bl	PrintHex
1125:ble_process.c **** 					PrintHex(peripAddr.bdAddr[1]);
 2762              		.loc 1 1125 0
 2763 0064 0D4B     		ldr	r3, .L93+8
 2764 0066 5B78     		ldrb	r3, [r3, #1]
 2765 0068 1800     		movs	r0, r3
 2766 006a FFF7FEFF 		bl	PrintHex
1126:ble_process.c **** 					PrintHex(peripAddr.bdAddr[2]);
 2767              		.loc 1 1126 0
ARM GAS  C:\Users\run1009\AppData\Local\Temp\ccJxhBPK.s 			page 79


 2768 006e 0B4B     		ldr	r3, .L93+8
 2769 0070 9B78     		ldrb	r3, [r3, #2]
 2770 0072 1800     		movs	r0, r3
 2771 0074 FFF7FEFF 		bl	PrintHex
1127:ble_process.c **** 					SendBLEStatetoUART(CyBle_GetState());
 2772              		.loc 1 1127 0
 2773 0078 074B     		ldr	r3, .L93+4
 2774 007a 1B78     		ldrb	r3, [r3]
 2775 007c 1800     		movs	r0, r3
 2776 007e FFF7FEFF 		bl	SendBLEStatetoUART
1128:ble_process.c **** 					UART_UartPutCRLF(' ');
 2777              		.loc 1 1128 0
 2778 0082 2020     		movs	r0, #32
 2779 0084 FFF7FEFF 		bl	UART_UartPutCRLF
 2780              	.L91:
1129:ble_process.c **** 				#endif	
1130:ble_process.c **** 			}
1131:ble_process.c **** 			
1132:ble_process.c **** 			/* Process pending BLE events */
1133:ble_process.c **** 			CyBle_ProcessEvents();
 2781              		.loc 1 1133 0
 2782 0088 FFF7FEFF 		bl	CyBle_ProcessEvents
 2783              	.L92:
1134:ble_process.c **** 		}
1135:ble_process.c **** 	}
1136:ble_process.c **** }
 2784              		.loc 1 1136 0
 2785 008c C046     		nop
 2786 008e BD46     		mov	sp, r7
 2787 0090 03B0     		add	sp, sp, #12
 2788              		@ sp needed
 2789 0092 90BD     		pop	{r4, r7, pc}
 2790              	.L94:
 2791              		.align	2
 2792              	.L93:
 2793 0094 00000000 		.word	clientConnectToDevice
 2794 0098 00000000 		.word	cyBle_state
 2795 009c 00000000 		.word	peripAddr
 2796 00a0 F8040000 		.word	.LC149
 2797 00a4 10050000 		.word	.LC151
 2798              		.cfi_endproc
 2799              	.LFE38:
 2800              		.size	ConnectToPeripheralDevice, .-ConnectToPeripheralDevice
 2801              		.section	.rodata
 2802 0527 00       		.align	2
 2803              	.LC158:
 2804 0528 73776974 		.ascii	"switchRole from restart Scanning loop \000"
 2804      6368526F 
 2804      6C652066 
 2804      726F6D20 
 2804      72657374 
 2805 054f 00       		.align	2
 2806              	.LC161:
 2807 0550 53746172 		.ascii	"Start Scan from restart Scanning loop \000"
 2807      74205363 
 2807      616E2066 
 2807      726F6D20 
ARM GAS  C:\Users\run1009\AppData\Local\Temp\ccJxhBPK.s 			page 80


 2807      72657374 
 2808              		.section	.text.RestartCentralScanning,"ax",%progbits
 2809              		.align	2
 2810              		.global	RestartCentralScanning
 2811              		.code	16
 2812              		.thumb_func
 2813              		.type	RestartCentralScanning, %function
 2814              	RestartCentralScanning:
 2815              	.LFB39:
1137:ble_process.c **** 
1138:ble_process.c **** /*******************************************************************************
1139:ble_process.c **** * Function Name: RestartCentralScanning
1140:ble_process.c **** ********************************************************************************
1141:ble_process.c **** * Summary:
1142:ble_process.c **** *        Restarts Central scanning. Also, if the time that the device has remained
1143:ble_process.c **** * in Central role exceeds pre-determined value, then the switch role flag is set.
1144:ble_process.c **** *
1145:ble_process.c **** * Parameters:
1146:ble_process.c **** *  void
1147:ble_process.c **** *
1148:ble_process.c **** * Return:
1149:ble_process.c **** *  void
1150:ble_process.c **** *
1151:ble_process.c **** *******************************************************************************/
1152:ble_process.c **** void RestartCentralScanning(void)
1153:ble_process.c **** {
 2816              		.loc 1 1153 0
 2817              		.cfi_startproc
 2818              		@ args = 0, pretend = 0, frame = 0
 2819              		@ frame_needed = 1, uses_anonymous_args = 0
 2820 0000 80B5     		push	{r7, lr}
 2821              		.cfi_def_cfa_offset 8
 2822              		.cfi_offset 7, -8
 2823              		.cfi_offset 14, -4
 2824 0002 00AF     		add	r7, sp, #0
 2825              		.cfi_def_cfa_register 7
1154:ble_process.c **** 	/* If the current role is Central and the Central time has exceeded the preset time,
1155:ble_process.c **** 	* then set the flag to switch role to Peripheral */
1156:ble_process.c **** 	if((BLE_CENTRAL == ble_gap_state) 
 2826              		.loc 1 1156 0
 2827 0004 224B     		ldr	r3, .L101
 2828 0006 1B78     		ldrb	r3, [r3]
 2829 0008 022B     		cmp	r3, #2
 2830 000a 1CD1     		bne	.L96
1157:ble_process.c **** 		&& (WatchDog_CurrentCount() - centralStartedTime > CENTRAL_STATE_SPAN) 
 2831              		.loc 1 1157 0
 2832 000c 214B     		ldr	r3, .L101+4
 2833 000e 1B88     		ldrh	r3, [r3]
 2834 0010 9BB2     		uxth	r3, r3
 2835 0012 1A00     		movs	r2, r3
 2836 0014 204B     		ldr	r3, .L101+8
 2837 0016 1B88     		ldrh	r3, [r3]
 2838 0018 9BB2     		uxth	r3, r3
 2839 001a D31A     		subs	r3, r2, r3
 2840 001c B42B     		cmp	r3, #180
 2841 001e 12DD     		ble	.L96
1158:ble_process.c **** 		&& ((CYBLE_STATE_DISCONNECTED == CyBle_GetState()) || (CYBLE_STATE_SCANNING == CyBle_GetState()))
ARM GAS  C:\Users\run1009\AppData\Local\Temp\ccJxhBPK.s 			page 81


 2842              		.loc 1 1158 0
 2843 0020 1E4B     		ldr	r3, .L101+12
 2844 0022 1B78     		ldrb	r3, [r3]
 2845 0024 062B     		cmp	r3, #6
 2846 0026 03D0     		beq	.L97
 2847              		.loc 1 1158 0 is_stmt 0 discriminator 1
 2848 0028 1C4B     		ldr	r3, .L101+12
 2849 002a 1B78     		ldrb	r3, [r3]
 2850 002c 042B     		cmp	r3, #4
 2851 002e 0AD1     		bne	.L96
 2852              	.L97:
1159:ble_process.c **** 	{
1160:ble_process.c **** 		/* Switch role flag set */
1161:ble_process.c **** 		switch_Role = TRUE;
 2853              		.loc 1 1161 0 is_stmt 1
 2854 0030 1B4B     		ldr	r3, .L101+16
 2855 0032 0122     		movs	r2, #1
 2856 0034 1A70     		strb	r2, [r3]
1162:ble_process.c **** 		#if (DEBUG_ENABLED == 1)
1163:ble_process.c **** 		UART_UartPutString("switchRole from restart Scanning loop ");
 2857              		.loc 1 1163 0
 2858 0036 1B4B     		ldr	r3, .L101+20
 2859 0038 1800     		movs	r0, r3
 2860 003a FFF7FEFF 		bl	UART_UartPutString
1164:ble_process.c **** 		UART_UartPutCRLF(' ');
 2861              		.loc 1 1164 0
 2862 003e 2020     		movs	r0, #32
 2863 0040 FFF7FEFF 		bl	UART_UartPutCRLF
1165:ble_process.c **** 		#endif
1166:ble_process.c **** 		
1167:ble_process.c **** 		return;
 2864              		.loc 1 1167 0
 2865 0044 22E0     		b	.L95
 2866              	.L96:
1168:ble_process.c **** 	}
1169:ble_process.c **** 	
1170:ble_process.c **** 	/* If restart scanning flag is set, then restart the Central scanning */
1171:ble_process.c **** 	if(restartScanning)
 2867              		.loc 1 1171 0
 2868 0046 184B     		ldr	r3, .L101+24
 2869 0048 1B78     		ldrb	r3, [r3]
 2870 004a 002B     		cmp	r3, #0
 2871 004c 1ED0     		beq	.L95
1172:ble_process.c **** 	{
1173:ble_process.c **** 		/* Process pending BLE events */
1174:ble_process.c **** 		CyBle_ProcessEvents();
 2872              		.loc 1 1174 0
 2873 004e FFF7FEFF 		bl	CyBle_ProcessEvents
1175:ble_process.c **** 		
1176:ble_process.c **** 		/* Restart scanning only if role switch flag is not set, else reset the flag*/
1177:ble_process.c **** 		if(switch_Role !=  TRUE)		
 2874              		.loc 1 1177 0
 2875 0052 134B     		ldr	r3, .L101+16
 2876 0054 1B78     		ldrb	r3, [r3]
 2877 0056 012B     		cmp	r3, #1
 2878 0058 15D0     		beq	.L99
1178:ble_process.c **** 		{
ARM GAS  C:\Users\run1009\AppData\Local\Temp\ccJxhBPK.s 			page 82


1179:ble_process.c **** 			if(CYBLE_STATE_DISCONNECTED == CyBle_GetState())
 2879              		.loc 1 1179 0
 2880 005a 104B     		ldr	r3, .L101+12
 2881 005c 1B78     		ldrb	r3, [r3]
 2882 005e 062B     		cmp	r3, #6
 2883 0060 14D1     		bne	.L95
1180:ble_process.c **** 			{
1181:ble_process.c **** 				/* Reset the restart scanning flag */
1182:ble_process.c **** 				restartScanning = FALSE;
 2884              		.loc 1 1182 0
 2885 0062 114B     		ldr	r3, .L101+24
 2886 0064 0022     		movs	r2, #0
 2887 0066 1A70     		strb	r2, [r3]
1183:ble_process.c **** 
1184:ble_process.c **** 				/* Start Central scan and process the event */
1185:ble_process.c **** 				CyBle_ProcessEvents();
 2888              		.loc 1 1185 0
 2889 0068 FFF7FEFF 		bl	CyBle_ProcessEvents
1186:ble_process.c **** 				
1187:ble_process.c **** 				#if (DEBUG_ENABLED == 1)
1188:ble_process.c **** 				UART_UartPutString("Start Scan from restart Scanning loop ");
 2890              		.loc 1 1188 0
 2891 006c 0F4B     		ldr	r3, .L101+28
 2892 006e 1800     		movs	r0, r3
 2893 0070 FFF7FEFF 		bl	UART_UartPutString
1189:ble_process.c **** 				UART_UartPutCRLF(' ');
 2894              		.loc 1 1189 0
 2895 0074 2020     		movs	r0, #32
 2896 0076 FFF7FEFF 		bl	UART_UartPutCRLF
1190:ble_process.c **** 				#endif
1191:ble_process.c **** 							
1192:ble_process.c **** 				CyBle_GapcStartScan(CYBLE_SCANNING_FAST);
 2897              		.loc 1 1192 0
 2898 007a 0020     		movs	r0, #0
 2899 007c FFF7FEFF 		bl	CyBle_GapcStartScan
1193:ble_process.c **** 				CyBle_ProcessEvents();
 2900              		.loc 1 1193 0
 2901 0080 FFF7FEFF 		bl	CyBle_ProcessEvents
 2902 0084 02E0     		b	.L95
 2903              	.L99:
1194:ble_process.c **** 			}
1195:ble_process.c **** 		}
1196:ble_process.c **** 		else
1197:ble_process.c **** 		{
1198:ble_process.c **** 			/* Reset the restart scanning flag */
1199:ble_process.c **** 			restartScanning = FALSE;
 2904              		.loc 1 1199 0
 2905 0086 084B     		ldr	r3, .L101+24
 2906 0088 0022     		movs	r2, #0
 2907 008a 1A70     		strb	r2, [r3]
 2908              	.L95:
1200:ble_process.c **** 		}
1201:ble_process.c **** 	}
1202:ble_process.c **** }	
 2909              		.loc 1 1202 0
 2910 008c BD46     		mov	sp, r7
 2911              		@ sp needed
ARM GAS  C:\Users\run1009\AppData\Local\Temp\ccJxhBPK.s 			page 83


 2912 008e 80BD     		pop	{r7, pc}
 2913              	.L102:
 2914              		.align	2
 2915              	.L101:
 2916 0090 00000000 		.word	ble_gap_state
 2917 0094 00000000 		.word	current_watchdog_counter
 2918 0098 00000000 		.word	centralStartedTime
 2919 009c 00000000 		.word	cyBle_state
 2920 00a0 00000000 		.word	switch_Role
 2921 00a4 28050000 		.word	.LC158
 2922 00a8 00000000 		.word	restartScanning
 2923 00ac 50050000 		.word	.LC161
 2924              		.cfi_endproc
 2925              	.LFE39:
 2926              		.size	RestartCentralScanning, .-RestartCentralScanning
 2927              		.section	.text.SendErrorCode,"ax",%progbits
 2928              		.align	2
 2929              		.global	SendErrorCode
 2930              		.code	16
 2931              		.thumb_func
 2932              		.type	SendErrorCode, %function
 2933              	SendErrorCode:
 2934              	.LFB40:
1203:ble_process.c **** 
1204:ble_process.c **** /*******************************************************************************
1205:ble_process.c **** * Function Name: SendErrorCode
1206:ble_process.c **** ********************************************************************************
1207:ble_process.c **** * Summary:
1208:ble_process.c **** *        Send Error code at GATT Layer
1209:ble_process.c **** *
1210:ble_process.c **** * Parameters:
1211:ble_process.c **** *  uint8 opCode, 
1212:ble_process.c **** *  CYBLE_GATT_DB_ATTR_HANDLE_T  attrHandle, 
1213:ble_process.c **** *  CYBLE_GATT_ERR_CODE_T errorCode
1214:ble_process.c **** *
1215:ble_process.c **** * Return:
1216:ble_process.c **** *  void
1217:ble_process.c **** *
1218:ble_process.c **** *******************************************************************************/
1219:ble_process.c **** void SendErrorCode(uint8 opCode, CYBLE_GATT_DB_ATTR_HANDLE_T  attrHandle, CYBLE_GATT_ERR_CODE_T err
1220:ble_process.c **** {
 2935              		.loc 1 1220 0
 2936              		.cfi_startproc
 2937              		@ args = 0, pretend = 0, frame = 16
 2938              		@ frame_needed = 1, uses_anonymous_args = 0
 2939 0000 90B5     		push	{r4, r7, lr}
 2940              		.cfi_def_cfa_offset 12
 2941              		.cfi_offset 4, -12
 2942              		.cfi_offset 7, -8
 2943              		.cfi_offset 14, -4
 2944 0002 85B0     		sub	sp, sp, #20
 2945              		.cfi_def_cfa_offset 32
 2946 0004 00AF     		add	r7, sp, #0
 2947              		.cfi_def_cfa_register 7
 2948 0006 0400     		movs	r4, r0
 2949 0008 0800     		movs	r0, r1
 2950 000a 1100     		movs	r1, r2
ARM GAS  C:\Users\run1009\AppData\Local\Temp\ccJxhBPK.s 			page 84


 2951 000c FB1D     		adds	r3, r7, #7
 2952 000e 221C     		adds	r2, r4, #0
 2953 0010 1A70     		strb	r2, [r3]
 2954 0012 3B1D     		adds	r3, r7, #4
 2955 0014 021C     		adds	r2, r0, #0
 2956 0016 1A80     		strh	r2, [r3]
 2957 0018 BB1D     		adds	r3, r7, #6
 2958 001a 0A1C     		adds	r2, r1, #0
 2959 001c 1A70     		strb	r2, [r3]
1221:ble_process.c **** 	CYBLE_GATTS_ERR_PARAM_T err_param;
1222:ble_process.c **** 		            
1223:ble_process.c ****     err_param.opcode = opCode;
 2960              		.loc 1 1223 0
 2961 001e 0C23     		movs	r3, #12
 2962 0020 FB18     		adds	r3, r7, r3
 2963 0022 FA1D     		adds	r2, r7, #7
 2964 0024 1278     		ldrb	r2, [r2]
 2965 0026 9A70     		strb	r2, [r3, #2]
1224:ble_process.c ****     err_param.attrHandle = attrHandle;
 2966              		.loc 1 1224 0
 2967 0028 0C23     		movs	r3, #12
 2968 002a FB18     		adds	r3, r7, r3
 2969 002c 3A1D     		adds	r2, r7, #4
 2970 002e 1288     		ldrh	r2, [r2]
 2971 0030 1A80     		strh	r2, [r3]
1225:ble_process.c ****     err_param.errorCode = errorCode;
 2972              		.loc 1 1225 0
 2973 0032 0C23     		movs	r3, #12
 2974 0034 FB18     		adds	r3, r7, r3
 2975 0036 BA1D     		adds	r2, r7, #6
 2976 0038 1278     		ldrb	r2, [r2]
 2977 003a DA70     		strb	r2, [r3, #3]
1226:ble_process.c **** 
1227:ble_process.c ****     /* Send Error Response */
1228:ble_process.c ****     (void)CyBle_GattsErrorRsp(cyBle_connHandle, &err_param);
 2978              		.loc 1 1228 0
 2979 003c 0C23     		movs	r3, #12
 2980 003e F918     		adds	r1, r7, r3
 2981 0040 084B     		ldr	r3, .L104
 2982 0042 1A78     		ldrb	r2, [r3]
 2983 0044 5B78     		ldrb	r3, [r3, #1]
 2984 0046 1B02     		lsls	r3, r3, #8
 2985 0048 1A43     		orrs	r2, r3
 2986 004a 0023     		movs	r3, #0
 2987 004c 1204     		lsls	r2, r2, #16
 2988 004e 120C     		lsrs	r2, r2, #16
 2989 0050 1B0C     		lsrs	r3, r3, #16
 2990 0052 1B04     		lsls	r3, r3, #16
 2991 0054 1343     		orrs	r3, r2
 2992 0056 1800     		movs	r0, r3
 2993 0058 FFF7FEFF 		bl	CyBle_GattsErrorRsp
1229:ble_process.c **** }
 2994              		.loc 1 1229 0
 2995 005c C046     		nop
 2996 005e BD46     		mov	sp, r7
 2997 0060 05B0     		add	sp, sp, #20
 2998              		@ sp needed
ARM GAS  C:\Users\run1009\AppData\Local\Temp\ccJxhBPK.s 			page 85


 2999 0062 90BD     		pop	{r4, r7, pc}
 3000              	.L105:
 3001              		.align	2
 3002              	.L104:
 3003 0064 00000000 		.word	cyBle_connHandle
 3004              		.cfi_endproc
 3005              	.LFE40:
 3006              		.size	SendErrorCode, .-SendErrorCode
 3007              		.bss
 3008              	received_node_addr_type.8811:
 3009 0012 00       		.space	1
 3010 0013 00       		.align	1
 3011              	received_node_addr.8810:
 3012 0014 0000     		.space	2
 3013              		.text
 3014              	.Letext0:
 3015              		.file 2 "c:\\program files (x86)\\cypress\\psoc creator\\4.2\\psoc creator\\import\\gnu\\arm\\5.4.
 3016              		.file 3 "c:\\program files (x86)\\cypress\\psoc creator\\4.2\\psoc creator\\import\\gnu\\arm\\5.4.
 3017              		.file 4 "Generated_Source\\PSoC4/cytypes.h"
 3018              		.file 5 "Generated_Source\\PSoC4/BLE_Stack.h"
 3019              		.file 6 "Generated_Source\\PSoC4/BLE_StackGap.h"
 3020              		.file 7 "Generated_Source\\PSoC4/BLE_StackGatt.h"
 3021              		.file 8 "Generated_Source\\PSoC4/BLE_StackGattServer.h"
 3022              		.file 9 "Generated_Source\\PSoC4/BLE_StackGattClient.h"
 3023              		.file 10 "Generated_Source\\PSoC4/BLE_eventHandler.h"
 3024              		.file 11 "./envsensor_process.h"
 3025              		.file 12 "Generated_Source\\PSoC4/BLE.h"
 3026              		.file 13 "./main.h"
 3027              		.section	.debug_info,"",%progbits
 3028              	.Ldebug_info0:
 3029 0000 52170000 		.4byte	0x1752
 3030 0004 0400     		.2byte	0x4
 3031 0006 00000000 		.4byte	.Ldebug_abbrev0
 3032 000a 04       		.byte	0x4
 3033 000b 01       		.uleb128 0x1
 3034 000c 5B0E0000 		.4byte	.LASF622
 3035 0010 0C       		.byte	0xc
 3036 0011 A5020000 		.4byte	.LASF623
 3037 0015 41350000 		.4byte	.LASF624
 3038 0019 28000000 		.4byte	.Ldebug_ranges0+0x28
 3039 001d 00000000 		.4byte	0
 3040 0021 00000000 		.4byte	.Ldebug_line0
 3041 0025 02       		.uleb128 0x2
 3042 0026 01       		.byte	0x1
 3043 0027 06       		.byte	0x6
 3044 0028 89250000 		.4byte	.LASF0
 3045 002c 03       		.uleb128 0x3
 3046 002d 97010000 		.4byte	.LASF9
 3047 0031 02       		.byte	0x2
 3048 0032 1D       		.byte	0x1d
 3049 0033 37000000 		.4byte	0x37
 3050 0037 02       		.uleb128 0x2
 3051 0038 01       		.byte	0x1
 3052 0039 08       		.byte	0x8
 3053 003a 130F0000 		.4byte	.LASF1
 3054 003e 02       		.uleb128 0x2
 3055 003f 02       		.byte	0x2
ARM GAS  C:\Users\run1009\AppData\Local\Temp\ccJxhBPK.s 			page 86


 3056 0040 05       		.byte	0x5
 3057 0041 10450000 		.4byte	.LASF2
 3058 0045 02       		.uleb128 0x2
 3059 0046 02       		.byte	0x2
 3060 0047 07       		.byte	0x7
 3061 0048 5C250000 		.4byte	.LASF3
 3062 004c 02       		.uleb128 0x2
 3063 004d 04       		.byte	0x4
 3064 004e 05       		.byte	0x5
 3065 004f DD290000 		.4byte	.LASF4
 3066 0053 02       		.uleb128 0x2
 3067 0054 04       		.byte	0x4
 3068 0055 07       		.byte	0x7
 3069 0056 C02D0000 		.4byte	.LASF5
 3070 005a 02       		.uleb128 0x2
 3071 005b 08       		.byte	0x8
 3072 005c 05       		.byte	0x5
 3073 005d A83F0000 		.4byte	.LASF6
 3074 0061 02       		.uleb128 0x2
 3075 0062 08       		.byte	0x8
 3076 0063 07       		.byte	0x7
 3077 0064 923A0000 		.4byte	.LASF7
 3078 0068 04       		.uleb128 0x4
 3079 0069 04       		.byte	0x4
 3080 006a 05       		.byte	0x5
 3081 006b 696E7400 		.ascii	"int\000"
 3082 006f 02       		.uleb128 0x2
 3083 0070 04       		.byte	0x4
 3084 0071 07       		.byte	0x7
 3085 0072 96440000 		.4byte	.LASF8
 3086 0076 03       		.uleb128 0x3
 3087 0077 B3180000 		.4byte	.LASF10
 3088 007b 03       		.byte	0x3
 3089 007c 18       		.byte	0x18
 3090 007d 2C000000 		.4byte	0x2c
 3091 0081 05       		.uleb128 0x5
 3092 0082 4E080000 		.4byte	.LASF11
 3093 0086 04       		.byte	0x4
 3094 0087 E401     		.2byte	0x1e4
 3095 0089 37000000 		.4byte	0x37
 3096 008d 05       		.uleb128 0x5
 3097 008e 5A2D0000 		.4byte	.LASF12
 3098 0092 04       		.byte	0x4
 3099 0093 E501     		.2byte	0x1e5
 3100 0095 45000000 		.4byte	0x45
 3101 0099 05       		.uleb128 0x5
 3102 009a 802F0000 		.4byte	.LASF13
 3103 009e 04       		.byte	0x4
 3104 009f E601     		.2byte	0x1e6
 3105 00a1 53000000 		.4byte	0x53
 3106 00a5 05       		.uleb128 0x5
 3107 00a6 CF1E0000 		.4byte	.LASF14
 3108 00aa 04       		.byte	0x4
 3109 00ab E701     		.2byte	0x1e7
 3110 00ad 25000000 		.4byte	0x25
 3111 00b1 02       		.uleb128 0x2
 3112 00b2 04       		.byte	0x4
ARM GAS  C:\Users\run1009\AppData\Local\Temp\ccJxhBPK.s 			page 87


 3113 00b3 04       		.byte	0x4
 3114 00b4 AF0F0000 		.4byte	.LASF15
 3115 00b8 02       		.uleb128 0x2
 3116 00b9 08       		.byte	0x8
 3117 00ba 04       		.byte	0x4
 3118 00bb ED340000 		.4byte	.LASF16
 3119 00bf 02       		.uleb128 0x2
 3120 00c0 01       		.byte	0x1
 3121 00c1 08       		.byte	0x8
 3122 00c2 BD2E0000 		.4byte	.LASF17
 3123 00c6 06       		.uleb128 0x6
 3124 00c7 81000000 		.4byte	0x81
 3125 00cb 06       		.uleb128 0x6
 3126 00cc 8D000000 		.4byte	0x8d
 3127 00d0 02       		.uleb128 0x2
 3128 00d1 08       		.byte	0x8
 3129 00d2 04       		.byte	0x4
 3130 00d3 F82C0000 		.4byte	.LASF18
 3131 00d7 02       		.uleb128 0x2
 3132 00d8 04       		.byte	0x4
 3133 00d9 07       		.byte	0x7
 3134 00da DA240000 		.4byte	.LASF19
 3135 00de 07       		.uleb128 0x7
 3136 00df 04       		.byte	0x4
 3137 00e0 08       		.uleb128 0x8
 3138 00e1 04       		.byte	0x4
 3139 00e2 BF000000 		.4byte	0xbf
 3140 00e6 09       		.uleb128 0x9
 3141 00e7 01       		.byte	0x1
 3142 00e8 37000000 		.4byte	0x37
 3143 00ec 05       		.byte	0x5
 3144 00ed 3501     		.2byte	0x135
 3145 00ef A4020000 		.4byte	0x2a4
 3146 00f3 0A       		.uleb128 0xa
 3147 00f4 2B250000 		.4byte	.LASF20
 3148 00f8 00       		.byte	0
 3149 00f9 0A       		.uleb128 0xa
 3150 00fa 41040000 		.4byte	.LASF21
 3151 00fe 01       		.byte	0x1
 3152 00ff 0A       		.uleb128 0xa
 3153 0100 7D150000 		.4byte	.LASF22
 3154 0104 02       		.byte	0x2
 3155 0105 0A       		.uleb128 0xa
 3156 0106 B6090000 		.4byte	.LASF23
 3157 010a 03       		.byte	0x3
 3158 010b 0A       		.uleb128 0xa
 3159 010c 13050000 		.4byte	.LASF24
 3160 0110 04       		.byte	0x4
 3161 0111 0A       		.uleb128 0xa
 3162 0112 992B0000 		.4byte	.LASF25
 3163 0116 05       		.byte	0x5
 3164 0117 0A       		.uleb128 0xa
 3165 0118 B01B0000 		.4byte	.LASF26
 3166 011c 06       		.byte	0x6
 3167 011d 0A       		.uleb128 0xa
 3168 011e 91140000 		.4byte	.LASF27
 3169 0122 20       		.byte	0x20
ARM GAS  C:\Users\run1009\AppData\Local\Temp\ccJxhBPK.s 			page 88


 3170 0123 0A       		.uleb128 0xa
 3171 0124 9F110000 		.4byte	.LASF28
 3172 0128 21       		.byte	0x21
 3173 0129 0A       		.uleb128 0xa
 3174 012a 64050000 		.4byte	.LASF29
 3175 012e 22       		.byte	0x22
 3176 012f 0A       		.uleb128 0xa
 3177 0130 63450000 		.4byte	.LASF30
 3178 0134 23       		.byte	0x23
 3179 0135 0A       		.uleb128 0xa
 3180 0136 C5010000 		.4byte	.LASF31
 3181 013a 24       		.byte	0x24
 3182 013b 0A       		.uleb128 0xa
 3183 013c 07390000 		.4byte	.LASF32
 3184 0140 25       		.byte	0x25
 3185 0141 0A       		.uleb128 0xa
 3186 0142 210F0000 		.4byte	.LASF33
 3187 0146 26       		.byte	0x26
 3188 0147 0A       		.uleb128 0xa
 3189 0148 C5230000 		.4byte	.LASF34
 3190 014c 27       		.byte	0x27
 3191 014d 0A       		.uleb128 0xa
 3192 014e B32C0000 		.4byte	.LASF35
 3193 0152 28       		.byte	0x28
 3194 0153 0A       		.uleb128 0xa
 3195 0154 A8230000 		.4byte	.LASF36
 3196 0158 29       		.byte	0x29
 3197 0159 0A       		.uleb128 0xa
 3198 015a 2A3C0000 		.4byte	.LASF37
 3199 015e 2A       		.byte	0x2a
 3200 015f 0A       		.uleb128 0xa
 3201 0160 FB3F0000 		.4byte	.LASF38
 3202 0164 2B       		.byte	0x2b
 3203 0165 0A       		.uleb128 0xa
 3204 0166 902A0000 		.4byte	.LASF39
 3205 016a 2C       		.byte	0x2c
 3206 016b 0A       		.uleb128 0xa
 3207 016c E23E0000 		.4byte	.LASF40
 3208 0170 2D       		.byte	0x2d
 3209 0171 0A       		.uleb128 0xa
 3210 0172 68280000 		.4byte	.LASF41
 3211 0176 2E       		.byte	0x2e
 3212 0177 0A       		.uleb128 0xa
 3213 0178 E1420000 		.4byte	.LASF42
 3214 017c 2F       		.byte	0x2f
 3215 017d 0A       		.uleb128 0xa
 3216 017e C9190000 		.4byte	.LASF43
 3217 0182 30       		.byte	0x30
 3218 0183 0A       		.uleb128 0xa
 3219 0184 A3440000 		.4byte	.LASF44
 3220 0188 31       		.byte	0x31
 3221 0189 0A       		.uleb128 0xa
 3222 018a E8070000 		.4byte	.LASF45
 3223 018e 32       		.byte	0x32
 3224 018f 0A       		.uleb128 0xa
 3225 0190 310C0000 		.4byte	.LASF46
 3226 0194 33       		.byte	0x33
ARM GAS  C:\Users\run1009\AppData\Local\Temp\ccJxhBPK.s 			page 89


 3227 0195 0A       		.uleb128 0xa
 3228 0196 D2350000 		.4byte	.LASF47
 3229 019a 34       		.byte	0x34
 3230 019b 0A       		.uleb128 0xa
 3231 019c CC3B0000 		.4byte	.LASF48
 3232 01a0 35       		.byte	0x35
 3233 01a1 0A       		.uleb128 0xa
 3234 01a2 2D3F0000 		.4byte	.LASF49
 3235 01a6 36       		.byte	0x36
 3236 01a7 0A       		.uleb128 0xa
 3237 01a8 30360000 		.4byte	.LASF50
 3238 01ac 37       		.byte	0x37
 3239 01ad 0A       		.uleb128 0xa
 3240 01ae E40D0000 		.4byte	.LASF51
 3241 01b2 40       		.byte	0x40
 3242 01b3 0A       		.uleb128 0xa
 3243 01b4 AD350000 		.4byte	.LASF52
 3244 01b8 41       		.byte	0x41
 3245 01b9 0A       		.uleb128 0xa
 3246 01ba 651E0000 		.4byte	.LASF53
 3247 01be 42       		.byte	0x42
 3248 01bf 0A       		.uleb128 0xa
 3249 01c0 99320000 		.4byte	.LASF54
 3250 01c4 43       		.byte	0x43
 3251 01c5 0A       		.uleb128 0xa
 3252 01c6 2D060000 		.4byte	.LASF55
 3253 01ca 44       		.byte	0x44
 3254 01cb 0A       		.uleb128 0xa
 3255 01cc D92B0000 		.4byte	.LASF56
 3256 01d0 45       		.byte	0x45
 3257 01d1 0A       		.uleb128 0xa
 3258 01d2 BB410000 		.4byte	.LASF57
 3259 01d6 46       		.byte	0x46
 3260 01d7 0A       		.uleb128 0xa
 3261 01d8 0C100000 		.4byte	.LASF58
 3262 01dc 47       		.byte	0x47
 3263 01dd 0A       		.uleb128 0xa
 3264 01de C4280000 		.4byte	.LASF59
 3265 01e2 48       		.byte	0x48
 3266 01e3 0A       		.uleb128 0xa
 3267 01e4 DF060000 		.4byte	.LASF60
 3268 01e8 49       		.byte	0x49
 3269 01e9 0A       		.uleb128 0xa
 3270 01ea 6E1B0000 		.4byte	.LASF61
 3271 01ee 4A       		.byte	0x4a
 3272 01ef 0A       		.uleb128 0xa
 3273 01f0 680D0000 		.4byte	.LASF62
 3274 01f4 4B       		.byte	0x4b
 3275 01f5 0A       		.uleb128 0xa
 3276 01f6 40410000 		.4byte	.LASF63
 3277 01fa 4C       		.byte	0x4c
 3278 01fb 0A       		.uleb128 0xa
 3279 01fc 402D0000 		.4byte	.LASF64
 3280 0200 4D       		.byte	0x4d
 3281 0201 0A       		.uleb128 0xa
 3282 0202 050D0000 		.4byte	.LASF65
 3283 0206 4E       		.byte	0x4e
ARM GAS  C:\Users\run1009\AppData\Local\Temp\ccJxhBPK.s 			page 90


 3284 0207 0A       		.uleb128 0xa
 3285 0208 CC300000 		.4byte	.LASF66
 3286 020c 4F       		.byte	0x4f
 3287 020d 0A       		.uleb128 0xa
 3288 020e C91B0000 		.4byte	.LASF67
 3289 0212 50       		.byte	0x50
 3290 0213 0A       		.uleb128 0xa
 3291 0214 02260000 		.4byte	.LASF68
 3292 0218 51       		.byte	0x51
 3293 0219 0A       		.uleb128 0xa
 3294 021a 64170000 		.4byte	.LASF69
 3295 021e 52       		.byte	0x52
 3296 021f 0A       		.uleb128 0xa
 3297 0220 62340000 		.4byte	.LASF70
 3298 0224 53       		.byte	0x53
 3299 0225 0A       		.uleb128 0xa
 3300 0226 40400000 		.4byte	.LASF71
 3301 022a 54       		.byte	0x54
 3302 022b 0A       		.uleb128 0xa
 3303 022c 7D030000 		.4byte	.LASF72
 3304 0230 55       		.byte	0x55
 3305 0231 0A       		.uleb128 0xa
 3306 0232 322E0000 		.4byte	.LASF73
 3307 0236 56       		.byte	0x56
 3308 0237 0A       		.uleb128 0xa
 3309 0238 FA390000 		.4byte	.LASF74
 3310 023c 57       		.byte	0x57
 3311 023d 0A       		.uleb128 0xa
 3312 023e 5A410000 		.4byte	.LASF75
 3313 0242 58       		.byte	0x58
 3314 0243 0A       		.uleb128 0xa
 3315 0244 233A0000 		.4byte	.LASF76
 3316 0248 70       		.byte	0x70
 3317 0249 0A       		.uleb128 0xa
 3318 024a 1C200000 		.4byte	.LASF77
 3319 024e 71       		.byte	0x71
 3320 024f 0A       		.uleb128 0xa
 3321 0250 110B0000 		.4byte	.LASF78
 3322 0254 72       		.byte	0x72
 3323 0255 0A       		.uleb128 0xa
 3324 0256 64100000 		.4byte	.LASF79
 3325 025a 73       		.byte	0x73
 3326 025b 0A       		.uleb128 0xa
 3327 025c FE2E0000 		.4byte	.LASF80
 3328 0260 74       		.byte	0x74
 3329 0261 0A       		.uleb128 0xa
 3330 0262 12110000 		.4byte	.LASF81
 3331 0266 75       		.byte	0x75
 3332 0267 0A       		.uleb128 0xa
 3333 0268 CF2F0000 		.4byte	.LASF82
 3334 026c 76       		.byte	0x76
 3335 026d 0A       		.uleb128 0xa
 3336 026e 321A0000 		.4byte	.LASF83
 3337 0272 77       		.byte	0x77
 3338 0273 0A       		.uleb128 0xa
 3339 0274 F9410000 		.4byte	.LASF84
 3340 0278 78       		.byte	0x78
ARM GAS  C:\Users\run1009\AppData\Local\Temp\ccJxhBPK.s 			page 91


 3341 0279 0A       		.uleb128 0xa
 3342 027a B2430000 		.4byte	.LASF85
 3343 027e 79       		.byte	0x79
 3344 027f 0A       		.uleb128 0xa
 3345 0280 1E170000 		.4byte	.LASF86
 3346 0284 7A       		.byte	0x7a
 3347 0285 0A       		.uleb128 0xa
 3348 0286 07250000 		.4byte	.LASF87
 3349 028a FA       		.byte	0xfa
 3350 028b 0A       		.uleb128 0xa
 3351 028c 90160000 		.4byte	.LASF88
 3352 0290 FB       		.byte	0xfb
 3353 0291 0A       		.uleb128 0xa
 3354 0292 CC0B0000 		.4byte	.LASF89
 3355 0296 FC       		.byte	0xfc
 3356 0297 0A       		.uleb128 0xa
 3357 0298 313E0000 		.4byte	.LASF90
 3358 029c FD       		.byte	0xfd
 3359 029d 0A       		.uleb128 0xa
 3360 029e 7A000000 		.4byte	.LASF91
 3361 02a2 FF       		.byte	0xff
 3362 02a3 00       		.byte	0
 3363 02a4 09       		.uleb128 0x9
 3364 02a5 02       		.byte	0x2
 3365 02a6 45000000 		.4byte	0x45
 3366 02aa 05       		.byte	0x5
 3367 02ab EA03     		.2byte	0x3ea
 3368 02ad 83030000 		.4byte	0x383
 3369 02b1 0A       		.uleb128 0xa
 3370 02b2 72020000 		.4byte	.LASF92
 3371 02b6 00       		.byte	0
 3372 02b7 0A       		.uleb128 0xa
 3373 02b8 F4090000 		.4byte	.LASF93
 3374 02bc 01       		.byte	0x1
 3375 02bd 0A       		.uleb128 0xa
 3376 02be 622F0000 		.4byte	.LASF94
 3377 02c2 02       		.byte	0x2
 3378 02c3 0A       		.uleb128 0xa
 3379 02c4 482C0000 		.4byte	.LASF95
 3380 02c8 03       		.byte	0x3
 3381 02c9 0A       		.uleb128 0xa
 3382 02ca 762B0000 		.4byte	.LASF96
 3383 02ce 04       		.byte	0x4
 3384 02cf 0A       		.uleb128 0xa
 3385 02d0 59380000 		.4byte	.LASF97
 3386 02d4 05       		.byte	0x5
 3387 02d5 0A       		.uleb128 0xa
 3388 02d6 262D0000 		.4byte	.LASF98
 3389 02da 06       		.byte	0x6
 3390 02db 0A       		.uleb128 0xa
 3391 02dc B22F0000 		.4byte	.LASF99
 3392 02e0 07       		.byte	0x7
 3393 02e1 0A       		.uleb128 0xa
 3394 02e2 D1160000 		.4byte	.LASF100
 3395 02e6 08       		.byte	0x8
 3396 02e7 0A       		.uleb128 0xa
 3397 02e8 101D0000 		.4byte	.LASF101
ARM GAS  C:\Users\run1009\AppData\Local\Temp\ccJxhBPK.s 			page 92


 3398 02ec 09       		.byte	0x9
 3399 02ed 0A       		.uleb128 0xa
 3400 02ee C7320000 		.4byte	.LASF102
 3401 02f2 0A       		.byte	0xa
 3402 02f3 0A       		.uleb128 0xa
 3403 02f4 D8020000 		.4byte	.LASF103
 3404 02f8 0B       		.byte	0xb
 3405 02f9 0A       		.uleb128 0xa
 3406 02fa 612D0000 		.4byte	.LASF104
 3407 02fe 0C       		.byte	0xc
 3408 02ff 0A       		.uleb128 0xa
 3409 0300 85400000 		.4byte	.LASF105
 3410 0304 0D       		.byte	0xd
 3411 0305 0A       		.uleb128 0xa
 3412 0306 25000000 		.4byte	.LASF106
 3413 030a 0E       		.byte	0xe
 3414 030b 0A       		.uleb128 0xa
 3415 030c 512A0000 		.4byte	.LASF107
 3416 0310 0F       		.byte	0xf
 3417 0311 0A       		.uleb128 0xa
 3418 0312 E21C0000 		.4byte	.LASF108
 3419 0316 10       		.byte	0x10
 3420 0317 0A       		.uleb128 0xa
 3421 0318 343B0000 		.4byte	.LASF109
 3422 031c 11       		.byte	0x11
 3423 031d 0A       		.uleb128 0xa
 3424 031e AA130000 		.4byte	.LASF110
 3425 0322 12       		.byte	0x12
 3426 0323 0A       		.uleb128 0xa
 3427 0324 BE040000 		.4byte	.LASF111
 3428 0328 13       		.byte	0x13
 3429 0329 0A       		.uleb128 0xa
 3430 032a 8F1C0000 		.4byte	.LASF112
 3431 032e 27       		.byte	0x27
 3432 032f 0A       		.uleb128 0xa
 3433 0330 E93B0000 		.4byte	.LASF113
 3434 0334 28       		.byte	0x28
 3435 0335 0A       		.uleb128 0xa
 3436 0336 511A0000 		.4byte	.LASF114
 3437 033a 29       		.byte	0x29
 3438 033b 0A       		.uleb128 0xa
 3439 033c DC410000 		.4byte	.LASF115
 3440 0340 2A       		.byte	0x2a
 3441 0341 0A       		.uleb128 0xa
 3442 0342 88460000 		.4byte	.LASF116
 3443 0346 2B       		.byte	0x2b
 3444 0347 0A       		.uleb128 0xa
 3445 0348 0A2C0000 		.4byte	.LASF117
 3446 034c 2C       		.byte	0x2c
 3447 034d 0A       		.uleb128 0xa
 3448 034e BF390000 		.4byte	.LASF118
 3449 0352 2D       		.byte	0x2d
 3450 0353 0A       		.uleb128 0xa
 3451 0354 7B0F0000 		.4byte	.LASF119
 3452 0358 FE       		.byte	0xfe
 3453 0359 0A       		.uleb128 0xa
 3454 035a B7320000 		.4byte	.LASF120
ARM GAS  C:\Users\run1009\AppData\Local\Temp\ccJxhBPK.s 			page 93


 3455 035e FF       		.byte	0xff
 3456 035f 0B       		.uleb128 0xb
 3457 0360 9A180000 		.4byte	.LASF121
 3458 0364 0001     		.2byte	0x100
 3459 0366 0B       		.uleb128 0xb
 3460 0367 E1010000 		.4byte	.LASF122
 3461 036b 0101     		.2byte	0x101
 3462 036d 0B       		.uleb128 0xb
 3463 036e FD080000 		.4byte	.LASF123
 3464 0372 0201     		.2byte	0x102
 3465 0374 0B       		.uleb128 0xb
 3466 0375 3E290000 		.4byte	.LASF124
 3467 0379 0301     		.2byte	0x103
 3468 037b 0B       		.uleb128 0xb
 3469 037c CD130000 		.4byte	.LASF125
 3470 0380 0401     		.2byte	0x104
 3471 0382 00       		.byte	0
 3472 0383 05       		.uleb128 0x5
 3473 0384 D6180000 		.4byte	.LASF126
 3474 0388 05       		.byte	0x5
 3475 0389 5C04     		.2byte	0x45c
 3476 038b A4020000 		.4byte	0x2a4
 3477 038f 0C       		.uleb128 0xc
 3478 0390 07       		.byte	0x7
 3479 0391 05       		.byte	0x5
 3480 0392 2A05     		.2byte	0x52a
 3481 0394 B3030000 		.4byte	0x3b3
 3482 0398 0D       		.uleb128 0xd
 3483 0399 85170000 		.4byte	.LASF127
 3484 039d 05       		.byte	0x5
 3485 039e 2D05     		.2byte	0x52d
 3486 03a0 B3030000 		.4byte	0x3b3
 3487 03a4 00       		.byte	0
 3488 03a5 0D       		.uleb128 0xd
 3489 03a6 F80B0000 		.4byte	.LASF128
 3490 03aa 05       		.byte	0x5
 3491 03ab 2F05     		.2byte	0x52f
 3492 03ad 81000000 		.4byte	0x81
 3493 03b1 06       		.byte	0x6
 3494 03b2 00       		.byte	0
 3495 03b3 0E       		.uleb128 0xe
 3496 03b4 81000000 		.4byte	0x81
 3497 03b8 C3030000 		.4byte	0x3c3
 3498 03bc 0F       		.uleb128 0xf
 3499 03bd D7000000 		.4byte	0xd7
 3500 03c1 05       		.byte	0x5
 3501 03c2 00       		.byte	0
 3502 03c3 05       		.uleb128 0x5
 3503 03c4 7E360000 		.4byte	.LASF129
 3504 03c8 05       		.byte	0x5
 3505 03c9 3005     		.2byte	0x530
 3506 03cb 8F030000 		.4byte	0x38f
 3507 03cf 08       		.uleb128 0x8
 3508 03d0 04       		.byte	0x4
 3509 03d1 81000000 		.4byte	0x81
 3510 03d5 10       		.uleb128 0x10
 3511 03d6 01       		.byte	0x1
ARM GAS  C:\Users\run1009\AppData\Local\Temp\ccJxhBPK.s 			page 94


 3512 03d7 37000000 		.4byte	0x37
 3513 03db 06       		.byte	0x6
 3514 03dc E0       		.byte	0xe0
 3515 03dd 00040000 		.4byte	0x400
 3516 03e1 0A       		.uleb128 0xa
 3517 03e2 A60B0000 		.4byte	.LASF130
 3518 03e6 00       		.byte	0
 3519 03e7 0A       		.uleb128 0xa
 3520 03e8 5B130000 		.4byte	.LASF131
 3521 03ec 01       		.byte	0x1
 3522 03ed 0A       		.uleb128 0xa
 3523 03ee 6D2C0000 		.4byte	.LASF132
 3524 03f2 02       		.byte	0x2
 3525 03f3 0A       		.uleb128 0xa
 3526 03f4 D22D0000 		.4byte	.LASF133
 3527 03f8 03       		.byte	0x3
 3528 03f9 0A       		.uleb128 0xa
 3529 03fa 171F0000 		.4byte	.LASF134
 3530 03fe 04       		.byte	0x4
 3531 03ff 00       		.byte	0
 3532 0400 03       		.uleb128 0x3
 3533 0401 E9390000 		.4byte	.LASF135
 3534 0405 06       		.byte	0x6
 3535 0406 F0       		.byte	0xf0
 3536 0407 D5030000 		.4byte	0x3d5
 3537 040b 10       		.uleb128 0x10
 3538 040c 01       		.byte	0x1
 3539 040d 37000000 		.4byte	0x37
 3540 0411 06       		.byte	0x6
 3541 0412 F4       		.byte	0xf4
 3542 0413 36040000 		.4byte	0x436
 3543 0417 0A       		.uleb128 0xa
 3544 0418 28050000 		.4byte	.LASF136
 3545 041c 00       		.byte	0
 3546 041d 0A       		.uleb128 0xa
 3547 041e 47430000 		.4byte	.LASF137
 3548 0422 01       		.byte	0x1
 3549 0423 0A       		.uleb128 0xa
 3550 0424 4B370000 		.4byte	.LASF138
 3551 0428 02       		.byte	0x2
 3552 0429 0A       		.uleb128 0xa
 3553 042a 6D430000 		.4byte	.LASF139
 3554 042e 03       		.byte	0x3
 3555 042f 0A       		.uleb128 0xa
 3556 0430 F2200000 		.4byte	.LASF140
 3557 0434 04       		.byte	0x4
 3558 0435 00       		.byte	0
 3559 0436 05       		.uleb128 0x5
 3560 0437 CD2E0000 		.4byte	.LASF141
 3561 043b 06       		.byte	0x6
 3562 043c 0401     		.2byte	0x104
 3563 043e 0B040000 		.4byte	0x40b
 3564 0442 0C       		.uleb128 0xc
 3565 0443 10       		.byte	0x10
 3566 0444 06       		.byte	0x6
 3567 0445 2102     		.2byte	0x221
 3568 0447 B4040000 		.4byte	0x4b4
ARM GAS  C:\Users\run1009\AppData\Local\Temp\ccJxhBPK.s 			page 95


 3569 044b 0D       		.uleb128 0xd
 3570 044c DF270000 		.4byte	.LASF142
 3571 0450 06       		.byte	0x6
 3572 0451 2702     		.2byte	0x227
 3573 0453 8D000000 		.4byte	0x8d
 3574 0457 00       		.byte	0
 3575 0458 0D       		.uleb128 0xd
 3576 0459 0C1F0000 		.4byte	.LASF143
 3577 045d 06       		.byte	0x6
 3578 045e 2D02     		.2byte	0x22d
 3579 0460 8D000000 		.4byte	0x8d
 3580 0464 02       		.byte	0x2
 3581 0465 0D       		.uleb128 0xd
 3582 0466 1F230000 		.4byte	.LASF144
 3583 046a 06       		.byte	0x6
 3584 046b 3602     		.2byte	0x236
 3585 046d 00040000 		.4byte	0x400
 3586 0471 04       		.byte	0x4
 3587 0472 0D       		.uleb128 0xd
 3588 0473 3A190000 		.4byte	.LASF145
 3589 0477 06       		.byte	0x6
 3590 0478 3E02     		.2byte	0x23e
 3591 047a 81000000 		.4byte	0x81
 3592 047e 05       		.byte	0x5
 3593 047f 0D       		.uleb128 0xd
 3594 0480 05060000 		.4byte	.LASF146
 3595 0484 06       		.byte	0x6
 3596 0485 4502     		.2byte	0x245
 3597 0487 81000000 		.4byte	0x81
 3598 048b 06       		.byte	0x6
 3599 048c 0D       		.uleb128 0xd
 3600 048d 573D0000 		.4byte	.LASF147
 3601 0491 06       		.byte	0x6
 3602 0492 4B02     		.2byte	0x24b
 3603 0494 B3030000 		.4byte	0x3b3
 3604 0498 07       		.byte	0x7
 3605 0499 0D       		.uleb128 0xd
 3606 049a 32400000 		.4byte	.LASF148
 3607 049e 06       		.byte	0x6
 3608 049f 5302     		.2byte	0x253
 3609 04a1 81000000 		.4byte	0x81
 3610 04a5 0D       		.byte	0xd
 3611 04a6 0D       		.uleb128 0xd
 3612 04a7 7C3B0000 		.4byte	.LASF149
 3613 04ab 06       		.byte	0x6
 3614 04ac 5F02     		.2byte	0x25f
 3615 04ae 81000000 		.4byte	0x81
 3616 04b2 0E       		.byte	0xe
 3617 04b3 00       		.byte	0
 3618 04b4 05       		.uleb128 0x5
 3619 04b5 973C0000 		.4byte	.LASF150
 3620 04b9 06       		.byte	0x6
 3621 04ba 6102     		.2byte	0x261
 3622 04bc 42040000 		.4byte	0x442
 3623 04c0 0C       		.uleb128 0xc
 3624 04c1 20       		.byte	0x20
 3625 04c2 06       		.byte	0x6
ARM GAS  C:\Users\run1009\AppData\Local\Temp\ccJxhBPK.s 			page 96


 3626 04c3 6402     		.2byte	0x264
 3627 04c5 E4040000 		.4byte	0x4e4
 3628 04c9 0D       		.uleb128 0xd
 3629 04ca 4C240000 		.4byte	.LASF151
 3630 04ce 06       		.byte	0x6
 3631 04cf 6702     		.2byte	0x267
 3632 04d1 E4040000 		.4byte	0x4e4
 3633 04d5 00       		.byte	0
 3634 04d6 0D       		.uleb128 0xd
 3635 04d7 712E0000 		.4byte	.LASF152
 3636 04db 06       		.byte	0x6
 3637 04dc 6A02     		.2byte	0x26a
 3638 04de 81000000 		.4byte	0x81
 3639 04e2 1F       		.byte	0x1f
 3640 04e3 00       		.byte	0
 3641 04e4 0E       		.uleb128 0xe
 3642 04e5 81000000 		.4byte	0x81
 3643 04e9 F4040000 		.4byte	0x4f4
 3644 04ed 0F       		.uleb128 0xf
 3645 04ee D7000000 		.4byte	0xd7
 3646 04f2 1E       		.byte	0x1e
 3647 04f3 00       		.byte	0
 3648 04f4 05       		.uleb128 0x5
 3649 04f5 490F0000 		.4byte	.LASF153
 3650 04f9 06       		.byte	0x6
 3651 04fa 6C02     		.2byte	0x26c
 3652 04fc C0040000 		.4byte	0x4c0
 3653 0500 0C       		.uleb128 0xc
 3654 0501 20       		.byte	0x20
 3655 0502 06       		.byte	0x6
 3656 0503 6F02     		.2byte	0x26f
 3657 0505 24050000 		.4byte	0x524
 3658 0509 0D       		.uleb128 0xd
 3659 050a 99060000 		.4byte	.LASF154
 3660 050e 06       		.byte	0x6
 3661 050f 7302     		.2byte	0x273
 3662 0511 E4040000 		.4byte	0x4e4
 3663 0515 00       		.byte	0
 3664 0516 0D       		.uleb128 0xd
 3665 0517 051B0000 		.4byte	.LASF155
 3666 051b 06       		.byte	0x6
 3667 051c 7602     		.2byte	0x276
 3668 051e 81000000 		.4byte	0x81
 3669 0522 1F       		.byte	0x1f
 3670 0523 00       		.byte	0
 3671 0524 05       		.uleb128 0x5
 3672 0525 D41E0000 		.4byte	.LASF156
 3673 0529 06       		.byte	0x6
 3674 052a 7802     		.2byte	0x278
 3675 052c 00050000 		.4byte	0x500
 3676 0530 0C       		.uleb128 0xc
 3677 0531 14       		.byte	0x14
 3678 0532 06       		.byte	0x6
 3679 0533 7B02     		.2byte	0x27b
 3680 0535 7B050000 		.4byte	0x57b
 3681 0539 0D       		.uleb128 0xd
 3682 053a 64430000 		.4byte	.LASF157
ARM GAS  C:\Users\run1009\AppData\Local\Temp\ccJxhBPK.s 			page 97


 3683 053e 06       		.byte	0x6
 3684 053f 8302     		.2byte	0x283
 3685 0541 81000000 		.4byte	0x81
 3686 0545 00       		.byte	0
 3687 0546 0D       		.uleb128 0xd
 3688 0547 0D310000 		.4byte	.LASF158
 3689 054b 06       		.byte	0x6
 3690 054c 8602     		.2byte	0x286
 3691 054e 7B050000 		.4byte	0x57b
 3692 0552 04       		.byte	0x4
 3693 0553 0D       		.uleb128 0xd
 3694 0554 4C240000 		.4byte	.LASF151
 3695 0558 06       		.byte	0x6
 3696 0559 8802     		.2byte	0x288
 3697 055b 81050000 		.4byte	0x581
 3698 055f 08       		.byte	0x8
 3699 0560 0D       		.uleb128 0xd
 3700 0561 99060000 		.4byte	.LASF154
 3701 0565 06       		.byte	0x6
 3702 0566 8A02     		.2byte	0x28a
 3703 0568 87050000 		.4byte	0x587
 3704 056c 0C       		.byte	0xc
 3705 056d 0D       		.uleb128 0xd
 3706 056e 00130000 		.4byte	.LASF159
 3707 0572 06       		.byte	0x6
 3708 0573 9402     		.2byte	0x294
 3709 0575 8D000000 		.4byte	0x8d
 3710 0579 10       		.byte	0x10
 3711 057a 00       		.byte	0
 3712 057b 08       		.uleb128 0x8
 3713 057c 04       		.byte	0x4
 3714 057d B4040000 		.4byte	0x4b4
 3715 0581 08       		.uleb128 0x8
 3716 0582 04       		.byte	0x4
 3717 0583 F4040000 		.4byte	0x4f4
 3718 0587 08       		.uleb128 0x8
 3719 0588 04       		.byte	0x4
 3720 0589 24050000 		.4byte	0x524
 3721 058d 05       		.uleb128 0x5
 3722 058e 7D410000 		.4byte	.LASF160
 3723 0592 06       		.byte	0x6
 3724 0593 9602     		.2byte	0x296
 3725 0595 30050000 		.4byte	0x530
 3726 0599 0C       		.uleb128 0xc
 3727 059a 14       		.byte	0x14
 3728 059b 06       		.byte	0x6
 3729 059c 2403     		.2byte	0x324
 3730 059e F1050000 		.4byte	0x5f1
 3731 05a2 0D       		.uleb128 0xd
 3732 05a3 641B0000 		.4byte	.LASF161
 3733 05a7 06       		.byte	0x6
 3734 05a8 2D03     		.2byte	0x32d
 3735 05aa 36040000 		.4byte	0x436
 3736 05ae 00       		.byte	0
 3737 05af 0D       		.uleb128 0xd
 3738 05b0 B1040000 		.4byte	.LASF162
 3739 05b4 06       		.byte	0x6
ARM GAS  C:\Users\run1009\AppData\Local\Temp\ccJxhBPK.s 			page 98


 3740 05b5 3503     		.2byte	0x335
 3741 05b7 81000000 		.4byte	0x81
 3742 05bb 01       		.byte	0x1
 3743 05bc 0D       		.uleb128 0xd
 3744 05bd 73120000 		.4byte	.LASF163
 3745 05c1 06       		.byte	0x6
 3746 05c2 3903     		.2byte	0x339
 3747 05c4 CF030000 		.4byte	0x3cf
 3748 05c8 04       		.byte	0x4
 3749 05c9 0D       		.uleb128 0xd
 3750 05ca 6B120000 		.4byte	.LASF164
 3751 05ce 06       		.byte	0x6
 3752 05cf 3C03     		.2byte	0x33c
 3753 05d1 81000000 		.4byte	0x81
 3754 05d5 08       		.byte	0x8
 3755 05d6 0D       		.uleb128 0xd
 3756 05d7 92360000 		.4byte	.LASF165
 3757 05db 06       		.byte	0x6
 3758 05dc 3F03     		.2byte	0x33f
 3759 05de CF030000 		.4byte	0x3cf
 3760 05e2 0C       		.byte	0xc
 3761 05e3 0D       		.uleb128 0xd
 3762 05e4 3A310000 		.4byte	.LASF166
 3763 05e8 06       		.byte	0x6
 3764 05e9 4403     		.2byte	0x344
 3765 05eb A5000000 		.4byte	0xa5
 3766 05ef 10       		.byte	0x10
 3767 05f0 00       		.byte	0
 3768 05f1 05       		.uleb128 0x5
 3769 05f2 1A400000 		.4byte	.LASF167
 3770 05f6 06       		.byte	0x6
 3771 05f7 4603     		.2byte	0x346
 3772 05f9 99050000 		.4byte	0x599
 3773 05fd 10       		.uleb128 0x10
 3774 05fe 01       		.byte	0x1
 3775 05ff 37000000 		.4byte	0x37
 3776 0603 07       		.byte	0x7
 3777 0604 49       		.byte	0x49
 3778 0605 B8060000 		.4byte	0x6b8
 3779 0609 0A       		.uleb128 0xa
 3780 060a 8F1A0000 		.4byte	.LASF168
 3781 060e 01       		.byte	0x1
 3782 060f 0A       		.uleb128 0xa
 3783 0610 E9180000 		.4byte	.LASF169
 3784 0614 02       		.byte	0x2
 3785 0615 0A       		.uleb128 0xa
 3786 0616 C2080000 		.4byte	.LASF170
 3787 061a 03       		.byte	0x3
 3788 061b 0A       		.uleb128 0xa
 3789 061c 14060000 		.4byte	.LASF171
 3790 0620 04       		.byte	0x4
 3791 0621 0A       		.uleb128 0xa
 3792 0622 4A150000 		.4byte	.LASF172
 3793 0626 05       		.byte	0x5
 3794 0627 0A       		.uleb128 0xa
 3795 0628 DB080000 		.4byte	.LASF173
 3796 062c 06       		.byte	0x6
ARM GAS  C:\Users\run1009\AppData\Local\Temp\ccJxhBPK.s 			page 99


 3797 062d 0A       		.uleb128 0xa
 3798 062e 101A0000 		.4byte	.LASF174
 3799 0632 07       		.byte	0x7
 3800 0633 0A       		.uleb128 0xa
 3801 0634 4F120000 		.4byte	.LASF175
 3802 0638 08       		.byte	0x8
 3803 0639 0A       		.uleb128 0xa
 3804 063a E4230000 		.4byte	.LASF176
 3805 063e 09       		.byte	0x9
 3806 063f 0A       		.uleb128 0xa
 3807 0640 0A170000 		.4byte	.LASF177
 3808 0644 0A       		.byte	0xa
 3809 0645 0A       		.uleb128 0xa
 3810 0646 D1260000 		.4byte	.LASF178
 3811 064a 0B       		.byte	0xb
 3812 064b 0A       		.uleb128 0xa
 3813 064c FE0D0000 		.4byte	.LASF179
 3814 0650 0C       		.byte	0xc
 3815 0651 0A       		.uleb128 0xa
 3816 0652 66200000 		.4byte	.LASF180
 3817 0656 0D       		.byte	0xd
 3818 0657 0A       		.uleb128 0xa
 3819 0658 542E0000 		.4byte	.LASF181
 3820 065c 0E       		.byte	0xe
 3821 065d 0A       		.uleb128 0xa
 3822 065e C53E0000 		.4byte	.LASF182
 3823 0662 0F       		.byte	0xf
 3824 0663 0A       		.uleb128 0xa
 3825 0664 280D0000 		.4byte	.LASF183
 3826 0668 10       		.byte	0x10
 3827 0669 0A       		.uleb128 0xa
 3828 066a EF1E0000 		.4byte	.LASF184
 3829 066e 11       		.byte	0x11
 3830 066f 0A       		.uleb128 0xa
 3831 0670 26280000 		.4byte	.LASF185
 3832 0674 12       		.byte	0x12
 3833 0675 0A       		.uleb128 0xa
 3834 0676 44380000 		.4byte	.LASF186
 3835 067a 13       		.byte	0x13
 3836 067b 0A       		.uleb128 0xa
 3837 067c 4F100000 		.4byte	.LASF187
 3838 0680 52       		.byte	0x52
 3839 0681 0A       		.uleb128 0xa
 3840 0682 03330000 		.4byte	.LASF188
 3841 0686 16       		.byte	0x16
 3842 0687 0A       		.uleb128 0xa
 3843 0688 79440000 		.4byte	.LASF189
 3844 068c 17       		.byte	0x17
 3845 068d 0A       		.uleb128 0xa
 3846 068e 471B0000 		.4byte	.LASF190
 3847 0692 18       		.byte	0x18
 3848 0693 0A       		.uleb128 0xa
 3849 0694 B42A0000 		.4byte	.LASF191
 3850 0698 19       		.byte	0x19
 3851 0699 0A       		.uleb128 0xa
 3852 069a 09410000 		.4byte	.LASF192
 3853 069e 1B       		.byte	0x1b
ARM GAS  C:\Users\run1009\AppData\Local\Temp\ccJxhBPK.s 			page 100


 3854 069f 0A       		.uleb128 0xa
 3855 06a0 8C170000 		.4byte	.LASF193
 3856 06a4 1D       		.byte	0x1d
 3857 06a5 0A       		.uleb128 0xa
 3858 06a6 83340000 		.4byte	.LASF194
 3859 06aa 1E       		.byte	0x1e
 3860 06ab 0A       		.uleb128 0xa
 3861 06ac EA190000 		.4byte	.LASF195
 3862 06b0 D2       		.byte	0xd2
 3863 06b1 0A       		.uleb128 0xa
 3864 06b2 172E0000 		.4byte	.LASF196
 3865 06b6 FF       		.byte	0xff
 3866 06b7 00       		.byte	0
 3867 06b8 10       		.uleb128 0x10
 3868 06b9 01       		.byte	0x1
 3869 06ba 37000000 		.4byte	0x37
 3870 06be 07       		.byte	0x7
 3871 06bf A5       		.byte	0xa5
 3872 06c0 AF070000 		.4byte	0x7af
 3873 06c4 0A       		.uleb128 0xa
 3874 06c5 4F1D0000 		.4byte	.LASF197
 3875 06c9 00       		.byte	0
 3876 06ca 0A       		.uleb128 0xa
 3877 06cb 13300000 		.4byte	.LASF198
 3878 06cf 01       		.byte	0x1
 3879 06d0 0A       		.uleb128 0xa
 3880 06d1 41450000 		.4byte	.LASF199
 3881 06d5 02       		.byte	0x2
 3882 06d6 0A       		.uleb128 0xa
 3883 06d7 092A0000 		.4byte	.LASF200
 3884 06db 03       		.byte	0x3
 3885 06dc 0A       		.uleb128 0xa
 3886 06dd B6110000 		.4byte	.LASF201
 3887 06e1 04       		.byte	0x4
 3888 06e2 0A       		.uleb128 0xa
 3889 06e3 16350000 		.4byte	.LASF202
 3890 06e7 05       		.byte	0x5
 3891 06e8 0A       		.uleb128 0xa
 3892 06e9 7A110000 		.4byte	.LASF203
 3893 06ed 06       		.byte	0x6
 3894 06ee 0A       		.uleb128 0xa
 3895 06ef 54240000 		.4byte	.LASF204
 3896 06f3 07       		.byte	0x7
 3897 06f4 0A       		.uleb128 0xa
 3898 06f5 B0240000 		.4byte	.LASF205
 3899 06f9 08       		.byte	0x8
 3900 06fa 0A       		.uleb128 0xa
 3901 06fb D8120000 		.4byte	.LASF206
 3902 06ff 09       		.byte	0x9
 3903 0700 0A       		.uleb128 0xa
 3904 0701 B5140000 		.4byte	.LASF207
 3905 0705 0A       		.byte	0xa
 3906 0706 0A       		.uleb128 0xa
 3907 0707 6D1A0000 		.4byte	.LASF208
 3908 070b 0B       		.byte	0xb
 3909 070c 0A       		.uleb128 0xa
 3910 070d AD000000 		.4byte	.LASF209
ARM GAS  C:\Users\run1009\AppData\Local\Temp\ccJxhBPK.s 			page 101


 3911 0711 0C       		.byte	0xc
 3912 0712 0A       		.uleb128 0xa
 3913 0713 833F0000 		.4byte	.LASF210
 3914 0717 0D       		.byte	0xd
 3915 0718 0A       		.uleb128 0xa
 3916 0719 A41A0000 		.4byte	.LASF211
 3917 071d 0E       		.byte	0xe
 3918 071e 0A       		.uleb128 0xa
 3919 071f E9440000 		.4byte	.LASF212
 3920 0723 0F       		.byte	0xf
 3921 0724 0A       		.uleb128 0xa
 3922 0725 222C0000 		.4byte	.LASF213
 3923 0729 10       		.byte	0x10
 3924 072a 0A       		.uleb128 0xa
 3925 072b 07160000 		.4byte	.LASF214
 3926 072f 11       		.byte	0x11
 3927 0730 0A       		.uleb128 0xa
 3928 0731 FD0B0000 		.4byte	.LASF215
 3929 0735 80       		.byte	0x80
 3930 0736 0A       		.uleb128 0xa
 3931 0737 99210000 		.4byte	.LASF216
 3932 073b 80       		.byte	0x80
 3933 073c 0A       		.uleb128 0xa
 3934 073d B5400000 		.4byte	.LASF217
 3935 0741 80       		.byte	0x80
 3936 0742 0A       		.uleb128 0xa
 3937 0743 82100000 		.4byte	.LASF218
 3938 0747 80       		.byte	0x80
 3939 0748 0A       		.uleb128 0xa
 3940 0749 773C0000 		.4byte	.LASF219
 3941 074d 80       		.byte	0x80
 3942 074e 0A       		.uleb128 0xa
 3943 074f 6D390000 		.4byte	.LASF220
 3944 0753 80       		.byte	0x80
 3945 0754 0A       		.uleb128 0xa
 3946 0755 FA370000 		.4byte	.LASF221
 3947 0759 80       		.byte	0x80
 3948 075a 0A       		.uleb128 0xa
 3949 075b 25410000 		.4byte	.LASF222
 3950 075f 80       		.byte	0x80
 3951 0760 0A       		.uleb128 0xa
 3952 0761 4B060000 		.4byte	.LASF223
 3953 0765 81       		.byte	0x81
 3954 0766 0A       		.uleb128 0xa
 3955 0767 AC0D0000 		.4byte	.LASF224
 3956 076b 81       		.byte	0x81
 3957 076c 0A       		.uleb128 0xa
 3958 076d 600F0000 		.4byte	.LASF225
 3959 0771 81       		.byte	0x81
 3960 0772 0A       		.uleb128 0xa
 3961 0773 311C0000 		.4byte	.LASF226
 3962 0777 81       		.byte	0x81
 3963 0778 0A       		.uleb128 0xa
 3964 0779 21390000 		.4byte	.LASF227
 3965 077d 82       		.byte	0x82
 3966 077e 0A       		.uleb128 0xa
 3967 077f 04320000 		.4byte	.LASF228
ARM GAS  C:\Users\run1009\AppData\Local\Temp\ccJxhBPK.s 			page 102


 3968 0783 A0       		.byte	0xa0
 3969 0784 0A       		.uleb128 0xa
 3970 0785 B8330000 		.4byte	.LASF229
 3971 0789 A0       		.byte	0xa0
 3972 078a 0A       		.uleb128 0xa
 3973 078b 8B260000 		.4byte	.LASF230
 3974 078f A1       		.byte	0xa1
 3975 0790 0A       		.uleb128 0xa
 3976 0791 6A370000 		.4byte	.LASF231
 3977 0795 A2       		.byte	0xa2
 3978 0796 0A       		.uleb128 0xa
 3979 0797 17120000 		.4byte	.LASF232
 3980 079b A3       		.byte	0xa3
 3981 079c 0A       		.uleb128 0xa
 3982 079d E90E0000 		.4byte	.LASF233
 3983 07a1 FD       		.byte	0xfd
 3984 07a2 0A       		.uleb128 0xa
 3985 07a3 E6040000 		.4byte	.LASF234
 3986 07a7 FE       		.byte	0xfe
 3987 07a8 0A       		.uleb128 0xa
 3988 07a9 C2250000 		.4byte	.LASF235
 3989 07ad FF       		.byte	0xff
 3990 07ae 00       		.byte	0
 3991 07af 05       		.uleb128 0x5
 3992 07b0 C8450000 		.4byte	.LASF236
 3993 07b4 07       		.byte	0x7
 3994 07b5 5F01     		.2byte	0x15f
 3995 07b7 B8060000 		.4byte	0x6b8
 3996 07bb 05       		.uleb128 0x5
 3997 07bc 3B440000 		.4byte	.LASF237
 3998 07c0 07       		.byte	0x7
 3999 07c1 8901     		.2byte	0x189
 4000 07c3 8D000000 		.4byte	0x8d
 4001 07c7 0C       		.uleb128 0xc
 4002 07c8 02       		.byte	0x2
 4003 07c9 07       		.byte	0x7
 4004 07ca 9301     		.2byte	0x193
 4005 07cc EB070000 		.4byte	0x7eb
 4006 07d0 0D       		.uleb128 0xd
 4007 07d1 A92F0000 		.4byte	.LASF238
 4008 07d5 07       		.byte	0x7
 4009 07d6 9A01     		.2byte	0x19a
 4010 07d8 81000000 		.4byte	0x81
 4011 07dc 00       		.byte	0
 4012 07dd 0D       		.uleb128 0xd
 4013 07de D12A0000 		.4byte	.LASF239
 4014 07e2 07       		.byte	0x7
 4015 07e3 A001     		.2byte	0x1a0
 4016 07e5 81000000 		.4byte	0x81
 4017 07e9 01       		.byte	0x1
 4018 07ea 00       		.byte	0
 4019 07eb 05       		.uleb128 0x5
 4020 07ec 34340000 		.4byte	.LASF240
 4021 07f0 07       		.byte	0x7
 4022 07f1 A201     		.2byte	0x1a2
 4023 07f3 C7070000 		.4byte	0x7c7
 4024 07f7 0C       		.uleb128 0xc
ARM GAS  C:\Users\run1009\AppData\Local\Temp\ccJxhBPK.s 			page 103


 4025 07f8 08       		.byte	0x8
 4026 07f9 07       		.byte	0x7
 4027 07fa BE01     		.2byte	0x1be
 4028 07fc 28080000 		.4byte	0x828
 4029 0800 11       		.uleb128 0x11
 4030 0801 76616C00 		.ascii	"val\000"
 4031 0805 07       		.byte	0x7
 4032 0806 C101     		.2byte	0x1c1
 4033 0808 CF030000 		.4byte	0x3cf
 4034 080c 00       		.byte	0
 4035 080d 11       		.uleb128 0x11
 4036 080e 6C656E00 		.ascii	"len\000"
 4037 0812 07       		.byte	0x7
 4038 0813 C401     		.2byte	0x1c4
 4039 0815 8D000000 		.4byte	0x8d
 4040 0819 04       		.byte	0x4
 4041 081a 0D       		.uleb128 0xd
 4042 081b 3B280000 		.4byte	.LASF241
 4043 081f 07       		.byte	0x7
 4044 0820 CB01     		.2byte	0x1cb
 4045 0822 8D000000 		.4byte	0x8d
 4046 0826 06       		.byte	0x6
 4047 0827 00       		.byte	0
 4048 0828 05       		.uleb128 0x5
 4049 0829 960C0000 		.4byte	.LASF242
 4050 082d 07       		.byte	0x7
 4051 082e CD01     		.2byte	0x1cd
 4052 0830 F7070000 		.4byte	0x7f7
 4053 0834 0C       		.uleb128 0xc
 4054 0835 0C       		.byte	0xc
 4055 0836 07       		.byte	0x7
 4056 0837 D001     		.2byte	0x1d0
 4057 0839 58080000 		.4byte	0x858
 4058 083d 0D       		.uleb128 0xd
 4059 083e 491D0000 		.4byte	.LASF243
 4060 0842 07       		.byte	0x7
 4061 0843 D301     		.2byte	0x1d3
 4062 0845 28080000 		.4byte	0x828
 4063 0849 00       		.byte	0
 4064 084a 0D       		.uleb128 0xd
 4065 084b 30440000 		.4byte	.LASF244
 4066 084f 07       		.byte	0x7
 4067 0850 D601     		.2byte	0x1d6
 4068 0852 BB070000 		.4byte	0x7bb
 4069 0856 08       		.byte	0x8
 4070 0857 00       		.byte	0
 4071 0858 05       		.uleb128 0x5
 4072 0859 E61A0000 		.4byte	.LASF245
 4073 085d 07       		.byte	0x7
 4074 085e D801     		.2byte	0x1d8
 4075 0860 34080000 		.4byte	0x834
 4076 0864 12       		.uleb128 0x12
 4077 0865 04       		.byte	0x4
 4078 0866 08       		.byte	0x8
 4079 0867 3A       		.byte	0x3a
 4080 0868 91080000 		.4byte	0x891
 4081 086c 13       		.uleb128 0x13
ARM GAS  C:\Users\run1009\AppData\Local\Temp\ccJxhBPK.s 			page 104


 4082 086d 30440000 		.4byte	.LASF244
 4083 0871 08       		.byte	0x8
 4084 0872 3D       		.byte	0x3d
 4085 0873 BB070000 		.4byte	0x7bb
 4086 0877 00       		.byte	0
 4087 0878 13       		.uleb128 0x13
 4088 0879 5E070000 		.4byte	.LASF246
 4089 087d 08       		.byte	0x8
 4090 087e 43       		.byte	0x43
 4091 087f 81000000 		.4byte	0x81
 4092 0883 02       		.byte	0x2
 4093 0884 13       		.uleb128 0x13
 4094 0885 00240000 		.4byte	.LASF247
 4095 0889 08       		.byte	0x8
 4096 088a 46       		.byte	0x46
 4097 088b AF070000 		.4byte	0x7af
 4098 088f 03       		.byte	0x3
 4099 0890 00       		.byte	0
 4100 0891 03       		.uleb128 0x3
 4101 0892 EA270000 		.4byte	.LASF248
 4102 0896 08       		.byte	0x8
 4103 0897 48       		.byte	0x48
 4104 0898 64080000 		.4byte	0x864
 4105 089c 12       		.uleb128 0x12
 4106 089d 10       		.byte	0x10
 4107 089e 08       		.byte	0x8
 4108 089f 8A       		.byte	0x8a
 4109 08a0 BD080000 		.4byte	0x8bd
 4110 08a4 13       		.uleb128 0x13
 4111 08a5 4C3D0000 		.4byte	.LASF249
 4112 08a9 08       		.byte	0x8
 4113 08aa 8D       		.byte	0x8d
 4114 08ab EB070000 		.4byte	0x7eb
 4115 08af 00       		.byte	0
 4116 08b0 13       		.uleb128 0x13
 4117 08b1 B11C0000 		.4byte	.LASF250
 4118 08b5 08       		.byte	0x8
 4119 08b6 90       		.byte	0x90
 4120 08b7 58080000 		.4byte	0x858
 4121 08bb 04       		.byte	0x4
 4122 08bc 00       		.byte	0
 4123 08bd 03       		.uleb128 0x3
 4124 08be 3D0E0000 		.4byte	.LASF251
 4125 08c2 08       		.byte	0x8
 4126 08c3 92       		.byte	0x92
 4127 08c4 9C080000 		.4byte	0x89c
 4128 08c8 03       		.uleb128 0x3
 4129 08c9 123B0000 		.4byte	.LASF252
 4130 08cd 08       		.byte	0x8
 4131 08ce 95       		.byte	0x95
 4132 08cf BD080000 		.4byte	0x8bd
 4133 08d3 12       		.uleb128 0x12
 4134 08d4 04       		.byte	0x4
 4135 08d5 09       		.byte	0x9
 4136 08d6 5B       		.byte	0x5b
 4137 08d7 F4080000 		.4byte	0x8f4
 4138 08db 13       		.uleb128 0x13
ARM GAS  C:\Users\run1009\AppData\Local\Temp\ccJxhBPK.s 			page 105


 4139 08dc 30440000 		.4byte	.LASF244
 4140 08e0 09       		.byte	0x9
 4141 08e1 5E       		.byte	0x5e
 4142 08e2 BB070000 		.4byte	0x7bb
 4143 08e6 00       		.byte	0
 4144 08e7 13       		.uleb128 0x13
 4145 08e8 C53A0000 		.4byte	.LASF253
 4146 08ec 09       		.byte	0x9
 4147 08ed 61       		.byte	0x61
 4148 08ee 8D000000 		.4byte	0x8d
 4149 08f2 02       		.byte	0x2
 4150 08f3 00       		.byte	0
 4151 08f4 03       		.uleb128 0x3
 4152 08f5 14440000 		.4byte	.LASF254
 4153 08f9 09       		.byte	0x9
 4154 08fa 63       		.byte	0x63
 4155 08fb D3080000 		.4byte	0x8d3
 4156 08ff 03       		.uleb128 0x3
 4157 0900 970F0000 		.4byte	.LASF255
 4158 0904 09       		.byte	0x9
 4159 0905 7A       		.byte	0x7a
 4160 0906 58080000 		.4byte	0x858
 4161 090a 10       		.uleb128 0x10
 4162 090b 02       		.byte	0x2
 4163 090c 45000000 		.4byte	0x45
 4164 0910 0A       		.byte	0xa
 4165 0911 B1       		.byte	0xb1
 4166 0912 21110000 		.4byte	0x1121
 4167 0916 0B       		.uleb128 0xb
 4168 0917 6E140000 		.4byte	.LASF256
 4169 091b 0001     		.2byte	0x100
 4170 091d 0B       		.uleb128 0xb
 4171 091e 90430000 		.4byte	.LASF257
 4172 0922 0101     		.2byte	0x101
 4173 0924 0B       		.uleb128 0xb
 4174 0925 AD1E0000 		.4byte	.LASF258
 4175 0929 0201     		.2byte	0x102
 4176 092b 0B       		.uleb128 0xb
 4177 092c 170E0000 		.4byte	.LASF259
 4178 0930 0301     		.2byte	0x103
 4179 0932 0B       		.uleb128 0xb
 4180 0933 D83F0000 		.4byte	.LASF260
 4181 0937 0401     		.2byte	0x104
 4182 0939 0B       		.uleb128 0xb
 4183 093a 61400000 		.4byte	.LASF261
 4184 093e 0501     		.2byte	0x105
 4185 0940 0B       		.uleb128 0xb
 4186 0941 623D0000 		.4byte	.LASF262
 4187 0945 0601     		.2byte	0x106
 4188 0947 0B       		.uleb128 0xb
 4189 0948 2C2B0000 		.4byte	.LASF263
 4190 094c 0701     		.2byte	0x107
 4191 094e 0B       		.uleb128 0xb
 4192 094f F13D0000 		.4byte	.LASF264
 4193 0953 0801     		.2byte	0x108
 4194 0955 0B       		.uleb128 0xb
 4195 0956 4F160000 		.4byte	.LASF265
ARM GAS  C:\Users\run1009\AppData\Local\Temp\ccJxhBPK.s 			page 106


 4196 095a 0901     		.2byte	0x109
 4197 095c 0B       		.uleb128 0xb
 4198 095d A2190000 		.4byte	.LASF266
 4199 0961 0A01     		.2byte	0x10a
 4200 0963 0B       		.uleb128 0xb
 4201 0964 55220000 		.4byte	.LASF267
 4202 0968 0B01     		.2byte	0x10b
 4203 096a 0B       		.uleb128 0xb
 4204 096b BA360000 		.4byte	.LASF268
 4205 096f 0C01     		.2byte	0x10c
 4206 0971 0B       		.uleb128 0xb
 4207 0972 20330000 		.4byte	.LASF269
 4208 0976 0D01     		.2byte	0x10d
 4209 0978 0B       		.uleb128 0xb
 4210 0979 A00A0000 		.4byte	.LASF270
 4211 097d 0E01     		.2byte	0x10e
 4212 097f 0B       		.uleb128 0xb
 4213 0980 06210000 		.4byte	.LASF271
 4214 0984 0F01     		.2byte	0x10f
 4215 0986 0B       		.uleb128 0xb
 4216 0987 C80C0000 		.4byte	.LASF272
 4217 098b 1001     		.2byte	0x110
 4218 098d 0B       		.uleb128 0xb
 4219 098e FB280000 		.4byte	.LASF273
 4220 0992 1101     		.2byte	0x111
 4221 0994 0B       		.uleb128 0xb
 4222 0995 2C160000 		.4byte	.LASF274
 4223 0999 1201     		.2byte	0x112
 4224 099b 0B       		.uleb128 0xb
 4225 099c B3020000 		.4byte	.LASF275
 4226 09a0 1301     		.2byte	0x113
 4227 09a2 0B       		.uleb128 0xb
 4228 09a3 46180000 		.4byte	.LASF276
 4229 09a7 1401     		.2byte	0x114
 4230 09a9 0B       		.uleb128 0xb
 4231 09aa D7370000 		.4byte	.LASF277
 4232 09ae 1501     		.2byte	0x115
 4233 09b0 0B       		.uleb128 0xb
 4234 09b1 120A0000 		.4byte	.LASF278
 4235 09b5 1601     		.2byte	0x116
 4236 09b7 0B       		.uleb128 0xb
 4237 09b8 20270000 		.4byte	.LASF279
 4238 09bc 1701     		.2byte	0x117
 4239 09be 0B       		.uleb128 0xb
 4240 09bf 2B010000 		.4byte	.LASF280
 4241 09c3 1801     		.2byte	0x118
 4242 09c5 0B       		.uleb128 0xb
 4243 09c6 0E3C0000 		.4byte	.LASF281
 4244 09ca 1901     		.2byte	0x119
 4245 09cc 0B       		.uleb128 0xb
 4246 09cd D5430000 		.4byte	.LASF282
 4247 09d1 1A01     		.2byte	0x11a
 4248 09d3 0B       		.uleb128 0xb
 4249 09d4 7B0C0000 		.4byte	.LASF283
 4250 09d8 1B01     		.2byte	0x11b
 4251 09da 0B       		.uleb128 0xb
 4252 09db 7F200000 		.4byte	.LASF284
ARM GAS  C:\Users\run1009\AppData\Local\Temp\ccJxhBPK.s 			page 107


 4253 09df 1C01     		.2byte	0x11c
 4254 09e1 0B       		.uleb128 0xb
 4255 09e2 33110000 		.4byte	.LASF285
 4256 09e6 1D01     		.2byte	0x11d
 4257 09e8 0B       		.uleb128 0xb
 4258 09e9 533C0000 		.4byte	.LASF286
 4259 09ed 1E01     		.2byte	0x11e
 4260 09ef 0B       		.uleb128 0xb
 4261 09f0 C7030000 		.4byte	.LASF287
 4262 09f4 1F01     		.2byte	0x11f
 4263 09f6 0B       		.uleb128 0xb
 4264 09f7 E9170000 		.4byte	.LASF288
 4265 09fb 2001     		.2byte	0x120
 4266 09fd 0B       		.uleb128 0xb
 4267 09fe 551C0000 		.4byte	.LASF289
 4268 0a02 2101     		.2byte	0x121
 4269 0a04 0B       		.uleb128 0xb
 4270 0a05 A1030000 		.4byte	.LASF290
 4271 0a09 2201     		.2byte	0x122
 4272 0a0b 0B       		.uleb128 0xb
 4273 0a0c EF160000 		.4byte	.LASF291
 4274 0a10 2301     		.2byte	0x123
 4275 0a12 0B       		.uleb128 0xb
 4276 0a13 A5060000 		.4byte	.LASF292
 4277 0a17 2401     		.2byte	0x124
 4278 0a19 0B       		.uleb128 0xb
 4279 0a1a B9100000 		.4byte	.LASF293
 4280 0a1e 2501     		.2byte	0x125
 4281 0a20 0B       		.uleb128 0xb
 4282 0a21 A83B0000 		.4byte	.LASF294
 4283 0a25 2601     		.2byte	0x126
 4284 0a27 0B       		.uleb128 0xb
 4285 0a28 76220000 		.4byte	.LASF295
 4286 0a2c 2701     		.2byte	0x127
 4287 0a2e 0B       		.uleb128 0xb
 4288 0a2f 8E350000 		.4byte	.LASF296
 4289 0a33 2801     		.2byte	0x128
 4290 0a35 0B       		.uleb128 0xb
 4291 0a36 FF1D0000 		.4byte	.LASF297
 4292 0a3a 2901     		.2byte	0x129
 4293 0a3c 0B       		.uleb128 0xb
 4294 0a3d E2380000 		.4byte	.LASF298
 4295 0a41 2A01     		.2byte	0x12a
 4296 0a43 0B       		.uleb128 0xb
 4297 0a44 762A0000 		.4byte	.LASF299
 4298 0a48 2B01     		.2byte	0x12b
 4299 0a4a 0B       		.uleb128 0xb
 4300 0a4b A93A0000 		.4byte	.LASF300
 4301 0a4f 2C01     		.2byte	0x12c
 4302 0a51 0B       		.uleb128 0xb
 4303 0a52 BB290000 		.4byte	.LASF301
 4304 0a56 2D01     		.2byte	0x12d
 4305 0a58 0B       		.uleb128 0xb
 4306 0a59 2B080000 		.4byte	.LASF302
 4307 0a5d 2E01     		.2byte	0x12e
 4308 0a5f 0B       		.uleb128 0xb
 4309 0a60 54210000 		.4byte	.LASF303
ARM GAS  C:\Users\run1009\AppData\Local\Temp\ccJxhBPK.s 			page 108


 4310 0a64 2F01     		.2byte	0x12f
 4311 0a66 0B       		.uleb128 0xb
 4312 0a67 02280000 		.4byte	.LASF304
 4313 0a6b 3001     		.2byte	0x130
 4314 0a6d 0B       		.uleb128 0xb
 4315 0a6e BB270000 		.4byte	.LASF305
 4316 0a72 3101     		.2byte	0x131
 4317 0a74 0B       		.uleb128 0xb
 4318 0a75 F8060000 		.4byte	.LASF306
 4319 0a79 3201     		.2byte	0x132
 4320 0a7b 0B       		.uleb128 0xb
 4321 0a7c A8280000 		.4byte	.LASF307
 4322 0a80 3301     		.2byte	0x133
 4323 0a82 0B       		.uleb128 0xb
 4324 0a83 613F0000 		.4byte	.LASF308
 4325 0a87 3401     		.2byte	0x134
 4326 0a89 0B       		.uleb128 0xb
 4327 0a8a B4370000 		.4byte	.LASF309
 4328 0a8e 3501     		.2byte	0x135
 4329 0a90 0B       		.uleb128 0xb
 4330 0a91 4A090000 		.4byte	.LASF310
 4331 0a95 3601     		.2byte	0x136
 4332 0a97 0B       		.uleb128 0xb
 4333 0a98 872F0000 		.4byte	.LASF311
 4334 0a9c 3701     		.2byte	0x137
 4335 0a9e 0B       		.uleb128 0xb
 4336 0a9f CC3A0000 		.4byte	.LASF312
 4337 0aa3 3801     		.2byte	0x138
 4338 0aa5 0B       		.uleb128 0xb
 4339 0aa6 DE250000 		.4byte	.LASF313
 4340 0aaa 3901     		.2byte	0x139
 4341 0aac 0B       		.uleb128 0xb
 4342 0aad E42E0000 		.4byte	.LASF314
 4343 0ab1 3A01     		.2byte	0x13a
 4344 0ab3 0B       		.uleb128 0xb
 4345 0ab4 42170000 		.4byte	.LASF315
 4346 0ab8 3B01     		.2byte	0x13b
 4347 0aba 0B       		.uleb128 0xb
 4348 0abb B1150000 		.4byte	.LASF316
 4349 0abf 3C01     		.2byte	0x13c
 4350 0ac1 0B       		.uleb128 0xb
 4351 0ac2 7B290000 		.4byte	.LASF317
 4352 0ac6 3D01     		.2byte	0x13d
 4353 0ac8 0B       		.uleb128 0xb
 4354 0ac9 D1110000 		.4byte	.LASF318
 4355 0acd 3E01     		.2byte	0x13e
 4356 0acf 0B       		.uleb128 0xb
 4357 0ad0 3F310000 		.4byte	.LASF319
 4358 0ad4 3F01     		.2byte	0x13f
 4359 0ad6 0B       		.uleb128 0xb
 4360 0ad7 1C420000 		.4byte	.LASF320
 4361 0adb 4001     		.2byte	0x140
 4362 0add 0B       		.uleb128 0xb
 4363 0ade E81B0000 		.4byte	.LASF321
 4364 0ae2 4101     		.2byte	0x141
 4365 0ae4 0B       		.uleb128 0xb
 4366 0ae5 870D0000 		.4byte	.LASF322
ARM GAS  C:\Users\run1009\AppData\Local\Temp\ccJxhBPK.s 			page 109


 4367 0ae9 4201     		.2byte	0x142
 4368 0aeb 0B       		.uleb128 0xb
 4369 0aec E1220000 		.4byte	.LASF323
 4370 0af0 4301     		.2byte	0x143
 4371 0af2 0B       		.uleb128 0xb
 4372 0af3 1C030000 		.4byte	.LASF324
 4373 0af7 4401     		.2byte	0x144
 4374 0af9 0B       		.uleb128 0xb
 4375 0afa 99410000 		.4byte	.LASF325
 4376 0afe 4501     		.2byte	0x145
 4377 0b00 0B       		.uleb128 0xb
 4378 0b01 45260000 		.4byte	.LASF326
 4379 0b05 4601     		.2byte	0x146
 4380 0b07 0B       		.uleb128 0xb
 4381 0b08 64460000 		.4byte	.LASF327
 4382 0b0c 4701     		.2byte	0x147
 4383 0b0e 0B       		.uleb128 0xb
 4384 0b0f 54080000 		.4byte	.LASF328
 4385 0b13 4801     		.2byte	0x148
 4386 0b15 0B       		.uleb128 0xb
 4387 0b16 912C0000 		.4byte	.LASF329
 4388 0b1a 4901     		.2byte	0x149
 4389 0b1c 0B       		.uleb128 0xb
 4390 0b1d B5120000 		.4byte	.LASF330
 4391 0b21 4A01     		.2byte	0x14a
 4392 0b23 0B       		.uleb128 0xb
 4393 0b24 DC1D0000 		.4byte	.LASF331
 4394 0b28 4B01     		.2byte	0x14b
 4395 0b2a 0B       		.uleb128 0xb
 4396 0b2b F7330000 		.4byte	.LASF332
 4397 0b2f 4C01     		.2byte	0x14c
 4398 0b31 0B       		.uleb128 0xb
 4399 0b32 31300000 		.4byte	.LASF333
 4400 0b36 4D01     		.2byte	0x14d
 4401 0b38 0B       		.uleb128 0xb
 4402 0b39 CF090000 		.4byte	.LASF334
 4403 0b3d 4E01     		.2byte	0x14e
 4404 0b3f 0B       		.uleb128 0xb
 4405 0b40 1F380000 		.4byte	.LASF335
 4406 0b44 4F01     		.2byte	0x14f
 4407 0b46 0B       		.uleb128 0xb
 4408 0b47 47390000 		.4byte	.LASF336
 4409 0b4b 5001     		.2byte	0x150
 4410 0b4d 0B       		.uleb128 0xb
 4411 0b4e 0F370000 		.4byte	.LASF337
 4412 0b52 5101     		.2byte	0x151
 4413 0b54 0B       		.uleb128 0xb
 4414 0b55 7D3D0000 		.4byte	.LASF338
 4415 0b59 5201     		.2byte	0x152
 4416 0b5b 0B       		.uleb128 0xb
 4417 0b5c C2060000 		.4byte	.LASF339
 4418 0b60 5301     		.2byte	0x153
 4419 0b62 0B       		.uleb128 0xb
 4420 0b63 241B0000 		.4byte	.LASF340
 4421 0b67 5401     		.2byte	0x154
 4422 0b69 0B       		.uleb128 0xb
 4423 0b6a A1010000 		.4byte	.LASF341
ARM GAS  C:\Users\run1009\AppData\Local\Temp\ccJxhBPK.s 			page 110


 4424 0b6e 5501     		.2byte	0x155
 4425 0b70 0B       		.uleb128 0xb
 4426 0b71 C80A0000 		.4byte	.LASF342
 4427 0b75 5601     		.2byte	0x156
 4428 0b77 0B       		.uleb128 0xb
 4429 0b78 2C2A0000 		.4byte	.LASF343
 4430 0b7c 5701     		.2byte	0x157
 4431 0b7e 0B       		.uleb128 0xb
 4432 0b7f 6E090000 		.4byte	.LASF344
 4433 0b83 5801     		.2byte	0x158
 4434 0b85 0B       		.uleb128 0xb
 4435 0b86 C0200000 		.4byte	.LASF345
 4436 0b8a 5901     		.2byte	0x159
 4437 0b8c 0B       		.uleb128 0xb
 4438 0b8d B63F0000 		.4byte	.LASF346
 4439 0b91 5A01     		.2byte	0x15a
 4440 0b93 0B       		.uleb128 0xb
 4441 0b94 E6290000 		.4byte	.LASF347
 4442 0b98 5B01     		.2byte	0x15b
 4443 0b9a 0B       		.uleb128 0xb
 4444 0b9b 3E2F0000 		.4byte	.LASF348
 4445 0b9f 5C01     		.2byte	0x15c
 4446 0ba1 0B       		.uleb128 0xb
 4447 0ba2 95250000 		.4byte	.LASF349
 4448 0ba6 5D01     		.2byte	0x15d
 4449 0ba8 0B       		.uleb128 0xb
 4450 0ba9 96330000 		.4byte	.LASF350
 4451 0bad 5E01     		.2byte	0x15e
 4452 0baf 0B       		.uleb128 0xb
 4453 0bb0 173E0000 		.4byte	.LASF351
 4454 0bb4 5F01     		.2byte	0x15f
 4455 0bb6 0B       		.uleb128 0xb
 4456 0bb7 0E3D0000 		.4byte	.LASF352
 4457 0bbb 6001     		.2byte	0x160
 4458 0bbd 0B       		.uleb128 0xb
 4459 0bbe 32240000 		.4byte	.LASF353
 4460 0bc2 6101     		.2byte	0x161
 4461 0bc4 0B       		.uleb128 0xb
 4462 0bc5 AF260000 		.4byte	.LASF354
 4463 0bc9 6201     		.2byte	0x162
 4464 0bcb 0B       		.uleb128 0xb
 4465 0bcc 57110000 		.4byte	.LASF355
 4466 0bd0 6301     		.2byte	0x163
 4467 0bd2 0B       		.uleb128 0xb
 4468 0bd3 97360000 		.4byte	.LASF356
 4469 0bd7 6401     		.2byte	0x164
 4470 0bd9 0B       		.uleb128 0xb
 4471 0bda 72330000 		.4byte	.LASF357
 4472 0bde 6501     		.2byte	0x165
 4473 0be0 0B       		.uleb128 0xb
 4474 0be1 F2140000 		.4byte	.LASF358
 4475 0be5 6601     		.2byte	0x166
 4476 0be7 0B       		.uleb128 0xb
 4477 0be8 982E0000 		.4byte	.LASF359
 4478 0bec 6701     		.2byte	0x167
 4479 0bee 0B       		.uleb128 0xb
 4480 0bef 4E000000 		.4byte	.LASF360
ARM GAS  C:\Users\run1009\AppData\Local\Temp\ccJxhBPK.s 			page 111


 4481 0bf3 6801     		.2byte	0x168
 4482 0bf5 0B       		.uleb128 0xb
 4483 0bf6 8E040000 		.4byte	.LASF361
 4484 0bfa 6901     		.2byte	0x169
 4485 0bfc 0B       		.uleb128 0xb
 4486 0bfd 6E080000 		.4byte	.LASF362
 4487 0c01 6A01     		.2byte	0x16a
 4488 0c03 0B       		.uleb128 0xb
 4489 0c04 69010000 		.4byte	.LASF363
 4490 0c08 6B01     		.2byte	0x16b
 4491 0c0a 0B       		.uleb128 0xb
 4492 0c0b BB180000 		.4byte	.LASF364
 4493 0c0f 6C01     		.2byte	0x16c
 4494 0c11 0B       		.uleb128 0xb
 4495 0c12 CC3C0000 		.4byte	.LASF365
 4496 0c16 6D01     		.2byte	0x16d
 4497 0c18 0B       		.uleb128 0xb
 4498 0c19 1A450000 		.4byte	.LASF366
 4499 0c1d 6E01     		.2byte	0x16e
 4500 0c1f 0B       		.uleb128 0xb
 4501 0c20 BE310000 		.4byte	.LASF367
 4502 0c24 6F01     		.2byte	0x16f
 4503 0c26 0B       		.uleb128 0xb
 4504 0c27 07020000 		.4byte	.LASF368
 4505 0c2b 7001     		.2byte	0x170
 4506 0c2d 0B       		.uleb128 0xb
 4507 0c2e 6D0B0000 		.4byte	.LASF369
 4508 0c32 7101     		.2byte	0x171
 4509 0c34 0B       		.uleb128 0xb
 4510 0c35 C20F0000 		.4byte	.LASF370
 4511 0c39 7201     		.2byte	0x172
 4512 0c3b 0B       		.uleb128 0xb
 4513 0c3c 45230000 		.4byte	.LASF371
 4514 0c40 7301     		.2byte	0x173
 4515 0c42 0B       		.uleb128 0xb
 4516 0c43 751F0000 		.4byte	.LASF372
 4517 0c47 7401     		.2byte	0x174
 4518 0c49 0B       		.uleb128 0xb
 4519 0c4a EB050000 		.4byte	.LASF373
 4520 0c4e 7501     		.2byte	0x175
 4521 0c50 0B       		.uleb128 0xb
 4522 0c51 16150000 		.4byte	.LASF374
 4523 0c55 7601     		.2byte	0x176
 4524 0c57 0B       		.uleb128 0xb
 4525 0c58 26460000 		.4byte	.LASF375
 4526 0c5c 7701     		.2byte	0x177
 4527 0c5e 0B       		.uleb128 0xb
 4528 0c5f 831E0000 		.4byte	.LASF376
 4529 0c63 7801     		.2byte	0x178
 4530 0c65 0B       		.uleb128 0xb
 4531 0c66 B52B0000 		.4byte	.LASF377
 4532 0c6a 7901     		.2byte	0x179
 4533 0c6c 0B       		.uleb128 0xb
 4534 0c6d 87130000 		.4byte	.LASF378
 4535 0c71 7A01     		.2byte	0x17a
 4536 0c73 0B       		.uleb128 0xb
 4537 0c74 2D320000 		.4byte	.LASF379
ARM GAS  C:\Users\run1009\AppData\Local\Temp\ccJxhBPK.s 			page 112


 4538 0c78 7B01     		.2byte	0x17b
 4539 0c7a 0B       		.uleb128 0xb
 4540 0c7b F8020000 		.4byte	.LASF380
 4541 0c7f 7C01     		.2byte	0x17c
 4542 0c81 0B       		.uleb128 0xb
 4543 0c82 8B240000 		.4byte	.LASF381
 4544 0c86 7D01     		.2byte	0x17d
 4545 0c88 0B       		.uleb128 0xb
 4546 0c89 09080000 		.4byte	.LASF382
 4547 0c8d 7E01     		.2byte	0x17e
 4548 0c8f 0B       		.uleb128 0xb
 4549 0c90 76060000 		.4byte	.LASF383
 4550 0c94 7F01     		.2byte	0x17f
 4551 0c96 0B       		.uleb128 0xb
 4552 0c97 54040000 		.4byte	.LASF384
 4553 0c9b 8001     		.2byte	0x180
 4554 0c9d 0B       		.uleb128 0xb
 4555 0c9e 493E0000 		.4byte	.LASF385
 4556 0ca2 8101     		.2byte	0x181
 4557 0ca4 0B       		.uleb128 0xb
 4558 0ca5 DC330000 		.4byte	.LASF386
 4559 0ca9 8201     		.2byte	0x182
 4560 0cab 0B       		.uleb128 0xb
 4561 0cac 48460000 		.4byte	.LASF387
 4562 0cb0 8301     		.2byte	0x183
 4563 0cb2 0B       		.uleb128 0xb
 4564 0cb3 AC050000 		.4byte	.LASF388
 4565 0cb7 8401     		.2byte	0x184
 4566 0cb9 0B       		.uleb128 0xb
 4567 0cba 0E360000 		.4byte	.LASF389
 4568 0cbe 8501     		.2byte	0x185
 4569 0cc0 0B       		.uleb128 0xb
 4570 0cc1 A5450000 		.4byte	.LASF390
 4571 0cc5 8601     		.2byte	0x186
 4572 0cc7 0B       		.uleb128 0xb
 4573 0cc8 73270000 		.4byte	.LASF391
 4574 0ccc 8701     		.2byte	0x187
 4575 0cce 0B       		.uleb128 0xb
 4576 0ccf D72A0000 		.4byte	.LASF392
 4577 0cd3 8801     		.2byte	0x188
 4578 0cd5 0B       		.uleb128 0xb
 4579 0cd6 5B030000 		.4byte	.LASF393
 4580 0cda 8901     		.2byte	0x189
 4581 0cdc 0B       		.uleb128 0xb
 4582 0cdd F02F0000 		.4byte	.LASF394
 4583 0ce1 8A01     		.2byte	0x18a
 4584 0ce3 0B       		.uleb128 0xb
 4585 0ce4 C5170000 		.4byte	.LASF395
 4586 0ce8 8B01     		.2byte	0x18b
 4587 0cea 0B       		.uleb128 0xb
 4588 0ceb 9B390000 		.4byte	.LASF396
 4589 0cef 8C01     		.2byte	0x18c
 4590 0cf1 0B       		.uleb128 0xb
 4591 0cf2 9F340000 		.4byte	.LASF397
 4592 0cf6 8D01     		.2byte	0x18d
 4593 0cf8 0B       		.uleb128 0xb
 4594 0cf9 8E3E0000 		.4byte	.LASF398
ARM GAS  C:\Users\run1009\AppData\Local\Temp\ccJxhBPK.s 			page 113


 4595 0cfd 8E01     		.2byte	0x18e
 4596 0cff 0B       		.uleb128 0xb
 4597 0d00 6F250000 		.4byte	.LASF399
 4598 0d04 8F01     		.2byte	0x18f
 4599 0d06 0B       		.uleb128 0xb
 4600 0d07 8C3B0000 		.4byte	.LASF400
 4601 0d0b 9001     		.2byte	0x190
 4602 0d0d 0B       		.uleb128 0xb
 4603 0d0e EB300000 		.4byte	.LASF401
 4604 0d12 9101     		.2byte	0x191
 4605 0d14 0B       		.uleb128 0xb
 4606 0d15 45280000 		.4byte	.LASF402
 4607 0d19 9201     		.2byte	0x192
 4608 0d1b 0B       		.uleb128 0xb
 4609 0d1c 42330000 		.4byte	.LASF403
 4610 0d20 9301     		.2byte	0x193
 4611 0d22 0B       		.uleb128 0xb
 4612 0d23 8C1B0000 		.4byte	.LASF404
 4613 0d27 9401     		.2byte	0x194
 4614 0d29 0B       		.uleb128 0xb
 4615 0d2a 39070000 		.4byte	.LASF405
 4616 0d2e 9501     		.2byte	0x195
 4617 0d30 0B       		.uleb128 0xb
 4618 0d31 E3400000 		.4byte	.LASF406
 4619 0d35 9601     		.2byte	0x196
 4620 0d37 0B       		.uleb128 0xb
 4621 0d38 40420000 		.4byte	.LASF407
 4622 0d3c 9701     		.2byte	0x197
 4623 0d3e 0B       		.uleb128 0xb
 4624 0d3f 77210000 		.4byte	.LASF408
 4625 0d43 9801     		.2byte	0x198
 4626 0d45 0B       		.uleb128 0xb
 4627 0d46 D5340000 		.4byte	.LASF409
 4628 0d4a 9901     		.2byte	0x199
 4629 0d4c 0B       		.uleb128 0xb
 4630 0d4d 9A1F0000 		.4byte	.LASF410
 4631 0d51 9A01     		.2byte	0x19a
 4632 0d53 0B       		.uleb128 0xb
 4633 0d54 E5260000 		.4byte	.LASF411
 4634 0d58 9B01     		.2byte	0x19b
 4635 0d5a 0B       		.uleb128 0xb
 4636 0d5b A32D0000 		.4byte	.LASF412
 4637 0d5f 9C01     		.2byte	0x19c
 4638 0d61 0B       		.uleb128 0xb
 4639 0d62 BE420000 		.4byte	.LASF413
 4640 0d66 9D01     		.2byte	0x19d
 4641 0d68 0B       		.uleb128 0xb
 4642 0d69 E3240000 		.4byte	.LASF414
 4643 0d6d 9E01     		.2byte	0x19e
 4644 0d6f 0B       		.uleb128 0xb
 4645 0d70 F3110000 		.4byte	.LASF415
 4646 0d74 9F01     		.2byte	0x19f
 4647 0d76 0B       		.uleb128 0xb
 4648 0d77 E70F0000 		.4byte	.LASF416
 4649 0d7b A001     		.2byte	0x1a0
 4650 0d7d 0B       		.uleb128 0xb
 4651 0d7e D6000000 		.4byte	.LASF417
ARM GAS  C:\Users\run1009\AppData\Local\Temp\ccJxhBPK.s 			page 114


 4652 0d82 A101     		.2byte	0x1a1
 4653 0d84 0B       		.uleb128 0xb
 4654 0d85 00000000 		.4byte	.LASF418
 4655 0d89 A201     		.2byte	0x1a2
 4656 0d8b 0B       		.uleb128 0xb
 4657 0d8c 0A430000 		.4byte	.LASF419
 4658 0d90 A301     		.2byte	0x1a3
 4659 0d92 0B       		.uleb128 0xb
 4660 0d93 7C2E0000 		.4byte	.LASF420
 4661 0d97 A401     		.2byte	0x1a4
 4662 0d99 0B       		.uleb128 0xb
 4663 0d9a 0B3F0000 		.4byte	.LASF421
 4664 0d9e A501     		.2byte	0x1a5
 4665 0da0 0B       		.uleb128 0xb
 4666 0da1 32220000 		.4byte	.LASF422
 4667 0da5 A601     		.2byte	0x1a6
 4668 0da7 0B       		.uleb128 0xb
 4669 0da8 26090000 		.4byte	.LASF423
 4670 0dac A701     		.2byte	0x1a7
 4671 0dae 0B       		.uleb128 0xb
 4672 0daf BF1C0000 		.4byte	.LASF424
 4673 0db3 A801     		.2byte	0x1a8
 4674 0db5 0B       		.uleb128 0xb
 4675 0db6 0C1C0000 		.4byte	.LASF425
 4676 0dba A901     		.2byte	0x1a9
 4677 0dbc 0B       		.uleb128 0xb
 4678 0dbd 42200000 		.4byte	.LASF426
 4679 0dc1 AA01     		.2byte	0x1aa
 4680 0dc3 0B       		.uleb128 0xb
 4681 0dc4 88310000 		.4byte	.LASF427
 4682 0dc8 AB01     		.2byte	0x1ab
 4683 0dca 0B       		.uleb128 0xb
 4684 0dcb 9F290000 		.4byte	.LASF428
 4685 0dcf AC01     		.2byte	0x1ac
 4686 0dd1 0B       		.uleb128 0xb
 4687 0dd2 AF160000 		.4byte	.LASF429
 4688 0dd6 AD01     		.2byte	0x1ad
 4689 0dd8 0B       		.uleb128 0xb
 4690 0dd9 EF3A0000 		.4byte	.LASF430
 4691 0ddd AE01     		.2byte	0x1ae
 4692 0ddf 0B       		.uleb128 0xb
 4693 0de0 03460000 		.4byte	.LASF431
 4694 0de4 AF01     		.2byte	0x1af
 4695 0de6 0B       		.uleb128 0xb
 4696 0de7 4E020000 		.4byte	.LASF432
 4697 0deb B001     		.2byte	0x1b0
 4698 0ded 0B       		.uleb128 0xb
 4699 0dee B71F0000 		.4byte	.LASF433
 4700 0df2 B101     		.2byte	0x1b1
 4701 0df4 0B       		.uleb128 0xb
 4702 0df5 DE450000 		.4byte	.LASF434
 4703 0df9 B201     		.2byte	0x1b2
 4704 0dfb 0B       		.uleb128 0xb
 4705 0dfc 65070000 		.4byte	.LASF435
 4706 0e00 B301     		.2byte	0x1b3
 4707 0e02 0B       		.uleb128 0xb
 4708 0e03 F91F0000 		.4byte	.LASF436
ARM GAS  C:\Users\run1009\AppData\Local\Temp\ccJxhBPK.s 			page 115


 4709 0e07 B401     		.2byte	0x1b4
 4710 0e09 0B       		.uleb128 0xb
 4711 0e0a 251D0000 		.4byte	.LASF437
 4712 0e0e B501     		.2byte	0x1b5
 4713 0e10 0B       		.uleb128 0xb
 4714 0e11 87070000 		.4byte	.LASF438
 4715 0e15 B601     		.2byte	0x1b6
 4716 0e17 0B       		.uleb128 0xb
 4717 0e18 1D070000 		.4byte	.LASF439
 4718 0e1c B701     		.2byte	0x1b7
 4719 0e1e 0B       		.uleb128 0xb
 4720 0e1f 63150000 		.4byte	.LASF440
 4721 0e23 B801     		.2byte	0x1b8
 4722 0e25 0B       		.uleb128 0xb
 4723 0e26 F4340000 		.4byte	.LASF441
 4724 0e2a B901     		.2byte	0x1b9
 4725 0e2c 0B       		.uleb128 0xb
 4726 0e2d 6C180000 		.4byte	.LASF442
 4727 0e31 BA01     		.2byte	0x1ba
 4728 0e33 0B       		.uleb128 0xb
 4729 0e34 85230000 		.4byte	.LASF443
 4730 0e38 BB01     		.2byte	0x1bb
 4731 0e3a 0B       		.uleb128 0xb
 4732 0e3b FB220000 		.4byte	.LASF444
 4733 0e3f BC01     		.2byte	0x1bc
 4734 0e41 0B       		.uleb128 0xb
 4735 0e42 DB1F0000 		.4byte	.LASF445
 4736 0e46 BD01     		.2byte	0x1bd
 4737 0e48 0B       		.uleb128 0xb
 4738 0e49 48340000 		.4byte	.LASF446
 4739 0e4d BE01     		.2byte	0x1be
 4740 0e4f 0B       		.uleb128 0xb
 4741 0e50 042D0000 		.4byte	.LASF447
 4742 0e54 BF01     		.2byte	0x1bf
 4743 0e56 0B       		.uleb128 0xb
 4744 0e57 02190000 		.4byte	.LASF448
 4745 0e5b C001     		.2byte	0x1c0
 4746 0e5d 0B       		.uleb128 0xb
 4747 0e5e 38030000 		.4byte	.LASF449
 4748 0e62 C101     		.2byte	0x1c1
 4749 0e64 0B       		.uleb128 0xb
 4750 0e65 580C0000 		.4byte	.LASF450
 4751 0e69 C201     		.2byte	0x1c2
 4752 0e6b 0B       		.uleb128 0xb
 4753 0e6c FA000000 		.4byte	.LASF451
 4754 0e70 C301     		.2byte	0x1c3
 4755 0e72 0B       		.uleb128 0xb
 4756 0e73 A2200000 		.4byte	.LASF452
 4757 0e77 C401     		.2byte	0x1c4
 4758 0e79 0B       		.uleb128 0xb
 4759 0e7a 0A040000 		.4byte	.LASF453
 4760 0e7e C501     		.2byte	0x1c5
 4761 0e80 0B       		.uleb128 0xb
 4762 0e81 EC030000 		.4byte	.LASF454
 4763 0e85 C601     		.2byte	0x1c6
 4764 0e87 0B       		.uleb128 0xb
 4765 0e88 10220000 		.4byte	.LASF455
ARM GAS  C:\Users\run1009\AppData\Local\Temp\ccJxhBPK.s 			page 116


 4766 0e8c C701     		.2byte	0x1c7
 4767 0e8e 0B       		.uleb128 0xb
 4768 0e8f 24430000 		.4byte	.LASF456
 4769 0e93 C801     		.2byte	0x1c8
 4770 0e95 0B       		.uleb128 0xb
 4771 0e96 F0100000 		.4byte	.LASF457
 4772 0e9a C901     		.2byte	0x1c9
 4773 0e9c 0B       		.uleb128 0xb
 4774 0e9d 9A380000 		.4byte	.LASF458
 4775 0ea1 CA01     		.2byte	0x1ca
 4776 0ea3 0B       		.uleb128 0xb
 4777 0ea4 522B0000 		.4byte	.LASF459
 4778 0ea8 CB01     		.2byte	0x1cb
 4779 0eaa 0B       		.uleb128 0xb
 4780 0eab 92090000 		.4byte	.LASF460
 4781 0eaf CC01     		.2byte	0x1cc
 4782 0eb1 0B       		.uleb128 0xb
 4783 0eb2 96270000 		.4byte	.LASF461
 4784 0eb6 CD01     		.2byte	0x1cd
 4785 0eb8 0B       		.uleb128 0xb
 4786 0eb9 42250000 		.4byte	.LASF462
 4787 0ebd CE01     		.2byte	0x1ce
 4788 0ebf 0B       		.uleb128 0xb
 4789 0ec0 530B0000 		.4byte	.LASF463
 4790 0ec4 CF01     		.2byte	0x1cf
 4791 0ec6 0B       		.uleb128 0xb
 4792 0ec7 8C280000 		.4byte	.LASF464
 4793 0ecb D001     		.2byte	0x1d0
 4794 0ecd 0B       		.uleb128 0xb
 4795 0ece 2A3D0000 		.4byte	.LASF465
 4796 0ed2 D101     		.2byte	0x1d1
 4797 0ed4 0B       		.uleb128 0xb
 4798 0ed5 E1310000 		.4byte	.LASF466
 4799 0ed9 D201     		.2byte	0x1d2
 4800 0edb 0B       		.uleb128 0xb
 4801 0edc 09140000 		.4byte	.LASF467
 4802 0ee0 D301     		.2byte	0x1d3
 4803 0ee2 0B       		.uleb128 0xb
 4804 0ee3 7C0A0000 		.4byte	.LASF468
 4805 0ee7 D401     		.2byte	0x1d4
 4806 0ee9 0B       		.uleb128 0xb
 4807 0eea 450D0000 		.4byte	.LASF469
 4808 0eee D501     		.2byte	0x1d5
 4809 0ef0 0B       		.uleb128 0xb
 4810 0ef1 88000000 		.4byte	.LASF470
 4811 0ef5 D601     		.2byte	0x1d6
 4812 0ef7 0B       		.uleb128 0xb
 4813 0ef8 2E210000 		.4byte	.LASF471
 4814 0efc D701     		.2byte	0x1d7
 4815 0efe 0B       		.uleb128 0xb
 4816 0eff FC2D0000 		.4byte	.LASF472
 4817 0f03 D801     		.2byte	0x1d8
 4818 0f05 0B       		.uleb128 0xb
 4819 0f06 70300000 		.4byte	.LASF473
 4820 0f0a D901     		.2byte	0x1d9
 4821 0f0c 0B       		.uleb128 0xb
 4822 0f0d 46010000 		.4byte	.LASF474
ARM GAS  C:\Users\run1009\AppData\Local\Temp\ccJxhBPK.s 			page 117


 4823 0f11 DA01     		.2byte	0x1da
 4824 0f13 0B       		.uleb128 0xb
 4825 0f14 C21A0000 		.4byte	.LASF475
 4826 0f18 DB01     		.2byte	0x1db
 4827 0f1a 0B       		.uleb128 0xb
 4828 0f1b 4E0A0000 		.4byte	.LASF476
 4829 0f1f DC01     		.2byte	0x1dc
 4830 0f21 0B       		.uleb128 0xb
 4831 0f22 DD2C0000 		.4byte	.LASF477
 4832 0f26 DD01     		.2byte	0x1dd
 4833 0f28 0B       		.uleb128 0xb
 4834 0f29 EC0A0000 		.4byte	.LASF478
 4835 0f2d DE01     		.2byte	0x1de
 4836 0f2f 0B       		.uleb128 0xb
 4837 0f30 062B0000 		.4byte	.LASF479
 4838 0f34 DF01     		.2byte	0x1df
 4839 0f36 0B       		.uleb128 0xb
 4840 0f37 493A0000 		.4byte	.LASF480
 4841 0f3b E001     		.2byte	0x1e0
 4842 0f3d 0B       		.uleb128 0xb
 4843 0f3e 421F0000 		.4byte	.LASF481
 4844 0f42 E101     		.2byte	0x1e1
 4845 0f44 0B       		.uleb128 0xb
 4846 0f45 2A100000 		.4byte	.LASF482
 4847 0f49 E201     		.2byte	0x1e2
 4848 0f4b 0B       		.uleb128 0xb
 4849 0f4c AF3C0000 		.4byte	.LASF483
 4850 0f50 E301     		.2byte	0x1e3
 4851 0f52 0B       		.uleb128 0xb
 4852 0f53 40130000 		.4byte	.LASF484
 4853 0f57 E401     		.2byte	0x1e4
 4854 0f59 0B       		.uleb128 0xb
 4855 0f5a 9B220000 		.4byte	.LASF485
 4856 0f5e E501     		.2byte	0x1e5
 4857 0f60 0B       		.uleb128 0xb
 4858 0f61 08180000 		.4byte	.LASF486
 4859 0f65 E601     		.2byte	0x1e6
 4860 0f67 0B       		.uleb128 0xb
 4861 0f68 9A420000 		.4byte	.LASF487
 4862 0f6c E701     		.2byte	0x1e7
 4863 0f6e 0B       		.uleb128 0xb
 4864 0f6f E2150000 		.4byte	.LASF488
 4865 0f73 E801     		.2byte	0x1e8
 4866 0f75 0B       		.uleb128 0xb
 4867 0f76 32150000 		.4byte	.LASF489
 4868 0f7a E901     		.2byte	0x1e9
 4869 0f7c 0B       		.uleb128 0xb
 4870 0f7d 74320000 		.4byte	.LASF490
 4871 0f81 EA01     		.2byte	0x1ea
 4872 0f83 0B       		.uleb128 0xb
 4873 0f84 6C3A0000 		.4byte	.LASF491
 4874 0f88 EB01     		.2byte	0x1eb
 4875 0f8a 0B       		.uleb128 0xb
 4876 0f8b EC360000 		.4byte	.LASF492
 4877 0f8f EC01     		.2byte	0x1ec
 4878 0f91 0B       		.uleb128 0xb
 4879 0f92 90370000 		.4byte	.LASF493
ARM GAS  C:\Users\run1009\AppData\Local\Temp\ccJxhBPK.s 			page 118


 4880 0f96 ED01     		.2byte	0x1ed
 4881 0f98 0B       		.uleb128 0xb
 4882 0f99 0A240000 		.4byte	.LASF494
 4883 0f9d EE01     		.2byte	0x1ee
 4884 0f9f 0B       		.uleb128 0xb
 4885 0fa0 55300000 		.4byte	.LASF495
 4886 0fa4 EF01     		.2byte	0x1ef
 4887 0fa6 0B       		.uleb128 0xb
 4888 0fa7 A8170000 		.4byte	.LASF496
 4889 0fab F001     		.2byte	0x1f0
 4890 0fad 0B       		.uleb128 0xb
 4891 0fae BD3D0000 		.4byte	.LASF497
 4892 0fb2 F101     		.2byte	0x1f1
 4893 0fb4 0B       		.uleb128 0xb
 4894 0fb5 3C1E0000 		.4byte	.LASF498
 4895 0fb9 F201     		.2byte	0x1f2
 4896 0fbb 0B       		.uleb128 0xb
 4897 0fbc 16310000 		.4byte	.LASF499
 4898 0fc0 F301     		.2byte	0x1f3
 4899 0fc2 0B       		.uleb128 0xb
 4900 0fc3 1C130000 		.4byte	.LASF500
 4901 0fc7 F401     		.2byte	0x1f4
 4902 0fc9 0B       		.uleb128 0xb
 4903 0fca E93C0000 		.4byte	.LASF501
 4904 0fce F501     		.2byte	0x1f5
 4905 0fd0 0B       		.uleb128 0xb
 4906 0fd1 A90C0000 		.4byte	.LASF502
 4907 0fd5 F601     		.2byte	0x1f6
 4908 0fd7 0B       		.uleb128 0xb
 4909 0fd8 77380000 		.4byte	.LASF503
 4910 0fdc F701     		.2byte	0x1f7
 4911 0fde 0B       		.uleb128 0xb
 4912 0fdf 4F320000 		.4byte	.LASF504
 4913 0fe3 F801     		.2byte	0x1f8
 4914 0fe5 0B       		.uleb128 0xb
 4915 0fe6 62310000 		.4byte	.LASF505
 4916 0fea F901     		.2byte	0x1f9
 4917 0fec 0B       		.uleb128 0xb
 4918 0fed 7E120000 		.4byte	.LASF506
 4919 0ff1 FA01     		.2byte	0x1fa
 4920 0ff3 0B       		.uleb128 0xb
 4921 0ff4 2C140000 		.4byte	.LASF507
 4922 0ff8 FB01     		.2byte	0x1fb
 4923 0ffa 0B       		.uleb128 0xb
 4924 0ffb 88050000 		.4byte	.LASF508
 4925 0fff FC01     		.2byte	0x1fc
 4926 1001 0B       		.uleb128 0xb
 4927 1002 49140000 		.4byte	.LASF509
 4928 1006 FD01     		.2byte	0x1fd
 4929 1008 0B       		.uleb128 0xb
 4930 1009 21260000 		.4byte	.LASF510
 4931 100d FE01     		.2byte	0x1fe
 4932 100f 0B       		.uleb128 0xb
 4933 1010 C6050000 		.4byte	.LASF511
 4934 1014 FF01     		.2byte	0x1ff
 4935 1016 0B       		.uleb128 0xb
 4936 1017 8D300000 		.4byte	.LASF512
ARM GAS  C:\Users\run1009\AppData\Local\Temp\ccJxhBPK.s 			page 119


 4937 101b 0002     		.2byte	0x200
 4938 101d 0B       		.uleb128 0xb
 4939 101e 57440000 		.4byte	.LASF513
 4940 1022 0102     		.2byte	0x201
 4941 1024 0B       		.uleb128 0xb
 4942 1025 2B020000 		.4byte	.LASF514
 4943 1029 0202     		.2byte	0x202
 4944 102b 0B       		.uleb128 0xb
 4945 102c A1070000 		.4byte	.LASF515
 4946 1030 0302     		.2byte	0x203
 4947 1032 0B       		.uleb128 0xb
 4948 1033 8F150000 		.4byte	.LASF516
 4949 1037 0402     		.2byte	0x204
 4950 1039 0B       		.uleb128 0xb
 4951 103a 802D0000 		.4byte	.LASF517
 4952 103e 0502     		.2byte	0x205
 4953 1040 0B       		.uleb128 0xb
 4954 1041 46190000 		.4byte	.LASF518
 4955 1045 0602     		.2byte	0x206
 4956 1047 0B       		.uleb128 0xb
 4957 1048 583B0000 		.4byte	.LASF519
 4958 104c 0702     		.2byte	0x207
 4959 104e 0B       		.uleb128 0xb
 4960 104f 9D080000 		.4byte	.LASF520
 4961 1053 0802     		.2byte	0x208
 4962 1055 0B       		.uleb128 0xb
 4963 1056 65360000 		.4byte	.LASF521
 4964 105a 0902     		.2byte	0x209
 4965 105c 0B       		.uleb128 0xb
 4966 105d 2C180000 		.4byte	.LASF522
 4967 1061 0A02     		.2byte	0x20a
 4968 1063 0B       		.uleb128 0xb
 4969 1064 D8140000 		.4byte	.LASF523
 4970 1068 0B02     		.2byte	0x20b
 4971 106a 0B       		.uleb128 0xb
 4972 106b 89450000 		.4byte	.LASF524
 4973 106f 0C02     		.2byte	0x20c
 4974 1071 0B       		.uleb128 0xb
 4975 1072 C7440000 		.4byte	.LASF525
 4976 1076 0D02     		.2byte	0x20d
 4977 1078 0B       		.uleb128 0xb
 4978 1079 68260000 		.4byte	.LASF526
 4979 107d 0E02     		.2byte	0x20e
 4980 107f 0B       		.uleb128 0xb
 4981 1080 A9300000 		.4byte	.LASF527
 4982 1084 0F02     		.2byte	0x20f
 4983 1086 0B       		.uleb128 0xb
 4984 1087 631D0000 		.4byte	.LASF528
 4985 108b 1002     		.2byte	0x210
 4986 108d 0B       		.uleb128 0xb
 4987 108e 27230000 		.4byte	.LASF529
 4988 1092 1102     		.2byte	0x211
 4989 1094 0B       		.uleb128 0xb
 4990 1095 E4130000 		.4byte	.LASF530
 4991 1099 1202     		.2byte	0x212
 4992 109b 0B       		.uleb128 0xb
 4993 109c 2D0B0000 		.4byte	.LASF531
ARM GAS  C:\Users\run1009\AppData\Local\Temp\ccJxhBPK.s 			page 120


 4994 10a0 1302     		.2byte	0x213
 4995 10a2 0B       		.uleb128 0xb
 4996 10a3 BE220000 		.4byte	.LASF532
 4997 10a7 1402     		.2byte	0x214
 4998 10a9 0B       		.uleb128 0xb
 4999 10aa 633E0000 		.4byte	.LASF533
 5000 10ae 1502     		.2byte	0x215
 5001 10b0 0B       		.uleb128 0xb
 5002 10b1 BD380000 		.4byte	.LASF534
 5003 10b5 1602     		.2byte	0x216
 5004 10b7 0B       		.uleb128 0xb
 5005 10b8 1C2F0000 		.4byte	.LASF535
 5006 10bc 1702     		.2byte	0x217
 5007 10be 0B       		.uleb128 0xb
 5008 10bf A83E0000 		.4byte	.LASF536
 5009 10c3 1802     		.2byte	0x218
 5010 10c5 0B       		.uleb128 0xb
 5011 10c6 75160000 		.4byte	.LASF537
 5012 10ca 1902     		.2byte	0x219
 5013 10cc 0B       		.uleb128 0xb
 5014 10cd EA350000 		.4byte	.LASF538
 5015 10d1 1A02     		.2byte	0x21a
 5016 10d3 0B       		.uleb128 0xb
 5017 10d4 C5070000 		.4byte	.LASF539
 5018 10d8 1B02     		.2byte	0x21b
 5019 10da 0B       		.uleb128 0xb
 5020 10db 76420000 		.4byte	.LASF540
 5021 10df 1C02     		.2byte	0x21c
 5022 10e1 0B       		.uleb128 0xb
 5023 10e2 983D0000 		.4byte	.LASF541
 5024 10e6 1D02     		.2byte	0x21d
 5025 10e8 0B       		.uleb128 0xb
 5026 10e9 E1320000 		.4byte	.LASF542
 5027 10ed 1E02     		.2byte	0x21e
 5028 10ef 0B       		.uleb128 0xb
 5029 10f0 871D0000 		.4byte	.LASF543
 5030 10f4 1F02     		.2byte	0x21f
 5031 10f6 0B       		.uleb128 0xb
 5032 10f7 6A190000 		.4byte	.LASF544
 5033 10fb 2002     		.2byte	0x220
 5034 10fd 0B       		.uleb128 0xb
 5035 10fe 61290000 		.4byte	.LASF545
 5036 1102 2102     		.2byte	0x221
 5037 1104 0B       		.uleb128 0xb
 5038 1105 F2430000 		.4byte	.LASF546
 5039 1109 2202     		.2byte	0x222
 5040 110b 0B       		.uleb128 0xb
 5041 110c DF210000 		.4byte	.LASF547
 5042 1110 2302     		.2byte	0x223
 5043 1112 0B       		.uleb128 0xb
 5044 1113 B81D0000 		.4byte	.LASF548
 5045 1117 2402     		.2byte	0x224
 5046 1119 0B       		.uleb128 0xb
 5047 111a DE0B0000 		.4byte	.LASF549
 5048 111e 00E0     		.2byte	0xe000
 5049 1120 00       		.byte	0
 5050 1121 09       		.uleb128 0x9
ARM GAS  C:\Users\run1009\AppData\Local\Temp\ccJxhBPK.s 			page 121


 5051 1122 01       		.byte	0x1
 5052 1123 37000000 		.4byte	0x37
 5053 1127 0A       		.byte	0xa
 5054 1128 5A08     		.2byte	0x85a
 5055 112a 59110000 		.4byte	0x1159
 5056 112e 0A       		.uleb128 0xa
 5057 112f 8E190000 		.4byte	.LASF550
 5058 1133 00       		.byte	0
 5059 1134 0A       		.uleb128 0xa
 5060 1135 D83D0000 		.4byte	.LASF551
 5061 1139 01       		.byte	0x1
 5062 113a 0A       		.uleb128 0xa
 5063 113b 06130000 		.4byte	.LASF552
 5064 113f 02       		.byte	0x2
 5065 1140 0A       		.uleb128 0xa
 5066 1141 8D020000 		.4byte	.LASF553
 5067 1145 03       		.byte	0x3
 5068 1146 0A       		.uleb128 0xa
 5069 1147 7A1C0000 		.4byte	.LASF554
 5070 114b 04       		.byte	0x4
 5071 114c 0A       		.uleb128 0xa
 5072 114d CD0D0000 		.4byte	.LASF555
 5073 1151 05       		.byte	0x5
 5074 1152 0A       		.uleb128 0xa
 5075 1153 231E0000 		.4byte	.LASF556
 5076 1157 06       		.byte	0x6
 5077 1158 00       		.byte	0
 5078 1159 05       		.uleb128 0x5
 5079 115a 02220000 		.4byte	.LASF557
 5080 115e 0A       		.byte	0xa
 5081 115f 6808     		.2byte	0x868
 5082 1161 21110000 		.4byte	0x1121
 5083 1165 09       		.uleb128 0x9
 5084 1166 01       		.byte	0x1
 5085 1167 37000000 		.4byte	0x37
 5086 116b 0A       		.byte	0xa
 5087 116c 9D08     		.2byte	0x89d
 5088 116e 91110000 		.4byte	0x1191
 5089 1172 0A       		.uleb128 0xa
 5090 1173 661F0000 		.4byte	.LASF558
 5091 1177 00       		.byte	0
 5092 1178 0A       		.uleb128 0xa
 5093 1179 CF210000 		.4byte	.LASF559
 5094 117d 01       		.byte	0x1
 5095 117e 0A       		.uleb128 0xa
 5096 117f DD100000 		.4byte	.LASF560
 5097 1183 02       		.byte	0x2
 5098 1184 0A       		.uleb128 0xa
 5099 1185 45270000 		.4byte	.LASF561
 5100 1189 03       		.byte	0x3
 5101 118a 0A       		.uleb128 0xa
 5102 118b DB360000 		.4byte	.LASF562
 5103 118f 04       		.byte	0x4
 5104 1190 00       		.byte	0
 5105 1191 12       		.uleb128 0x12
 5106 1192 44       		.byte	0x44
 5107 1193 0B       		.byte	0xb
ARM GAS  C:\Users\run1009\AppData\Local\Temp\ccJxhBPK.s 			page 122


 5108 1194 16       		.byte	0x16
 5109 1195 61120000 		.4byte	0x1261
 5110 1199 13       		.uleb128 0x13
 5111 119a 910B0000 		.4byte	.LASF563
 5112 119e 0B       		.byte	0xb
 5113 119f 1A       		.byte	0x1a
 5114 11a0 CF030000 		.4byte	0x3cf
 5115 11a4 00       		.byte	0
 5116 11a5 13       		.uleb128 0x13
 5117 11a6 873E0000 		.4byte	.LASF564
 5118 11aa 0B       		.byte	0xb
 5119 11ab 1D       		.byte	0x1d
 5120 11ac 81000000 		.4byte	0x81
 5121 11b0 04       		.byte	0x4
 5122 11b1 13       		.uleb128 0x13
 5123 11b2 230D0000 		.4byte	.LASF565
 5124 11b6 0B       		.byte	0xb
 5125 11b7 20       		.byte	0x20
 5126 11b8 B1000000 		.4byte	0xb1
 5127 11bc 08       		.byte	0x8
 5128 11bd 13       		.uleb128 0x13
 5129 11be C4340000 		.4byte	.LASF566
 5130 11c2 0B       		.byte	0xb
 5131 11c3 23       		.byte	0x23
 5132 11c4 B1000000 		.4byte	0xb1
 5133 11c8 0C       		.byte	0xc
 5134 11c9 13       		.uleb128 0x13
 5135 11ca 91010000 		.4byte	.LASF567
 5136 11ce 0B       		.byte	0xb
 5137 11cf 26       		.byte	0x26
 5138 11d0 3E000000 		.4byte	0x3e
 5139 11d4 10       		.byte	0x10
 5140 11d5 14       		.uleb128 0x14
 5141 11d6 757600   		.ascii	"uv\000"
 5142 11d9 0B       		.byte	0xb
 5143 11da 29       		.byte	0x29
 5144 11db B1000000 		.4byte	0xb1
 5145 11df 14       		.byte	0x14
 5146 11e0 13       		.uleb128 0x13
 5147 11e1 58290000 		.4byte	.LASF568
 5148 11e5 0B       		.byte	0xb
 5149 11e6 2C       		.byte	0x2c
 5150 11e7 B1000000 		.4byte	0xb1
 5151 11eb 18       		.byte	0x18
 5152 11ec 13       		.uleb128 0x13
 5153 11ed 25250000 		.4byte	.LASF569
 5154 11f1 0B       		.byte	0xb
 5155 11f2 2F       		.byte	0x2f
 5156 11f3 B1000000 		.4byte	0xb1
 5157 11f7 1C       		.byte	0x1c
 5158 11f8 14       		.uleb128 0x14
 5159 11f9 646900   		.ascii	"di\000"
 5160 11fc 0B       		.byte	0xb
 5161 11fd 32       		.byte	0x32
 5162 11fe B1000000 		.4byte	0xb1
 5163 1202 20       		.byte	0x20
 5164 1203 13       		.uleb128 0x13
ARM GAS  C:\Users\run1009\AppData\Local\Temp\ccJxhBPK.s 			page 123


 5165 1204 2A370000 		.4byte	.LASF570
 5166 1208 0B       		.byte	0xb
 5167 1209 35       		.byte	0x35
 5168 120a B1000000 		.4byte	0xb1
 5169 120e 24       		.byte	0x24
 5170 120f 14       		.uleb128 0x14
 5171 1210 617800   		.ascii	"ax\000"
 5172 1213 0B       		.byte	0xb
 5173 1214 38       		.byte	0x38
 5174 1215 B1000000 		.4byte	0xb1
 5175 1219 28       		.byte	0x28
 5176 121a 14       		.uleb128 0x14
 5177 121b 617900   		.ascii	"ay\000"
 5178 121e 0B       		.byte	0xb
 5179 121f 3B       		.byte	0x3b
 5180 1220 B1000000 		.4byte	0xb1
 5181 1224 2C       		.byte	0x2c
 5182 1225 14       		.uleb128 0x14
 5183 1226 617A00   		.ascii	"az\000"
 5184 1229 0B       		.byte	0xb
 5185 122a 3E       		.byte	0x3e
 5186 122b B1000000 		.4byte	0xb1
 5187 122f 30       		.byte	0x30
 5188 1230 13       		.uleb128 0x13
 5189 1231 782D0000 		.4byte	.LASF571
 5190 1235 0B       		.byte	0xb
 5191 1236 41       		.byte	0x41
 5192 1237 B1000000 		.4byte	0xb1
 5193 123b 34       		.byte	0x34
 5194 123c 13       		.uleb128 0x13
 5195 123d 3A310000 		.4byte	.LASF166
 5196 1241 0B       		.byte	0xb
 5197 1242 46       		.byte	0x46
 5198 1243 A5000000 		.4byte	0xa5
 5199 1247 38       		.byte	0x38
 5200 1248 13       		.uleb128 0x13
 5201 1249 2F370000 		.4byte	.LASF572
 5202 124d 0B       		.byte	0xb
 5203 124e 49       		.byte	0x49
 5204 124f B1000000 		.4byte	0xb1
 5205 1253 3C       		.byte	0x3c
 5206 1254 13       		.uleb128 0x13
 5207 1255 92080000 		.4byte	.LASF573
 5208 1259 0B       		.byte	0xb
 5209 125a 4B       		.byte	0x4b
 5210 125b 81000000 		.4byte	0x81
 5211 125f 40       		.byte	0x40
 5212 1260 00       		.byte	0
 5213 1261 03       		.uleb128 0x3
 5214 1262 FA010000 		.4byte	.LASF574
 5215 1266 0B       		.byte	0xb
 5216 1267 4D       		.byte	0x4d
 5217 1268 91110000 		.4byte	0x1191
 5218 126c 15       		.uleb128 0x15
 5219 126d 71230000 		.4byte	.LASF591
 5220 1271 01       		.byte	0x1
 5221 1272 47       		.byte	0x47
ARM GAS  C:\Users\run1009\AppData\Local\Temp\ccJxhBPK.s 			page 124


 5222 1273 00000000 		.4byte	.LFB36
 5223 1277 240F0000 		.4byte	.LFE36-.LFB36
 5224 127b 01       		.uleb128 0x1
 5225 127c 9C       		.byte	0x9c
 5226 127d BB140000 		.4byte	0x14bb
 5227 1281 16       		.uleb128 0x16
 5228 1282 74000000 		.4byte	.LASF575
 5229 1286 01       		.byte	0x1
 5230 1287 47       		.byte	0x47
 5231 1288 99000000 		.4byte	0x99
 5232 128c 03       		.uleb128 0x3
 5233 128d 91       		.byte	0x91
 5234 128e B47E     		.sleb128 -204
 5235 1290 16       		.uleb128 0x16
 5236 1291 C22E0000 		.4byte	.LASF576
 5237 1295 01       		.byte	0x1
 5238 1296 47       		.byte	0x47
 5239 1297 DE000000 		.4byte	0xde
 5240 129b 03       		.uleb128 0x3
 5241 129c 91       		.byte	0x91
 5242 129d B07E     		.sleb128 -208
 5243 129f 17       		.uleb128 0x17
 5244 12a0 B50F0000 		.4byte	.LASF577
 5245 12a4 01       		.byte	0x1
 5246 12a5 4A       		.byte	0x4a
 5247 12a6 BD080000 		.4byte	0x8bd
 5248 12aa 03       		.uleb128 0x3
 5249 12ab 91       		.byte	0x91
 5250 12ac 987F     		.sleb128 -104
 5251 12ae 17       		.uleb128 0x17
 5252 12af 47050000 		.4byte	.LASF578
 5253 12b3 01       		.byte	0x1
 5254 12b4 4B       		.byte	0x4b
 5255 12b5 FF080000 		.4byte	0x8ff
 5256 12b9 03       		.uleb128 0x3
 5257 12ba 91       		.byte	0x91
 5258 12bb 8C7F     		.sleb128 -116
 5259 12bd 17       		.uleb128 0x17
 5260 12be 35450000 		.4byte	.LASF579
 5261 12c2 01       		.byte	0x1
 5262 12c3 4C       		.byte	0x4c
 5263 12c4 F1050000 		.4byte	0x5f1
 5264 12c8 03       		.uleb128 0x3
 5265 12c9 91       		.byte	0x91
 5266 12ca F87E     		.sleb128 -136
 5267 12cc 17       		.uleb128 0x17
 5268 12cd 65330000 		.4byte	.LASF580
 5269 12d1 01       		.byte	0x1
 5270 12d2 4D       		.byte	0x4d
 5271 12d3 C8080000 		.4byte	0x8c8
 5272 12d7 03       		.uleb128 0x3
 5273 12d8 91       		.byte	0x91
 5274 12d9 E87E     		.sleb128 -152
 5275 12db 17       		.uleb128 0x17
 5276 12dc 061A0000 		.4byte	.LASF581
 5277 12e0 01       		.byte	0x1
 5278 12e1 4E       		.byte	0x4e
ARM GAS  C:\Users\run1009\AppData\Local\Temp\ccJxhBPK.s 			page 125


 5279 12e2 83030000 		.4byte	0x383
 5280 12e6 02       		.uleb128 0x2
 5281 12e7 91       		.byte	0x91
 5282 12e8 5A       		.sleb128 -38
 5283 12e9 17       		.uleb128 0x17
 5284 12ea E5200000 		.4byte	.LASF582
 5285 12ee 01       		.byte	0x1
 5286 12ef 4F       		.byte	0x4f
 5287 12f0 FF080000 		.4byte	0x8ff
 5288 12f4 03       		.uleb128 0x3
 5289 12f5 91       		.byte	0x91
 5290 12f6 DC7E     		.sleb128 -164
 5291 12f8 17       		.uleb128 0x17
 5292 12f9 990B0000 		.4byte	.LASF583
 5293 12fd 01       		.byte	0x1
 5294 12fe 50       		.byte	0x50
 5295 12ff F4080000 		.4byte	0x8f4
 5296 1303 03       		.uleb128 0x3
 5297 1304 91       		.byte	0x91
 5298 1305 D87E     		.sleb128 -168
 5299 1307 17       		.uleb128 0x17
 5300 1308 38370000 		.4byte	.LASF584
 5301 130c 01       		.byte	0x1
 5302 130d 51       		.byte	0x51
 5303 130e 8D000000 		.4byte	0x8d
 5304 1312 05       		.uleb128 0x5
 5305 1313 03       		.byte	0x3
 5306 1314 14000000 		.4byte	received_node_addr.8810
 5307 1318 17       		.uleb128 0x17
 5308 1319 360A0000 		.4byte	.LASF585
 5309 131d 01       		.byte	0x1
 5310 131e 52       		.byte	0x52
 5311 131f 81000000 		.4byte	0x81
 5312 1323 05       		.uleb128 0x5
 5313 1324 03       		.byte	0x3
 5314 1325 12000000 		.4byte	received_node_addr_type.8811
 5315 1329 17       		.uleb128 0x17
 5316 132a FB2A0000 		.4byte	.LASF586
 5317 132e 01       		.byte	0x1
 5318 132f 56       		.byte	0x56
 5319 1330 C3030000 		.4byte	0x3c3
 5320 1334 03       		.uleb128 0x3
 5321 1335 91       		.byte	0x91
 5322 1336 D07E     		.sleb128 -176
 5323 1338 18       		.uleb128 0x18
 5324 1339 00000000 		.4byte	.Ldebug_ranges0+0
 5325 133d 19       		.uleb128 0x19
 5326 133e 74656D00 		.ascii	"tem\000"
 5327 1342 01       		.byte	0x1
 5328 1343 3303     		.2byte	0x333
 5329 1345 E0000000 		.4byte	0xe0
 5330 1349 03       		.uleb128 0x3
 5331 134a 91       		.byte	0x91
 5332 134b A87F     		.sleb128 -88
 5333 134d 1A       		.uleb128 0x1a
 5334 134e B6020000 		.4byte	.LBB3
 5335 1352 24020000 		.4byte	.LBE3-.LBB3
ARM GAS  C:\Users\run1009\AppData\Local\Temp\ccJxhBPK.s 			page 126


 5336 1356 81130000 		.4byte	0x1381
 5337 135a 1B       		.uleb128 0x1b
 5338 135b 8F180000 		.4byte	.LASF587
 5339 135f 01       		.byte	0x1
 5340 1360 4A01     		.2byte	0x14a
 5341 1362 E0000000 		.4byte	0xe0
 5342 1366 02       		.uleb128 0x2
 5343 1367 91       		.byte	0x91
 5344 1368 54       		.sleb128 -44
 5345 1369 1C       		.uleb128 0x1c
 5346 136a 2C030000 		.4byte	.LBB4
 5347 136e AA000000 		.4byte	.LBE4-.LBB4
 5348 1372 19       		.uleb128 0x19
 5349 1373 6900     		.ascii	"i\000"
 5350 1375 01       		.byte	0x1
 5351 1376 4601     		.2byte	0x146
 5352 1378 68000000 		.4byte	0x68
 5353 137c 02       		.uleb128 0x2
 5354 137d 91       		.byte	0x91
 5355 137e 6C       		.sleb128 -20
 5356 137f 00       		.byte	0
 5357 1380 00       		.byte	0
 5358 1381 1C       		.uleb128 0x1c
 5359 1382 88060000 		.4byte	.LBB5
 5360 1386 E4040000 		.4byte	.LBE5-.LBB5
 5361 138a 1B       		.uleb128 0x1b
 5362 138b 5F1E0000 		.4byte	.LASF588
 5363 138f 01       		.byte	0x1
 5364 1390 1C02     		.2byte	0x21c
 5365 1392 68000000 		.4byte	0x68
 5366 1396 02       		.uleb128 0x2
 5367 1397 91       		.byte	0x91
 5368 1398 68       		.sleb128 -24
 5369 1399 1A       		.uleb128 0x1a
 5370 139a 90060000 		.4byte	.LBB6
 5371 139e 98000000 		.4byte	.LBE6-.LBB6
 5372 13a2 B4130000 		.4byte	0x13b4
 5373 13a6 19       		.uleb128 0x19
 5374 13a7 6900     		.ascii	"i\000"
 5375 13a9 01       		.byte	0x1
 5376 13aa 1E02     		.2byte	0x21e
 5377 13ac 81000000 		.4byte	0x81
 5378 13b0 02       		.uleb128 0x2
 5379 13b1 91       		.byte	0x91
 5380 13b2 67       		.sleb128 -25
 5381 13b3 00       		.byte	0
 5382 13b4 1C       		.uleb128 0x1c
 5383 13b5 34070000 		.4byte	.LBB7
 5384 13b9 2E040000 		.4byte	.LBE7-.LBB7
 5385 13bd 1B       		.uleb128 0x1b
 5386 13be 641B0000 		.4byte	.LASF161
 5387 13c2 01       		.byte	0x1
 5388 13c3 2E02     		.2byte	0x22e
 5389 13c5 BB140000 		.4byte	0x14bb
 5390 13c9 03       		.uleb128 0x3
 5391 13ca 91       		.byte	0x91
 5392 13cb CC7E     		.sleb128 -180
ARM GAS  C:\Users\run1009\AppData\Local\Temp\ccJxhBPK.s 			page 127


 5393 13cd 1B       		.uleb128 0x1b
 5394 13ce 3A310000 		.4byte	.LASF166
 5395 13d2 01       		.byte	0x1
 5396 13d3 3302     		.2byte	0x233
 5397 13d5 CB140000 		.4byte	0x14cb
 5398 13d9 03       		.uleb128 0x3
 5399 13da 91       		.byte	0x91
 5400 13db C07E     		.sleb128 -192
 5401 13dd 1B       		.uleb128 0x1b
 5402 13de 20090000 		.4byte	.LASF589
 5403 13e2 01       		.byte	0x1
 5404 13e3 4502     		.2byte	0x245
 5405 13e5 68000000 		.4byte	0x68
 5406 13e9 02       		.uleb128 0x2
 5407 13ea 91       		.byte	0x91
 5408 13eb 50       		.sleb128 -48
 5409 13ec 1B       		.uleb128 0x1b
 5410 13ed 230D0000 		.4byte	.LASF565
 5411 13f1 01       		.byte	0x1
 5412 13f2 4F02     		.2byte	0x24f
 5413 13f4 E0000000 		.4byte	0xe0
 5414 13f8 02       		.uleb128 0x2
 5415 13f9 91       		.byte	0x91
 5416 13fa 4C       		.sleb128 -52
 5417 13fb 19       		.uleb128 0x19
 5418 13fc 6C6900   		.ascii	"li\000"
 5419 13ff 01       		.byte	0x1
 5420 1400 5302     		.2byte	0x253
 5421 1402 BB140000 		.4byte	0x14bb
 5422 1406 03       		.uleb128 0x3
 5423 1407 91       		.byte	0x91
 5424 1408 BC7E     		.sleb128 -196
 5425 140a 1B       		.uleb128 0x1b
 5426 140b 25250000 		.4byte	.LASF569
 5427 140f 01       		.byte	0x1
 5428 1410 5802     		.2byte	0x258
 5429 1412 E0000000 		.4byte	0xe0
 5430 1416 02       		.uleb128 0x2
 5431 1417 91       		.byte	0x91
 5432 1418 48       		.sleb128 -56
 5433 1419 1B       		.uleb128 0x1b
 5434 141a C4340000 		.4byte	.LASF566
 5435 141e 01       		.byte	0x1
 5436 141f 5C02     		.2byte	0x25c
 5437 1421 E0000000 		.4byte	0xe0
 5438 1425 02       		.uleb128 0x2
 5439 1426 91       		.byte	0x91
 5440 1427 44       		.sleb128 -60
 5441 1428 19       		.uleb128 0x19
 5442 1429 757600   		.ascii	"uv\000"
 5443 142c 01       		.byte	0x1
 5444 142d 6002     		.2byte	0x260
 5445 142f E0000000 		.4byte	0xe0
 5446 1433 02       		.uleb128 0x2
 5447 1434 91       		.byte	0x91
 5448 1435 40       		.sleb128 -64
 5449 1436 1B       		.uleb128 0x1b
ARM GAS  C:\Users\run1009\AppData\Local\Temp\ccJxhBPK.s 			page 128


 5450 1437 38290000 		.4byte	.LASF590
 5451 143b 01       		.byte	0x1
 5452 143c 6402     		.2byte	0x264
 5453 143e E0000000 		.4byte	0xe0
 5454 1442 03       		.uleb128 0x3
 5455 1443 91       		.byte	0x91
 5456 1444 BC7F     		.sleb128 -68
 5457 1446 19       		.uleb128 0x19
 5458 1447 646900   		.ascii	"di\000"
 5459 144a 01       		.byte	0x1
 5460 144b 6802     		.2byte	0x268
 5461 144d E0000000 		.4byte	0xe0
 5462 1451 03       		.uleb128 0x3
 5463 1452 91       		.byte	0x91
 5464 1453 B87F     		.sleb128 -72
 5465 1455 1B       		.uleb128 0x1b
 5466 1456 2A370000 		.4byte	.LASF570
 5467 145a 01       		.byte	0x1
 5468 145b 6C02     		.2byte	0x26c
 5469 145d E0000000 		.4byte	0xe0
 5470 1461 03       		.uleb128 0x3
 5471 1462 91       		.byte	0x91
 5472 1463 B47F     		.sleb128 -76
 5473 1465 1B       		.uleb128 0x1b
 5474 1466 782D0000 		.4byte	.LASF571
 5475 146a 01       		.byte	0x1
 5476 146b 7002     		.2byte	0x270
 5477 146d E0000000 		.4byte	0xe0
 5478 1471 03       		.uleb128 0x3
 5479 1472 91       		.byte	0x91
 5480 1473 B07F     		.sleb128 -80
 5481 1475 1B       		.uleb128 0x1b
 5482 1476 2F370000 		.4byte	.LASF572
 5483 147a 01       		.byte	0x1
 5484 147b 7402     		.2byte	0x274
 5485 147d E0000000 		.4byte	0xe0
 5486 1481 03       		.uleb128 0x3
 5487 1482 91       		.byte	0x91
 5488 1483 AC7F     		.sleb128 -84
 5489 1485 1A       		.uleb128 0x1a
 5490 1486 2C080000 		.4byte	.LBB8
 5491 148a 48000000 		.4byte	.LBE8-.LBB8
 5492 148e A0140000 		.4byte	0x14a0
 5493 1492 19       		.uleb128 0x19
 5494 1493 6900     		.ascii	"i\000"
 5495 1495 01       		.byte	0x1
 5496 1496 4702     		.2byte	0x247
 5497 1498 68000000 		.4byte	0x68
 5498 149c 02       		.uleb128 0x2
 5499 149d 91       		.byte	0x91
 5500 149e 60       		.sleb128 -32
 5501 149f 00       		.byte	0
 5502 14a0 1C       		.uleb128 0x1c
 5503 14a1 A00A0000 		.4byte	.LBB9
 5504 14a5 96000000 		.4byte	.LBE9-.LBB9
 5505 14a9 19       		.uleb128 0x19
 5506 14aa 6900     		.ascii	"i\000"
ARM GAS  C:\Users\run1009\AppData\Local\Temp\ccJxhBPK.s 			page 129


 5507 14ac 01       		.byte	0x1
 5508 14ad 8402     		.2byte	0x284
 5509 14af 68000000 		.4byte	0x68
 5510 14b3 02       		.uleb128 0x2
 5511 14b4 91       		.byte	0x91
 5512 14b5 5C       		.sleb128 -36
 5513 14b6 00       		.byte	0
 5514 14b7 00       		.byte	0
 5515 14b8 00       		.byte	0
 5516 14b9 00       		.byte	0
 5517 14ba 00       		.byte	0
 5518 14bb 0E       		.uleb128 0xe
 5519 14bc BF000000 		.4byte	0xbf
 5520 14c0 CB140000 		.4byte	0x14cb
 5521 14c4 0F       		.uleb128 0xf
 5522 14c5 D7000000 		.4byte	0xd7
 5523 14c9 00       		.byte	0
 5524 14ca 00       		.byte	0
 5525 14cb 0E       		.uleb128 0xe
 5526 14cc BF000000 		.4byte	0xbf
 5527 14d0 DB140000 		.4byte	0x14db
 5528 14d4 0F       		.uleb128 0xf
 5529 14d5 D7000000 		.4byte	0xd7
 5530 14d9 0B       		.byte	0xb
 5531 14da 00       		.byte	0
 5532 14db 1D       		.uleb128 0x1d
 5533 14dc AA400000 		.4byte	.LASF592
 5534 14e0 01       		.byte	0x1
 5535 14e1 9A03     		.2byte	0x39a
 5536 14e3 00000000 		.4byte	.LFB37
 5537 14e7 00020000 		.4byte	.LFE37-.LFB37
 5538 14eb 01       		.uleb128 0x1
 5539 14ec 9C       		.byte	0x9c
 5540 14ed 01150000 		.4byte	0x1501
 5541 14f1 1B       		.uleb128 0x1b
 5542 14f2 061A0000 		.4byte	.LASF581
 5543 14f6 01       		.byte	0x1
 5544 14f7 9C03     		.2byte	0x39c
 5545 14f9 83030000 		.4byte	0x383
 5546 14fd 02       		.uleb128 0x2
 5547 14fe 91       		.byte	0x91
 5548 14ff 6E       		.sleb128 -18
 5549 1500 00       		.byte	0
 5550 1501 1D       		.uleb128 0x1d
 5551 1502 1A340000 		.4byte	.LASF593
 5552 1506 01       		.byte	0x1
 5553 1507 4504     		.2byte	0x445
 5554 1509 00000000 		.4byte	.LFB38
 5555 150d A8000000 		.4byte	.LFE38-.LFB38
 5556 1511 01       		.uleb128 0x1
 5557 1512 9C       		.byte	0x9c
 5558 1513 27150000 		.4byte	0x1527
 5559 1517 1B       		.uleb128 0x1b
 5560 1518 061A0000 		.4byte	.LASF581
 5561 151c 01       		.byte	0x1
 5562 151d 4704     		.2byte	0x447
 5563 151f 83030000 		.4byte	0x383
ARM GAS  C:\Users\run1009\AppData\Local\Temp\ccJxhBPK.s 			page 130


 5564 1523 02       		.uleb128 0x2
 5565 1524 91       		.byte	0x91
 5566 1525 6E       		.sleb128 -18
 5567 1526 00       		.byte	0
 5568 1527 1E       		.uleb128 0x1e
 5569 1528 5C270000 		.4byte	.LASF625
 5570 152c 01       		.byte	0x1
 5571 152d 8004     		.2byte	0x480
 5572 152f 00000000 		.4byte	.LFB39
 5573 1533 B0000000 		.4byte	.LFE39-.LFB39
 5574 1537 01       		.uleb128 0x1
 5575 1538 9C       		.byte	0x9c
 5576 1539 1D       		.uleb128 0x1d
 5577 153a D4150000 		.4byte	.LASF594
 5578 153e 01       		.byte	0x1
 5579 153f C304     		.2byte	0x4c3
 5580 1541 00000000 		.4byte	.LFB40
 5581 1545 68000000 		.4byte	.LFE40-.LFB40
 5582 1549 01       		.uleb128 0x1
 5583 154a 9C       		.byte	0x9c
 5584 154b 8C150000 		.4byte	0x158c
 5585 154f 1F       		.uleb128 0x1f
 5586 1550 372F0000 		.4byte	.LASF595
 5587 1554 01       		.byte	0x1
 5588 1555 C304     		.2byte	0x4c3
 5589 1557 81000000 		.4byte	0x81
 5590 155b 02       		.uleb128 0x2
 5591 155c 91       		.byte	0x91
 5592 155d 67       		.sleb128 -25
 5593 155e 1F       		.uleb128 0x1f
 5594 155f 30440000 		.4byte	.LASF244
 5595 1563 01       		.byte	0x1
 5596 1564 C304     		.2byte	0x4c3
 5597 1566 BB070000 		.4byte	0x7bb
 5598 156a 02       		.uleb128 0x2
 5599 156b 91       		.byte	0x91
 5600 156c 64       		.sleb128 -28
 5601 156d 1F       		.uleb128 0x1f
 5602 156e 00240000 		.4byte	.LASF247
 5603 1572 01       		.byte	0x1
 5604 1573 C304     		.2byte	0x4c3
 5605 1575 AF070000 		.4byte	0x7af
 5606 1579 02       		.uleb128 0x2
 5607 157a 91       		.byte	0x91
 5608 157b 66       		.sleb128 -26
 5609 157c 1B       		.uleb128 0x1b
 5610 157d 002C0000 		.4byte	.LASF596
 5611 1581 01       		.byte	0x1
 5612 1582 C504     		.2byte	0x4c5
 5613 1584 91080000 		.4byte	0x891
 5614 1588 02       		.uleb128 0x2
 5615 1589 91       		.byte	0x91
 5616 158a 6C       		.sleb128 -20
 5617 158b 00       		.byte	0
 5618 158c 20       		.uleb128 0x20
 5619 158d 20290000 		.4byte	.LASF597
 5620 1591 0C       		.byte	0xc
ARM GAS  C:\Users\run1009\AppData\Local\Temp\ccJxhBPK.s 			page 131


 5621 1592 B602     		.2byte	0x2b6
 5622 1594 8D050000 		.4byte	0x58d
 5623 1598 20       		.uleb128 0x20
 5624 1599 81020000 		.4byte	.LASF598
 5625 159d 0A       		.byte	0xa
 5626 159e B30A     		.2byte	0xab3
 5627 15a0 59110000 		.4byte	0x1159
 5628 15a4 20       		.uleb128 0x20
 5629 15a5 AD310000 		.4byte	.LASF599
 5630 15a9 0A       		.byte	0xa
 5631 15aa B40A     		.2byte	0xab4
 5632 15ac EB070000 		.4byte	0x7eb
 5633 15b0 21       		.uleb128 0x21
 5634 15b1 07270000 		.4byte	.LASF600
 5635 15b5 0D       		.byte	0xd
 5636 15b6 22       		.byte	0x22
 5637 15b7 CB000000 		.4byte	0xcb
 5638 15bb 0E       		.uleb128 0xe
 5639 15bc 81000000 		.4byte	0x81
 5640 15c0 CB150000 		.4byte	0x15cb
 5641 15c4 0F       		.uleb128 0xf
 5642 15c5 D7000000 		.4byte	0xd7
 5643 15c9 03       		.byte	0x3
 5644 15ca 00       		.byte	0
 5645 15cb 22       		.uleb128 0x22
 5646 15cc D52C0000 		.4byte	.LASF601
 5647 15d0 01       		.byte	0x1
 5648 15d1 13       		.byte	0x13
 5649 15d2 BB150000 		.4byte	0x15bb
 5650 15d6 05       		.uleb128 0x5
 5651 15d7 03       		.byte	0x3
 5652 15d8 00000000 		.4byte	RGBData
 5653 15dc 22       		.uleb128 0x22
 5654 15dd 730A0000 		.4byte	.LASF602
 5655 15e1 01       		.byte	0x1
 5656 15e2 14       		.byte	0x14
 5657 15e3 BB150000 		.4byte	0x15bb
 5658 15e7 05       		.uleb128 0x5
 5659 15e8 03       		.byte	0x3
 5660 15e9 00000000 		.4byte	tempData
 5661 15ed 22       		.uleb128 0x22
 5662 15ee 2D190000 		.4byte	.LASF603
 5663 15f2 01       		.byte	0x1
 5664 15f3 15       		.byte	0x15
 5665 15f4 BB150000 		.4byte	0x15bb
 5666 15f8 05       		.uleb128 0x5
 5667 15f9 03       		.byte	0x3
 5668 15fa 00000000 		.4byte	recvTempData
 5669 15fe 22       		.uleb128 0x22
 5670 15ff A6120000 		.4byte	.LASF604
 5671 1603 01       		.byte	0x1
 5672 1604 16       		.byte	0x16
 5673 1605 81000000 		.4byte	0x81
 5674 1609 05       		.uleb128 0x5
 5675 160a 03       		.byte	0x3
 5676 160b 00000000 		.4byte	dataADVCounter
 5677 160f 22       		.uleb128 0x22
ARM GAS  C:\Users\run1009\AppData\Local\Temp\ccJxhBPK.s 			page 132


 5678 1610 B6250000 		.4byte	.LASF605
 5679 1614 01       		.byte	0x1
 5680 1615 17       		.byte	0x17
 5681 1616 81000000 		.4byte	0x81
 5682 161a 05       		.uleb128 0x5
 5683 161b 03       		.byte	0x3
 5684 161c 00000000 		.4byte	switch_Role
 5685 1620 22       		.uleb128 0x22
 5686 1621 1E010000 		.4byte	.LASF606
 5687 1625 01       		.byte	0x1
 5688 1626 19       		.byte	0x19
 5689 1627 8D000000 		.4byte	0x8d
 5690 162b 05       		.uleb128 0x5
 5691 162c 03       		.byte	0x3
 5692 162d 00000000 		.4byte	node_address
 5693 1631 21       		.uleb128 0x21
 5694 1632 72240000 		.4byte	.LASF607
 5695 1636 01       		.byte	0x1
 5696 1637 1A       		.byte	0x1a
 5697 1638 8D000000 		.4byte	0x8d
 5698 163c 22       		.uleb128 0x22
 5699 163d C9340000 		.4byte	.LASF608
 5700 1641 01       		.byte	0x1
 5701 1642 1D       		.byte	0x1d
 5702 1643 F4040000 		.4byte	0x4f4
 5703 1647 05       		.uleb128 0x5
 5704 1648 03       		.byte	0x3
 5705 1649 00000000 		.4byte	new_advData
 5706 164d 22       		.uleb128 0x22
 5707 164e F00C0000 		.4byte	.LASF609
 5708 1652 01       		.byte	0x1
 5709 1653 1E       		.byte	0x1e
 5710 1654 81000000 		.4byte	0x81
 5711 1658 05       		.uleb128 0x5
 5712 1659 03       		.byte	0x3
 5713 165a 00000000 		.4byte	potential_node_found
 5714 165e 22       		.uleb128 0x22
 5715 165f 39120000 		.4byte	.LASF610
 5716 1663 01       		.byte	0x1
 5717 1664 1F       		.byte	0x1f
 5718 1665 B3030000 		.4byte	0x3b3
 5719 1669 05       		.uleb128 0x5
 5720 166a 03       		.byte	0x3
 5721 166b 00000000 		.4byte	potential_node_bdAddr
 5722 166f 22       		.uleb128 0x22
 5723 1670 27040000 		.4byte	.LASF611
 5724 1674 01       		.byte	0x1
 5725 1675 20       		.byte	0x20
 5726 1676 81000000 		.4byte	0x81
 5727 167a 05       		.uleb128 0x5
 5728 167b 03       		.byte	0x3
 5729 167c 00000000 		.4byte	potential_node_bdAddrType
 5730 1680 0E       		.uleb128 0xe
 5731 1681 81000000 		.4byte	0x81
 5732 1685 90160000 		.4byte	0x1690
 5733 1689 0F       		.uleb128 0xf
 5734 168a D7000000 		.4byte	0xd7
ARM GAS  C:\Users\run1009\AppData\Local\Temp\ccJxhBPK.s 			page 133


 5735 168e 13       		.byte	0x13
 5736 168f 00       		.byte	0
 5737 1690 22       		.uleb128 0x22
 5738 1691 5B050000 		.4byte	.LASF612
 5739 1695 01       		.byte	0x1
 5740 1696 25       		.byte	0x25
 5741 1697 80160000 		.4byte	0x1680
 5742 169b 05       		.uleb128 0x5
 5743 169c 03       		.byte	0x3
 5744 169d 00000000 		.4byte	scan_tag
 5745 16a1 22       		.uleb128 0x22
 5746 16a2 C8350000 		.4byte	.LASF613
 5747 16a6 01       		.byte	0x1
 5748 16a7 29       		.byte	0x29
 5749 16a8 C3030000 		.4byte	0x3c3
 5750 16ac 05       		.uleb128 0x5
 5751 16ad 03       		.byte	0x3
 5752 16ae 00000000 		.4byte	peripAddr
 5753 16b2 22       		.uleb128 0x22
 5754 16b3 60420000 		.4byte	.LASF614
 5755 16b7 01       		.byte	0x1
 5756 16b8 2A       		.byte	0x2a
 5757 16b9 C6000000 		.4byte	0xc6
 5758 16bd 05       		.uleb128 0x5
 5759 16be 03       		.byte	0x3
 5760 16bf 00000000 		.4byte	clientConnectToDevice
 5761 16c3 22       		.uleb128 0x22
 5762 16c4 AA1D0000 		.4byte	.LASF615
 5763 16c8 01       		.byte	0x1
 5764 16c9 2B       		.byte	0x2b
 5765 16ca 81000000 		.4byte	0x81
 5766 16ce 05       		.uleb128 0x5
 5767 16cf 03       		.byte	0x3
 5768 16d0 00000000 		.4byte	ble_gap_state
 5769 16d4 22       		.uleb128 0x22
 5770 16d5 EB280000 		.4byte	.LASF616
 5771 16d9 01       		.byte	0x1
 5772 16da 2D       		.byte	0x2d
 5773 16db 81000000 		.4byte	0x81
 5774 16df 05       		.uleb128 0x5
 5775 16e0 03       		.byte	0x3
 5776 16e1 00000000 		.4byte	deviceConnected
 5777 16e5 22       		.uleb128 0x22
 5778 16e6 141B0000 		.4byte	.LASF617
 5779 16ea 01       		.byte	0x1
 5780 16eb 2E       		.byte	0x2e
 5781 16ec 81000000 		.4byte	0x81
 5782 16f0 05       		.uleb128 0x5
 5783 16f1 03       		.byte	0x3
 5784 16f2 00000000 		.4byte	restartScanning
 5785 16f6 22       		.uleb128 0x22
 5786 16f7 4E3F0000 		.4byte	.LASF618
 5787 16fb 01       		.byte	0x1
 5788 16fc 2F       		.byte	0x2f
 5789 16fd CB000000 		.4byte	0xcb
 5790 1701 05       		.uleb128 0x5
 5791 1702 03       		.byte	0x3
ARM GAS  C:\Users\run1009\AppData\Local\Temp\ccJxhBPK.s 			page 134


 5792 1703 00000000 		.4byte	centralStartedTime
 5793 1707 0E       		.uleb128 0xe
 5794 1708 BF000000 		.4byte	0xbf
 5795 170c 17170000 		.4byte	0x1717
 5796 1710 0F       		.uleb128 0xf
 5797 1711 D7000000 		.4byte	0xd7
 5798 1715 1E       		.byte	0x1e
 5799 1716 00       		.byte	0
 5800 1717 23       		.uleb128 0x23
 5801 1718 76616C00 		.ascii	"val\000"
 5802 171c 01       		.byte	0x1
 5803 171d 30       		.byte	0x30
 5804 171e 07170000 		.4byte	0x1707
 5805 1722 05       		.uleb128 0x5
 5806 1723 03       		.byte	0x3
 5807 1724 00000000 		.4byte	val
 5808 1728 22       		.uleb128 0x22
 5809 1729 69230000 		.4byte	.LASF619
 5810 172d 01       		.byte	0x1
 5811 172e 32       		.byte	0x32
 5812 172f B3030000 		.4byte	0x3b3
 5813 1733 05       		.uleb128 0x5
 5814 1734 03       		.byte	0x3
 5815 1735 00000000 		.4byte	bt_addr
 5816 1739 22       		.uleb128 0x22
 5817 173a A61E0000 		.4byte	.LASF620
 5818 173e 01       		.byte	0x1
 5819 173f 33       		.byte	0x33
 5820 1740 61120000 		.4byte	0x1261
 5821 1744 05       		.uleb128 0x5
 5822 1745 03       		.byte	0x3
 5823 1746 00000000 		.4byte	result
 5824 174a 21       		.uleb128 0x21
 5825 174b 7B040000 		.4byte	.LASF621
 5826 174f 01       		.byte	0x1
 5827 1750 35       		.byte	0x35
 5828 1751 81000000 		.4byte	0x81
 5829 1755 00       		.byte	0
 5830              		.section	.debug_abbrev,"",%progbits
 5831              	.Ldebug_abbrev0:
 5832 0000 01       		.uleb128 0x1
 5833 0001 11       		.uleb128 0x11
 5834 0002 01       		.byte	0x1
 5835 0003 25       		.uleb128 0x25
 5836 0004 0E       		.uleb128 0xe
 5837 0005 13       		.uleb128 0x13
 5838 0006 0B       		.uleb128 0xb
 5839 0007 03       		.uleb128 0x3
 5840 0008 0E       		.uleb128 0xe
 5841 0009 1B       		.uleb128 0x1b
 5842 000a 0E       		.uleb128 0xe
 5843 000b 55       		.uleb128 0x55
 5844 000c 17       		.uleb128 0x17
 5845 000d 11       		.uleb128 0x11
 5846 000e 01       		.uleb128 0x1
 5847 000f 10       		.uleb128 0x10
 5848 0010 17       		.uleb128 0x17
ARM GAS  C:\Users\run1009\AppData\Local\Temp\ccJxhBPK.s 			page 135


 5849 0011 00       		.byte	0
 5850 0012 00       		.byte	0
 5851 0013 02       		.uleb128 0x2
 5852 0014 24       		.uleb128 0x24
 5853 0015 00       		.byte	0
 5854 0016 0B       		.uleb128 0xb
 5855 0017 0B       		.uleb128 0xb
 5856 0018 3E       		.uleb128 0x3e
 5857 0019 0B       		.uleb128 0xb
 5858 001a 03       		.uleb128 0x3
 5859 001b 0E       		.uleb128 0xe
 5860 001c 00       		.byte	0
 5861 001d 00       		.byte	0
 5862 001e 03       		.uleb128 0x3
 5863 001f 16       		.uleb128 0x16
 5864 0020 00       		.byte	0
 5865 0021 03       		.uleb128 0x3
 5866 0022 0E       		.uleb128 0xe
 5867 0023 3A       		.uleb128 0x3a
 5868 0024 0B       		.uleb128 0xb
 5869 0025 3B       		.uleb128 0x3b
 5870 0026 0B       		.uleb128 0xb
 5871 0027 49       		.uleb128 0x49
 5872 0028 13       		.uleb128 0x13
 5873 0029 00       		.byte	0
 5874 002a 00       		.byte	0
 5875 002b 04       		.uleb128 0x4
 5876 002c 24       		.uleb128 0x24
 5877 002d 00       		.byte	0
 5878 002e 0B       		.uleb128 0xb
 5879 002f 0B       		.uleb128 0xb
 5880 0030 3E       		.uleb128 0x3e
 5881 0031 0B       		.uleb128 0xb
 5882 0032 03       		.uleb128 0x3
 5883 0033 08       		.uleb128 0x8
 5884 0034 00       		.byte	0
 5885 0035 00       		.byte	0
 5886 0036 05       		.uleb128 0x5
 5887 0037 16       		.uleb128 0x16
 5888 0038 00       		.byte	0
 5889 0039 03       		.uleb128 0x3
 5890 003a 0E       		.uleb128 0xe
 5891 003b 3A       		.uleb128 0x3a
 5892 003c 0B       		.uleb128 0xb
 5893 003d 3B       		.uleb128 0x3b
 5894 003e 05       		.uleb128 0x5
 5895 003f 49       		.uleb128 0x49
 5896 0040 13       		.uleb128 0x13
 5897 0041 00       		.byte	0
 5898 0042 00       		.byte	0
 5899 0043 06       		.uleb128 0x6
 5900 0044 35       		.uleb128 0x35
 5901 0045 00       		.byte	0
 5902 0046 49       		.uleb128 0x49
 5903 0047 13       		.uleb128 0x13
 5904 0048 00       		.byte	0
 5905 0049 00       		.byte	0
ARM GAS  C:\Users\run1009\AppData\Local\Temp\ccJxhBPK.s 			page 136


 5906 004a 07       		.uleb128 0x7
 5907 004b 0F       		.uleb128 0xf
 5908 004c 00       		.byte	0
 5909 004d 0B       		.uleb128 0xb
 5910 004e 0B       		.uleb128 0xb
 5911 004f 00       		.byte	0
 5912 0050 00       		.byte	0
 5913 0051 08       		.uleb128 0x8
 5914 0052 0F       		.uleb128 0xf
 5915 0053 00       		.byte	0
 5916 0054 0B       		.uleb128 0xb
 5917 0055 0B       		.uleb128 0xb
 5918 0056 49       		.uleb128 0x49
 5919 0057 13       		.uleb128 0x13
 5920 0058 00       		.byte	0
 5921 0059 00       		.byte	0
 5922 005a 09       		.uleb128 0x9
 5923 005b 04       		.uleb128 0x4
 5924 005c 01       		.byte	0x1
 5925 005d 0B       		.uleb128 0xb
 5926 005e 0B       		.uleb128 0xb
 5927 005f 49       		.uleb128 0x49
 5928 0060 13       		.uleb128 0x13
 5929 0061 3A       		.uleb128 0x3a
 5930 0062 0B       		.uleb128 0xb
 5931 0063 3B       		.uleb128 0x3b
 5932 0064 05       		.uleb128 0x5
 5933 0065 01       		.uleb128 0x1
 5934 0066 13       		.uleb128 0x13
 5935 0067 00       		.byte	0
 5936 0068 00       		.byte	0
 5937 0069 0A       		.uleb128 0xa
 5938 006a 28       		.uleb128 0x28
 5939 006b 00       		.byte	0
 5940 006c 03       		.uleb128 0x3
 5941 006d 0E       		.uleb128 0xe
 5942 006e 1C       		.uleb128 0x1c
 5943 006f 0B       		.uleb128 0xb
 5944 0070 00       		.byte	0
 5945 0071 00       		.byte	0
 5946 0072 0B       		.uleb128 0xb
 5947 0073 28       		.uleb128 0x28
 5948 0074 00       		.byte	0
 5949 0075 03       		.uleb128 0x3
 5950 0076 0E       		.uleb128 0xe
 5951 0077 1C       		.uleb128 0x1c
 5952 0078 05       		.uleb128 0x5
 5953 0079 00       		.byte	0
 5954 007a 00       		.byte	0
 5955 007b 0C       		.uleb128 0xc
 5956 007c 13       		.uleb128 0x13
 5957 007d 01       		.byte	0x1
 5958 007e 0B       		.uleb128 0xb
 5959 007f 0B       		.uleb128 0xb
 5960 0080 3A       		.uleb128 0x3a
 5961 0081 0B       		.uleb128 0xb
 5962 0082 3B       		.uleb128 0x3b
ARM GAS  C:\Users\run1009\AppData\Local\Temp\ccJxhBPK.s 			page 137


 5963 0083 05       		.uleb128 0x5
 5964 0084 01       		.uleb128 0x1
 5965 0085 13       		.uleb128 0x13
 5966 0086 00       		.byte	0
 5967 0087 00       		.byte	0
 5968 0088 0D       		.uleb128 0xd
 5969 0089 0D       		.uleb128 0xd
 5970 008a 00       		.byte	0
 5971 008b 03       		.uleb128 0x3
 5972 008c 0E       		.uleb128 0xe
 5973 008d 3A       		.uleb128 0x3a
 5974 008e 0B       		.uleb128 0xb
 5975 008f 3B       		.uleb128 0x3b
 5976 0090 05       		.uleb128 0x5
 5977 0091 49       		.uleb128 0x49
 5978 0092 13       		.uleb128 0x13
 5979 0093 38       		.uleb128 0x38
 5980 0094 0B       		.uleb128 0xb
 5981 0095 00       		.byte	0
 5982 0096 00       		.byte	0
 5983 0097 0E       		.uleb128 0xe
 5984 0098 01       		.uleb128 0x1
 5985 0099 01       		.byte	0x1
 5986 009a 49       		.uleb128 0x49
 5987 009b 13       		.uleb128 0x13
 5988 009c 01       		.uleb128 0x1
 5989 009d 13       		.uleb128 0x13
 5990 009e 00       		.byte	0
 5991 009f 00       		.byte	0
 5992 00a0 0F       		.uleb128 0xf
 5993 00a1 21       		.uleb128 0x21
 5994 00a2 00       		.byte	0
 5995 00a3 49       		.uleb128 0x49
 5996 00a4 13       		.uleb128 0x13
 5997 00a5 2F       		.uleb128 0x2f
 5998 00a6 0B       		.uleb128 0xb
 5999 00a7 00       		.byte	0
 6000 00a8 00       		.byte	0
 6001 00a9 10       		.uleb128 0x10
 6002 00aa 04       		.uleb128 0x4
 6003 00ab 01       		.byte	0x1
 6004 00ac 0B       		.uleb128 0xb
 6005 00ad 0B       		.uleb128 0xb
 6006 00ae 49       		.uleb128 0x49
 6007 00af 13       		.uleb128 0x13
 6008 00b0 3A       		.uleb128 0x3a
 6009 00b1 0B       		.uleb128 0xb
 6010 00b2 3B       		.uleb128 0x3b
 6011 00b3 0B       		.uleb128 0xb
 6012 00b4 01       		.uleb128 0x1
 6013 00b5 13       		.uleb128 0x13
 6014 00b6 00       		.byte	0
 6015 00b7 00       		.byte	0
 6016 00b8 11       		.uleb128 0x11
 6017 00b9 0D       		.uleb128 0xd
 6018 00ba 00       		.byte	0
 6019 00bb 03       		.uleb128 0x3
ARM GAS  C:\Users\run1009\AppData\Local\Temp\ccJxhBPK.s 			page 138


 6020 00bc 08       		.uleb128 0x8
 6021 00bd 3A       		.uleb128 0x3a
 6022 00be 0B       		.uleb128 0xb
 6023 00bf 3B       		.uleb128 0x3b
 6024 00c0 05       		.uleb128 0x5
 6025 00c1 49       		.uleb128 0x49
 6026 00c2 13       		.uleb128 0x13
 6027 00c3 38       		.uleb128 0x38
 6028 00c4 0B       		.uleb128 0xb
 6029 00c5 00       		.byte	0
 6030 00c6 00       		.byte	0
 6031 00c7 12       		.uleb128 0x12
 6032 00c8 13       		.uleb128 0x13
 6033 00c9 01       		.byte	0x1
 6034 00ca 0B       		.uleb128 0xb
 6035 00cb 0B       		.uleb128 0xb
 6036 00cc 3A       		.uleb128 0x3a
 6037 00cd 0B       		.uleb128 0xb
 6038 00ce 3B       		.uleb128 0x3b
 6039 00cf 0B       		.uleb128 0xb
 6040 00d0 01       		.uleb128 0x1
 6041 00d1 13       		.uleb128 0x13
 6042 00d2 00       		.byte	0
 6043 00d3 00       		.byte	0
 6044 00d4 13       		.uleb128 0x13
 6045 00d5 0D       		.uleb128 0xd
 6046 00d6 00       		.byte	0
 6047 00d7 03       		.uleb128 0x3
 6048 00d8 0E       		.uleb128 0xe
 6049 00d9 3A       		.uleb128 0x3a
 6050 00da 0B       		.uleb128 0xb
 6051 00db 3B       		.uleb128 0x3b
 6052 00dc 0B       		.uleb128 0xb
 6053 00dd 49       		.uleb128 0x49
 6054 00de 13       		.uleb128 0x13
 6055 00df 38       		.uleb128 0x38
 6056 00e0 0B       		.uleb128 0xb
 6057 00e1 00       		.byte	0
 6058 00e2 00       		.byte	0
 6059 00e3 14       		.uleb128 0x14
 6060 00e4 0D       		.uleb128 0xd
 6061 00e5 00       		.byte	0
 6062 00e6 03       		.uleb128 0x3
 6063 00e7 08       		.uleb128 0x8
 6064 00e8 3A       		.uleb128 0x3a
 6065 00e9 0B       		.uleb128 0xb
 6066 00ea 3B       		.uleb128 0x3b
 6067 00eb 0B       		.uleb128 0xb
 6068 00ec 49       		.uleb128 0x49
 6069 00ed 13       		.uleb128 0x13
 6070 00ee 38       		.uleb128 0x38
 6071 00ef 0B       		.uleb128 0xb
 6072 00f0 00       		.byte	0
 6073 00f1 00       		.byte	0
 6074 00f2 15       		.uleb128 0x15
 6075 00f3 2E       		.uleb128 0x2e
 6076 00f4 01       		.byte	0x1
ARM GAS  C:\Users\run1009\AppData\Local\Temp\ccJxhBPK.s 			page 139


 6077 00f5 3F       		.uleb128 0x3f
 6078 00f6 19       		.uleb128 0x19
 6079 00f7 03       		.uleb128 0x3
 6080 00f8 0E       		.uleb128 0xe
 6081 00f9 3A       		.uleb128 0x3a
 6082 00fa 0B       		.uleb128 0xb
 6083 00fb 3B       		.uleb128 0x3b
 6084 00fc 0B       		.uleb128 0xb
 6085 00fd 27       		.uleb128 0x27
 6086 00fe 19       		.uleb128 0x19
 6087 00ff 11       		.uleb128 0x11
 6088 0100 01       		.uleb128 0x1
 6089 0101 12       		.uleb128 0x12
 6090 0102 06       		.uleb128 0x6
 6091 0103 40       		.uleb128 0x40
 6092 0104 18       		.uleb128 0x18
 6093 0105 9642     		.uleb128 0x2116
 6094 0107 19       		.uleb128 0x19
 6095 0108 01       		.uleb128 0x1
 6096 0109 13       		.uleb128 0x13
 6097 010a 00       		.byte	0
 6098 010b 00       		.byte	0
 6099 010c 16       		.uleb128 0x16
 6100 010d 05       		.uleb128 0x5
 6101 010e 00       		.byte	0
 6102 010f 03       		.uleb128 0x3
 6103 0110 0E       		.uleb128 0xe
 6104 0111 3A       		.uleb128 0x3a
 6105 0112 0B       		.uleb128 0xb
 6106 0113 3B       		.uleb128 0x3b
 6107 0114 0B       		.uleb128 0xb
 6108 0115 49       		.uleb128 0x49
 6109 0116 13       		.uleb128 0x13
 6110 0117 02       		.uleb128 0x2
 6111 0118 18       		.uleb128 0x18
 6112 0119 00       		.byte	0
 6113 011a 00       		.byte	0
 6114 011b 17       		.uleb128 0x17
 6115 011c 34       		.uleb128 0x34
 6116 011d 00       		.byte	0
 6117 011e 03       		.uleb128 0x3
 6118 011f 0E       		.uleb128 0xe
 6119 0120 3A       		.uleb128 0x3a
 6120 0121 0B       		.uleb128 0xb
 6121 0122 3B       		.uleb128 0x3b
 6122 0123 0B       		.uleb128 0xb
 6123 0124 49       		.uleb128 0x49
 6124 0125 13       		.uleb128 0x13
 6125 0126 02       		.uleb128 0x2
 6126 0127 18       		.uleb128 0x18
 6127 0128 00       		.byte	0
 6128 0129 00       		.byte	0
 6129 012a 18       		.uleb128 0x18
 6130 012b 0B       		.uleb128 0xb
 6131 012c 01       		.byte	0x1
 6132 012d 55       		.uleb128 0x55
 6133 012e 17       		.uleb128 0x17
ARM GAS  C:\Users\run1009\AppData\Local\Temp\ccJxhBPK.s 			page 140


 6134 012f 00       		.byte	0
 6135 0130 00       		.byte	0
 6136 0131 19       		.uleb128 0x19
 6137 0132 34       		.uleb128 0x34
 6138 0133 00       		.byte	0
 6139 0134 03       		.uleb128 0x3
 6140 0135 08       		.uleb128 0x8
 6141 0136 3A       		.uleb128 0x3a
 6142 0137 0B       		.uleb128 0xb
 6143 0138 3B       		.uleb128 0x3b
 6144 0139 05       		.uleb128 0x5
 6145 013a 49       		.uleb128 0x49
 6146 013b 13       		.uleb128 0x13
 6147 013c 02       		.uleb128 0x2
 6148 013d 18       		.uleb128 0x18
 6149 013e 00       		.byte	0
 6150 013f 00       		.byte	0
 6151 0140 1A       		.uleb128 0x1a
 6152 0141 0B       		.uleb128 0xb
 6153 0142 01       		.byte	0x1
 6154 0143 11       		.uleb128 0x11
 6155 0144 01       		.uleb128 0x1
 6156 0145 12       		.uleb128 0x12
 6157 0146 06       		.uleb128 0x6
 6158 0147 01       		.uleb128 0x1
 6159 0148 13       		.uleb128 0x13
 6160 0149 00       		.byte	0
 6161 014a 00       		.byte	0
 6162 014b 1B       		.uleb128 0x1b
 6163 014c 34       		.uleb128 0x34
 6164 014d 00       		.byte	0
 6165 014e 03       		.uleb128 0x3
 6166 014f 0E       		.uleb128 0xe
 6167 0150 3A       		.uleb128 0x3a
 6168 0151 0B       		.uleb128 0xb
 6169 0152 3B       		.uleb128 0x3b
 6170 0153 05       		.uleb128 0x5
 6171 0154 49       		.uleb128 0x49
 6172 0155 13       		.uleb128 0x13
 6173 0156 02       		.uleb128 0x2
 6174 0157 18       		.uleb128 0x18
 6175 0158 00       		.byte	0
 6176 0159 00       		.byte	0
 6177 015a 1C       		.uleb128 0x1c
 6178 015b 0B       		.uleb128 0xb
 6179 015c 01       		.byte	0x1
 6180 015d 11       		.uleb128 0x11
 6181 015e 01       		.uleb128 0x1
 6182 015f 12       		.uleb128 0x12
 6183 0160 06       		.uleb128 0x6
 6184 0161 00       		.byte	0
 6185 0162 00       		.byte	0
 6186 0163 1D       		.uleb128 0x1d
 6187 0164 2E       		.uleb128 0x2e
 6188 0165 01       		.byte	0x1
 6189 0166 3F       		.uleb128 0x3f
 6190 0167 19       		.uleb128 0x19
ARM GAS  C:\Users\run1009\AppData\Local\Temp\ccJxhBPK.s 			page 141


 6191 0168 03       		.uleb128 0x3
 6192 0169 0E       		.uleb128 0xe
 6193 016a 3A       		.uleb128 0x3a
 6194 016b 0B       		.uleb128 0xb
 6195 016c 3B       		.uleb128 0x3b
 6196 016d 05       		.uleb128 0x5
 6197 016e 27       		.uleb128 0x27
 6198 016f 19       		.uleb128 0x19
 6199 0170 11       		.uleb128 0x11
 6200 0171 01       		.uleb128 0x1
 6201 0172 12       		.uleb128 0x12
 6202 0173 06       		.uleb128 0x6
 6203 0174 40       		.uleb128 0x40
 6204 0175 18       		.uleb128 0x18
 6205 0176 9642     		.uleb128 0x2116
 6206 0178 19       		.uleb128 0x19
 6207 0179 01       		.uleb128 0x1
 6208 017a 13       		.uleb128 0x13
 6209 017b 00       		.byte	0
 6210 017c 00       		.byte	0
 6211 017d 1E       		.uleb128 0x1e
 6212 017e 2E       		.uleb128 0x2e
 6213 017f 00       		.byte	0
 6214 0180 3F       		.uleb128 0x3f
 6215 0181 19       		.uleb128 0x19
 6216 0182 03       		.uleb128 0x3
 6217 0183 0E       		.uleb128 0xe
 6218 0184 3A       		.uleb128 0x3a
 6219 0185 0B       		.uleb128 0xb
 6220 0186 3B       		.uleb128 0x3b
 6221 0187 05       		.uleb128 0x5
 6222 0188 27       		.uleb128 0x27
 6223 0189 19       		.uleb128 0x19
 6224 018a 11       		.uleb128 0x11
 6225 018b 01       		.uleb128 0x1
 6226 018c 12       		.uleb128 0x12
 6227 018d 06       		.uleb128 0x6
 6228 018e 40       		.uleb128 0x40
 6229 018f 18       		.uleb128 0x18
 6230 0190 9642     		.uleb128 0x2116
 6231 0192 19       		.uleb128 0x19
 6232 0193 00       		.byte	0
 6233 0194 00       		.byte	0
 6234 0195 1F       		.uleb128 0x1f
 6235 0196 05       		.uleb128 0x5
 6236 0197 00       		.byte	0
 6237 0198 03       		.uleb128 0x3
 6238 0199 0E       		.uleb128 0xe
 6239 019a 3A       		.uleb128 0x3a
 6240 019b 0B       		.uleb128 0xb
 6241 019c 3B       		.uleb128 0x3b
 6242 019d 05       		.uleb128 0x5
 6243 019e 49       		.uleb128 0x49
 6244 019f 13       		.uleb128 0x13
 6245 01a0 02       		.uleb128 0x2
 6246 01a1 18       		.uleb128 0x18
 6247 01a2 00       		.byte	0
ARM GAS  C:\Users\run1009\AppData\Local\Temp\ccJxhBPK.s 			page 142


 6248 01a3 00       		.byte	0
 6249 01a4 20       		.uleb128 0x20
 6250 01a5 34       		.uleb128 0x34
 6251 01a6 00       		.byte	0
 6252 01a7 03       		.uleb128 0x3
 6253 01a8 0E       		.uleb128 0xe
 6254 01a9 3A       		.uleb128 0x3a
 6255 01aa 0B       		.uleb128 0xb
 6256 01ab 3B       		.uleb128 0x3b
 6257 01ac 05       		.uleb128 0x5
 6258 01ad 49       		.uleb128 0x49
 6259 01ae 13       		.uleb128 0x13
 6260 01af 3F       		.uleb128 0x3f
 6261 01b0 19       		.uleb128 0x19
 6262 01b1 3C       		.uleb128 0x3c
 6263 01b2 19       		.uleb128 0x19
 6264 01b3 00       		.byte	0
 6265 01b4 00       		.byte	0
 6266 01b5 21       		.uleb128 0x21
 6267 01b6 34       		.uleb128 0x34
 6268 01b7 00       		.byte	0
 6269 01b8 03       		.uleb128 0x3
 6270 01b9 0E       		.uleb128 0xe
 6271 01ba 3A       		.uleb128 0x3a
 6272 01bb 0B       		.uleb128 0xb
 6273 01bc 3B       		.uleb128 0x3b
 6274 01bd 0B       		.uleb128 0xb
 6275 01be 49       		.uleb128 0x49
 6276 01bf 13       		.uleb128 0x13
 6277 01c0 3F       		.uleb128 0x3f
 6278 01c1 19       		.uleb128 0x19
 6279 01c2 3C       		.uleb128 0x3c
 6280 01c3 19       		.uleb128 0x19
 6281 01c4 00       		.byte	0
 6282 01c5 00       		.byte	0
 6283 01c6 22       		.uleb128 0x22
 6284 01c7 34       		.uleb128 0x34
 6285 01c8 00       		.byte	0
 6286 01c9 03       		.uleb128 0x3
 6287 01ca 0E       		.uleb128 0xe
 6288 01cb 3A       		.uleb128 0x3a
 6289 01cc 0B       		.uleb128 0xb
 6290 01cd 3B       		.uleb128 0x3b
 6291 01ce 0B       		.uleb128 0xb
 6292 01cf 49       		.uleb128 0x49
 6293 01d0 13       		.uleb128 0x13
 6294 01d1 3F       		.uleb128 0x3f
 6295 01d2 19       		.uleb128 0x19
 6296 01d3 02       		.uleb128 0x2
 6297 01d4 18       		.uleb128 0x18
 6298 01d5 00       		.byte	0
 6299 01d6 00       		.byte	0
 6300 01d7 23       		.uleb128 0x23
 6301 01d8 34       		.uleb128 0x34
 6302 01d9 00       		.byte	0
 6303 01da 03       		.uleb128 0x3
 6304 01db 08       		.uleb128 0x8
ARM GAS  C:\Users\run1009\AppData\Local\Temp\ccJxhBPK.s 			page 143


 6305 01dc 3A       		.uleb128 0x3a
 6306 01dd 0B       		.uleb128 0xb
 6307 01de 3B       		.uleb128 0x3b
 6308 01df 0B       		.uleb128 0xb
 6309 01e0 49       		.uleb128 0x49
 6310 01e1 13       		.uleb128 0x13
 6311 01e2 3F       		.uleb128 0x3f
 6312 01e3 19       		.uleb128 0x19
 6313 01e4 02       		.uleb128 0x2
 6314 01e5 18       		.uleb128 0x18
 6315 01e6 00       		.byte	0
 6316 01e7 00       		.byte	0
 6317 01e8 00       		.byte	0
 6318              		.section	.debug_aranges,"",%progbits
 6319 0000 3C000000 		.4byte	0x3c
 6320 0004 0200     		.2byte	0x2
 6321 0006 00000000 		.4byte	.Ldebug_info0
 6322 000a 04       		.byte	0x4
 6323 000b 00       		.byte	0
 6324 000c 0000     		.2byte	0
 6325 000e 0000     		.2byte	0
 6326 0010 00000000 		.4byte	.LFB36
 6327 0014 240F0000 		.4byte	.LFE36-.LFB36
 6328 0018 00000000 		.4byte	.LFB37
 6329 001c 00020000 		.4byte	.LFE37-.LFB37
 6330 0020 00000000 		.4byte	.LFB38
 6331 0024 A8000000 		.4byte	.LFE38-.LFB38
 6332 0028 00000000 		.4byte	.LFB39
 6333 002c B0000000 		.4byte	.LFE39-.LFB39
 6334 0030 00000000 		.4byte	.LFB40
 6335 0034 68000000 		.4byte	.LFE40-.LFB40
 6336 0038 00000000 		.4byte	0
 6337 003c 00000000 		.4byte	0
 6338              		.section	.debug_ranges,"",%progbits
 6339              	.Ldebug_ranges0:
 6340 0000 26000000 		.4byte	.LBB2
 6341 0004 2A000000 		.4byte	.LBE2
 6342 0008 3E000000 		.4byte	.LBB10
 6343 000c 42000000 		.4byte	.LBE10
 6344 0010 54000000 		.4byte	.LBB11
 6345 0014 58000000 		.4byte	.LBE11
 6346 0018 70000000 		.4byte	.LBB12
 6347 001c 1E0F0000 		.4byte	.LBE12
 6348 0020 00000000 		.4byte	0
 6349 0024 00000000 		.4byte	0
 6350 0028 00000000 		.4byte	.LFB36
 6351 002c 240F0000 		.4byte	.LFE36
 6352 0030 00000000 		.4byte	.LFB37
 6353 0034 00020000 		.4byte	.LFE37
 6354 0038 00000000 		.4byte	.LFB38
 6355 003c A8000000 		.4byte	.LFE38
 6356 0040 00000000 		.4byte	.LFB39
 6357 0044 B0000000 		.4byte	.LFE39
 6358 0048 00000000 		.4byte	.LFB40
 6359 004c 68000000 		.4byte	.LFE40
 6360 0050 00000000 		.4byte	0
 6361 0054 00000000 		.4byte	0
ARM GAS  C:\Users\run1009\AppData\Local\Temp\ccJxhBPK.s 			page 144


 6362              		.section	.debug_line,"",%progbits
 6363              	.Ldebug_line0:
 6364 0000 AF040000 		.section	.debug_str,"MS",%progbits,1
 6364      0200EF01 
 6364      00000201 
 6364      FB0E0D00 
 6364      01010101 
 6365              	.LASF418:
 6366 0000 4359424C 		.ascii	"CYBLE_EVT_HPSS_NOTIFICATION_DISABLED\000"
 6366      455F4556 
 6366      545F4850 
 6366      53535F4E 
 6366      4F544946 
 6367              	.LASF106:
 6368 0025 4359424C 		.ascii	"CYBLE_ERROR_L2CAP_PSM_ALREADY_REGISTERED\000"
 6368      455F4552 
 6368      524F525F 
 6368      4C324341 
 6368      505F5053 
 6369              	.LASF360:
 6370 004e 4359424C 		.ascii	"CYBLE_EVT_CSCSS_NOTIFICATION_DISABLED\000"
 6370      455F4556 
 6370      545F4353 
 6370      4353535F 
 6370      4E4F5449 
 6371              	.LASF575:
 6372 0074 6576656E 		.ascii	"event\000"
 6372      7400
 6373              	.LASF91:
 6374 007a 4359424C 		.ascii	"CYBLE_EVT_MAX\000"
 6374      455F4556 
 6374      545F4D41 
 6374      5800
 6375              	.LASF470:
 6376 0088 4359424C 		.ascii	"CYBLE_EVT_PASSS_NOTIFICATION_ENABLED\000"
 6376      455F4556 
 6376      545F5041 
 6376      5353535F 
 6376      4E4F5449 
 6377              	.LASF209:
 6378 00ad 4359424C 		.ascii	"CYBLE_GATT_ERR_INSUFFICIENT_ENC_KEY_SIZE\000"
 6378      455F4741 
 6378      54545F45 
 6378      52525F49 
 6378      4E535546 
 6379              	.LASF417:
 6380 00d6 4359424C 		.ascii	"CYBLE_EVT_HPSS_NOTIFICATION_ENABLED\000"
 6380      455F4556 
 6380      545F4850 
 6380      53535F4E 
 6380      4F544946 
 6381              	.LASF451:
 6382 00fa 4359424C 		.ascii	"CYBLE_EVT_IPSC_WRITE_DESCR_RESPONSE\000"
 6382      455F4556 
 6382      545F4950 
 6382      53435F57 
 6382      52495445 
ARM GAS  C:\Users\run1009\AppData\Local\Temp\ccJxhBPK.s 			page 145


 6383              	.LASF606:
 6384 011e 6E6F6465 		.ascii	"node_address\000"
 6384      5F616464 
 6384      72657373 
 6384      00
 6385              	.LASF280:
 6386 012b 4359424C 		.ascii	"CYBLE_EVT_AIOSS_CHAR_WRITE\000"
 6386      455F4556 
 6386      545F4149 
 6386      4F53535F 
 6386      43484152 
 6387              	.LASF474:
 6388 0146 4359424C 		.ascii	"CYBLE_EVT_PASSC_READ_CHAR_RESPONSE\000"
 6388      455F4556 
 6388      545F5041 
 6388      5353435F 
 6388      52454144 
 6389              	.LASF363:
 6390 0169 4359424C 		.ascii	"CYBLE_EVT_CSCSS_INDICATION_CONFIRMATION\000"
 6390      455F4556 
 6390      545F4353 
 6390      4353535F 
 6390      494E4449 
 6391              	.LASF567:
 6392 0191 6C696768 		.ascii	"light\000"
 6392      7400
 6393              	.LASF9:
 6394 0197 5F5F7569 		.ascii	"__uint8_t\000"
 6394      6E74385F 
 6394      7400
 6395              	.LASF341:
 6396 01a1 4359424C 		.ascii	"CYBLE_EVT_CGMSC_WRITE_CHAR_RESPONSE\000"
 6396      455F4556 
 6396      545F4347 
 6396      4D53435F 
 6396      57524954 
 6397              	.LASF31:
 6398 01c5 4359424C 		.ascii	"CYBLE_EVT_GAP_AUTH_COMPLETE\000"
 6398      455F4556 
 6398      545F4741 
 6398      505F4155 
 6398      54485F43 
 6399              	.LASF122:
 6400 01e1 4359424C 		.ascii	"CYBLE_ERROR_IND_DISABLED\000"
 6400      455F4552 
 6400      524F525F 
 6400      494E445F 
 6400      44495341 
 6401              	.LASF574:
 6402 01fa 454E565F 		.ascii	"ENV_SENSOR_T\000"
 6402      53454E53 
 6402      4F525F54 
 6402      00
 6403              	.LASF368:
 6404 0207 4359424C 		.ascii	"CYBLE_EVT_CSCSC_WRITE_CHAR_RESPONSE\000"
 6404      455F4556 
 6404      545F4353 
ARM GAS  C:\Users\run1009\AppData\Local\Temp\ccJxhBPK.s 			page 146


 6404      4353435F 
 6404      57524954 
 6405              	.LASF514:
 6406 022b 4359424C 		.ascii	"CYBLE_EVT_TPSC_READ_DESCR_RESPONSE\000"
 6406      455F4556 
 6406      545F5450 
 6406      53435F52 
 6406      4541445F 
 6407              	.LASF432:
 6408 024e 4359424C 		.ascii	"CYBLE_EVT_HRSC_WRITE_DESCR_RESPONSE\000"
 6408      455F4556 
 6408      545F4852 
 6408      53435F57 
 6408      52495445 
 6409              	.LASF92:
 6410 0272 4359424C 		.ascii	"CYBLE_ERROR_OK\000"
 6410      455F4552 
 6410      524F525F 
 6410      4F4B00
 6411              	.LASF598:
 6412 0281 6379426C 		.ascii	"cyBle_state\000"
 6412      655F7374 
 6412      61746500 
 6413              	.LASF553:
 6414 028d 4359424C 		.ascii	"CYBLE_STATE_ADVERTISING\000"
 6414      455F5354 
 6414      4154455F 
 6414      41445645 
 6414      52544953 
 6415              	.LASF623:
 6416 02a5 626C655F 		.ascii	"ble_process.c\000"
 6416      70726F63 
 6416      6573732E 
 6416      6300
 6417              	.LASF275:
 6418 02b3 4359424C 		.ascii	"CYBLE_EVT_AIOSS_NOTIFICATION_ENABLED\000"
 6418      455F4556 
 6418      545F4149 
 6418      4F53535F 
 6418      4E4F5449 
 6419              	.LASF103:
 6420 02d8 4359424C 		.ascii	"CYBLE_ERROR_BT_ON_NOT_COMPLETED\000"
 6420      455F4552 
 6420      524F525F 
 6420      42545F4F 
 6420      4E5F4E4F 
 6421              	.LASF380:
 6422 02f8 4359424C 		.ascii	"CYBLE_EVT_ESSS_NOTIFICATION_ENABLED\000"
 6422      455F4556 
 6422      545F4553 
 6422      53535F4E 
 6422      4F544946 
 6423              	.LASF324:
 6424 031c 4359424C 		.ascii	"CYBLE_EVT_BLSC_NOTIFICATION\000"
 6424      455F4556 
 6424      545F424C 
 6424      53435F4E 
ARM GAS  C:\Users\run1009\AppData\Local\Temp\ccJxhBPK.s 			page 147


 6424      4F544946 
 6425              	.LASF449:
 6426 0338 4359424C 		.ascii	"CYBLE_EVT_IPSC_WRITE_CHAR_RESPONSE\000"
 6426      455F4556 
 6426      545F4950 
 6426      53435F57 
 6426      52495445 
 6427              	.LASF393:
 6428 035b 4359424C 		.ascii	"CYBLE_EVT_GLSS_INDICATION_ENABLED\000"
 6428      455F4556 
 6428      545F474C 
 6428      53535F49 
 6428      4E444943 
 6429              	.LASF72:
 6430 037d 4359424C 		.ascii	"CYBLE_EVT_GATTS_DATA_SIGNED_CMD_REQ\000"
 6430      455F4556 
 6430      545F4741 
 6430      5454535F 
 6430      44415441 
 6431              	.LASF290:
 6432 03a1 4359424C 		.ascii	"CYBLE_EVT_ANCSS_NOTIFICATION_DISABLED\000"
 6432      455F4556 
 6432      545F414E 
 6432      4353535F 
 6432      4E4F5449 
 6433              	.LASF287:
 6434 03c7 4359424C 		.ascii	"CYBLE_EVT_AIOSC_WRITE_DESCR_RESPONSE\000"
 6434      455F4556 
 6434      545F4149 
 6434      4F53435F 
 6434      57524954 
 6435              	.LASF454:
 6436 03ec 4359424C 		.ascii	"CYBLE_EVT_LLSS_WRITE_CHAR_REQ\000"
 6436      455F4556 
 6436      545F4C4C 
 6436      53535F57 
 6436      52495445 
 6437              	.LASF453:
 6438 040a 4359424C 		.ascii	"CYBLE_EVT_IPSC_READ_BLOB_RSP\000"
 6438      455F4556 
 6438      545F4950 
 6438      53435F52 
 6438      4541445F 
 6439              	.LASF611:
 6440 0427 706F7465 		.ascii	"potential_node_bdAddrType\000"
 6440      6E746961 
 6440      6C5F6E6F 
 6440      64655F62 
 6440      64416464 
 6441              	.LASF21:
 6442 0441 4359424C 		.ascii	"CYBLE_EVT_STACK_ON\000"
 6442      455F4556 
 6442      545F5354 
 6442      41434B5F 
 6442      4F4E00
 6443              	.LASF384:
 6444 0454 4359424C 		.ascii	"CYBLE_EVT_ESSS_INDICATION_CONFIRMATION\000"
ARM GAS  C:\Users\run1009\AppData\Local\Temp\ccJxhBPK.s 			page 148


 6444      455F4556 
 6444      545F4553 
 6444      53535F49 
 6444      4E444943 
 6445              	.LASF621:
 6446 047b 73746163 		.ascii	"stackRestartIssued\000"
 6446      6B526573 
 6446      74617274 
 6446      49737375 
 6446      656400
 6447              	.LASF361:
 6448 048e 4359424C 		.ascii	"CYBLE_EVT_CSCSS_INDICATION_ENABLED\000"
 6448      455F4556 
 6448      545F4353 
 6448      4353535F 
 6448      494E4449 
 6449              	.LASF162:
 6450 04b1 70656572 		.ascii	"peerAddrType\000"
 6450      41646472 
 6450      54797065 
 6450      00
 6451              	.LASF111:
 6452 04be 4359424C 		.ascii	"CYBLE_ERROR_GATT_DB_INVALID_ATTR_HANDLE\000"
 6452      455F4552 
 6452      524F525F 
 6452      47415454 
 6452      5F44425F 
 6453              	.LASF234:
 6454 04e6 4359424C 		.ascii	"CYBLE_GATT_ERR_PROCEDURE_ALREADY_IN_PROGRESS\000"
 6454      455F4741 
 6454      54545F45 
 6454      52525F50 
 6454      524F4345 
 6455              	.LASF24:
 6456 0513 4359424C 		.ascii	"CYBLE_EVT_HCI_STATUS\000"
 6456      455F4556 
 6456      545F4843 
 6456      495F5354 
 6456      41545553 
 6457              	.LASF136:
 6458 0528 4359424C 		.ascii	"CYBLE_GAPC_CONN_UNDIRECTED_ADV\000"
 6458      455F4741 
 6458      50435F43 
 6458      4F4E4E5F 
 6458      554E4449 
 6459              	.LASF578:
 6460 0547 77726974 		.ascii	"writeADVcounterdata\000"
 6460      65414456 
 6460      636F756E 
 6460      74657264 
 6460      61746100 
 6461              	.LASF612:
 6462 055b 7363616E 		.ascii	"scan_tag\000"
 6462      5F746167 
 6462      00
 6463              	.LASF29:
 6464 0564 4359424C 		.ascii	"CYBLE_EVT_GAP_PASSKEY_ENTRY_REQUEST\000"
ARM GAS  C:\Users\run1009\AppData\Local\Temp\ccJxhBPK.s 			page 149


 6464      455F4556 
 6464      545F4741 
 6464      505F5041 
 6464      53534B45 
 6465              	.LASF508:
 6466 0588 4359424C 		.ascii	"CYBLE_EVT_SCPSC_READ_DESCR_RESPONSE\000"
 6466      455F4556 
 6466      545F5343 
 6466      5053435F 
 6466      52454144 
 6467              	.LASF388:
 6468 05ac 4359424C 		.ascii	"CYBLE_EVT_ESSC_INDICATION\000"
 6468      455F4556 
 6468      545F4553 
 6468      53435F49 
 6468      4E444943 
 6469              	.LASF511:
 6470 05c6 4359424C 		.ascii	"CYBLE_EVT_TPSS_NOTIFICATION_DISABLED\000"
 6470      455F4556 
 6470      545F5450 
 6470      53535F4E 
 6470      4F544946 
 6471              	.LASF373:
 6472 05eb 4359424C 		.ascii	"CYBLE_EVT_CTSS_CHAR_WRITE\000"
 6472      455F4556 
 6472      545F4354 
 6472      53535F43 
 6472      4841525F 
 6473              	.LASF146:
 6474 0605 64697265 		.ascii	"directAddrType\000"
 6474      63744164 
 6474      64725479 
 6474      706500
 6475              	.LASF171:
 6476 0614 4359424C 		.ascii	"CYBLE_GATT_FIND_INFO_REQ\000"
 6476      455F4741 
 6476      54545F46 
 6476      494E445F 
 6476      494E464F 
 6477              	.LASF55:
 6478 062d 4359424C 		.ascii	"CYBLE_EVT_GATTC_XCHNG_MTU_RSP\000"
 6478      455F4556 
 6478      545F4741 
 6478      5454435F 
 6478      5843484E 
 6479              	.LASF223:
 6480 064b 4359424C 		.ascii	"CYBLE_GATTS_ERR_CCCD_IMPROPERLY_CONFIGURED\000"
 6480      455F4741 
 6480      5454535F 
 6480      4552525F 
 6480      43434344 
 6481              	.LASF383:
 6482 0676 4359424C 		.ascii	"CYBLE_EVT_ESSS_INDICATION_DISABLED\000"
 6482      455F4556 
 6482      545F4553 
 6482      53535F49 
 6482      4E444943 
ARM GAS  C:\Users\run1009\AppData\Local\Temp\ccJxhBPK.s 			page 150


 6483              	.LASF154:
 6484 0699 7363616E 		.ascii	"scanRspData\000"
 6484      52737044 
 6484      61746100 
 6485              	.LASF292:
 6486 06a5 4359424C 		.ascii	"CYBLE_EVT_ANCSC_NOTIFICATION\000"
 6486      455F4556 
 6486      545F414E 
 6486      4353435F 
 6486      4E4F5449 
 6487              	.LASF339:
 6488 06c2 4359424C 		.ascii	"CYBLE_EVT_CGMSC_NOTIFICATION\000"
 6488      455F4556 
 6488      545F4347 
 6488      4D53435F 
 6488      4E4F5449 
 6489              	.LASF60:
 6490 06df 4359424C 		.ascii	"CYBLE_EVT_GATTC_READ_RSP\000"
 6490      455F4556 
 6490      545F4741 
 6490      5454435F 
 6490      52454144 
 6491              	.LASF306:
 6492 06f8 4359424C 		.ascii	"CYBLE_EVT_BASS_NOTIFICATION_DISABLED\000"
 6492      455F4556 
 6492      545F4241 
 6492      53535F4E 
 6492      4F544946 
 6493              	.LASF439:
 6494 071d 4359424C 		.ascii	"CYBLE_EVT_HTSC_NOTIFICATION\000"
 6494      455F4556 
 6494      545F4854 
 6494      53435F4E 
 6494      4F544946 
 6495              	.LASF405:
 6496 0739 4359424C 		.ascii	"CYBLE_EVT_HIDSS_NOTIFICATION_ENABLED\000"
 6496      455F4556 
 6496      545F4849 
 6496      4453535F 
 6496      4E4F5449 
 6497              	.LASF246:
 6498 075e 6F70636F 		.ascii	"opcode\000"
 6498      646500
 6499              	.LASF435:
 6500 0765 4359424C 		.ascii	"CYBLE_EVT_HTSS_INDICATION_ENABLED\000"
 6500      455F4556 
 6500      545F4854 
 6500      53535F49 
 6500      4E444943 
 6501              	.LASF438:
 6502 0787 4359424C 		.ascii	"CYBLE_EVT_HTSS_CHAR_WRITE\000"
 6502      455F4556 
 6502      545F4854 
 6502      53535F43 
 6502      4841525F 
 6503              	.LASF515:
 6504 07a1 4359424C 		.ascii	"CYBLE_EVT_TPSC_WRITE_DESCR_RESPONSE\000"
ARM GAS  C:\Users\run1009\AppData\Local\Temp\ccJxhBPK.s 			page 151


 6504      455F4556 
 6504      545F5450 
 6504      53435F57 
 6504      52495445 
 6505              	.LASF539:
 6506 07c5 4359424C 		.ascii	"CYBLE_EVT_WPTSC_READ_CHAR_RESPONSE\000"
 6506      455F4556 
 6506      545F5750 
 6506      5453435F 
 6506      52454144 
 6507              	.LASF45:
 6508 07e8 4359424C 		.ascii	"CYBLE_EVT_GAPC_DIRECT_ADV_REPORT\000"
 6508      455F4556 
 6508      545F4741 
 6508      50435F44 
 6508      49524543 
 6509              	.LASF382:
 6510 0809 4359424C 		.ascii	"CYBLE_EVT_ESSS_INDICATION_ENABLED\000"
 6510      455F4556 
 6510      545F4553 
 6510      53535F49 
 6510      4E444943 
 6511              	.LASF302:
 6512 082b 4359424C 		.ascii	"CYBLE_EVT_ANSC_WRITE_CHAR_RESPONSE\000"
 6512      455F4556 
 6512      545F414E 
 6512      53435F57 
 6512      52495445 
 6513              	.LASF11:
 6514 084e 75696E74 		.ascii	"uint8\000"
 6514      3800
 6515              	.LASF328:
 6516 0854 4359424C 		.ascii	"CYBLE_EVT_BMSS_WRITE_CHAR\000"
 6516      455F4556 
 6516      545F424D 
 6516      53535F57 
 6516      52495445 
 6517              	.LASF362:
 6518 086e 4359424C 		.ascii	"CYBLE_EVT_CSCSS_INDICATION_DISABLED\000"
 6518      455F4556 
 6518      545F4353 
 6518      4353535F 
 6518      494E4449 
 6519              	.LASF573:
 6520 0892 666C6167 		.ascii	"flagActive\000"
 6520      41637469 
 6520      766500
 6521              	.LASF520:
 6522 089d 4359424C 		.ascii	"CYBLE_EVT_UDSS_NOTIFICATION_DISABLED\000"
 6522      455F4556 
 6522      545F5544 
 6522      53535F4E 
 6522      4F544946 
 6523              	.LASF170:
 6524 08c2 4359424C 		.ascii	"CYBLE_GATT_XCHNG_MTU_RSP\000"
 6524      455F4741 
 6524      54545F58 
ARM GAS  C:\Users\run1009\AppData\Local\Temp\ccJxhBPK.s 			page 152


 6524      43484E47 
 6524      5F4D5455 
 6525              	.LASF173:
 6526 08db 4359424C 		.ascii	"CYBLE_GATT_FIND_BY_TYPE_VALUE_REQ\000"
 6526      455F4741 
 6526      54545F46 
 6526      494E445F 
 6526      42595F54 
 6527              	.LASF123:
 6528 08fd 4359424C 		.ascii	"CYBLE_ERROR_CHAR_IS_NOT_DISCOVERED\000"
 6528      455F4552 
 6528      524F525F 
 6528      43484152 
 6528      5F49535F 
 6529              	.LASF589:
 6530 0920 696E6465 		.ascii	"index\000"
 6530      7800
 6531              	.LASF423:
 6532 0926 4359424C 		.ascii	"CYBLE_EVT_HPSC_WRITE_DESCR_RESPONSE\000"
 6532      455F4556 
 6532      545F4850 
 6532      53435F57 
 6532      52495445 
 6533              	.LASF310:
 6534 094a 4359424C 		.ascii	"CYBLE_EVT_BASC_WRITE_DESCR_RESPONSE\000"
 6534      455F4556 
 6534      545F4241 
 6534      53435F57 
 6534      52495445 
 6535              	.LASF344:
 6536 096e 4359424C 		.ascii	"CYBLE_EVT_CPSS_NOTIFICATION_ENABLED\000"
 6536      455F4556 
 6536      545F4350 
 6536      53535F4E 
 6536      4F544946 
 6537              	.LASF460:
 6538 0992 4359424C 		.ascii	"CYBLE_EVT_LNSS_NOTIFICATION_ENABLED\000"
 6538      455F4556 
 6538      545F4C4E 
 6538      53535F4E 
 6538      4F544946 
 6539              	.LASF23:
 6540 09b6 4359424C 		.ascii	"CYBLE_EVT_HARDWARE_ERROR\000"
 6540      455F4556 
 6540      545F4841 
 6540      52445741 
 6540      52455F45 
 6541              	.LASF334:
 6542 09cf 4359424C 		.ascii	"CYBLE_EVT_CGMSS_INDICATION_CONFIRMED\000"
 6542      455F4556 
 6542      545F4347 
 6542      4D53535F 
 6542      494E4449 
 6543              	.LASF93:
 6544 09f4 4359424C 		.ascii	"CYBLE_ERROR_INVALID_PARAMETER\000"
 6544      455F4552 
 6544      524F525F 
ARM GAS  C:\Users\run1009\AppData\Local\Temp\ccJxhBPK.s 			page 153


 6544      494E5641 
 6544      4C49445F 
 6545              	.LASF278:
 6546 0a12 4359424C 		.ascii	"CYBLE_EVT_AIOSS_INDICATION_DISABLED\000"
 6546      455F4556 
 6546      545F4149 
 6546      4F53535F 
 6546      494E4449 
 6547              	.LASF585:
 6548 0a36 72656365 		.ascii	"received_node_addr_type\000"
 6548      69766564 
 6548      5F6E6F64 
 6548      655F6164 
 6548      64725F74 
 6549              	.LASF476:
 6550 0a4e 4359424C 		.ascii	"CYBLE_EVT_PASSC_WRITE_DESCR_RESPONSE\000"
 6550      455F4556 
 6550      545F5041 
 6550      5353435F 
 6550      57524954 
 6551              	.LASF602:
 6552 0a73 74656D70 		.ascii	"tempData\000"
 6552      44617461 
 6552      00
 6553              	.LASF468:
 6554 0a7c 4359424C 		.ascii	"CYBLE_EVT_LNSC_WRITE_DESCR_RESPONSE\000"
 6554      455F4556 
 6554      545F4C4E 
 6554      53435F57 
 6554      52495445 
 6555              	.LASF270:
 6556 0aa0 4359424C 		.ascii	"CYBLE_EVT_GATTC_SRVC_DISCOVERY_COMPLETE\000"
 6556      455F4556 
 6556      545F4741 
 6556      5454435F 
 6556      53525643 
 6557              	.LASF342:
 6558 0ac8 4359424C 		.ascii	"CYBLE_EVT_CGMSC_READ_DESCR_RESPONSE\000"
 6558      455F4556 
 6558      545F4347 
 6558      4D53435F 
 6558      52454144 
 6559              	.LASF478:
 6560 0aec 4359424C 		.ascii	"CYBLE_EVT_PLXSS_NOTIFICATION_ENABLED\000"
 6560      455F4556 
 6560      545F504C 
 6560      5853535F 
 6560      4E4F5449 
 6561              	.LASF78:
 6562 0b11 4359424C 		.ascii	"CYBLE_EVT_L2CAP_COMMAND_REJ\000"
 6562      455F4556 
 6562      545F4C32 
 6562      4341505F 
 6562      434F4D4D 
 6563              	.LASF531:
 6564 0b2d 4359424C 		.ascii	"CYBLE_EVT_WPTSS_NOTIFICATION_DISABLED\000"
 6564      455F4556 
ARM GAS  C:\Users\run1009\AppData\Local\Temp\ccJxhBPK.s 			page 154


 6564      545F5750 
 6564      5453535F 
 6564      4E4F5449 
 6565              	.LASF463:
 6566 0b53 4359424C 		.ascii	"CYBLE_EVT_LNSC_INDICATION\000"
 6566      455F4556 
 6566      545F4C4E 
 6566      53435F49 
 6566      4E444943 
 6567              	.LASF369:
 6568 0b6d 4359424C 		.ascii	"CYBLE_EVT_CSCSC_READ_DESCR_RESPONSE\000"
 6568      455F4556 
 6568      545F4353 
 6568      4353435F 
 6568      52454144 
 6569              	.LASF563:
 6570 0b91 626C6541 		.ascii	"bleAddr\000"
 6570      64647200 
 6571              	.LASF583:
 6572 0b99 72656164 		.ascii	"readBlobdata\000"
 6572      426C6F62 
 6572      64617461 
 6572      00
 6573              	.LASF130:
 6574 0ba6 4359424C 		.ascii	"CYBLE_GAPP_CONNECTABLE_UNDIRECTED_ADV\000"
 6574      455F4741 
 6574      50505F43 
 6574      4F4E4E45 
 6574      43544142 
 6575              	.LASF89:
 6576 0bcc 4359424C 		.ascii	"CYBLE_EVT_HCI_PKT\000"
 6576      455F4556 
 6576      545F4843 
 6576      495F504B 
 6576      5400
 6577              	.LASF549:
 6578 0bde 4359424C 		.ascii	"CYBLE_DEBUG_EVT_BLESS_INT\000"
 6578      455F4445 
 6578      4255475F 
 6578      4556545F 
 6578      424C4553 
 6579              	.LASF128:
 6580 0bf8 74797065 		.ascii	"type\000"
 6580      00
 6581              	.LASF215:
 6582 0bfd 4359424C 		.ascii	"CYBLE_GATT_ERR_TRIGGER_CODITION_VALUE_NOT_SUPPORTED"
 6582      455F4741 
 6582      54545F45 
 6582      52525F54 
 6582      52494747 
 6583 0c30 00       		.ascii	"\000"
 6584              	.LASF46:
 6585 0c31 4359424C 		.ascii	"CYBLE_EVT_GAP_SMP_NEGOTIATED_AUTH_INFO\000"
 6585      455F4556 
 6585      545F4741 
 6585      505F534D 
 6585      505F4E45 
ARM GAS  C:\Users\run1009\AppData\Local\Temp\ccJxhBPK.s 			page 155


 6586              	.LASF450:
 6587 0c58 4359424C 		.ascii	"CYBLE_EVT_IPSC_READ_DESCR_RESPONSE\000"
 6587      455F4556 
 6587      545F4950 
 6587      53435F52 
 6587      4541445F 
 6588              	.LASF283:
 6589 0c7b 4359424C 		.ascii	"CYBLE_EVT_AIOSC_INDICATION\000"
 6589      455F4556 
 6589      545F4149 
 6589      4F53435F 
 6589      494E4449 
 6590              	.LASF242:
 6591 0c96 4359424C 		.ascii	"CYBLE_GATT_VALUE_T\000"
 6591      455F4741 
 6591      54545F56 
 6591      414C5545 
 6591      5F5400
 6592              	.LASF502:
 6593 0ca9 4359424C 		.ascii	"CYBLE_EVT_RTUSS_WRITE_CHAR_CMD\000"
 6593      455F4556 
 6593      545F5254 
 6593      5553535F 
 6593      57524954 
 6594              	.LASF272:
 6595 0cc8 4359424C 		.ascii	"CYBLE_EVT_GATTC_CHAR_DISCOVERY_COMPLETE\000"
 6595      455F4556 
 6595      545F4741 
 6595      5454435F 
 6595      43484152 
 6596              	.LASF609:
 6597 0cf0 706F7465 		.ascii	"potential_node_found\000"
 6597      6E746961 
 6597      6C5F6E6F 
 6597      64655F66 
 6597      6F756E64 
 6598              	.LASF65:
 6599 0d05 4359424C 		.ascii	"CYBLE_EVT_GATTS_WRITE_CMD_REQ\000"
 6599      455F4556 
 6599      545F4741 
 6599      5454535F 
 6599      57524954 
 6600              	.LASF565:
 6601 0d23 74656D70 		.ascii	"temp\000"
 6601      00
 6602              	.LASF183:
 6603 0d28 4359424C 		.ascii	"CYBLE_GATT_READ_BY_GROUP_REQ\000"
 6603      455F4741 
 6603      54545F52 
 6603      4541445F 
 6603      42595F47 
 6604              	.LASF469:
 6605 0d45 4359424C 		.ascii	"CYBLE_EVT_NDCSC_READ_CHAR_RESPONSE\000"
 6605      455F4556 
 6605      545F4E44 
 6605      4353435F 
 6605      52454144 
ARM GAS  C:\Users\run1009\AppData\Local\Temp\ccJxhBPK.s 			page 156


 6606              	.LASF62:
 6607 0d68 4359424C 		.ascii	"CYBLE_EVT_GATTC_READ_MULTI_RSP\000"
 6607      455F4556 
 6607      545F4741 
 6607      5454435F 
 6607      52454144 
 6608              	.LASF322:
 6609 0d87 4359424C 		.ascii	"CYBLE_EVT_BLSS_NOTIFICATION_DISABLED\000"
 6609      455F4556 
 6609      545F424C 
 6609      53535F4E 
 6609      4F544946 
 6610              	.LASF224:
 6611 0dac 4359424C 		.ascii	"CYBLE_GATTS_ERR_OPERATION_FAILED\000"
 6611      455F4741 
 6611      5454535F 
 6611      4552525F 
 6611      4F504552 
 6612              	.LASF555:
 6613 0dcd 4359424C 		.ascii	"CYBLE_STATE_CONNECTING\000"
 6613      455F5354 
 6613      4154455F 
 6613      434F4E4E 
 6613      45435449 
 6614              	.LASF51:
 6615 0de4 4359424C 		.ascii	"CYBLE_EVT_GATTC_ERROR_RSP\000"
 6615      455F4556 
 6615      545F4741 
 6615      5454435F 
 6615      4552524F 
 6616              	.LASF179:
 6617 0dfe 4359424C 		.ascii	"CYBLE_GATT_READ_BLOB_REQ\000"
 6617      455F4741 
 6617      54545F52 
 6617      4541445F 
 6617      424C4F42 
 6618              	.LASF259:
 6619 0e17 4359424C 		.ascii	"CYBLE_KEY_EXCHANGE_INFO_REQUEST_REPLY\000"
 6619      455F4B45 
 6619      595F4558 
 6619      4348414E 
 6619      47455F49 
 6620              	.LASF251:
 6621 0e3d 4359424C 		.ascii	"CYBLE_GATTS_WRITE_REQ_PARAM_T\000"
 6621      455F4741 
 6621      5454535F 
 6621      57524954 
 6621      455F5245 
 6622              	.LASF622:
 6623 0e5b 474E5520 		.ascii	"GNU C11 5.4.1 20160609 (release) [ARM/embedded-5-br"
 6623      43313120 
 6623      352E342E 
 6623      31203230 
 6623      31363036 
 6624 0e8e 616E6368 		.ascii	"anch revision 237715] -mcpu=cortex-m0 -mthumb -g -O"
 6624      20726576 
 6624      6973696F 
ARM GAS  C:\Users\run1009\AppData\Local\Temp\ccJxhBPK.s 			page 157


 6624      6E203233 
 6624      37373135 
 6625 0ec1 30202D66 		.ascii	"0 -ffunction-sections -ffat-lto-objects\000"
 6625      66756E63 
 6625      74696F6E 
 6625      2D736563 
 6625      74696F6E 
 6626              	.LASF233:
 6627 0ee9 4359424C 		.ascii	"CYBLE_GATT_ERR_CCCD_IMPROPERLY_CONFIGURED\000"
 6627      455F4741 
 6627      54545F45 
 6627      52525F43 
 6627      4343445F 
 6628              	.LASF1:
 6629 0f13 756E7369 		.ascii	"unsigned char\000"
 6629      676E6564 
 6629      20636861 
 6629      7200
 6630              	.LASF33:
 6631 0f21 4359424C 		.ascii	"CYBLE_EVT_GAPP_ADVERTISEMENT_START_STOP\000"
 6631      455F4556 
 6631      545F4741 
 6631      50505F41 
 6631      44564552 
 6632              	.LASF153:
 6633 0f49 4359424C 		.ascii	"CYBLE_GAPP_DISC_DATA_T\000"
 6633      455F4741 
 6633      50505F44 
 6633      4953435F 
 6633      44415441 
 6634              	.LASF225:
 6635 0f60 4359424C 		.ascii	"CYBLE_GATT_ERR_INVALID_CRC\000"
 6635      455F4741 
 6635      54545F45 
 6635      52525F49 
 6635      4E56414C 
 6636              	.LASF119:
 6637 0f7b 4359424C 		.ascii	"CYBLE_ERROR_CONTROLLER_BUSY\000"
 6637      455F4552 
 6637      524F525F 
 6637      434F4E54 
 6637      524F4C4C 
 6638              	.LASF255:
 6639 0f97 4359424C 		.ascii	"CYBLE_GATTC_WRITE_REQ_T\000"
 6639      455F4741 
 6639      5454435F 
 6639      57524954 
 6639      455F5245 
 6640              	.LASF15:
 6641 0faf 666C6F61 		.ascii	"float\000"
 6641      7400
 6642              	.LASF577:
 6643 0fb5 77726974 		.ascii	"writeReqData\000"
 6643      65526571 
 6643      44617461 
 6643      00
 6644              	.LASF370:
ARM GAS  C:\Users\run1009\AppData\Local\Temp\ccJxhBPK.s 			page 158


 6645 0fc2 4359424C 		.ascii	"CYBLE_EVT_CSCSC_WRITE_DESCR_RESPONSE\000"
 6645      455F4556 
 6645      545F4353 
 6645      4353435F 
 6645      57524954 
 6646              	.LASF416:
 6647 0fe7 4359424C 		.ascii	"CYBLE_EVT_HIDSC_WRITE_DESCR_RESPONSE\000"
 6647      455F4556 
 6647      545F4849 
 6647      4453435F 
 6647      57524954 
 6648              	.LASF58:
 6649 100c 4359424C 		.ascii	"CYBLE_EVT_GATTC_FIND_INFO_RSP\000"
 6649      455F4556 
 6649      545F4741 
 6649      5454435F 
 6649      46494E44 
 6650              	.LASF482:
 6651 102a 4359424C 		.ascii	"CYBLE_EVT_PLXSS_INDICATION_CONFIRMED\000"
 6651      455F4556 
 6651      545F504C 
 6651      5853535F 
 6651      494E4449 
 6652              	.LASF187:
 6653 104f 4359424C 		.ascii	"CYBLE_GATT_WRITE_CMD\000"
 6653      455F4741 
 6653      54545F57 
 6653      52495445 
 6653      5F434D44 
 6654              	.LASF79:
 6655 1064 4359424C 		.ascii	"CYBLE_EVT_L2CAP_CBFC_CONN_IND\000"
 6655      455F4556 
 6655      545F4C32 
 6655      4341505F 
 6655      43424643 
 6656              	.LASF218:
 6657 1082 4359424C 		.ascii	"CYBLE_GATT_ERR_CPS_INAPPROPRIATE_CONNECTION_PARAMET"
 6657      455F4741 
 6657      54545F45 
 6657      52525F43 
 6657      50535F49 
 6658 10b5 45525300 		.ascii	"ERS\000"
 6659              	.LASF293:
 6660 10b9 4359424C 		.ascii	"CYBLE_EVT_ANCSC_WRITE_CHAR_RESPONSE\000"
 6660      455F4556 
 6660      545F414E 
 6660      4353435F 
 6660      57524954 
 6661              	.LASF560:
 6662 10dd 4359424C 		.ascii	"CYBLE_SRVI_CUSTOMS\000"
 6662      455F5352 
 6662      56495F43 
 6662      5553544F 
 6662      4D5300
 6663              	.LASF457:
 6664 10f0 4359424C 		.ascii	"CYBLE_EVT_LNSS_INDICATION_ENABLED\000"
 6664      455F4556 
ARM GAS  C:\Users\run1009\AppData\Local\Temp\ccJxhBPK.s 			page 159


 6664      545F4C4E 
 6664      53535F49 
 6664      4E444943 
 6665              	.LASF81:
 6666 1112 4359424C 		.ascii	"CYBLE_EVT_L2CAP_CBFC_DISCONN_IND\000"
 6666      455F4556 
 6666      545F4C32 
 6666      4341505F 
 6666      43424643 
 6667              	.LASF285:
 6668 1133 4359424C 		.ascii	"CYBLE_EVT_AIOSC_WRITE_CHAR_RESPONSE\000"
 6668      455F4556 
 6668      545F4149 
 6668      4F53435F 
 6668      57524954 
 6669              	.LASF355:
 6670 1157 4359424C 		.ascii	"CYBLE_EVT_CPSC_WRITE_CHAR_RESPONSE\000"
 6670      455F4556 
 6670      545F4350 
 6670      53435F57 
 6670      52495445 
 6671              	.LASF203:
 6672 117a 4359424C 		.ascii	"CYBLE_GATT_ERR_REQUEST_NOT_SUPPORTED\000"
 6672      455F4741 
 6672      54545F45 
 6672      52525F52 
 6672      45515545 
 6673              	.LASF28:
 6674 119f 4359424C 		.ascii	"CYBLE_EVT_GAP_AUTH_REQ\000"
 6674      455F4556 
 6674      545F4741 
 6674      505F4155 
 6674      54485F52 
 6675              	.LASF201:
 6676 11b6 4359424C 		.ascii	"CYBLE_GATT_ERR_INVALID_PDU\000"
 6676      455F4741 
 6676      54545F45 
 6676      52525F49 
 6676      4E56414C 
 6677              	.LASF318:
 6678 11d1 4359424C 		.ascii	"CYBLE_EVT_BLSS_INDICATION_ENABLED\000"
 6678      455F4556 
 6678      545F424C 
 6678      53535F49 
 6678      4E444943 
 6679              	.LASF415:
 6680 11f3 4359424C 		.ascii	"CYBLE_EVT_HIDSC_READ_DESCR_RESPONSE\000"
 6680      455F4556 
 6680      545F4849 
 6680      4453435F 
 6680      52454144 
 6681              	.LASF232:
 6682 1217 4359424C 		.ascii	"CYBLE_GATT_ERR_ANCS_ACTION_FAILED\000"
 6682      455F4741 
 6682      54545F45 
 6682      52525F41 
 6682      4E43535F 
ARM GAS  C:\Users\run1009\AppData\Local\Temp\ccJxhBPK.s 			page 160


 6683              	.LASF610:
 6684 1239 706F7465 		.ascii	"potential_node_bdAddr\000"
 6684      6E746961 
 6684      6C5F6E6F 
 6684      64655F62 
 6684      64416464 
 6685              	.LASF175:
 6686 124f 4359424C 		.ascii	"CYBLE_GATT_READ_BY_TYPE_REQ\000"
 6686      455F4741 
 6686      54545F52 
 6686      4541445F 
 6686      42595F54 
 6687              	.LASF164:
 6688 126b 64617461 		.ascii	"dataLen\000"
 6688      4C656E00 
 6689              	.LASF163:
 6690 1273 70656572 		.ascii	"peerBdAddr\000"
 6690      42644164 
 6690      647200
 6691              	.LASF506:
 6692 127e 4359424C 		.ascii	"CYBLE_EVT_SCPSS_SCAN_INT_WIN_CHAR_WRITE\000"
 6692      455F4556 
 6692      545F5343 
 6692      5053535F 
 6692      5343414E 
 6693              	.LASF604:
 6694 12a6 64617461 		.ascii	"dataADVCounter\000"
 6694      41445643 
 6694      6F756E74 
 6694      657200
 6695              	.LASF330:
 6696 12b5 4359424C 		.ascii	"CYBLE_EVT_BMSC_WRITE_CHAR_RESPONSE\000"
 6696      455F4556 
 6696      545F424D 
 6696      53435F57 
 6696      52495445 
 6697              	.LASF206:
 6698 12d8 4359424C 		.ascii	"CYBLE_GATT_ERR_PREPARE_WRITE_QUEUE_FULL\000"
 6698      455F4741 
 6698      54545F45 
 6698      52525F50 
 6698      52455041 
 6699              	.LASF159:
 6700 1300 61647654 		.ascii	"advTo\000"
 6700      6F00
 6701              	.LASF552:
 6702 1306 4359424C 		.ascii	"CYBLE_STATE_CONNECTED\000"
 6702      455F5354 
 6702      4154455F 
 6702      434F4E4E 
 6702      45435445 
 6703              	.LASF500:
 6704 131c 4359424C 		.ascii	"CYBLE_EVT_RSCSC_READ_DESCR_RESPONSE\000"
 6704      455F4556 
 6704      545F5253 
 6704      4353435F 
 6704      52454144 
ARM GAS  C:\Users\run1009\AppData\Local\Temp\ccJxhBPK.s 			page 161


 6705              	.LASF484:
 6706 1340 4359424C 		.ascii	"CYBLE_EVT_PLXSC_INDICATION\000"
 6706      455F4556 
 6706      545F504C 
 6706      5853435F 
 6706      494E4449 
 6707              	.LASF131:
 6708 135b 4359424C 		.ascii	"CYBLE_GAPP_CONNECTABLE_HIGH_DC_DIRECTED_ADV\000"
 6708      455F4741 
 6708      50505F43 
 6708      4F4E4E45 
 6708      43544142 
 6709              	.LASF378:
 6710 1387 4359424C 		.ascii	"CYBLE_EVT_CTSC_WRITE_CHAR_RESPONSE\000"
 6710      455F4556 
 6710      545F4354 
 6710      53435F57 
 6710      52495445 
 6711              	.LASF110:
 6712 13aa 4359424C 		.ascii	"CYBLE_ERROR_L2CAP_PSM_NOT_IN_RANGE\000"
 6712      455F4552 
 6712      524F525F 
 6712      4C324341 
 6712      505F5053 
 6713              	.LASF125:
 6714 13cd 4359424C 		.ascii	"CYBLE_ERROR_STACK_BUSY\000"
 6714      455F4552 
 6714      524F525F 
 6714      53544143 
 6714      4B5F4255 
 6715              	.LASF530:
 6716 13e4 4359424C 		.ascii	"CYBLE_EVT_WPTSS_NOTIFICATION_ENABLED\000"
 6716      455F4556 
 6716      545F5750 
 6716      5453535F 
 6716      4E4F5449 
 6717              	.LASF467:
 6718 1409 4359424C 		.ascii	"CYBLE_EVT_LNSC_READ_DESCR_RESPONSE\000"
 6718      455F4556 
 6718      545F4C4E 
 6718      53435F52 
 6718      4541445F 
 6719              	.LASF507:
 6720 142c 4359424C 		.ascii	"CYBLE_EVT_SCPSC_NOTIFICATION\000"
 6720      455F4556 
 6720      545F5343 
 6720      5053435F 
 6720      4E4F5449 
 6721              	.LASF509:
 6722 1449 4359424C 		.ascii	"CYBLE_EVT_SCPSC_WRITE_DESCR_RESPONSE\000"
 6722      455F4556 
 6722      545F5343 
 6722      5053435F 
 6722      57524954 
 6723              	.LASF256:
 6724 146e 4359424C 		.ascii	"CYBLE_AUTHENTICATION_REQUEST_REPLY\000"
 6724      455F4155 
ARM GAS  C:\Users\run1009\AppData\Local\Temp\ccJxhBPK.s 			page 162


 6724      5448454E 
 6724      54494341 
 6724      54494F4E 
 6725              	.LASF27:
 6726 1491 4359424C 		.ascii	"CYBLE_EVT_GAPC_SCAN_PROGRESS_RESULT\000"
 6726      455F4556 
 6726      545F4741 
 6726      50435F53 
 6726      43414E5F 
 6727              	.LASF207:
 6728 14b5 4359424C 		.ascii	"CYBLE_GATT_ERR_ATTRIBUTE_NOT_FOUND\000"
 6728      455F4741 
 6728      54545F45 
 6728      52525F41 
 6728      54545249 
 6729              	.LASF523:
 6730 14d8 4359424C 		.ascii	"CYBLE_EVT_UDSC_INDICATION\000"
 6730      455F4556 
 6730      545F5544 
 6730      53435F49 
 6730      4E444943 
 6731              	.LASF358:
 6732 14f2 4359424C 		.ascii	"CYBLE_EVT_CPSC_SCAN_PROGRESS_RESULT\000"
 6732      455F4556 
 6732      545F4350 
 6732      53435F53 
 6732      43414E5F 
 6733              	.LASF374:
 6734 1516 4359424C 		.ascii	"CYBLE_EVT_CTSC_NOTIFICATION\000"
 6734      455F4556 
 6734      545F4354 
 6734      53435F4E 
 6734      4F544946 
 6735              	.LASF489:
 6736 1532 4359424C 		.ascii	"CYBLE_EVT_PLXSC_TIMEOUT\000"
 6736      455F4556 
 6736      545F504C 
 6736      5853435F 
 6736      54494D45 
 6737              	.LASF172:
 6738 154a 4359424C 		.ascii	"CYBLE_GATT_FIND_INFO_RSP\000"
 6738      455F4741 
 6738      54545F46 
 6738      494E445F 
 6738      494E464F 
 6739              	.LASF440:
 6740 1563 4359424C 		.ascii	"CYBLE_EVT_HTSC_INDICATION\000"
 6740      455F4556 
 6740      545F4854 
 6740      53435F49 
 6740      4E444943 
 6741              	.LASF22:
 6742 157d 4359424C 		.ascii	"CYBLE_EVT_TIMEOUT\000"
 6742      455F4556 
 6742      545F5449 
 6742      4D454F55 
 6742      5400
ARM GAS  C:\Users\run1009\AppData\Local\Temp\ccJxhBPK.s 			page 163


 6743              	.LASF516:
 6744 158f 4359424C 		.ascii	"CYBLE_EVT_UDSS_INDICATION_ENABLED\000"
 6744      455F4556 
 6744      545F5544 
 6744      53535F49 
 6744      4E444943 
 6745              	.LASF316:
 6746 15b1 4359424C 		.ascii	"CYBLE_EVT_BCSC_READ_DESCR_RESPONSE\000"
 6746      455F4556 
 6746      545F4243 
 6746      53435F52 
 6746      4541445F 
 6747              	.LASF594:
 6748 15d4 53656E64 		.ascii	"SendErrorCode\000"
 6748      4572726F 
 6748      72436F64 
 6748      6500
 6749              	.LASF488:
 6750 15e2 4359424C 		.ascii	"CYBLE_EVT_PLXSC_WRITE_DESCR_RESPONSE\000"
 6750      455F4556 
 6750      545F504C 
 6750      5853435F 
 6750      57524954 
 6751              	.LASF214:
 6752 1607 4359424C 		.ascii	"CYBLE_GATT_ERR_INSUFFICIENT_RESOURCE\000"
 6752      455F4741 
 6752      54545F45 
 6752      52525F49 
 6752      4E535546 
 6753              	.LASF274:
 6754 162c 4359424C 		.ascii	"CYBLE_EVT_GATTC_DISCOVERY_COMPLETE\000"
 6754      455F4556 
 6754      545F4741 
 6754      5454435F 
 6754      44495343 
 6755              	.LASF265:
 6756 164f 4359424C 		.ascii	"CYBLE_EVT_GATTC_CHAR_DISCOVERY_FAILED\000"
 6756      455F4556 
 6756      545F4741 
 6756      5454435F 
 6756      43484152 
 6757              	.LASF537:
 6758 1675 4359424C 		.ascii	"CYBLE_EVT_WPTSC_INDICATION\000"
 6758      455F4556 
 6758      545F5750 
 6758      5453435F 
 6758      494E4449 
 6759              	.LASF88:
 6760 1690 4359424C 		.ascii	"CYBLE_EVT_LE_PING_AUTH_TIMEOUT\000"
 6760      455F4556 
 6760      545F4C45 
 6760      5F50494E 
 6760      475F4155 
 6761              	.LASF429:
 6762 16af 4359424C 		.ascii	"CYBLE_EVT_HRSC_READ_CHAR_RESPONSE\000"
 6762      455F4556 
 6762      545F4852 
ARM GAS  C:\Users\run1009\AppData\Local\Temp\ccJxhBPK.s 			page 164


 6762      53435F52 
 6762      4541445F 
 6763              	.LASF100:
 6764 16d1 4359424C 		.ascii	"CYBLE_ERROR_REPEATED_ATTEMPTS\000"
 6764      455F4552 
 6764      524F525F 
 6764      52455045 
 6764      41544544 
 6765              	.LASF291:
 6766 16ef 4359424C 		.ascii	"CYBLE_EVT_ANCSS_WRITE_CHAR\000"
 6766      455F4556 
 6766      545F414E 
 6766      4353535F 
 6766      57524954 
 6767              	.LASF177:
 6768 170a 4359424C 		.ascii	"CYBLE_GATT_READ_REQ\000"
 6768      455F4741 
 6768      54545F52 
 6768      4541445F 
 6768      52455100 
 6769              	.LASF86:
 6770 171e 4359424C 		.ascii	"CYBLE_EVT_L2CAP_CBFC_DATA_WRITE_IND\000"
 6770      455F4556 
 6770      545F4C32 
 6770      4341505F 
 6770      43424643 
 6771              	.LASF315:
 6772 1742 4359424C 		.ascii	"CYBLE_EVT_BCSC_READ_CHAR_RESPONSE\000"
 6772      455F4556 
 6772      545F4243 
 6772      53435F52 
 6772      4541445F 
 6773              	.LASF69:
 6774 1764 4359424C 		.ascii	"CYBLE_EVT_GATTC_HANDLE_VALUE_NTF\000"
 6774      455F4556 
 6774      545F4741 
 6774      5454435F 
 6774      48414E44 
 6775              	.LASF127:
 6776 1785 62644164 		.ascii	"bdAddr\000"
 6776      647200
 6777              	.LASF193:
 6778 178c 4359424C 		.ascii	"CYBLE_GATT_HANDLE_VALUE_IND\000"
 6778      455F4741 
 6778      54545F48 
 6778      414E444C 
 6778      455F5641 
 6779              	.LASF496:
 6780 17a8 4359424C 		.ascii	"CYBLE_EVT_RSCSC_NOTIFICATION\000"
 6780      455F4556 
 6780      545F5253 
 6780      4353435F 
 6780      4E4F5449 
 6781              	.LASF395:
 6782 17c5 4359424C 		.ascii	"CYBLE_EVT_GLSS_INDICATION_CONFIRMED\000"
 6782      455F4556 
 6782      545F474C 
ARM GAS  C:\Users\run1009\AppData\Local\Temp\ccJxhBPK.s 			page 165


 6782      53535F49 
 6782      4E444943 
 6783              	.LASF288:
 6784 17e9 4359424C 		.ascii	"CYBLE_EVT_AIOSC_ERROR_RESPONSE\000"
 6784      455F4556 
 6784      545F4149 
 6784      4F53435F 
 6784      4552524F 
 6785              	.LASF486:
 6786 1808 4359424C 		.ascii	"CYBLE_EVT_PLXSC_WRITE_CHAR_RESPONSE\000"
 6786      455F4556 
 6786      545F504C 
 6786      5853435F 
 6786      57524954 
 6787              	.LASF522:
 6788 182c 4359424C 		.ascii	"CYBLE_EVT_UDSS_WRITE_CHAR\000"
 6788      455F4556 
 6788      545F5544 
 6788      53535F57 
 6788      52495445 
 6789              	.LASF276:
 6790 1846 4359424C 		.ascii	"CYBLE_EVT_AIOSS_NOTIFICATION_DISABLED\000"
 6790      455F4556 
 6790      545F4149 
 6790      4F53535F 
 6790      4E4F5449 
 6791              	.LASF442:
 6792 186c 4359424C 		.ascii	"CYBLE_EVT_HTSC_WRITE_CHAR_RESPONSE\000"
 6792      455F4556 
 6792      545F4854 
 6792      53435F57 
 6792      52495445 
 6793              	.LASF587:
 6794 188f 74656D70 		.ascii	"temperture\000"
 6794      65727475 
 6794      726500
 6795              	.LASF121:
 6796 189a 4359424C 		.ascii	"CYBLE_ERROR_NTF_DISABLED\000"
 6796      455F4552 
 6796      524F525F 
 6796      4E54465F 
 6796      44495341 
 6797              	.LASF10:
 6798 18b3 75696E74 		.ascii	"uint8_t\000"
 6798      385F7400 
 6799              	.LASF364:
 6800 18bb 4359424C 		.ascii	"CYBLE_EVT_CSCSS_CHAR_WRITE\000"
 6800      455F4556 
 6800      545F4353 
 6800      4353535F 
 6800      43484152 
 6801              	.LASF126:
 6802 18d6 4359424C 		.ascii	"CYBLE_API_RESULT_T\000"
 6802      455F4150 
 6802      495F5245 
 6802      53554C54 
 6802      5F5400
ARM GAS  C:\Users\run1009\AppData\Local\Temp\ccJxhBPK.s 			page 166


 6803              	.LASF169:
 6804 18e9 4359424C 		.ascii	"CYBLE_GATT_XCNHG_MTU_REQ\000"
 6804      455F4741 
 6804      54545F58 
 6804      434E4847 
 6804      5F4D5455 
 6805              	.LASF448:
 6806 1902 4359424C 		.ascii	"CYBLE_EVT_IPSC_READ_MULTIPLE_CHAR_RESPONSE\000"
 6806      455F4556 
 6806      545F4950 
 6806      53435F52 
 6806      4541445F 
 6807              	.LASF603:
 6808 192d 72656376 		.ascii	"recvTempData\000"
 6808      54656D70 
 6808      44617461 
 6808      00
 6809              	.LASF145:
 6810 193a 6F776E41 		.ascii	"ownAddrType\000"
 6810      64647254 
 6810      79706500 
 6811              	.LASF518:
 6812 1946 4359424C 		.ascii	"CYBLE_EVT_UDSS_INDICATION_CONFIRMED\000"
 6812      455F4556 
 6812      545F5544 
 6812      53535F49 
 6812      4E444943 
 6813              	.LASF544:
 6814 196a 4359424C 		.ascii	"CYBLE_EVT_WSSS_INDICATION_CONFIRMED\000"
 6814      455F4556 
 6814      545F5753 
 6814      53535F49 
 6814      4E444943 
 6815              	.LASF550:
 6816 198e 4359424C 		.ascii	"CYBLE_STATE_STOPPED\000"
 6816      455F5354 
 6816      4154455F 
 6816      53544F50 
 6816      50454400 
 6817              	.LASF266:
 6818 19a2 4359424C 		.ascii	"CYBLE_EVT_GATTC_DESCR_DISCOVERY_FAILED\000"
 6818      455F4556 
 6818      545F4741 
 6818      5454435F 
 6818      44455343 
 6819              	.LASF43:
 6820 19c9 4359424C 		.ascii	"CYBLE_EVT_GAP_DATA_LENGTH_CHANGE\000"
 6820      455F4556 
 6820      545F4741 
 6820      505F4441 
 6820      54415F4C 
 6821              	.LASF195:
 6822 19ea 4359424C 		.ascii	"CYBLE_GATT_SIGNED_WRITE_CMD\000"
 6822      455F4741 
 6822      54545F53 
 6822      49474E45 
 6822      445F5752 
ARM GAS  C:\Users\run1009\AppData\Local\Temp\ccJxhBPK.s 			page 167


 6823              	.LASF581:
 6824 1a06 61706952 		.ascii	"apiResult\000"
 6824      6573756C 
 6824      7400
 6825              	.LASF174:
 6826 1a10 4359424C 		.ascii	"CYBLE_GATT_FIND_BY_TYPE_VALUE_RSP\000"
 6826      455F4741 
 6826      54545F46 
 6826      494E445F 
 6826      42595F54 
 6827              	.LASF83:
 6828 1a32 4359424C 		.ascii	"CYBLE_EVT_L2CAP_CBFC_DATA_READ\000"
 6828      455F4556 
 6828      545F4C32 
 6828      4341505F 
 6828      43424643 
 6829              	.LASF114:
 6830 1a51 4359424C 		.ascii	"CYBLE_ERROR_MIC_AUTH_FAILED\000"
 6830      455F4552 
 6830      524F525F 
 6830      4D49435F 
 6830      41555448 
 6831              	.LASF208:
 6832 1a6d 4359424C 		.ascii	"CYBLE_GATT_ERR_ATTRIBUTE_NOT_LONG\000"
 6832      455F4741 
 6832      54545F45 
 6832      52525F41 
 6832      54545249 
 6833              	.LASF168:
 6834 1a8f 4359424C 		.ascii	"CYBLE_GATT_ERROR_RSP\000"
 6834      455F4741 
 6834      54545F45 
 6834      52524F52 
 6834      5F525350 
 6835              	.LASF211:
 6836 1aa4 4359424C 		.ascii	"CYBLE_GATT_ERR_UNLIKELY_ERROR\000"
 6836      455F4741 
 6836      54545F45 
 6836      52525F55 
 6836      4E4C494B 
 6837              	.LASF475:
 6838 1ac2 4359424C 		.ascii	"CYBLE_EVT_PASSC_READ_DESCR_RESPONSE\000"
 6838      455F4556 
 6838      545F5041 
 6838      5353435F 
 6838      52454144 
 6839              	.LASF245:
 6840 1ae6 4359424C 		.ascii	"CYBLE_GATT_HANDLE_VALUE_PAIR_T\000"
 6840      455F4741 
 6840      54545F48 
 6840      414E444C 
 6840      455F5641 
 6841              	.LASF155:
 6842 1b05 7363616E 		.ascii	"scanRspDataLen\000"
 6842      52737044 
 6842      6174614C 
 6842      656E00
ARM GAS  C:\Users\run1009\AppData\Local\Temp\ccJxhBPK.s 			page 168


 6843              	.LASF617:
 6844 1b14 72657374 		.ascii	"restartScanning\000"
 6844      61727453 
 6844      63616E6E 
 6844      696E6700 
 6845              	.LASF340:
 6846 1b24 4359424C 		.ascii	"CYBLE_EVT_CGMSC_READ_CHAR_RESPONSE\000"
 6846      455F4556 
 6846      545F4347 
 6846      4D53435F 
 6846      52454144 
 6847              	.LASF190:
 6848 1b47 4359424C 		.ascii	"CYBLE_GATT_EXECUTE_WRITE_REQ\000"
 6848      455F4741 
 6848      54545F45 
 6848      58454355 
 6848      54455F57 
 6849              	.LASF161:
 6850 1b64 6576656E 		.ascii	"eventType\000"
 6850      74547970 
 6850      6500
 6851              	.LASF61:
 6852 1b6e 4359424C 		.ascii	"CYBLE_EVT_GATTC_READ_BLOB_RSP\000"
 6852      455F4556 
 6852      545F4741 
 6852      5454435F 
 6852      52454144 
 6853              	.LASF404:
 6854 1b8c 4359424C 		.ascii	"CYBLE_EVT_GLSC_WRITE_DESCR_RESPONSE\000"
 6854      455F4556 
 6854      545F474C 
 6854      53435F57 
 6854      52495445 
 6855              	.LASF26:
 6856 1bb0 4359424C 		.ascii	"CYBLE_EVT_MEMORY_REQUEST\000"
 6856      455F4556 
 6856      545F4D45 
 6856      4D4F5259 
 6856      5F524551 
 6857              	.LASF67:
 6858 1bc9 4359424C 		.ascii	"CYBLE_EVT_GATTS_EXEC_WRITE_REQ\000"
 6858      455F4556 
 6858      545F4741 
 6858      5454535F 
 6858      45584543 
 6859              	.LASF321:
 6860 1be8 4359424C 		.ascii	"CYBLE_EVT_BLSS_NOTIFICATION_ENABLED\000"
 6860      455F4556 
 6860      545F424C 
 6860      53535F4E 
 6860      4F544946 
 6861              	.LASF425:
 6862 1c0c 4359424C 		.ascii	"CYBLE_EVT_HRSS_ENERGY_EXPENDED_RESET\000"
 6862      455F4556 
 6862      545F4852 
 6862      53535F45 
 6862      4E455247 
ARM GAS  C:\Users\run1009\AppData\Local\Temp\ccJxhBPK.s 			page 169


 6863              	.LASF226:
 6864 1c31 4359424C 		.ascii	"CYBLE_GATTS_ERR_HPS_INVALID_REQUEST\000"
 6864      455F4741 
 6864      5454535F 
 6864      4552525F 
 6864      4850535F 
 6865              	.LASF289:
 6866 1c55 4359424C 		.ascii	"CYBLE_EVT_ANCSS_NOTIFICATION_ENABLED\000"
 6866      455F4556 
 6866      545F414E 
 6866      4353535F 
 6866      4E4F5449 
 6867              	.LASF554:
 6868 1c7a 4359424C 		.ascii	"CYBLE_STATE_SCANNING\000"
 6868      455F5354 
 6868      4154455F 
 6868      5343414E 
 6868      4E494E47 
 6869              	.LASF112:
 6870 1c8f 4359424C 		.ascii	"CYBLE_ERROR_DEVICE_ALREADY_EXISTS\000"
 6870      455F4552 
 6870      524F525F 
 6870      44455649 
 6870      43455F41 
 6871              	.LASF250:
 6872 1cb1 68616E64 		.ascii	"handleValPair\000"
 6872      6C655661 
 6872      6C506169 
 6872      7200
 6873              	.LASF424:
 6874 1cbf 4359424C 		.ascii	"CYBLE_EVT_HPSC_WRITE_CHAR_RESPONSE\000"
 6874      455F4556 
 6874      545F4850 
 6874      53435F57 
 6874      52495445 
 6875              	.LASF108:
 6876 1ce2 4359424C 		.ascii	"CYBLE_ERROR_L2CAP_CONNECTION_ENTITY_NOT_FOUND\000"
 6876      455F4552 
 6876      524F525F 
 6876      4C324341 
 6876      505F434F 
 6877              	.LASF101:
 6878 1d10 4359424C 		.ascii	"CYBLE_ERROR_GAP_ROLE\000"
 6878      455F4552 
 6878      524F525F 
 6878      4741505F 
 6878      524F4C45 
 6879              	.LASF437:
 6880 1d25 4359424C 		.ascii	"CYBLE_EVT_HTSS_INDICATION_CONFIRMED\000"
 6880      455F4556 
 6880      545F4854 
 6880      53535F49 
 6880      4E444943 
 6881              	.LASF243:
 6882 1d49 76616C75 		.ascii	"value\000"
 6882      6500
 6883              	.LASF197:
ARM GAS  C:\Users\run1009\AppData\Local\Temp\ccJxhBPK.s 			page 170


 6884 1d4f 4359424C 		.ascii	"CYBLE_GATT_ERR_NONE\000"
 6884      455F4741 
 6884      54545F45 
 6884      52525F4E 
 6884      4F4E4500 
 6885              	.LASF528:
 6886 1d63 4359424C 		.ascii	"CYBLE_EVT_UDSC_WRITE_DESCR_RESPONSE\000"
 6886      455F4556 
 6886      545F5544 
 6886      53435F57 
 6886      52495445 
 6887              	.LASF543:
 6888 1d87 4359424C 		.ascii	"CYBLE_EVT_WSSS_INDICATION_DISABLED\000"
 6888      455F4556 
 6888      545F5753 
 6888      53535F49 
 6888      4E444943 
 6889              	.LASF615:
 6890 1daa 626C655F 		.ascii	"ble_gap_state\000"
 6890      6761705F 
 6890      73746174 
 6890      6500
 6891              	.LASF548:
 6892 1db8 4359424C 		.ascii	"CYBLE_EVT_WSSC_WRITE_DESCR_RESPONSE\000"
 6892      455F4556 
 6892      545F5753 
 6892      53435F57 
 6892      52495445 
 6893              	.LASF331:
 6894 1ddc 4359424C 		.ascii	"CYBLE_EVT_BMSC_READ_DESCR_RESPONSE\000"
 6894      455F4556 
 6894      545F424D 
 6894      53435F52 
 6894      4541445F 
 6895              	.LASF297:
 6896 1dff 4359424C 		.ascii	"CYBLE_EVT_ANSS_NOTIFICATION_ENABLED\000"
 6896      455F4556 
 6896      545F414E 
 6896      53535F4E 
 6896      4F544946 
 6897              	.LASF556:
 6898 1e23 4359424C 		.ascii	"CYBLE_STATE_DISCONNECTED\000"
 6898      455F5354 
 6898      4154455F 
 6898      44495343 
 6898      4F4E4E45 
 6899              	.LASF498:
 6900 1e3c 4359424C 		.ascii	"CYBLE_EVT_RSCSC_READ_CHAR_RESPONSE\000"
 6900      455F4556 
 6900      545F5253 
 6900      4353435F 
 6900      52454144 
 6901              	.LASF588:
 6902 1e5f 63686563 		.ascii	"check\000"
 6902      6B00
 6903              	.LASF53:
 6904 1e65 4359424C 		.ascii	"CYBLE_EVT_GATT_DISCONNECT_IND\000"
ARM GAS  C:\Users\run1009\AppData\Local\Temp\ccJxhBPK.s 			page 171


 6904      455F4556 
 6904      545F4741 
 6904      54545F44 
 6904      4953434F 
 6905              	.LASF376:
 6906 1e83 4359424C 		.ascii	"CYBLE_EVT_CTSC_READ_DESCR_RESPONSE\000"
 6906      455F4556 
 6906      545F4354 
 6906      53435F52 
 6906      4541445F 
 6907              	.LASF620:
 6908 1ea6 72657375 		.ascii	"result\000"
 6908      6C7400
 6909              	.LASF258:
 6910 1ead 4359424C 		.ascii	"CYBLE_LONG_TERM_KEY_REQUEST_REPLY\000"
 6910      455F4C4F 
 6910      4E475F54 
 6910      45524D5F 
 6910      4B45595F 
 6911              	.LASF14:
 6912 1ecf 696E7438 		.ascii	"int8\000"
 6912      00
 6913              	.LASF156:
 6914 1ed4 4359424C 		.ascii	"CYBLE_GAPP_SCAN_RSP_DATA_T\000"
 6914      455F4741 
 6914      50505F53 
 6914      43414E5F 
 6914      5253505F 
 6915              	.LASF184:
 6916 1eef 4359424C 		.ascii	"CYBLE_GATT_READ_BY_GROUP_RSP\000"
 6916      455F4741 
 6916      54545F52 
 6916      4541445F 
 6916      42595F47 
 6917              	.LASF143:
 6918 1f0c 61647649 		.ascii	"advIntvMax\000"
 6918      6E74764D 
 6918      617800
 6919              	.LASF134:
 6920 1f17 4359424C 		.ascii	"CYBLE_GAPP_CONNECTABLE_LOW_DC_DIRECTED_ADV\000"
 6920      455F4741 
 6920      50505F43 
 6920      4F4E4E45 
 6920      43544142 
 6921              	.LASF481:
 6922 1f42 4359424C 		.ascii	"CYBLE_EVT_PLXSS_INDICATION_DISABLED\000"
 6922      455F4556 
 6922      545F504C 
 6922      5853535F 
 6922      494E4449 
 6923              	.LASF558:
 6924 1f66 4359424C 		.ascii	"CYBLE_SRVI_GAP\000"
 6924      455F5352 
 6924      56495F47 
 6924      415000
 6925              	.LASF372:
 6926 1f75 4359424C 		.ascii	"CYBLE_EVT_CTSS_NOTIFICATION_DISABLED\000"
ARM GAS  C:\Users\run1009\AppData\Local\Temp\ccJxhBPK.s 			page 172


 6926      455F4556 
 6926      545F4354 
 6926      53535F4E 
 6926      4F544946 
 6927              	.LASF410:
 6928 1f9a 4359424C 		.ascii	"CYBLE_EVT_HIDSS_EXIT_SUSPEND\000"
 6928      455F4556 
 6928      545F4849 
 6928      4453535F 
 6928      45584954 
 6929              	.LASF433:
 6930 1fb7 4359424C 		.ascii	"CYBLE_EVT_HTSS_NOTIFICATION_ENABLED\000"
 6930      455F4556 
 6930      545F4854 
 6930      53535F4E 
 6930      4F544946 
 6931              	.LASF445:
 6932 1fdb 4359424C 		.ascii	"CYBLE_EVT_IASS_WRITE_CHAR_CMD\000"
 6932      455F4556 
 6932      545F4941 
 6932      53535F57 
 6932      52495445 
 6933              	.LASF436:
 6934 1ff9 4359424C 		.ascii	"CYBLE_EVT_HTSS_INDICATION_DISABLED\000"
 6934      455F4556 
 6934      545F4854 
 6934      53535F49 
 6934      4E444943 
 6935              	.LASF77:
 6936 201c 4359424C 		.ascii	"CYBLE_EVT_L2CAP_CONN_PARAM_UPDATE_RSP\000"
 6936      455F4556 
 6936      545F4C32 
 6936      4341505F 
 6936      434F4E4E 
 6937              	.LASF426:
 6938 2042 4359424C 		.ascii	"CYBLE_EVT_HRSS_NOTIFICATION_ENABLED\000"
 6938      455F4556 
 6938      545F4852 
 6938      53535F4E 
 6938      4F544946 
 6939              	.LASF180:
 6940 2066 4359424C 		.ascii	"CYBLE_GATT_READ_BLOB_RSP\000"
 6940      455F4741 
 6940      54545F52 
 6940      4541445F 
 6940      424C4F42 
 6941              	.LASF284:
 6942 207f 4359424C 		.ascii	"CYBLE_EVT_AIOSC_READ_CHAR_RESPONSE\000"
 6942      455F4556 
 6942      545F4149 
 6942      4F53435F 
 6942      52454144 
 6943              	.LASF452:
 6944 20a2 4359424C 		.ascii	"CYBLE_EVT_IPSC_ERROR_RESPONSE\000"
 6944      455F4556 
 6944      545F4950 
 6944      53435F45 
ARM GAS  C:\Users\run1009\AppData\Local\Temp\ccJxhBPK.s 			page 173


 6944      52524F52 
 6945              	.LASF345:
 6946 20c0 4359424C 		.ascii	"CYBLE_EVT_CPSS_NOTIFICATION_DISABLED\000"
 6946      455F4556 
 6946      545F4350 
 6946      53535F4E 
 6946      4F544946 
 6947              	.LASF582:
 6948 20e5 77726974 		.ascii	"writeRGBdata\000"
 6948      65524742 
 6948      64617461 
 6948      00
 6949              	.LASF140:
 6950 20f2 4359424C 		.ascii	"CYBLE_GAPC_SCAN_RSP\000"
 6950      455F4741 
 6950      50435F53 
 6950      43414E5F 
 6950      52535000 
 6951              	.LASF271:
 6952 2106 4359424C 		.ascii	"CYBLE_EVT_GATTC_INCL_DISCOVERY_COMPLETE\000"
 6952      455F4556 
 6952      545F4741 
 6952      5454435F 
 6952      494E434C 
 6953              	.LASF471:
 6954 212e 4359424C 		.ascii	"CYBLE_EVT_PASSS_NOTIFICATION_DISABLED\000"
 6954      455F4556 
 6954      545F5041 
 6954      5353535F 
 6954      4E4F5449 
 6955              	.LASF303:
 6956 2154 4359424C 		.ascii	"CYBLE_EVT_ANSC_READ_DESCR_RESPONSE\000"
 6956      455F4556 
 6956      545F414E 
 6956      53435F52 
 6956      4541445F 
 6957              	.LASF408:
 6958 2177 4359424C 		.ascii	"CYBLE_EVT_HIDSS_REPORT_MODE_ENTER\000"
 6958      455F4556 
 6958      545F4849 
 6958      4453535F 
 6958      5245504F 
 6959              	.LASF216:
 6960 2199 4359424C 		.ascii	"CYBLE_GATT_ERR_HEART_RATE_CONTROL_POINT_NOT_SUPPORT"
 6960      455F4741 
 6960      54545F45 
 6960      52525F48 
 6960      45415254 
 6961 21cc 454400   		.ascii	"ED\000"
 6962              	.LASF559:
 6963 21cf 4359424C 		.ascii	"CYBLE_SRVI_GATT\000"
 6963      455F5352 
 6963      56495F47 
 6963      41545400 
 6964              	.LASF547:
 6965 21df 4359424C 		.ascii	"CYBLE_EVT_WSSC_READ_DESCR_RESPONSE\000"
 6965      455F4556 
ARM GAS  C:\Users\run1009\AppData\Local\Temp\ccJxhBPK.s 			page 174


 6965      545F5753 
 6965      53435F52 
 6965      4541445F 
 6966              	.LASF557:
 6967 2202 4359424C 		.ascii	"CYBLE_STATE_T\000"
 6967      455F5354 
 6967      4154455F 
 6967      5400
 6968              	.LASF455:
 6969 2210 4359424C 		.ascii	"CYBLE_EVT_LLSC_READ_CHAR_RESPONSE\000"
 6969      455F4556 
 6969      545F4C4C 
 6969      53435F52 
 6969      4541445F 
 6970              	.LASF422:
 6971 2232 4359424C 		.ascii	"CYBLE_EVT_HPSC_READ_DESCR_RESPONSE\000"
 6971      455F4556 
 6971      545F4850 
 6971      53435F52 
 6971      4541445F 
 6972              	.LASF267:
 6973 2255 4359424C 		.ascii	"CYBLE_EVT_GATTC_SRVC_DUPLICATION\000"
 6973      455F4556 
 6973      545F4741 
 6973      5454435F 
 6973      53525643 
 6974              	.LASF295:
 6975 2276 4359424C 		.ascii	"CYBLE_EVT_ANCSC_WRITE_DESCR_RESPONSE\000"
 6975      455F4556 
 6975      545F414E 
 6975      4353435F 
 6975      57524954 
 6976              	.LASF485:
 6977 229b 4359424C 		.ascii	"CYBLE_EVT_PLXSC_READ_CHAR_RESPONSE\000"
 6977      455F4556 
 6977      545F504C 
 6977      5853435F 
 6977      52454144 
 6978              	.LASF532:
 6979 22be 4359424C 		.ascii	"CYBLE_EVT_WPTSS_INDICATION_ENABLED\000"
 6979      455F4556 
 6979      545F5750 
 6979      5453535F 
 6979      494E4449 
 6980              	.LASF323:
 6981 22e1 4359424C 		.ascii	"CYBLE_EVT_BLSC_INDICATION\000"
 6981      455F4556 
 6981      545F424C 
 6981      53435F49 
 6981      4E444943 
 6982              	.LASF444:
 6983 22fb 4359424C 		.ascii	"CYBLE_EVT_HTSC_WRITE_DESCR_RESPONSE\000"
 6983      455F4556 
 6983      545F4854 
 6983      53435F57 
 6983      52495445 
 6984              	.LASF144:
ARM GAS  C:\Users\run1009\AppData\Local\Temp\ccJxhBPK.s 			page 175


 6985 231f 61647654 		.ascii	"advType\000"
 6985      79706500 
 6986              	.LASF529:
 6987 2327 4359424C 		.ascii	"CYBLE_EVT_UDSC_ERROR_RESPONSE\000"
 6987      455F4556 
 6987      545F5544 
 6987      53435F45 
 6987      52524F52 
 6988              	.LASF371:
 6989 2345 4359424C 		.ascii	"CYBLE_EVT_CTSS_NOTIFICATION_ENABLED\000"
 6989      455F4556 
 6989      545F4354 
 6989      53535F4E 
 6989      4F544946 
 6990              	.LASF619:
 6991 2369 62745F61 		.ascii	"bt_addr\000"
 6991      64647200 
 6992              	.LASF591:
 6993 2371 47656E65 		.ascii	"GenericEventHandler\000"
 6993      72696345 
 6993      76656E74 
 6993      48616E64 
 6993      6C657200 
 6994              	.LASF443:
 6995 2385 4359424C 		.ascii	"CYBLE_EVT_HTSC_READ_DESCR_RESPONSE\000"
 6995      455F4556 
 6995      545F4854 
 6995      53435F52 
 6995      4541445F 
 6996              	.LASF36:
 6997 23a8 4359424C 		.ascii	"CYBLE_EVT_GAP_ENCRYPT_CHANGE\000"
 6997      455F4556 
 6997      545F4741 
 6997      505F454E 
 6997      43525950 
 6998              	.LASF34:
 6999 23c5 4359424C 		.ascii	"CYBLE_EVT_GAP_DEVICE_CONNECTED\000"
 6999      455F4556 
 6999      545F4741 
 6999      505F4445 
 6999      56494345 
 7000              	.LASF176:
 7001 23e4 4359424C 		.ascii	"CYBLE_GATT_READ_BY_TYPE_RSP\000"
 7001      455F4741 
 7001      54545F52 
 7001      4541445F 
 7001      42595F54 
 7002              	.LASF247:
 7003 2400 6572726F 		.ascii	"errorCode\000"
 7003      72436F64 
 7003      6500
 7004              	.LASF494:
 7005 240a 4359424C 		.ascii	"CYBLE_EVT_RSCSS_INDICATION_CONFIRMATION\000"
 7005      455F4556 
 7005      545F5253 
 7005      4353535F 
 7005      494E4449 
ARM GAS  C:\Users\run1009\AppData\Local\Temp\ccJxhBPK.s 			page 176


 7006              	.LASF353:
 7007 2432 4359424C 		.ascii	"CYBLE_EVT_CPSC_INDICATION\000"
 7007      455F4556 
 7007      545F4350 
 7007      53435F49 
 7007      4E444943 
 7008              	.LASF151:
 7009 244c 61647644 		.ascii	"advData\000"
 7009      61746100 
 7010              	.LASF204:
 7011 2454 4359424C 		.ascii	"CYBLE_GATT_ERR_INVALID_OFFSET\000"
 7011      455F4741 
 7011      54545F45 
 7011      52525F49 
 7011      4E56414C 
 7012              	.LASF607:
 7013 2472 73656E73 		.ascii	"sensorReceiveStartedTime\000"
 7013      6F725265 
 7013      63656976 
 7013      65537461 
 7013      72746564 
 7014              	.LASF381:
 7015 248b 4359424C 		.ascii	"CYBLE_EVT_ESSS_NOTIFICATION_DISABLED\000"
 7015      455F4556 
 7015      545F4553 
 7015      53535F4E 
 7015      4F544946 
 7016              	.LASF205:
 7017 24b0 4359424C 		.ascii	"CYBLE_GATT_ERR_INSUFFICIENT_AUTHORIZATION\000"
 7017      455F4741 
 7017      54545F45 
 7017      52525F49 
 7017      4E535546 
 7018              	.LASF19:
 7019 24da 73697A65 		.ascii	"sizetype\000"
 7019      74797065 
 7019      00
 7020              	.LASF414:
 7021 24e3 4359424C 		.ascii	"CYBLE_EVT_HIDSC_WRITE_CHAR_RESPONSE\000"
 7021      455F4556 
 7021      545F4849 
 7021      4453435F 
 7021      57524954 
 7022              	.LASF87:
 7023 2507 4359424C 		.ascii	"CYBLE_EVT_PENDING_FLASH_WRITE\000"
 7023      455F4556 
 7023      545F5045 
 7023      4E44494E 
 7023      475F464C 
 7024              	.LASF569:
 7025 2525 6E6F6973 		.ascii	"noise\000"
 7025      6500
 7026              	.LASF20:
 7027 252b 4359424C 		.ascii	"CYBLE_EVT_HOST_INVALID\000"
 7027      455F4556 
 7027      545F484F 
 7027      53545F49 
ARM GAS  C:\Users\run1009\AppData\Local\Temp\ccJxhBPK.s 			page 177


 7027      4E56414C 
 7028              	.LASF462:
 7029 2542 4359424C 		.ascii	"CYBLE_EVT_LNSS_WRITE_CHAR\000"
 7029      455F4556 
 7029      545F4C4E 
 7029      53535F57 
 7029      52495445 
 7030              	.LASF3:
 7031 255c 73686F72 		.ascii	"short unsigned int\000"
 7031      7420756E 
 7031      7369676E 
 7031      65642069 
 7031      6E7400
 7032              	.LASF399:
 7033 256f 4359424C 		.ascii	"CYBLE_EVT_GLSC_INDICATION\000"
 7033      455F4556 
 7033      545F474C 
 7033      53435F49 
 7033      4E444943 
 7034              	.LASF0:
 7035 2589 7369676E 		.ascii	"signed char\000"
 7035      65642063 
 7035      68617200 
 7036              	.LASF349:
 7037 2595 4359424C 		.ascii	"CYBLE_EVT_CPSS_BROADCAST_ENABLED\000"
 7037      455F4556 
 7037      545F4350 
 7037      53535F42 
 7037      524F4144 
 7038              	.LASF605:
 7039 25b6 73776974 		.ascii	"switch_Role\000"
 7039      63685F52 
 7039      6F6C6500 
 7040              	.LASF235:
 7041 25c2 4359424C 		.ascii	"CYBLE_GATT_ERR_OUT_OF_RANGE\000"
 7041      455F4741 
 7041      54545F45 
 7041      52525F4F 
 7041      55545F4F 
 7042              	.LASF313:
 7043 25de 4359424C 		.ascii	"CYBLE_EVT_BCSS_INDICATION_CONFIRMED\000"
 7043      455F4556 
 7043      545F4243 
 7043      53535F49 
 7043      4E444943 
 7044              	.LASF68:
 7045 2602 4359424C 		.ascii	"CYBLE_EVT_GATTC_EXEC_WRITE_RSP\000"
 7045      455F4556 
 7045      545F4741 
 7045      5454435F 
 7045      45584543 
 7046              	.LASF510:
 7047 2621 4359424C 		.ascii	"CYBLE_EVT_TPSS_NOTIFICATION_ENABLED\000"
 7047      455F4556 
 7047      545F5450 
 7047      53535F4E 
 7047      4F544946 
ARM GAS  C:\Users\run1009\AppData\Local\Temp\ccJxhBPK.s 			page 178


 7048              	.LASF326:
 7049 2645 4359424C 		.ascii	"CYBLE_EVT_BLSC_READ_DESCR_RESPONSE\000"
 7049      455F4556 
 7049      545F424C 
 7049      53435F52 
 7049      4541445F 
 7050              	.LASF526:
 7051 2668 4359424C 		.ascii	"CYBLE_EVT_UDSC_WRITE_CHAR_RESPONSE\000"
 7051      455F4556 
 7051      545F5544 
 7051      53435F57 
 7051      52495445 
 7052              	.LASF230:
 7053 268b 4359424C 		.ascii	"CYBLE_GATT_ERR_ANCS_INVALID_COMMAND\000"
 7053      455F4741 
 7053      54545F45 
 7053      52525F41 
 7053      4E43535F 
 7054              	.LASF354:
 7055 26af 4359424C 		.ascii	"CYBLE_EVT_CPSC_READ_CHAR_RESPONSE\000"
 7055      455F4556 
 7055      545F4350 
 7055      53435F52 
 7055      4541445F 
 7056              	.LASF178:
 7057 26d1 4359424C 		.ascii	"CYBLE_GATT_READ_RSP\000"
 7057      455F4741 
 7057      54545F52 
 7057      4541445F 
 7057      52535000 
 7058              	.LASF411:
 7059 26e5 4359424C 		.ascii	"CYBLE_EVT_HIDSS_REPORT_CHAR_WRITE\000"
 7059      455F4556 
 7059      545F4849 
 7059      4453535F 
 7059      5245504F 
 7060              	.LASF600:
 7061 2707 63757272 		.ascii	"current_watchdog_counter\000"
 7061      656E745F 
 7061      77617463 
 7061      68646F67 
 7061      5F636F75 
 7062              	.LASF279:
 7063 2720 4359424C 		.ascii	"CYBLE_EVT_AIOSS_INDICATION_CONFIRMED\000"
 7063      455F4556 
 7063      545F4149 
 7063      4F53535F 
 7063      494E4449 
 7064              	.LASF561:
 7065 2745 4359424C 		.ascii	"CYBLE_SRVI_CUSTOMS_END\000"
 7065      455F5352 
 7065      56495F43 
 7065      5553544F 
 7065      4D535F45 
 7066              	.LASF625:
 7067 275c 52657374 		.ascii	"RestartCentralScanning\000"
 7067      61727443 
ARM GAS  C:\Users\run1009\AppData\Local\Temp\ccJxhBPK.s 			page 179


 7067      656E7472 
 7067      616C5363 
 7067      616E6E69 
 7068              	.LASF391:
 7069 2773 4359424C 		.ascii	"CYBLE_EVT_ESSC_READ_DESCR_RESPONSE\000"
 7069      455F4556 
 7069      545F4553 
 7069      53435F52 
 7069      4541445F 
 7070              	.LASF461:
 7071 2796 4359424C 		.ascii	"CYBLE_EVT_LNSS_NOTIFICATION_DISABLED\000"
 7071      455F4556 
 7071      545F4C4E 
 7071      53535F4E 
 7071      4F544946 
 7072              	.LASF305:
 7073 27bb 4359424C 		.ascii	"CYBLE_EVT_BASS_NOTIFICATION_ENABLED\000"
 7073      455F4556 
 7073      545F4241 
 7073      53535F4E 
 7073      4F544946 
 7074              	.LASF142:
 7075 27df 61647649 		.ascii	"advIntvMin\000"
 7075      6E74764D 
 7075      696E00
 7076              	.LASF248:
 7077 27ea 4359424C 		.ascii	"CYBLE_GATTS_ERR_PARAM_T\000"
 7077      455F4741 
 7077      5454535F 
 7077      4552525F 
 7077      50415241 
 7078              	.LASF304:
 7079 2802 4359424C 		.ascii	"CYBLE_EVT_ANSC_WRITE_DESCR_RESPONSE\000"
 7079      455F4556 
 7079      545F414E 
 7079      53435F57 
 7079      52495445 
 7080              	.LASF185:
 7081 2826 4359424C 		.ascii	"CYBLE_GATT_WRITE_REQ\000"
 7081      455F4741 
 7081      54545F57 
 7081      52495445 
 7081      5F524551 
 7082              	.LASF241:
 7083 283b 61637475 		.ascii	"actualLen\000"
 7083      616C4C65 
 7083      6E00
 7084              	.LASF402:
 7085 2845 4359424C 		.ascii	"CYBLE_EVT_GLSC_WRITE_CHAR_RESPONSE\000"
 7085      455F4556 
 7085      545F474C 
 7085      53435F57 
 7085      52495445 
 7086              	.LASF41:
 7087 2868 4359424C 		.ascii	"CYBLE_EVT_GAP_KEYPRESS_NOTIFICATION\000"
 7087      455F4556 
 7087      545F4741 
ARM GAS  C:\Users\run1009\AppData\Local\Temp\ccJxhBPK.s 			page 180


 7087      505F4B45 
 7087      59505245 
 7088              	.LASF464:
 7089 288c 4359424C 		.ascii	"CYBLE_EVT_LNSC_NOTIFICATION\000"
 7089      455F4556 
 7089      545F4C4E 
 7089      53435F4E 
 7089      4F544946 
 7090              	.LASF307:
 7091 28a8 4359424C 		.ascii	"CYBLE_EVT_BASC_NOTIFICATION\000"
 7091      455F4556 
 7091      545F4241 
 7091      53435F4E 
 7091      4F544946 
 7092              	.LASF59:
 7093 28c4 4359424C 		.ascii	"CYBLE_EVT_GATTC_FIND_BY_TYPE_VALUE_RSP\000"
 7093      455F4556 
 7093      545F4741 
 7093      5454435F 
 7093      46494E44 
 7094              	.LASF616:
 7095 28eb 64657669 		.ascii	"deviceConnected\000"
 7095      6365436F 
 7095      6E6E6563 
 7095      74656400 
 7096              	.LASF273:
 7097 28fb 4359424C 		.ascii	"CYBLE_EVT_GATTC_DISC_SKIPPED_SERVICE\000"
 7097      455F4556 
 7097      545F4741 
 7097      5454435F 
 7097      44495343 
 7098              	.LASF597:
 7099 2920 6379426C 		.ascii	"cyBle_discoveryModeInfo\000"
 7099      655F6469 
 7099      73636F76 
 7099      6572794D 
 7099      6F646549 
 7100              	.LASF590:
 7101 2938 70726573 		.ascii	"press\000"
 7101      7300
 7102              	.LASF124:
 7103 293e 4359424C 		.ascii	"CYBLE_ERROR_INVALID_STATE\000"
 7103      455F4552 
 7103      524F525F 
 7103      494E5641 
 7103      4C49445F 
 7104              	.LASF568:
 7105 2958 70726573 		.ascii	"pressure\000"
 7105      73757265 
 7105      00
 7106              	.LASF545:
 7107 2961 4359424C 		.ascii	"CYBLE_EVT_WSSC_INDICATION\000"
 7107      455F4556 
 7107      545F5753 
 7107      53435F49 
 7107      4E444943 
 7108              	.LASF317:
ARM GAS  C:\Users\run1009\AppData\Local\Temp\ccJxhBPK.s 			page 181


 7109 297b 4359424C 		.ascii	"CYBLE_EVT_BCSC_WRITE_DESCR_RESPONSE\000"
 7109      455F4556 
 7109      545F4243 
 7109      53435F57 
 7109      52495445 
 7110              	.LASF428:
 7111 299f 4359424C 		.ascii	"CYBLE_EVT_HRSC_NOTIFICATION\000"
 7111      455F4556 
 7111      545F4852 
 7111      53435F4E 
 7111      4F544946 
 7112              	.LASF301:
 7113 29bb 4359424C 		.ascii	"CYBLE_EVT_ANSC_READ_CHAR_RESPONSE\000"
 7113      455F4556 
 7113      545F414E 
 7113      53435F52 
 7113      4541445F 
 7114              	.LASF4:
 7115 29dd 6C6F6E67 		.ascii	"long int\000"
 7115      20696E74 
 7115      00
 7116              	.LASF347:
 7117 29e6 4359424C 		.ascii	"CYBLE_EVT_CPSS_INDICATION_DISABLED\000"
 7117      455F4556 
 7117      545F4350 
 7117      53535F49 
 7117      4E444943 
 7118              	.LASF200:
 7119 2a09 4359424C 		.ascii	"CYBLE_GATT_ERR_WRITE_NOT_PERMITTED\000"
 7119      455F4741 
 7119      54545F45 
 7119      52525F57 
 7119      52495445 
 7120              	.LASF343:
 7121 2a2c 4359424C 		.ascii	"CYBLE_EVT_CGMSC_WRITE_DESCR_RESPONSE\000"
 7121      455F4556 
 7121      545F4347 
 7121      4D53435F 
 7121      57524954 
 7122              	.LASF107:
 7123 2a51 4359424C 		.ascii	"CYBLE_ERROR_L2CAP_PSM_NOT_REGISTERED\000"
 7123      455F4552 
 7123      524F525F 
 7123      4C324341 
 7123      505F5053 
 7124              	.LASF299:
 7125 2a76 4359424C 		.ascii	"CYBLE_EVT_ANSS_CHAR_WRITE\000"
 7125      455F4556 
 7125      545F414E 
 7125      53535F43 
 7125      4841525F 
 7126              	.LASF39:
 7127 2a90 4359424C 		.ascii	"CYBLE_EVT_GAP_KEYINFO_EXCHNGE_CMPLT\000"
 7127      455F4556 
 7127      545F4741 
 7127      505F4B45 
 7127      59494E46 
ARM GAS  C:\Users\run1009\AppData\Local\Temp\ccJxhBPK.s 			page 182


 7128              	.LASF191:
 7129 2ab4 4359424C 		.ascii	"CYBLE_GATT_EXECUTE_WRITE_RSP\000"
 7129      455F4741 
 7129      54545F45 
 7129      58454355 
 7129      54455F57 
 7130              	.LASF239:
 7131 2ad1 61747449 		.ascii	"attId\000"
 7131      6400
 7132              	.LASF392:
 7133 2ad7 4359424C 		.ascii	"CYBLE_EVT_ESSC_WRITE_DESCR_RESPONSE\000"
 7133      455F4556 
 7133      545F4553 
 7133      53435F57 
 7133      52495445 
 7134              	.LASF586:
 7135 2afb 6761705F 		.ascii	"gap_bdaddr\000"
 7135      62646164 
 7135      647200
 7136              	.LASF479:
 7137 2b06 4359424C 		.ascii	"CYBLE_EVT_PLXSS_NOTIFICATION_DISABLED\000"
 7137      455F4556 
 7137      545F504C 
 7137      5853535F 
 7137      4E4F5449 
 7138              	.LASF263:
 7139 2b2c 4359424C 		.ascii	"CYBLE_EVT_GATTC_SRVC_DISCOVERY_FAILED\000"
 7139      455F4556 
 7139      545F4741 
 7139      5454435F 
 7139      53525643 
 7140              	.LASF459:
 7141 2b52 4359424C 		.ascii	"CYBLE_EVT_LNSS_INDICATION_CONFIRMED\000"
 7141      455F4556 
 7141      545F4C4E 
 7141      53535F49 
 7141      4E444943 
 7142              	.LASF96:
 7143 2b76 4359424C 		.ascii	"CYBLE_ERROR_INSUFFICIENT_RESOURCES\000"
 7143      455F4552 
 7143      524F525F 
 7143      494E5355 
 7143      46464943 
 7144              	.LASF25:
 7145 2b99 4359424C 		.ascii	"CYBLE_EVT_STACK_BUSY_STATUS\000"
 7145      455F4556 
 7145      545F5354 
 7145      41434B5F 
 7145      42555359 
 7146              	.LASF377:
 7147 2bb5 4359424C 		.ascii	"CYBLE_EVT_CTSC_WRITE_DESCR_RESPONSE\000"
 7147      455F4556 
 7147      545F4354 
 7147      53435F57 
 7147      52495445 
 7148              	.LASF56:
 7149 2bd9 4359424C 		.ascii	"CYBLE_EVT_GATTC_READ_BY_GROUP_TYPE_RSP\000"
ARM GAS  C:\Users\run1009\AppData\Local\Temp\ccJxhBPK.s 			page 183


 7149      455F4556 
 7149      545F4741 
 7149      5454435F 
 7149      52454144 
 7150              	.LASF596:
 7151 2c00 6572725F 		.ascii	"err_param\000"
 7151      70617261 
 7151      6D00
 7152              	.LASF117:
 7153 2c0a 4359424C 		.ascii	"CYBLE_ERROR_FLASH_WRITE\000"
 7153      455F4552 
 7153      524F525F 
 7153      464C4153 
 7153      485F5752 
 7154              	.LASF213:
 7155 2c22 4359424C 		.ascii	"CYBLE_GATT_ERR_UNSUPPORTED_GROUP_TYPE\000"
 7155      455F4741 
 7155      54545F45 
 7155      52525F55 
 7155      4E535550 
 7156              	.LASF95:
 7157 2c48 4359424C 		.ascii	"CYBLE_ERROR_MEMORY_ALLOCATION_FAILED\000"
 7157      455F4552 
 7157      524F525F 
 7157      4D454D4F 
 7157      52595F41 
 7158              	.LASF132:
 7159 2c6d 4359424C 		.ascii	"CYBLE_GAPP_SCANNABLE_UNDIRECTED_ADV\000"
 7159      455F4741 
 7159      50505F53 
 7159      43414E4E 
 7159      41424C45 
 7160              	.LASF329:
 7161 2c91 4359424C 		.ascii	"CYBLE_EVT_BMSC_READ_CHAR_RESPONSE\000"
 7161      455F4556 
 7161      545F424D 
 7161      53435F52 
 7161      4541445F 
 7162              	.LASF35:
 7163 2cb3 4359424C 		.ascii	"CYBLE_EVT_GAP_DEVICE_DISCONNECTED\000"
 7163      455F4556 
 7163      545F4741 
 7163      505F4445 
 7163      56494345 
 7164              	.LASF601:
 7165 2cd5 52474244 		.ascii	"RGBData\000"
 7165      61746100 
 7166              	.LASF477:
 7167 2cdd 4359424C 		.ascii	"CYBLE_EVT_PLXSS_WRITE_CHAR\000"
 7167      455F4556 
 7167      545F504C 
 7167      5853535F 
 7167      57524954 
 7168              	.LASF18:
 7169 2cf8 6C6F6E67 		.ascii	"long double\000"
 7169      20646F75 
 7169      626C6500 
ARM GAS  C:\Users\run1009\AppData\Local\Temp\ccJxhBPK.s 			page 184


 7170              	.LASF447:
 7171 2d04 4359424C 		.ascii	"CYBLE_EVT_IPSC_READ_CHAR_RESPONSE\000"
 7171      455F4556 
 7171      545F4950 
 7171      53435F52 
 7171      4541445F 
 7172              	.LASF98:
 7173 2d26 4359424C 		.ascii	"CYBLE_ERROR_NO_CONNECTION\000"
 7173      455F4552 
 7173      524F525F 
 7173      4E4F5F43 
 7173      4F4E4E45 
 7174              	.LASF64:
 7175 2d40 4359424C 		.ascii	"CYBLE_EVT_GATTC_WRITE_RSP\000"
 7175      455F4556 
 7175      545F4741 
 7175      5454435F 
 7175      57524954 
 7176              	.LASF12:
 7177 2d5a 75696E74 		.ascii	"uint16\000"
 7177      313600
 7178              	.LASF104:
 7179 2d61 4359424C 		.ascii	"CYBLE_ERROR_SEC_FAILED\000"
 7179      455F4552 
 7179      524F525F 
 7179      5345435F 
 7179      4641494C 
 7180              	.LASF571:
 7181 2d78 62617474 		.ascii	"battery\000"
 7181      65727900 
 7182              	.LASF517:
 7183 2d80 4359424C 		.ascii	"CYBLE_EVT_UDSS_INDICATION_DISABLED\000"
 7183      455F4556 
 7183      545F5544 
 7183      53535F49 
 7183      4E444943 
 7184              	.LASF412:
 7185 2da3 4359424C 		.ascii	"CYBLE_EVT_HIDSC_NOTIFICATION\000"
 7185      455F4556 
 7185      545F4849 
 7185      4453435F 
 7185      4E4F5449 
 7186              	.LASF5:
 7187 2dc0 6C6F6E67 		.ascii	"long unsigned int\000"
 7187      20756E73 
 7187      69676E65 
 7187      6420696E 
 7187      7400
 7188              	.LASF133:
 7189 2dd2 4359424C 		.ascii	"CYBLE_GAPP_NON_CONNECTABLE_UNDIRECTED_ADV\000"
 7189      455F4741 
 7189      50505F4E 
 7189      4F4E5F43 
 7189      4F4E4E45 
 7190              	.LASF472:
 7191 2dfc 4359424C 		.ascii	"CYBLE_EVT_PASSS_WRITE_CHAR\000"
 7191      455F4556 
ARM GAS  C:\Users\run1009\AppData\Local\Temp\ccJxhBPK.s 			page 185


 7191      545F5041 
 7191      5353535F 
 7191      57524954 
 7192              	.LASF196:
 7193 2e17 4359424C 		.ascii	"CYBLE_GATT_UNKNOWN_PDU_IND\000"
 7193      455F4741 
 7193      54545F55 
 7193      4E4B4E4F 
 7193      574E5F50 
 7194              	.LASF73:
 7195 2e32 4359424C 		.ascii	"CYBLE_EVT_GATTC_STOP_CMD_COMPLETE\000"
 7195      455F4556 
 7195      545F4741 
 7195      5454435F 
 7195      53544F50 
 7196              	.LASF181:
 7197 2e54 4359424C 		.ascii	"CYBLE_GATT_READ_MULTIPLE_REQ\000"
 7197      455F4741 
 7197      54545F52 
 7197      4541445F 
 7197      4D554C54 
 7198              	.LASF152:
 7199 2e71 61647644 		.ascii	"advDataLen\000"
 7199      6174614C 
 7199      656E00
 7200              	.LASF420:
 7201 2e7c 4359424C 		.ascii	"CYBLE_EVT_HPSC_NOTIFICATION\000"
 7201      455F4556 
 7201      545F4850 
 7201      53435F4E 
 7201      4F544946 
 7202              	.LASF359:
 7203 2e98 4359424C 		.ascii	"CYBLE_EVT_CSCSS_NOTIFICATION_ENABLED\000"
 7203      455F4556 
 7203      545F4353 
 7203      4353535F 
 7203      4E4F5449 
 7204              	.LASF17:
 7205 2ebd 63686172 		.ascii	"char\000"
 7205      00
 7206              	.LASF576:
 7207 2ec2 6576656E 		.ascii	"eventParam\000"
 7207      74506172 
 7207      616D00
 7208              	.LASF141:
 7209 2ecd 4359424C 		.ascii	"CYBLE_GAPC_ADV_EVENT_T\000"
 7209      455F4741 
 7209      50435F41 
 7209      44565F45 
 7209      56454E54 
 7210              	.LASF314:
 7211 2ee4 4359424C 		.ascii	"CYBLE_EVT_BCSC_INDICATION\000"
 7211      455F4556 
 7211      545F4243 
 7211      53435F49 
 7211      4E444943 
 7212              	.LASF80:
ARM GAS  C:\Users\run1009\AppData\Local\Temp\ccJxhBPK.s 			page 186


 7213 2efe 4359424C 		.ascii	"CYBLE_EVT_L2CAP_CBFC_CONN_CNF\000"
 7213      455F4556 
 7213      545F4C32 
 7213      4341505F 
 7213      43424643 
 7214              	.LASF535:
 7215 2f1c 4359424C 		.ascii	"CYBLE_EVT_WPTSS_WRITE_CHAR\000"
 7215      455F4556 
 7215      545F5750 
 7215      5453535F 
 7215      57524954 
 7216              	.LASF595:
 7217 2f37 6F70436F 		.ascii	"opCode\000"
 7217      646500
 7218              	.LASF348:
 7219 2f3e 4359424C 		.ascii	"CYBLE_EVT_CPSS_INDICATION_CONFIRMED\000"
 7219      455F4556 
 7219      545F4350 
 7219      53535F49 
 7219      4E444943 
 7220              	.LASF94:
 7221 2f62 4359424C 		.ascii	"CYBLE_ERROR_INVALID_OPERATION\000"
 7221      455F4552 
 7221      524F525F 
 7221      494E5641 
 7221      4C49445F 
 7222              	.LASF13:
 7223 2f80 75696E74 		.ascii	"uint32\000"
 7223      333200
 7224              	.LASF311:
 7225 2f87 4359424C 		.ascii	"CYBLE_EVT_BCSS_INDICATION_ENABLED\000"
 7225      455F4556 
 7225      545F4243 
 7225      53535F49 
 7225      4E444943 
 7226              	.LASF238:
 7227 2fa9 62644861 		.ascii	"bdHandle\000"
 7227      6E646C65 
 7227      00
 7228              	.LASF99:
 7229 2fb2 4359424C 		.ascii	"CYBLE_ERROR_NO_DEVICE_ENTITY\000"
 7229      455F4552 
 7229      524F525F 
 7229      4E4F5F44 
 7229      45564943 
 7230              	.LASF82:
 7231 2fcf 4359424C 		.ascii	"CYBLE_EVT_L2CAP_CBFC_DISCONN_CNF\000"
 7231      455F4556 
 7231      545F4C32 
 7231      4341505F 
 7231      43424643 
 7232              	.LASF394:
 7233 2ff0 4359424C 		.ascii	"CYBLE_EVT_GLSS_INDICATION_DISABLED\000"
 7233      455F4556 
 7233      545F474C 
 7233      53535F49 
 7233      4E444943 
ARM GAS  C:\Users\run1009\AppData\Local\Temp\ccJxhBPK.s 			page 187


 7234              	.LASF198:
 7235 3013 4359424C 		.ascii	"CYBLE_GATT_ERR_INVALID_HANDLE\000"
 7235      455F4741 
 7235      54545F45 
 7235      52525F49 
 7235      4E56414C 
 7236              	.LASF333:
 7237 3031 4359424C 		.ascii	"CYBLE_EVT_CGMSS_INDICATION_DISABLED\000"
 7237      455F4556 
 7237      545F4347 
 7237      4D53535F 
 7237      494E4449 
 7238              	.LASF495:
 7239 3055 4359424C 		.ascii	"CYBLE_EVT_RSCSS_CHAR_WRITE\000"
 7239      455F4556 
 7239      545F5253 
 7239      4353535F 
 7239      43484152 
 7240              	.LASF473:
 7241 3070 4359424C 		.ascii	"CYBLE_EVT_PASSC_NOTIFICATION\000"
 7241      455F4556 
 7241      545F5041 
 7241      5353435F 
 7241      4E4F5449 
 7242              	.LASF512:
 7243 308d 4359424C 		.ascii	"CYBLE_EVT_TPSC_NOTIFICATION\000"
 7243      455F4556 
 7243      545F5450 
 7243      53435F4E 
 7243      4F544946 
 7244              	.LASF527:
 7245 30a9 4359424C 		.ascii	"CYBLE_EVT_UDSC_READ_DESCR_RESPONSE\000"
 7245      455F4556 
 7245      545F5544 
 7245      53435F52 
 7245      4541445F 
 7246              	.LASF66:
 7247 30cc 4359424C 		.ascii	"CYBLE_EVT_GATTS_PREP_WRITE_REQ\000"
 7247      455F4556 
 7247      545F4741 
 7247      5454535F 
 7247      50524550 
 7248              	.LASF401:
 7249 30eb 4359424C 		.ascii	"CYBLE_EVT_GLSC_READ_CHAR_RESPONSE\000"
 7249      455F4556 
 7249      545F474C 
 7249      53435F52 
 7249      4541445F 
 7250              	.LASF158:
 7251 310d 61647650 		.ascii	"advParam\000"
 7251      6172616D 
 7251      00
 7252              	.LASF499:
 7253 3116 4359424C 		.ascii	"CYBLE_EVT_RSCSC_WRITE_CHAR_RESPONSE\000"
 7253      455F4556 
 7253      545F5253 
 7253      4353435F 
ARM GAS  C:\Users\run1009\AppData\Local\Temp\ccJxhBPK.s 			page 188


 7253      57524954 
 7254              	.LASF166:
 7255 313a 72737369 		.ascii	"rssi\000"
 7255      00
 7256              	.LASF319:
 7257 313f 4359424C 		.ascii	"CYBLE_EVT_BLSS_INDICATION_DISABLED\000"
 7257      455F4556 
 7257      545F424C 
 7257      53535F49 
 7257      4E444943 
 7258              	.LASF505:
 7259 3162 4359424C 		.ascii	"CYBLE_EVT_SCPSS_NOTIFICATION_DISABLED\000"
 7259      455F4556 
 7259      545F5343 
 7259      5053535F 
 7259      4E4F5449 
 7260              	.LASF427:
 7261 3188 4359424C 		.ascii	"CYBLE_EVT_HRSS_NOTIFICATION_DISABLED\000"
 7261      455F4556 
 7261      545F4852 
 7261      53535F4E 
 7261      4F544946 
 7262              	.LASF599:
 7263 31ad 6379426C 		.ascii	"cyBle_connHandle\000"
 7263      655F636F 
 7263      6E6E4861 
 7263      6E646C65 
 7263      00
 7264              	.LASF367:
 7265 31be 4359424C 		.ascii	"CYBLE_EVT_CSCSC_READ_CHAR_RESPONSE\000"
 7265      455F4556 
 7265      545F4353 
 7265      4353435F 
 7265      52454144 
 7266              	.LASF466:
 7267 31e1 4359424C 		.ascii	"CYBLE_EVT_LNSC_WRITE_CHAR_RESPONSE\000"
 7267      455F4556 
 7267      545F4C4E 
 7267      53435F57 
 7267      52495445 
 7268              	.LASF228:
 7269 3204 4359424C 		.ascii	"CYBLE_GATT_ERR_ANS_COMMAND_NOT_SUPPORTED\000"
 7269      455F4741 
 7269      54545F45 
 7269      52525F41 
 7269      4E535F43 
 7270              	.LASF379:
 7271 322d 4359424C 		.ascii	"CYBLE_EVT_DISC_READ_CHAR_RESPONSE\000"
 7271      455F4556 
 7271      545F4449 
 7271      53435F52 
 7271      4541445F 
 7272              	.LASF504:
 7273 324f 4359424C 		.ascii	"CYBLE_EVT_SCPSS_NOTIFICATION_ENABLED\000"
 7273      455F4556 
 7273      545F5343 
 7273      5053535F 
ARM GAS  C:\Users\run1009\AppData\Local\Temp\ccJxhBPK.s 			page 189


 7273      4E4F5449 
 7274              	.LASF490:
 7275 3274 4359424C 		.ascii	"CYBLE_EVT_RSCSS_NOTIFICATION_ENABLED\000"
 7275      455F4556 
 7275      545F5253 
 7275      4353535F 
 7275      4E4F5449 
 7276              	.LASF54:
 7277 3299 4359424C 		.ascii	"CYBLE_EVT_GATTS_XCNHG_MTU_REQ\000"
 7277      455F4556 
 7277      545F4741 
 7277      5454535F 
 7277      58434E48 
 7278              	.LASF120:
 7279 32b7 4359424C 		.ascii	"CYBLE_ERROR_MAX\000"
 7279      455F4552 
 7279      524F525F 
 7279      4D415800 
 7280              	.LASF102:
 7281 32c7 4359424C 		.ascii	"CYBLE_ERROR_TX_POWER_READ\000"
 7281      455F4552 
 7281      524F525F 
 7281      54585F50 
 7281      4F574552 
 7282              	.LASF542:
 7283 32e1 4359424C 		.ascii	"CYBLE_EVT_WSSS_INDICATION_ENABLED\000"
 7283      455F4556 
 7283      545F5753 
 7283      53535F49 
 7283      4E444943 
 7284              	.LASF188:
 7285 3303 4359424C 		.ascii	"CYBLE_GATT_PREPARE_WRITE_REQ\000"
 7285      455F4741 
 7285      54545F50 
 7285      52455041 
 7285      52455F57 
 7286              	.LASF269:
 7287 3320 4359424C 		.ascii	"CYBLE_EVT_GATTC_DESCR_DUPLICATION\000"
 7287      455F4556 
 7287      545F4741 
 7287      5454435F 
 7287      44455343 
 7288              	.LASF403:
 7289 3342 4359424C 		.ascii	"CYBLE_EVT_GLSC_READ_DESCR_RESPONSE\000"
 7289      455F4556 
 7289      545F474C 
 7289      53435F52 
 7289      4541445F 
 7290              	.LASF580:
 7291 3365 77726974 		.ascii	"writeCmdData\000"
 7291      65436D64 
 7291      44617461 
 7291      00
 7292              	.LASF357:
 7293 3372 4359424C 		.ascii	"CYBLE_EVT_CPSC_WRITE_DESCR_RESPONSE\000"
 7293      455F4556 
 7293      545F4350 
ARM GAS  C:\Users\run1009\AppData\Local\Temp\ccJxhBPK.s 			page 190


 7293      53435F57 
 7293      52495445 
 7294              	.LASF350:
 7295 3396 4359424C 		.ascii	"CYBLE_EVT_CPSS_BROADCAST_DISABLED\000"
 7295      455F4556 
 7295      545F4350 
 7295      53535F42 
 7295      524F4144 
 7296              	.LASF229:
 7297 33b8 4359424C 		.ascii	"CYBLE_GATT_ERR_ANCS_UNKNOWN_COMMAND\000"
 7297      455F4741 
 7297      54545F45 
 7297      52525F41 
 7297      4E43535F 
 7298              	.LASF386:
 7299 33dc 4359424C 		.ascii	"CYBLE_EVT_ESSS_DESCR_WRITE\000"
 7299      455F4556 
 7299      545F4553 
 7299      53535F44 
 7299      45534352 
 7300              	.LASF332:
 7301 33f7 4359424C 		.ascii	"CYBLE_EVT_CGMSS_INDICATION_ENABLED\000"
 7301      455F4556 
 7301      545F4347 
 7301      4D53535F 
 7301      494E4449 
 7302              	.LASF593:
 7303 341a 436F6E6E 		.ascii	"ConnectToPeripheralDevice\000"
 7303      65637454 
 7303      6F506572 
 7303      69706865 
 7303      72616C44 
 7304              	.LASF240:
 7305 3434 4359424C 		.ascii	"CYBLE_CONN_HANDLE_T\000"
 7305      455F434F 
 7305      4E4E5F48 
 7305      414E444C 
 7305      455F5400 
 7306              	.LASF446:
 7307 3448 4359424C 		.ascii	"CYBLE_EVT_IPSS_WRITE_CHAR\000"
 7307      455F4556 
 7307      545F4950 
 7307      53535F57 
 7307      52495445 
 7308              	.LASF70:
 7309 3462 4359424C 		.ascii	"CYBLE_EVT_GATTC_HANDLE_VALUE_IND\000"
 7309      455F4556 
 7309      545F4741 
 7309      5454435F 
 7309      48414E44 
 7310              	.LASF194:
 7311 3483 4359424C 		.ascii	"CYBLE_GATT_HANDLE_VALUE_CNF\000"
 7311      455F4741 
 7311      54545F48 
 7311      414E444C 
 7311      455F5641 
 7312              	.LASF397:
ARM GAS  C:\Users\run1009\AppData\Local\Temp\ccJxhBPK.s 			page 191


 7313 349f 4359424C 		.ascii	"CYBLE_EVT_GLSS_NOTIFICATION_DISABLED\000"
 7313      455F4556 
 7313      545F474C 
 7313      53535F4E 
 7313      4F544946 
 7314              	.LASF566:
 7315 34c4 68756D69 		.ascii	"humi\000"
 7315      00
 7316              	.LASF608:
 7317 34c9 6E65775F 		.ascii	"new_advData\000"
 7317      61647644 
 7317      61746100 
 7318              	.LASF409:
 7319 34d5 4359424C 		.ascii	"CYBLE_EVT_HIDSS_SUSPEND\000"
 7319      455F4556 
 7319      545F4849 
 7319      4453535F 
 7319      53555350 
 7320              	.LASF16:
 7321 34ed 646F7562 		.ascii	"double\000"
 7321      6C6500
 7322              	.LASF441:
 7323 34f4 4359424C 		.ascii	"CYBLE_EVT_HTSC_READ_CHAR_RESPONSE\000"
 7323      455F4556 
 7323      545F4854 
 7323      53435F52 
 7323      4541445F 
 7324              	.LASF202:
 7325 3516 4359424C 		.ascii	"CYBLE_GATT_ERR_INSUFFICIENT_AUTHENTICATION\000"
 7325      455F4741 
 7325      54545F45 
 7325      52525F49 
 7325      4E535546 
 7326              	.LASF624:
 7327 3541 433A5C55 		.ascii	"C:\\Users\\run1009\\Documents\\Mesh_Flood_DIR_Senso"
 7327      73657273 
 7327      5C72756E 
 7327      31303039 
 7327      5C446F63 
 7328 3570 725C4D65 		.ascii	"r\\Mesh_Flood_DIR_Sensor.cydsn\000"
 7328      73685F46 
 7328      6C6F6F64 
 7328      5F444952 
 7328      5F53656E 
 7329              	.LASF296:
 7330 358e 4359424C 		.ascii	"CYBLE_EVT_ANCSC_ERROR_RESPONSE\000"
 7330      455F4556 
 7330      545F414E 
 7330      4353435F 
 7330      4552524F 
 7331              	.LASF52:
 7332 35ad 4359424C 		.ascii	"CYBLE_EVT_GATT_CONNECT_IND\000"
 7332      455F4556 
 7332      545F4741 
 7332      54545F43 
 7332      4F4E4E45 
 7333              	.LASF613:
ARM GAS  C:\Users\run1009\AppData\Local\Temp\ccJxhBPK.s 			page 192


 7334 35c8 70657269 		.ascii	"peripAddr\000"
 7334      70416464 
 7334      7200
 7335              	.LASF47:
 7336 35d2 4359424C 		.ascii	"CYBLE_EVT_GAP_CONN_ESTB\000"
 7336      455F4556 
 7336      545F4741 
 7336      505F434F 
 7336      4E4E5F45 
 7337              	.LASF538:
 7338 35ea 4359424C 		.ascii	"CYBLE_EVT_WPTSC_WRITE_CHAR_RESPONSE\000"
 7338      455F4556 
 7338      545F5750 
 7338      5453435F 
 7338      57524954 
 7339              	.LASF389:
 7340 360e 4359424C 		.ascii	"CYBLE_EVT_ESSC_READ_CHAR_RESPONSE\000"
 7340      455F4556 
 7340      545F4553 
 7340      53435F52 
 7340      4541445F 
 7341              	.LASF50:
 7342 3630 4359424C 		.ascii	"CYBLE_EVT_GAP_SMP_LOC_P256_KEYS_GEN_AND_SET_COMPLET"
 7342      455F4556 
 7342      545F4741 
 7342      505F534D 
 7342      505F4C4F 
 7343 3663 4500     		.ascii	"E\000"
 7344              	.LASF521:
 7345 3665 4359424C 		.ascii	"CYBLE_EVT_UDSS_READ_CHAR\000"
 7345      455F4556 
 7345      545F5544 
 7345      53535F52 
 7345      4541445F 
 7346              	.LASF129:
 7347 367e 4359424C 		.ascii	"CYBLE_GAP_BD_ADDR_T\000"
 7347      455F4741 
 7347      505F4244 
 7347      5F414444 
 7347      525F5400 
 7348              	.LASF165:
 7349 3692 64617461 		.ascii	"data\000"
 7349      00
 7350              	.LASF356:
 7351 3697 4359424C 		.ascii	"CYBLE_EVT_CPSC_READ_DESCR_RESPONSE\000"
 7351      455F4556 
 7351      545F4350 
 7351      53435F52 
 7351      4541445F 
 7352              	.LASF268:
 7353 36ba 4359424C 		.ascii	"CYBLE_EVT_GATTC_CHAR_DUPLICATION\000"
 7353      455F4556 
 7353      545F4741 
 7353      5454435F 
 7353      43484152 
 7354              	.LASF562:
 7355 36db 4359424C 		.ascii	"CYBLE_SRVI_COUNT\000"
ARM GAS  C:\Users\run1009\AppData\Local\Temp\ccJxhBPK.s 			page 193


 7355      455F5352 
 7355      56495F43 
 7355      4F554E54 
 7355      00
 7356              	.LASF492:
 7357 36ec 4359424C 		.ascii	"CYBLE_EVT_RSCSS_INDICATION_ENABLED\000"
 7357      455F4556 
 7357      545F5253 
 7357      4353535F 
 7357      494E4449 
 7358              	.LASF337:
 7359 370f 4359424C 		.ascii	"CYBLE_EVT_CGMSS_WRITE_CHAR\000"
 7359      455F4556 
 7359      545F4347 
 7359      4D53535F 
 7359      57524954 
 7360              	.LASF570:
 7361 372a 68656174 		.ascii	"heat\000"
 7361      00
 7362              	.LASF572:
 7363 372f 64697374 		.ascii	"distance\000"
 7363      616E6365 
 7363      00
 7364              	.LASF584:
 7365 3738 72656365 		.ascii	"received_node_addr\000"
 7365      69766564 
 7365      5F6E6F64 
 7365      655F6164 
 7365      647200
 7366              	.LASF138:
 7367 374b 4359424C 		.ascii	"CYBLE_GAPC_SCAN_UNDIRECTED_ADV\000"
 7367      455F4741 
 7367      50435F53 
 7367      43414E5F 
 7367      554E4449 
 7368              	.LASF231:
 7369 376a 4359424C 		.ascii	"CYBLE_GATT_ERR_ANCS_INVALID_PARAMETER\000"
 7369      455F4741 
 7369      54545F45 
 7369      52525F41 
 7369      4E43535F 
 7370              	.LASF493:
 7371 3790 4359424C 		.ascii	"CYBLE_EVT_RSCSS_INDICATION_DISABLED\000"
 7371      455F4556 
 7371      545F5253 
 7371      4353535F 
 7371      494E4449 
 7372              	.LASF309:
 7373 37b4 4359424C 		.ascii	"CYBLE_EVT_BASC_READ_DESCR_RESPONSE\000"
 7373      455F4556 
 7373      545F4241 
 7373      53435F52 
 7373      4541445F 
 7374              	.LASF277:
 7375 37d7 4359424C 		.ascii	"CYBLE_EVT_AIOSS_INDICATION_ENABLED\000"
 7375      455F4556 
 7375      545F4149 
ARM GAS  C:\Users\run1009\AppData\Local\Temp\ccJxhBPK.s 			page 194


 7375      4F53535F 
 7375      494E4449 
 7376              	.LASF221:
 7377 37fa 4359424C 		.ascii	"CYBLE_GATT_ERR_OP_CODE_NOT_SUPPORTED\000"
 7377      455F4741 
 7377      54545F45 
 7377      52525F4F 
 7377      505F434F 
 7378              	.LASF335:
 7379 381f 4359424C 		.ascii	"CYBLE_EVT_CGMSS_NOTIFICATION_ENABLED\000"
 7379      455F4556 
 7379      545F4347 
 7379      4D53535F 
 7379      4E4F5449 
 7380              	.LASF186:
 7381 3844 4359424C 		.ascii	"CYBLE_GATT_WRITE_RSP\000"
 7381      455F4741 
 7381      54545F57 
 7381      52495445 
 7381      5F525350 
 7382              	.LASF97:
 7383 3859 4359424C 		.ascii	"CYBLE_ERROR_OOB_NOT_AVAILABLE\000"
 7383      455F4552 
 7383      524F525F 
 7383      4F4F425F 
 7383      4E4F545F 
 7384              	.LASF503:
 7385 3877 4359424C 		.ascii	"CYBLE_EVT_RTUSC_READ_CHAR_RESPONSE\000"
 7385      455F4556 
 7385      545F5254 
 7385      5553435F 
 7385      52454144 
 7386              	.LASF458:
 7387 389a 4359424C 		.ascii	"CYBLE_EVT_LNSS_INDICATION_DISABLED\000"
 7387      455F4556 
 7387      545F4C4E 
 7387      53535F49 
 7387      4E444943 
 7388              	.LASF534:
 7389 38bd 4359424C 		.ascii	"CYBLE_EVT_WPTSS_INDICATION_CONFIRMED\000"
 7389      455F4556 
 7389      545F5750 
 7389      5453535F 
 7389      494E4449 
 7390              	.LASF298:
 7391 38e2 4359424C 		.ascii	"CYBLE_EVT_ANSS_NOTIFICATION_DISABLED\000"
 7391      455F4556 
 7391      545F414E 
 7391      53535F4E 
 7391      4F544946 
 7392              	.LASF32:
 7393 3907 4359424C 		.ascii	"CYBLE_EVT_GAP_AUTH_FAILED\000"
 7393      455F4556 
 7393      545F4741 
 7393      505F4155 
 7393      54485F46 
 7394              	.LASF227:
ARM GAS  C:\Users\run1009\AppData\Local\Temp\ccJxhBPK.s 			page 195


 7395 3921 4359424C 		.ascii	"CYBLE_GATTS_ERR_NETWORK_NOT_AVAILABLE\000"
 7395      455F4741 
 7395      5454535F 
 7395      4552525F 
 7395      4E455457 
 7396              	.LASF336:
 7397 3947 4359424C 		.ascii	"CYBLE_EVT_CGMSS_NOTIFICATION_DISABLED\000"
 7397      455F4556 
 7397      545F4347 
 7397      4D53535F 
 7397      4E4F5449 
 7398              	.LASF220:
 7399 396d 4359424C 		.ascii	"CYBLE_GATTS_ERR_PROCEDURE_ALREADY_IN_PROGRESS\000"
 7399      455F4741 
 7399      5454535F 
 7399      4552525F 
 7399      50524F43 
 7400              	.LASF396:
 7401 399b 4359424C 		.ascii	"CYBLE_EVT_GLSS_NOTIFICATION_ENABLED\000"
 7401      455F4556 
 7401      545F474C 
 7401      53535F4E 
 7401      4F544946 
 7402              	.LASF118:
 7403 39bf 4359424C 		.ascii	"CYBLE_ERROR_LL_SAME_TRANSACTION_COLLISION\000"
 7403      455F4552 
 7403      524F525F 
 7403      4C4C5F53 
 7403      414D455F 
 7404              	.LASF135:
 7405 39e9 4359424C 		.ascii	"CYBLE_GAPP_ADV_T\000"
 7405      455F4741 
 7405      50505F41 
 7405      44565F54 
 7405      00
 7406              	.LASF74:
 7407 39fa 4359424C 		.ascii	"CYBLE_EVT_GATTS_READ_CHAR_VAL_ACCESS_REQ\000"
 7407      455F4556 
 7407      545F4741 
 7407      5454535F 
 7407      52454144 
 7408              	.LASF76:
 7409 3a23 4359424C 		.ascii	"CYBLE_EVT_L2CAP_CONN_PARAM_UPDATE_REQ\000"
 7409      455F4556 
 7409      545F4C32 
 7409      4341505F 
 7409      434F4E4E 
 7410              	.LASF480:
 7411 3a49 4359424C 		.ascii	"CYBLE_EVT_PLXSS_INDICATION_ENABLED\000"
 7411      455F4556 
 7411      545F504C 
 7411      5853535F 
 7411      494E4449 
 7412              	.LASF491:
 7413 3a6c 4359424C 		.ascii	"CYBLE_EVT_RSCSS_NOTIFICATION_DISABLED\000"
 7413      455F4556 
 7413      545F5253 
ARM GAS  C:\Users\run1009\AppData\Local\Temp\ccJxhBPK.s 			page 196


 7413      4353535F 
 7413      4E4F5449 
 7414              	.LASF7:
 7415 3a92 6C6F6E67 		.ascii	"long long unsigned int\000"
 7415      206C6F6E 
 7415      6720756E 
 7415      7369676E 
 7415      65642069 
 7416              	.LASF300:
 7417 3aa9 4359424C 		.ascii	"CYBLE_EVT_ANSC_NOTIFICATION\000"
 7417      455F4556 
 7417      545F414E 
 7417      53435F4E 
 7417      4F544946 
 7418              	.LASF253:
 7419 3ac5 6F666673 		.ascii	"offset\000"
 7419      657400
 7420              	.LASF312:
 7421 3acc 4359424C 		.ascii	"CYBLE_EVT_BCSS_INDICATION_DISABLED\000"
 7421      455F4556 
 7421      545F4243 
 7421      53535F49 
 7421      4E444943 
 7422              	.LASF430:
 7423 3aef 4359424C 		.ascii	"CYBLE_EVT_HRSC_WRITE_CHAR_RESPONSE\000"
 7423      455F4556 
 7423      545F4852 
 7423      53435F57 
 7423      52495445 
 7424              	.LASF252:
 7425 3b12 4359424C 		.ascii	"CYBLE_GATTS_WRITE_CMD_REQ_PARAM_T\000"
 7425      455F4741 
 7425      5454535F 
 7425      57524954 
 7425      455F434D 
 7426              	.LASF109:
 7427 3b34 4359424C 		.ascii	"CYBLE_ERROR_L2CAP_CHANNEL_NOT_FOUND\000"
 7427      455F4552 
 7427      524F525F 
 7427      4C324341 
 7427      505F4348 
 7428              	.LASF519:
 7429 3b58 4359424C 		.ascii	"CYBLE_EVT_UDSS_NOTIFICATION_ENABLED\000"
 7429      455F4556 
 7429      545F5544 
 7429      53535F4E 
 7429      4F544946 
 7430              	.LASF149:
 7431 3b7c 61647646 		.ascii	"advFilterPolicy\000"
 7431      696C7465 
 7431      72506F6C 
 7431      69637900 
 7432              	.LASF400:
 7433 3b8c 4359424C 		.ascii	"CYBLE_EVT_GLSC_NOTIFICATION\000"
 7433      455F4556 
 7433      545F474C 
 7433      53435F4E 
ARM GAS  C:\Users\run1009\AppData\Local\Temp\ccJxhBPK.s 			page 197


 7433      4F544946 
 7434              	.LASF294:
 7435 3ba8 4359424C 		.ascii	"CYBLE_EVT_ANCSC_READ_DESCR_RESPONSE\000"
 7435      455F4556 
 7435      545F414E 
 7435      4353435F 
 7435      52454144 
 7436              	.LASF48:
 7437 3bcc 4359424C 		.ascii	"CYBLE_EVT_GAP_SCAN_REQ_RECVD\000"
 7437      455F4556 
 7437      545F4741 
 7437      505F5343 
 7437      414E5F52 
 7438              	.LASF113:
 7439 3be9 4359424C 		.ascii	"CYBLE_ERROR_FLASH_WRITE_NOT_PERMITED\000"
 7439      455F4552 
 7439      524F525F 
 7439      464C4153 
 7439      485F5752 
 7440              	.LASF281:
 7441 3c0e 4359424C 		.ascii	"CYBLE_EVT_AIOSS_DESCR_WRITE\000"
 7441      455F4556 
 7441      545F4149 
 7441      4F53535F 
 7441      44455343 
 7442              	.LASF37:
 7443 3c2a 4359424C 		.ascii	"CYBLE_EVT_GAP_CONNECTION_UPDATE_COMPLETE\000"
 7443      455F4556 
 7443      545F4741 
 7443      505F434F 
 7443      4E4E4543 
 7444              	.LASF286:
 7445 3c53 4359424C 		.ascii	"CYBLE_EVT_AIOSC_READ_DESCR_RESPONSE\000"
 7445      455F4556 
 7445      545F4149 
 7445      4F53435F 
 7445      52454144 
 7446              	.LASF219:
 7447 3c77 4359424C 		.ascii	"CYBLE_GATT_ERR_HTS_OUT_OF_RANGE\000"
 7447      455F4741 
 7447      54545F45 
 7447      52525F48 
 7447      54535F4F 
 7448              	.LASF150:
 7449 3c97 4359424C 		.ascii	"CYBLE_GAPP_DISC_PARAM_T\000"
 7449      455F4741 
 7449      50505F44 
 7449      4953435F 
 7449      50415241 
 7450              	.LASF483:
 7451 3caf 4359424C 		.ascii	"CYBLE_EVT_PLXSC_NOTIFICATION\000"
 7451      455F4556 
 7451      545F504C 
 7451      5853435F 
 7451      4E4F5449 
 7452              	.LASF365:
 7453 3ccc 4359424C 		.ascii	"CYBLE_EVT_CSCSC_NOTIFICATION\000"
ARM GAS  C:\Users\run1009\AppData\Local\Temp\ccJxhBPK.s 			page 198


 7453      455F4556 
 7453      545F4353 
 7453      4353435F 
 7453      4E4F5449 
 7454              	.LASF501:
 7455 3ce9 4359424C 		.ascii	"CYBLE_EVT_RSCSC_WRITE_DESCR_RESPONSE\000"
 7455      455F4556 
 7455      545F5253 
 7455      4353435F 
 7455      57524954 
 7456              	.LASF352:
 7457 3d0e 4359424C 		.ascii	"CYBLE_EVT_CPSC_NOTIFICATION\000"
 7457      455F4556 
 7457      545F4350 
 7457      53435F4E 
 7457      4F544946 
 7458              	.LASF465:
 7459 3d2a 4359424C 		.ascii	"CYBLE_EVT_LNSC_READ_CHAR_RESPONSE\000"
 7459      455F4556 
 7459      545F4C4E 
 7459      53435F52 
 7459      4541445F 
 7460              	.LASF249:
 7461 3d4c 636F6E6E 		.ascii	"connHandle\000"
 7461      48616E64 
 7461      6C6500
 7462              	.LASF147:
 7463 3d57 64697265 		.ascii	"directAddr\000"
 7463      63744164 
 7463      647200
 7464              	.LASF262:
 7465 3d62 4359424C 		.ascii	"CYBLE_EVT_GATTC_INDICATION\000"
 7465      455F4556 
 7465      545F4741 
 7465      5454435F 
 7465      494E4449 
 7466              	.LASF338:
 7467 3d7d 4359424C 		.ascii	"CYBLE_EVT_CGMSC_INDICATION\000"
 7467      455F4556 
 7467      545F4347 
 7467      4D53435F 
 7467      494E4449 
 7468              	.LASF541:
 7469 3d98 4359424C 		.ascii	"CYBLE_EVT_WPTSC_WRITE_DESCR_RESPONSE\000"
 7469      455F4556 
 7469      545F5750 
 7469      5453435F 
 7469      57524954 
 7470              	.LASF497:
 7471 3dbd 4359424C 		.ascii	"CYBLE_EVT_RSCSC_INDICATION\000"
 7471      455F4556 
 7471      545F5253 
 7471      4353435F 
 7471      494E4449 
 7472              	.LASF551:
 7473 3dd8 4359424C 		.ascii	"CYBLE_STATE_INITIALIZING\000"
 7473      455F5354 
ARM GAS  C:\Users\run1009\AppData\Local\Temp\ccJxhBPK.s 			page 199


 7473      4154455F 
 7473      494E4954 
 7473      49414C49 
 7474              	.LASF264:
 7475 3df1 4359424C 		.ascii	"CYBLE_EVT_GATTC_INCL_DISCOVERY_FAILED\000"
 7475      455F4556 
 7475      545F4741 
 7475      5454435F 
 7475      494E434C 
 7476              	.LASF351:
 7477 3e17 4359424C 		.ascii	"CYBLE_EVT_CPSS_CHAR_WRITE\000"
 7477      455F4556 
 7477      545F4350 
 7477      53535F43 
 7477      4841525F 
 7478              	.LASF90:
 7479 3e31 4359424C 		.ascii	"CYBLE_EVT_FLASH_CORRUPT\000"
 7479      455F4556 
 7479      545F464C 
 7479      4153485F 
 7479      434F5252 
 7480              	.LASF385:
 7481 3e49 4359424C 		.ascii	"CYBLE_EVT_ESSS_CHAR_WRITE\000"
 7481      455F4556 
 7481      545F4553 
 7481      53535F43 
 7481      4841525F 
 7482              	.LASF533:
 7483 3e63 4359424C 		.ascii	"CYBLE_EVT_WPTSS_INDICATION_DISABLED\000"
 7483      455F4556 
 7483      545F5750 
 7483      5453535F 
 7483      494E4449 
 7484              	.LASF564:
 7485 3e87 7365714E 		.ascii	"seqNum\000"
 7485      756D00
 7486              	.LASF398:
 7487 3e8e 4359424C 		.ascii	"CYBLE_EVT_GLSS_WRITE_CHAR\000"
 7487      455F4556 
 7487      545F474C 
 7487      53535F57 
 7487      52495445 
 7488              	.LASF536:
 7489 3ea8 4359424C 		.ascii	"CYBLE_EVT_WPTSC_NOTIFICATION\000"
 7489      455F4556 
 7489      545F5750 
 7489      5453435F 
 7489      4E4F5449 
 7490              	.LASF182:
 7491 3ec5 4359424C 		.ascii	"CYBLE_GATT_READ_MULTIPLE_RSP\000"
 7491      455F4741 
 7491      54545F52 
 7491      4541445F 
 7491      4D554C54 
 7492              	.LASF40:
 7493 3ee2 4359424C 		.ascii	"CYBLE_EVT_GAP_NUMERIC_COMPARISON_REQUEST\000"
 7493      455F4556 
ARM GAS  C:\Users\run1009\AppData\Local\Temp\ccJxhBPK.s 			page 200


 7493      545F4741 
 7493      505F4E55 
 7493      4D455249 
 7494              	.LASF421:
 7495 3f0b 4359424C 		.ascii	"CYBLE_EVT_HPSC_READ_CHAR_RESPONSE\000"
 7495      455F4556 
 7495      545F4850 
 7495      53435F52 
 7495      4541445F 
 7496              	.LASF49:
 7497 3f2d 4359424C 		.ascii	"CYBLE_EVT_GAP_AUTH_REQ_REPLY_ERR\000"
 7497      455F4556 
 7497      545F4741 
 7497      505F4155 
 7497      54485F52 
 7498              	.LASF618:
 7499 3f4e 63656E74 		.ascii	"centralStartedTime\000"
 7499      72616C53 
 7499      74617274 
 7499      65645469 
 7499      6D6500
 7500              	.LASF308:
 7501 3f61 4359424C 		.ascii	"CYBLE_EVT_BASC_READ_CHAR_RESPONSE\000"
 7501      455F4556 
 7501      545F4241 
 7501      53435F52 
 7501      4541445F 
 7502              	.LASF210:
 7503 3f83 4359424C 		.ascii	"CYBLE_GATT_ERR_INVALID_ATTRIBUTE_LEN\000"
 7503      455F4741 
 7503      54545F45 
 7503      52525F49 
 7503      4E56414C 
 7504              	.LASF6:
 7505 3fa8 6C6F6E67 		.ascii	"long long int\000"
 7505      206C6F6E 
 7505      6720696E 
 7505      7400
 7506              	.LASF346:
 7507 3fb6 4359424C 		.ascii	"CYBLE_EVT_CPSS_INDICATION_ENABLED\000"
 7507      455F4556 
 7507      545F4350 
 7507      53535F49 
 7507      4E444943 
 7508              	.LASF260:
 7509 3fd8 4359424C 		.ascii	"CYBLE_EVT_GATTS_INDICATION_ENABLED\000"
 7509      455F4556 
 7509      545F4741 
 7509      5454535F 
 7509      494E4449 
 7510              	.LASF38:
 7511 3ffb 4359424C 		.ascii	"CYBLE_EVT_GAPC_SCAN_START_STOP\000"
 7511      455F4556 
 7511      545F4741 
 7511      50435F53 
 7511      43414E5F 
 7512              	.LASF167:
ARM GAS  C:\Users\run1009\AppData\Local\Temp\ccJxhBPK.s 			page 201


 7513 401a 4359424C 		.ascii	"CYBLE_GAPC_ADV_REPORT_T\000"
 7513      455F4741 
 7513      50435F41 
 7513      44565F52 
 7513      45504F52 
 7514              	.LASF148:
 7515 4032 61647643 		.ascii	"advChannelMap\000"
 7515      68616E6E 
 7515      656C4D61 
 7515      7000
 7516              	.LASF71:
 7517 4040 4359424C 		.ascii	"CYBLE_EVT_GATTS_HANDLE_VALUE_CNF\000"
 7517      455F4556 
 7517      545F4741 
 7517      5454535F 
 7517      48414E44 
 7518              	.LASF261:
 7519 4061 4359424C 		.ascii	"CYBLE_EVT_GATTS_INDICATION_DISABLED\000"
 7519      455F4556 
 7519      545F4741 
 7519      5454535F 
 7519      494E4449 
 7520              	.LASF105:
 7521 4085 4359424C 		.ascii	"CYBLE_ERROR_L2CAP_PSM_WRONG_ENCODING\000"
 7521      455F4552 
 7521      524F525F 
 7521      4C324341 
 7521      505F5053 
 7522              	.LASF592:
 7523 40aa 53776974 		.ascii	"SwitchRole\000"
 7523      6368526F 
 7523      6C6500
 7524              	.LASF217:
 7525 40b5 4359424C 		.ascii	"CYBLE_GATT_ERR_USER_DATA_ACCESS_NOT_PERMITTED\000"
 7525      455F4741 
 7525      54545F45 
 7525      52525F55 
 7525      5345525F 
 7526              	.LASF406:
 7527 40e3 4359424C 		.ascii	"CYBLE_EVT_HIDSS_NOTIFICATION_DISABLED\000"
 7527      455F4556 
 7527      545F4849 
 7527      4453535F 
 7527      4E4F5449 
 7528              	.LASF192:
 7529 4109 4359424C 		.ascii	"CYBLE_GATT_HANDLE_VALUE_NTF\000"
 7529      455F4741 
 7529      54545F48 
 7529      414E444C 
 7529      455F5641 
 7530              	.LASF222:
 7531 4125 4359424C 		.ascii	"CYBLE_GATT_ERR_MISSING_CRC\000"
 7531      455F4741 
 7531      54545F45 
 7531      52525F4D 
 7531      49535349 
 7532              	.LASF63:
ARM GAS  C:\Users\run1009\AppData\Local\Temp\ccJxhBPK.s 			page 202


 7533 4140 4359424C 		.ascii	"CYBLE_EVT_GATTS_WRITE_REQ\000"
 7533      455F4556 
 7533      545F4741 
 7533      5454535F 
 7533      57524954 
 7534              	.LASF75:
 7535 415a 4359424C 		.ascii	"CYBLE_EVT_GATTC_LONG_PROCEDURE_END\000"
 7535      455F4556 
 7535      545F4741 
 7535      5454435F 
 7535      4C4F4E47 
 7536              	.LASF160:
 7537 417d 4359424C 		.ascii	"CYBLE_GAPP_DISC_MODE_INFO_T\000"
 7537      455F4741 
 7537      50505F44 
 7537      4953435F 
 7537      4D4F4445 
 7538              	.LASF325:
 7539 4199 4359424C 		.ascii	"CYBLE_EVT_BLSC_READ_CHAR_RESPONSE\000"
 7539      455F4556 
 7539      545F424C 
 7539      53435F52 
 7539      4541445F 
 7540              	.LASF57:
 7541 41bb 4359424C 		.ascii	"CYBLE_EVT_GATTC_READ_BY_TYPE_RSP\000"
 7541      455F4556 
 7541      545F4741 
 7541      5454435F 
 7541      52454144 
 7542              	.LASF115:
 7543 41dc 4359424C 		.ascii	"CYBLE_ERROR_HARDWARE_FAILURE\000"
 7543      455F4552 
 7543      524F525F 
 7543      48415244 
 7543      57415245 
 7544              	.LASF84:
 7545 41f9 4359424C 		.ascii	"CYBLE_EVT_L2CAP_CBFC_RX_CREDIT_IND\000"
 7545      455F4556 
 7545      545F4C32 
 7545      4341505F 
 7545      43424643 
 7546              	.LASF320:
 7547 421c 4359424C 		.ascii	"CYBLE_EVT_BLSS_INDICATION_CONFIRMED\000"
 7547      455F4556 
 7547      545F424C 
 7547      53535F49 
 7547      4E444943 
 7548              	.LASF407:
 7549 4240 4359424C 		.ascii	"CYBLE_EVT_HIDSS_BOOT_MODE_ENTER\000"
 7549      455F4556 
 7549      545F4849 
 7549      4453535F 
 7549      424F4F54 
 7550              	.LASF614:
 7551 4260 636C6965 		.ascii	"clientConnectToDevice\000"
 7551      6E74436F 
 7551      6E6E6563 
ARM GAS  C:\Users\run1009\AppData\Local\Temp\ccJxhBPK.s 			page 203


 7551      74546F44 
 7551      65766963 
 7552              	.LASF540:
 7553 4276 4359424C 		.ascii	"CYBLE_EVT_WPTSC_READ_DESCR_RESPONSE\000"
 7553      455F4556 
 7553      545F5750 
 7553      5453435F 
 7553      52454144 
 7554              	.LASF487:
 7555 429a 4359424C 		.ascii	"CYBLE_EVT_PLXSC_READ_DESCR_RESPONSE\000"
 7555      455F4556 
 7555      545F504C 
 7555      5853435F 
 7555      52454144 
 7556              	.LASF413:
 7557 42be 4359424C 		.ascii	"CYBLE_EVT_HIDSC_READ_CHAR_RESPONSE\000"
 7557      455F4556 
 7557      545F4849 
 7557      4453435F 
 7557      52454144 
 7558              	.LASF42:
 7559 42e1 4359424C 		.ascii	"CYBLE_EVT_GAP_OOB_GENERATED_NOTIFICATION\000"
 7559      455F4556 
 7559      545F4741 
 7559      505F4F4F 
 7559      425F4745 
 7560              	.LASF419:
 7561 430a 4359424C 		.ascii	"CYBLE_EVT_HPSS_CHAR_WRITE\000"
 7561      455F4556 
 7561      545F4850 
 7561      53535F43 
 7561      4841525F 
 7562              	.LASF456:
 7563 4324 4359424C 		.ascii	"CYBLE_EVT_LLSC_WRITE_CHAR_RESPONSE\000"
 7563      455F4556 
 7563      545F4C4C 
 7563      53435F57 
 7563      52495445 
 7564              	.LASF137:
 7565 4347 4359424C 		.ascii	"CYBLE_GAPC_CONN_DIRECTED_ADV\000"
 7565      455F4741 
 7565      50435F43 
 7565      4F4E4E5F 
 7565      44495245 
 7566              	.LASF157:
 7567 4364 64697363 		.ascii	"discMode\000"
 7567      4D6F6465 
 7567      00
 7568              	.LASF139:
 7569 436d 4359424C 		.ascii	"CYBLE_GAPC_NON_CONN_UNDIRECTED_ADV\000"
 7569      455F4741 
 7569      50435F4E 
 7569      4F4E5F43 
 7569      4F4E4E5F 
 7570              	.LASF257:
 7571 4390 4359424C 		.ascii	"CYBLE_PASSKEY_ENTRY_REQUEST_REPLY\000"
 7571      455F5041 
ARM GAS  C:\Users\run1009\AppData\Local\Temp\ccJxhBPK.s 			page 204


 7571      53534B45 
 7571      595F454E 
 7571      5452595F 
 7572              	.LASF85:
 7573 43b2 4359424C 		.ascii	"CYBLE_EVT_L2CAP_CBFC_TX_CREDIT_IND\000"
 7573      455F4556 
 7573      545F4C32 
 7573      4341505F 
 7573      43424643 
 7574              	.LASF282:
 7575 43d5 4359424C 		.ascii	"CYBLE_EVT_AIOSC_NOTIFICATION\000"
 7575      455F4556 
 7575      545F4149 
 7575      4F53435F 
 7575      4E4F5449 
 7576              	.LASF546:
 7577 43f2 4359424C 		.ascii	"CYBLE_EVT_WSSC_READ_CHAR_RESPONSE\000"
 7577      455F4556 
 7577      545F5753 
 7577      53435F52 
 7577      4541445F 
 7578              	.LASF254:
 7579 4414 4359424C 		.ascii	"CYBLE_GATTC_READ_BLOB_REQ_T\000"
 7579      455F4741 
 7579      5454435F 
 7579      52454144 
 7579      5F424C4F 
 7580              	.LASF244:
 7581 4430 61747472 		.ascii	"attrHandle\000"
 7581      48616E64 
 7581      6C6500
 7582              	.LASF237:
 7583 443b 4359424C 		.ascii	"CYBLE_GATT_DB_ATTR_HANDLE_T\000"
 7583      455F4741 
 7583      54545F44 
 7583      425F4154 
 7583      54525F48 
 7584              	.LASF513:
 7585 4457 4359424C 		.ascii	"CYBLE_EVT_TPSC_READ_CHAR_RESPONSE\000"
 7585      455F4556 
 7585      545F5450 
 7585      53435F52 
 7585      4541445F 
 7586              	.LASF189:
 7587 4479 4359424C 		.ascii	"CYBLE_GATT_PREPARE_WRITE_RSP\000"
 7587      455F4741 
 7587      54545F50 
 7587      52455041 
 7587      52455F57 
 7588              	.LASF8:
 7589 4496 756E7369 		.ascii	"unsigned int\000"
 7589      676E6564 
 7589      20696E74 
 7589      00
 7590              	.LASF44:
 7591 44a3 4359424C 		.ascii	"CYBLE_EVT_GAP_ENHANCE_CONN_COMPLETE\000"
 7591      455F4556 
ARM GAS  C:\Users\run1009\AppData\Local\Temp\ccJxhBPK.s 			page 205


 7591      545F4741 
 7591      505F454E 
 7591      48414E43 
 7592              	.LASF525:
 7593 44c7 4359424C 		.ascii	"CYBLE_EVT_UDSC_READ_CHAR_RESPONSE\000"
 7593      455F4556 
 7593      545F5544 
 7593      53435F52 
 7593      4541445F 
 7594              	.LASF212:
 7595 44e9 4359424C 		.ascii	"CYBLE_GATT_ERR_INSUFFICIENT_ENCRYPTION\000"
 7595      455F4741 
 7595      54545F45 
 7595      52525F49 
 7595      4E535546 
 7596              	.LASF2:
 7597 4510 73686F72 		.ascii	"short int\000"
 7597      7420696E 
 7597      7400
 7598              	.LASF366:
 7599 451a 4359424C 		.ascii	"CYBLE_EVT_CSCSC_INDICATION\000"
 7599      455F4556 
 7599      545F4353 
 7599      4353435F 
 7599      494E4449 
 7600              	.LASF579:
 7601 4535 7363616E 		.ascii	"scan_report\000"
 7601      5F726570 
 7601      6F727400 
 7602              	.LASF199:
 7603 4541 4359424C 		.ascii	"CYBLE_GATT_ERR_READ_NOT_PERMITTED\000"
 7603      455F4741 
 7603      54545F45 
 7603      52525F52 
 7603      4541445F 
 7604              	.LASF30:
 7605 4563 4359424C 		.ascii	"CYBLE_EVT_GAP_PASSKEY_DISPLAY_REQUEST\000"
 7605      455F4556 
 7605      545F4741 
 7605      505F5041 
 7605      53534B45 
 7606              	.LASF524:
 7607 4589 4359424C 		.ascii	"CYBLE_EVT_UDSC_NOTIFICATION\000"
 7607      455F4556 
 7607      545F5544 
 7607      53435F4E 
 7607      4F544946 
 7608              	.LASF390:
 7609 45a5 4359424C 		.ascii	"CYBLE_EVT_ESSC_WRITE_CHAR_RESPONSE\000"
 7609      455F4556 
 7609      545F4553 
 7609      53435F57 
 7609      52495445 
 7610              	.LASF236:
 7611 45c8 4359424C 		.ascii	"CYBLE_GATT_ERR_CODE_T\000"
 7611      455F4741 
 7611      54545F45 
ARM GAS  C:\Users\run1009\AppData\Local\Temp\ccJxhBPK.s 			page 206


 7611      52525F43 
 7611      4F44455F 
 7612              	.LASF434:
 7613 45de 4359424C 		.ascii	"CYBLE_EVT_HTSS_NOTIFICATION_DISABLED\000"
 7613      455F4556 
 7613      545F4854 
 7613      53535F4E 
 7613      4F544946 
 7614              	.LASF431:
 7615 4603 4359424C 		.ascii	"CYBLE_EVT_HRSC_READ_DESCR_RESPONSE\000"
 7615      455F4556 
 7615      545F4852 
 7615      53435F52 
 7615      4541445F 
 7616              	.LASF375:
 7617 4626 4359424C 		.ascii	"CYBLE_EVT_CTSC_READ_CHAR_RESPONSE\000"
 7617      455F4556 
 7617      545F4354 
 7617      53435F52 
 7617      4541445F 
 7618              	.LASF387:
 7619 4648 4359424C 		.ascii	"CYBLE_EVT_ESSC_NOTIFICATION\000"
 7619      455F4556 
 7619      545F4553 
 7619      53435F4E 
 7619      4F544946 
 7620              	.LASF327:
 7621 4664 4359424C 		.ascii	"CYBLE_EVT_BLSC_WRITE_DESCR_RESPONSE\000"
 7621      455F4556 
 7621      545F424C 
 7621      53435F57 
 7621      52495445 
 7622              	.LASF116:
 7623 4688 4359424C 		.ascii	"CYBLE_ERROR_UNSUPPORTED_FEATURE_OR_PARAMETER_VALUE\000"
 7623      455F4552 
 7623      524F525F 
 7623      554E5355 
 7623      50504F52 
 7624              		.ident	"GCC: (GNU Tools for ARM Embedded Processors) 5.4.1 20160609 (release) [ARM/embedded-5-bran
