ARM GAS  C:\Users\run1009\AppData\Local\Temp\cczcrtUB.s 			page 1


   1              		.syntax unified
   2              		.cpu cortex-m0
   3              		.fpu softvfp
   4              		.eabi_attribute 20, 1
   5              		.eabi_attribute 21, 1
   6              		.eabi_attribute 23, 3
   7              		.eabi_attribute 24, 1
   8              		.eabi_attribute 25, 1
   9              		.eabi_attribute 26, 1
  10              		.eabi_attribute 30, 6
  11              		.eabi_attribute 34, 0
  12              		.eabi_attribute 18, 4
  13              		.thumb
  14              		.syntax unified
  15              		.file	"debug.c"
  16              		.text
  17              	.Ltext0:
  18              		.cfi_sections	.debug_frame
  19              		.section	.rodata
  20              		.align	2
  21              	.LC1:
  22 0000 207C424C 		.ascii	" |BLE State: CYBLE_STATE_STOPPED \000"
  22      45205374 
  22      6174653A 
  22      20435942 
  22      4C455F53 
  23 0022 0000     		.align	2
  24              	.LC3:
  25 0024 207C424C 		.ascii	" |BLE State: CYBLE_STATE_INITIALIZING \000"
  25      45205374 
  25      6174653A 
  25      20435942 
  25      4C455F53 
  26 004b 00       		.align	2
  27              	.LC5:
  28 004c 207C424C 		.ascii	" |BLE State: CYBLE_STATE_CONNECTED \000"
  28      45205374 
  28      6174653A 
  28      20435942 
  28      4C455F53 
  29              		.align	2
  30              	.LC7:
  31 0070 207C424C 		.ascii	" |BLE State: CYBLE_STATE_ADVERTISING \000"
  31      45205374 
  31      6174653A 
  31      20435942 
  31      4C455F53 
  32 0096 0000     		.align	2
  33              	.LC9:
  34 0098 207C424C 		.ascii	" |BLE State: CYBLE_STATE_SCANNING \000"
  34      45205374 
  34      6174653A 
  34      20435942 
  34      4C455F53 
  35 00bb 00       		.align	2
  36              	.LC13:
  37 00bc 207C424C 		.ascii	" |BLE State: CYBLE_STATE_CONNECTING \000"
ARM GAS  C:\Users\run1009\AppData\Local\Temp\cczcrtUB.s 			page 2


  37      45205374 
  37      6174653A 
  37      20435942 
  37      4C455F53 
  38 00e1 000000   		.align	2
  39              	.LC15:
  40 00e4 207C424C 		.ascii	" |BLE State: CYBLE_STATE_DISCONNECTED \000"
  40      45205374 
  40      6174653A 
  40      20435942 
  40      4C455F53 
  41 010b 00       		.align	2
  42              	.LC17:
  43 010c 207C424C 		.ascii	" |BLE State: UNKNOWN STATE \000"
  43      45205374 
  43      6174653A 
  43      20554E4B 
  43      4E4F574E 
  44              		.section	.text.SendBLEStatetoUART,"ax",%progbits
  45              		.align	2
  46              		.global	SendBLEStatetoUART
  47              		.code	16
  48              		.thumb_func
  49              		.type	SendBLEStatetoUART, %function
  50              	SendBLEStatetoUART:
  51              	.LFB36:
  52              		.file 1 "debug.c"
   1:debug.c       **** /*******************************************************************************
   2:debug.c       **** * File Name: debug.c
   3:debug.c       **** *
   4:debug.c       **** * Version: 1.0
   5:debug.c       **** *
   6:debug.c       **** * Description:
   7:debug.c       **** * This file contains the definiton for debug functions, using UART as communication
   8:debug.c       **** * medium. These function sends UART data to KitProg/PSoC 5LP, which enumerats as
   9:debug.c       **** * COM port on connected PC.
  10:debug.c       **** *
  11:debug.c       **** ********************************************************************************
  12:debug.c       **** * Copyright 2015, Cypress Semiconductor Corporation.  All rights reserved.
  13:debug.c       **** * You may use this file only in accordance with the license, terms, conditions,
  14:debug.c       **** * disclaimers, and limitations in the end user license agreement accompanying
  15:debug.c       **** * the software package with which this file was provided.
  16:debug.c       **** *******************************************************************************/
  17:debug.c       **** #include <debug.h>
  18:debug.c       **** extern uint16 connectingTime;
  19:debug.c       **** /*******************************************************************************
  20:debug.c       **** * Function Name: SendBLEStatetoUART
  21:debug.c       **** ********************************************************************************
  22:debug.c       **** * Summary:
  23:debug.c       **** *        Sends the string to UART corresponding to the present BLE state
  24:debug.c       **** *
  25:debug.c       **** * Parameters:
  26:debug.c       **** *  ble_state: current state of the BLE.
  27:debug.c       **** *
  28:debug.c       **** * Return:
  29:debug.c       **** *  void
  30:debug.c       **** *
ARM GAS  C:\Users\run1009\AppData\Local\Temp\cczcrtUB.s 			page 3


  31:debug.c       **** *******************************************************************************/
  32:debug.c       **** void SendBLEStatetoUART(CYBLE_STATE_T ble_state)
  33:debug.c       **** {
  53              		.loc 1 33 0
  54              		.cfi_startproc
  55              		@ args = 0, pretend = 0, frame = 8
  56              		@ frame_needed = 1, uses_anonymous_args = 0
  57 0000 80B5     		push	{r7, lr}
  58              		.cfi_def_cfa_offset 8
  59              		.cfi_offset 7, -8
  60              		.cfi_offset 14, -4
  61 0002 82B0     		sub	sp, sp, #8
  62              		.cfi_def_cfa_offset 16
  63 0004 00AF     		add	r7, sp, #0
  64              		.cfi_def_cfa_register 7
  65 0006 0200     		movs	r2, r0
  66 0008 FB1D     		adds	r3, r7, #7
  67 000a 1A70     		strb	r2, [r3]
  34:debug.c       **** 	#if (DEBUG_ENABLED == 1)
  35:debug.c       **** 	/* Depending on current BLE state sent, place the string on UART */
  36:debug.c       **** 	switch(ble_state)
  68              		.loc 1 36 0
  69 000c FB1D     		adds	r3, r7, #7
  70 000e 1B78     		ldrb	r3, [r3]
  71 0010 062B     		cmp	r3, #6
  72 0012 2CD8     		bhi	.L2
  73 0014 9A00     		lsls	r2, r3, #2
  74 0016 1C4B     		ldr	r3, .L12
  75 0018 D318     		adds	r3, r2, r3
  76 001a 1B68     		ldr	r3, [r3]
  77 001c 9F46     		mov	pc, r3
  78              		.section	.rodata
  79              		.align	2
  80              	.L4:
  81 0128 1E000000 		.word	.L3
  82 012c 28000000 		.word	.L5
  83 0130 32000000 		.word	.L6
  84 0134 3C000000 		.word	.L7
  85 0138 46000000 		.word	.L8
  86 013c 50000000 		.word	.L9
  87 0140 64000000 		.word	.L10
  88              		.section	.text.SendBLEStatetoUART
  89              	.L3:
  37:debug.c       **** 	{
  38:debug.c       **** 		case CYBLE_STATE_STOPPED:
  39:debug.c       **** 			UART_UartPutString(" |BLE State: CYBLE_STATE_STOPPED ");
  90              		.loc 1 39 0
  91 001e 1B4B     		ldr	r3, .L12+4
  92 0020 1800     		movs	r0, r3
  93 0022 FFF7FEFF 		bl	UART_UartPutString
  40:debug.c       **** 		break;
  94              		.loc 1 40 0
  95 0026 27E0     		b	.L11
  96              	.L5:
  41:debug.c       **** 		
  42:debug.c       **** 		case CYBLE_STATE_INITIALIZING:
  43:debug.c       **** 			UART_UartPutString(" |BLE State: CYBLE_STATE_INITIALIZING ");
ARM GAS  C:\Users\run1009\AppData\Local\Temp\cczcrtUB.s 			page 4


  97              		.loc 1 43 0
  98 0028 194B     		ldr	r3, .L12+8
  99 002a 1800     		movs	r0, r3
 100 002c FFF7FEFF 		bl	UART_UartPutString
  44:debug.c       **** 		break;
 101              		.loc 1 44 0
 102 0030 22E0     		b	.L11
 103              	.L6:
  45:debug.c       **** 		
  46:debug.c       **** 		case CYBLE_STATE_CONNECTED:
  47:debug.c       **** 			UART_UartPutString(" |BLE State: CYBLE_STATE_CONNECTED ");
 104              		.loc 1 47 0
 105 0032 184B     		ldr	r3, .L12+12
 106 0034 1800     		movs	r0, r3
 107 0036 FFF7FEFF 		bl	UART_UartPutString
  48:debug.c       **** 		break;
 108              		.loc 1 48 0
 109 003a 1DE0     		b	.L11
 110              	.L7:
  49:debug.c       **** 		
  50:debug.c       **** 		case CYBLE_STATE_ADVERTISING:
  51:debug.c       **** 			UART_UartPutString(" |BLE State: CYBLE_STATE_ADVERTISING ");
 111              		.loc 1 51 0
 112 003c 164B     		ldr	r3, .L12+16
 113 003e 1800     		movs	r0, r3
 114 0040 FFF7FEFF 		bl	UART_UartPutString
  52:debug.c       **** 		break;
 115              		.loc 1 52 0
 116 0044 18E0     		b	.L11
 117              	.L8:
  53:debug.c       **** 		
  54:debug.c       **** 		case CYBLE_STATE_SCANNING:
  55:debug.c       **** 			UART_UartPutString(" |BLE State: CYBLE_STATE_SCANNING ");
 118              		.loc 1 55 0
 119 0046 154B     		ldr	r3, .L12+20
 120 0048 1800     		movs	r0, r3
 121 004a FFF7FEFF 		bl	UART_UartPutString
  56:debug.c       **** 		break;
 122              		.loc 1 56 0
 123 004e 13E0     		b	.L11
 124              	.L9:
  57:debug.c       **** 		
  58:debug.c       **** 		case CYBLE_STATE_CONNECTING:
  59:debug.c       ****             connectingTime = WatchDog_CurrentCount();
 125              		.loc 1 59 0
 126 0050 134B     		ldr	r3, .L12+24
 127 0052 1B88     		ldrh	r3, [r3]
 128 0054 9AB2     		uxth	r2, r3
 129 0056 134B     		ldr	r3, .L12+28
 130 0058 1A80     		strh	r2, [r3]
  60:debug.c       **** 			UART_UartPutString(" |BLE State: CYBLE_STATE_CONNECTING ");
 131              		.loc 1 60 0
 132 005a 134B     		ldr	r3, .L12+32
 133 005c 1800     		movs	r0, r3
 134 005e FFF7FEFF 		bl	UART_UartPutString
  61:debug.c       **** 		break;
 135              		.loc 1 61 0
ARM GAS  C:\Users\run1009\AppData\Local\Temp\cczcrtUB.s 			page 5


 136 0062 09E0     		b	.L11
 137              	.L10:
  62:debug.c       **** 		
  63:debug.c       **** 		case CYBLE_STATE_DISCONNECTED:
  64:debug.c       **** 			UART_UartPutString(" |BLE State: CYBLE_STATE_DISCONNECTED ");
 138              		.loc 1 64 0
 139 0064 114B     		ldr	r3, .L12+36
 140 0066 1800     		movs	r0, r3
 141 0068 FFF7FEFF 		bl	UART_UartPutString
  65:debug.c       **** 		break;
 142              		.loc 1 65 0
 143 006c 04E0     		b	.L11
 144              	.L2:
  66:debug.c       **** 		
  67:debug.c       **** 		default:
  68:debug.c       **** 			UART_UartPutString(" |BLE State: UNKNOWN STATE ");
 145              		.loc 1 68 0
 146 006e 104B     		ldr	r3, .L12+40
 147 0070 1800     		movs	r0, r3
 148 0072 FFF7FEFF 		bl	UART_UartPutString
  69:debug.c       **** 		break;
 149              		.loc 1 69 0
 150 0076 C046     		nop
 151              	.L11:
  70:debug.c       **** 	}
  71:debug.c       **** 	
  72:debug.c       **** 	UART_UartPutCRLF(' ');
 152              		.loc 1 72 0
 153 0078 2020     		movs	r0, #32
 154 007a FFF7FEFF 		bl	UART_UartPutCRLF
  73:debug.c       **** 	#else
  74:debug.c       **** 		ble_state = ble_state;
  75:debug.c       **** 	#endif
  76:debug.c       **** }
 155              		.loc 1 76 0
 156 007e C046     		nop
 157 0080 BD46     		mov	sp, r7
 158 0082 02B0     		add	sp, sp, #8
 159              		@ sp needed
 160 0084 80BD     		pop	{r7, pc}
 161              	.L13:
 162 0086 C046     		.align	2
 163              	.L12:
 164 0088 28010000 		.word	.L4
 165 008c 00000000 		.word	.LC1
 166 0090 24000000 		.word	.LC3
 167 0094 4C000000 		.word	.LC5
 168 0098 70000000 		.word	.LC7
 169 009c 98000000 		.word	.LC9
 170 00a0 00000000 		.word	current_watchdog_counter
 171 00a4 00000000 		.word	connectingTime
 172 00a8 BC000000 		.word	.LC13
 173 00ac E4000000 		.word	.LC15
 174 00b0 0C010000 		.word	.LC17
 175              		.cfi_endproc
 176              	.LFE36:
 177              		.size	SendBLEStatetoUART, .-SendBLEStatetoUART
ARM GAS  C:\Users\run1009\AppData\Local\Temp\cczcrtUB.s 			page 6


 178              		.global	__aeabi_uidivmod
 179              		.global	__aeabi_uidiv
 180              		.section	.text.PrintNum,"ax",%progbits
 181              		.align	2
 182              		.global	PrintNum
 183              		.code	16
 184              		.thumb_func
 185              		.type	PrintNum, %function
 186              	PrintNum:
 187              	.LFB37:
  77:debug.c       **** 
  78:debug.c       **** /*******************************************************************************
  79:debug.c       **** * Function Name: PrintNum
  80:debug.c       **** ********************************************************************************
  81:debug.c       **** * Summary:
  82:debug.c       **** *        Converts decimal number to characters in ASCII that can be printed on 
  83:debug.c       **** * terminal.
  84:debug.c       **** *
  85:debug.c       **** * Parameters:
  86:debug.c       **** *  num: number to be converted to string.
  87:debug.c       **** *
  88:debug.c       **** * Return:
  89:debug.c       **** *  void
  90:debug.c       **** *
  91:debug.c       **** *******************************************************************************/
  92:debug.c       **** void PrintNum(uint8 num)
  93:debug.c       **** {
 188              		.loc 1 93 0
 189              		.cfi_startproc
 190              		@ args = 0, pretend = 0, frame = 16
 191              		@ frame_needed = 1, uses_anonymous_args = 0
 192 0000 90B5     		push	{r4, r7, lr}
 193              		.cfi_def_cfa_offset 12
 194              		.cfi_offset 4, -12
 195              		.cfi_offset 7, -8
 196              		.cfi_offset 14, -4
 197 0002 85B0     		sub	sp, sp, #20
 198              		.cfi_def_cfa_offset 32
 199 0004 00AF     		add	r7, sp, #0
 200              		.cfi_def_cfa_register 7
 201 0006 0200     		movs	r2, r0
 202 0008 FB1D     		adds	r3, r7, #7
 203 000a 1A70     		strb	r2, [r3]
  94:debug.c       **** 	#if (DEBUG_ENABLED == 1)
  95:debug.c       **** 	uint8 temp[3];
  96:debug.c       **** 	
  97:debug.c       **** 	temp[0] = num%10;
 204              		.loc 1 97 0
 205 000c FB1D     		adds	r3, r7, #7
 206 000e 1B78     		ldrb	r3, [r3]
 207 0010 0A21     		movs	r1, #10
 208 0012 1800     		movs	r0, r3
 209 0014 FFF7FEFF 		bl	__aeabi_uidivmod
 210 0018 0B00     		movs	r3, r1
 211 001a DAB2     		uxtb	r2, r3
 212 001c 0C23     		movs	r3, #12
 213 001e FB18     		adds	r3, r7, r3
ARM GAS  C:\Users\run1009\AppData\Local\Temp\cczcrtUB.s 			page 7


 214 0020 1A70     		strb	r2, [r3]
  98:debug.c       **** 	num = num/10;
 215              		.loc 1 98 0
 216 0022 FC1D     		adds	r4, r7, #7
 217 0024 FB1D     		adds	r3, r7, #7
 218 0026 1B78     		ldrb	r3, [r3]
 219 0028 0A21     		movs	r1, #10
 220 002a 1800     		movs	r0, r3
 221 002c FFF7FEFF 		bl	__aeabi_uidiv
 222 0030 0300     		movs	r3, r0
 223 0032 2370     		strb	r3, [r4]
  99:debug.c       **** 	temp[1] = num%10;
 224              		.loc 1 99 0
 225 0034 FB1D     		adds	r3, r7, #7
 226 0036 1B78     		ldrb	r3, [r3]
 227 0038 0A21     		movs	r1, #10
 228 003a 1800     		movs	r0, r3
 229 003c FFF7FEFF 		bl	__aeabi_uidivmod
 230 0040 0B00     		movs	r3, r1
 231 0042 DAB2     		uxtb	r2, r3
 232 0044 0C23     		movs	r3, #12
 233 0046 FB18     		adds	r3, r7, r3
 234 0048 5A70     		strb	r2, [r3, #1]
 100:debug.c       **** 	num = num/10;
 235              		.loc 1 100 0
 236 004a FC1D     		adds	r4, r7, #7
 237 004c FB1D     		adds	r3, r7, #7
 238 004e 1B78     		ldrb	r3, [r3]
 239 0050 0A21     		movs	r1, #10
 240 0052 1800     		movs	r0, r3
 241 0054 FFF7FEFF 		bl	__aeabi_uidiv
 242 0058 0300     		movs	r3, r0
 243 005a 2370     		strb	r3, [r4]
 101:debug.c       **** 	temp[2] = num%10;
 244              		.loc 1 101 0
 245 005c FB1D     		adds	r3, r7, #7
 246 005e 1B78     		ldrb	r3, [r3]
 247 0060 0A21     		movs	r1, #10
 248 0062 1800     		movs	r0, r3
 249 0064 FFF7FEFF 		bl	__aeabi_uidivmod
 250 0068 0B00     		movs	r3, r1
 251 006a DAB2     		uxtb	r2, r3
 252 006c 0C23     		movs	r3, #12
 253 006e FB18     		adds	r3, r7, r3
 254 0070 9A70     		strb	r2, [r3, #2]
 102:debug.c       **** 	
 103:debug.c       **** 	if(temp[2] == 0)
 255              		.loc 1 103 0
 256 0072 0C23     		movs	r3, #12
 257 0074 FB18     		adds	r3, r7, r3
 258 0076 9B78     		ldrb	r3, [r3, #2]
 259 0078 002B     		cmp	r3, #0
 260 007a 1BD1     		bne	.L15
 104:debug.c       **** 	{
 105:debug.c       **** 		if(temp[1] == 0)
 261              		.loc 1 105 0
 262 007c 0C23     		movs	r3, #12
ARM GAS  C:\Users\run1009\AppData\Local\Temp\cczcrtUB.s 			page 8


 263 007e FB18     		adds	r3, r7, r3
 264 0080 5B78     		ldrb	r3, [r3, #1]
 265 0082 002B     		cmp	r3, #0
 266 0084 07D1     		bne	.L16
 106:debug.c       **** 		{
 107:debug.c       **** 			UART_UartPutChar('0' + temp[0]);
 267              		.loc 1 107 0
 268 0086 0C23     		movs	r3, #12
 269 0088 FB18     		adds	r3, r7, r3
 270 008a 1B78     		ldrb	r3, [r3]
 271 008c 3033     		adds	r3, r3, #48
 272 008e 1800     		movs	r0, r3
 273 0090 FFF7FEFF 		bl	UART_SpiUartWriteTxData
 108:debug.c       **** 		}
 109:debug.c       **** 		else
 110:debug.c       **** 		{
 111:debug.c       **** 			UART_UartPutChar('0' + temp[1]);
 112:debug.c       **** 			UART_UartPutChar('0' + temp[0]);	
 113:debug.c       **** 		}
 114:debug.c       **** 	}
 115:debug.c       **** 	else
 116:debug.c       **** 	{
 117:debug.c       **** 		UART_UartPutChar('0' + temp[2]);
 118:debug.c       **** 		UART_UartPutChar('0' + temp[1]);
 119:debug.c       **** 		UART_UartPutChar('0' + temp[0]);
 120:debug.c       **** 	}
 121:debug.c       **** 	#else
 122:debug.c       **** 		num = num;
 123:debug.c       **** 	#endif
 124:debug.c       **** }
 274              		.loc 1 124 0
 275 0094 23E0     		b	.L19
 276              	.L16:
 111:debug.c       **** 			UART_UartPutChar('0' + temp[0]);	
 277              		.loc 1 111 0
 278 0096 0C23     		movs	r3, #12
 279 0098 FB18     		adds	r3, r7, r3
 280 009a 5B78     		ldrb	r3, [r3, #1]
 281 009c 3033     		adds	r3, r3, #48
 282 009e 1800     		movs	r0, r3
 283 00a0 FFF7FEFF 		bl	UART_SpiUartWriteTxData
 112:debug.c       **** 		}
 284              		.loc 1 112 0
 285 00a4 0C23     		movs	r3, #12
 286 00a6 FB18     		adds	r3, r7, r3
 287 00a8 1B78     		ldrb	r3, [r3]
 288 00aa 3033     		adds	r3, r3, #48
 289 00ac 1800     		movs	r0, r3
 290 00ae FFF7FEFF 		bl	UART_SpiUartWriteTxData
 291              		.loc 1 124 0
 292 00b2 14E0     		b	.L19
 293              	.L15:
 117:debug.c       **** 		UART_UartPutChar('0' + temp[1]);
 294              		.loc 1 117 0
 295 00b4 0C23     		movs	r3, #12
 296 00b6 FB18     		adds	r3, r7, r3
 297 00b8 9B78     		ldrb	r3, [r3, #2]
ARM GAS  C:\Users\run1009\AppData\Local\Temp\cczcrtUB.s 			page 9


 298 00ba 3033     		adds	r3, r3, #48
 299 00bc 1800     		movs	r0, r3
 300 00be FFF7FEFF 		bl	UART_SpiUartWriteTxData
 118:debug.c       **** 		UART_UartPutChar('0' + temp[0]);
 301              		.loc 1 118 0
 302 00c2 0C23     		movs	r3, #12
 303 00c4 FB18     		adds	r3, r7, r3
 304 00c6 5B78     		ldrb	r3, [r3, #1]
 305 00c8 3033     		adds	r3, r3, #48
 306 00ca 1800     		movs	r0, r3
 307 00cc FFF7FEFF 		bl	UART_SpiUartWriteTxData
 119:debug.c       **** 	}
 308              		.loc 1 119 0
 309 00d0 0C23     		movs	r3, #12
 310 00d2 FB18     		adds	r3, r7, r3
 311 00d4 1B78     		ldrb	r3, [r3]
 312 00d6 3033     		adds	r3, r3, #48
 313 00d8 1800     		movs	r0, r3
 314 00da FFF7FEFF 		bl	UART_SpiUartWriteTxData
 315              	.L19:
 316              		.loc 1 124 0
 317 00de C046     		nop
 318 00e0 BD46     		mov	sp, r7
 319 00e2 05B0     		add	sp, sp, #20
 320              		@ sp needed
 321 00e4 90BD     		pop	{r4, r7, pc}
 322              		.cfi_endproc
 323              	.LFE37:
 324              		.size	PrintNum, .-PrintNum
 325 00e6 C046     		.section	.text.PrintHex,"ax",%progbits
 326              		.align	2
 327              		.global	PrintHex
 328              		.code	16
 329              		.thumb_func
 330              		.type	PrintHex, %function
 331              	PrintHex:
 332              	.LFB38:
 125:debug.c       **** 
 126:debug.c       **** /*******************************************************************************
 127:debug.c       **** * Function Name: PrintHex
 128:debug.c       **** ********************************************************************************
 129:debug.c       **** * Summary:
 130:debug.c       **** *        Converts HEX number to characters in ASCII that can be printed on 
 131:debug.c       **** * terminal.
 132:debug.c       **** *
 133:debug.c       **** * Parameters:
 134:debug.c       **** *  num: HEX to be converted to string.
 135:debug.c       **** *
 136:debug.c       **** * Return:
 137:debug.c       **** *  void
 138:debug.c       **** *
 139:debug.c       **** *******************************************************************************/
 140:debug.c       **** void PrintHex(uint8 num)
 141:debug.c       **** {
 333              		.loc 1 141 0
 334              		.cfi_startproc
 335              		@ args = 0, pretend = 0, frame = 16
ARM GAS  C:\Users\run1009\AppData\Local\Temp\cczcrtUB.s 			page 10


 336              		@ frame_needed = 1, uses_anonymous_args = 0
 337 0000 80B5     		push	{r7, lr}
 338              		.cfi_def_cfa_offset 8
 339              		.cfi_offset 7, -8
 340              		.cfi_offset 14, -4
 341 0002 84B0     		sub	sp, sp, #16
 342              		.cfi_def_cfa_offset 24
 343 0004 00AF     		add	r7, sp, #0
 344              		.cfi_def_cfa_register 7
 345 0006 0200     		movs	r2, r0
 346 0008 FB1D     		adds	r3, r7, #7
 347 000a 1A70     		strb	r2, [r3]
 142:debug.c       **** 	#if (DEBUG_ENABLED == 1)
 143:debug.c       **** 	uint8 temp[2];
 144:debug.c       **** 	
 145:debug.c       **** 	temp[0] = num%16;
 348              		.loc 1 145 0
 349 000c FB1D     		adds	r3, r7, #7
 350 000e 1B78     		ldrb	r3, [r3]
 351 0010 0F22     		movs	r2, #15
 352 0012 1340     		ands	r3, r2
 353 0014 DAB2     		uxtb	r2, r3
 354 0016 0C23     		movs	r3, #12
 355 0018 FB18     		adds	r3, r7, r3
 356 001a 1A70     		strb	r2, [r3]
 146:debug.c       **** 	num = num/16;
 357              		.loc 1 146 0
 358 001c FB1D     		adds	r3, r7, #7
 359 001e FA1D     		adds	r2, r7, #7
 360 0020 1278     		ldrb	r2, [r2]
 361 0022 1209     		lsrs	r2, r2, #4
 362 0024 1A70     		strb	r2, [r3]
 147:debug.c       **** 	temp[1] = num%16;
 363              		.loc 1 147 0
 364 0026 FB1D     		adds	r3, r7, #7
 365 0028 1B78     		ldrb	r3, [r3]
 366 002a 0F22     		movs	r2, #15
 367 002c 1340     		ands	r3, r2
 368 002e DAB2     		uxtb	r2, r3
 369 0030 0C23     		movs	r3, #12
 370 0032 FB18     		adds	r3, r7, r3
 371 0034 5A70     		strb	r2, [r3, #1]
 148:debug.c       **** 
 149:debug.c       **** 	//UART_UartPutString("0x");
 150:debug.c       **** 	if(temp[1] < 10)
 372              		.loc 1 150 0
 373 0036 0C23     		movs	r3, #12
 374 0038 FB18     		adds	r3, r7, r3
 375 003a 5B78     		ldrb	r3, [r3, #1]
 376 003c 092B     		cmp	r3, #9
 377 003e 07D8     		bhi	.L21
 151:debug.c       **** 	{
 152:debug.c       **** 		UART_UartPutChar('0' + temp[1]);
 378              		.loc 1 152 0
 379 0040 0C23     		movs	r3, #12
 380 0042 FB18     		adds	r3, r7, r3
 381 0044 5B78     		ldrb	r3, [r3, #1]
ARM GAS  C:\Users\run1009\AppData\Local\Temp\cczcrtUB.s 			page 11


 382 0046 3033     		adds	r3, r3, #48
 383 0048 1800     		movs	r0, r3
 384 004a FFF7FEFF 		bl	UART_SpiUartWriteTxData
 385 004e 06E0     		b	.L22
 386              	.L21:
 153:debug.c       **** 	}
 154:debug.c       **** 	else
 155:debug.c       **** 	{
 156:debug.c       **** 		UART_UartPutChar('A' + (temp[1] - 10));
 387              		.loc 1 156 0
 388 0050 0C23     		movs	r3, #12
 389 0052 FB18     		adds	r3, r7, r3
 390 0054 5B78     		ldrb	r3, [r3, #1]
 391 0056 3733     		adds	r3, r3, #55
 392 0058 1800     		movs	r0, r3
 393 005a FFF7FEFF 		bl	UART_SpiUartWriteTxData
 394              	.L22:
 157:debug.c       **** 	}
 158:debug.c       **** 
 159:debug.c       **** 	if(temp[0] < 10)
 395              		.loc 1 159 0
 396 005e 0C23     		movs	r3, #12
 397 0060 FB18     		adds	r3, r7, r3
 398 0062 1B78     		ldrb	r3, [r3]
 399 0064 092B     		cmp	r3, #9
 400 0066 07D8     		bhi	.L23
 160:debug.c       **** 	{
 161:debug.c       **** 		UART_UartPutChar('0' + temp[0]);
 401              		.loc 1 161 0
 402 0068 0C23     		movs	r3, #12
 403 006a FB18     		adds	r3, r7, r3
 404 006c 1B78     		ldrb	r3, [r3]
 405 006e 3033     		adds	r3, r3, #48
 406 0070 1800     		movs	r0, r3
 407 0072 FFF7FEFF 		bl	UART_SpiUartWriteTxData
 162:debug.c       **** 	}
 163:debug.c       **** 	else
 164:debug.c       **** 	{
 165:debug.c       **** 		UART_UartPutChar('A' + (temp[0] - 10));
 166:debug.c       **** 	}
 167:debug.c       **** 	#else
 168:debug.c       **** 		num = num;
 169:debug.c       **** 	#endif
 170:debug.c       **** }
 408              		.loc 1 170 0
 409 0076 06E0     		b	.L25
 410              	.L23:
 165:debug.c       **** 	}
 411              		.loc 1 165 0
 412 0078 0C23     		movs	r3, #12
 413 007a FB18     		adds	r3, r7, r3
 414 007c 1B78     		ldrb	r3, [r3]
 415 007e 3733     		adds	r3, r3, #55
 416 0080 1800     		movs	r0, r3
 417 0082 FFF7FEFF 		bl	UART_SpiUartWriteTxData
 418              	.L25:
 419              		.loc 1 170 0
ARM GAS  C:\Users\run1009\AppData\Local\Temp\cczcrtUB.s 			page 12


 420 0086 C046     		nop
 421 0088 BD46     		mov	sp, r7
 422 008a 04B0     		add	sp, sp, #16
 423              		@ sp needed
 424 008c 80BD     		pop	{r7, pc}
 425              		.cfi_endproc
 426              	.LFE38:
 427              		.size	PrintHex, .-PrintHex
 428              		.section	.text.HexToAscii,"ax",%progbits
 429              		.align	2
 430              		.global	HexToAscii
 431              		.code	16
 432              		.thumb_func
 433              		.type	HexToAscii, %function
 434              	HexToAscii:
 435              	.LFB39:
 171:debug.c       **** 
 172:debug.c       **** /*******************************************************************************
 173:debug.c       **** * Function Name: HexToAscii
 174:debug.c       **** ********************************************************************************
 175:debug.c       **** * Summary:
 176:debug.c       **** *        Converts either the higher or lower nibble of a hex byte to its
 177:debug.c       **** * corresponding ASCII.
 178:debug.c       **** *
 179:debug.c       **** * Parameters:
 180:debug.c       **** *  value - hex value to be converted to ASCII
 181:debug.c       **** *  nibble - 0 = lower nibble, 1 = higher nibble
 182:debug.c       **** *
 183:debug.c       **** * Return:
 184:debug.c       **** *  char - hex value for the value/nibble specified in the parameters
 185:debug.c       **** *
 186:debug.c       **** *******************************************************************************/
 187:debug.c       **** char HexToAscii(uint8 value, uint8 nibble)
 188:debug.c       **** {
 436              		.loc 1 188 0
 437              		.cfi_startproc
 438              		@ args = 0, pretend = 0, frame = 8
 439              		@ frame_needed = 1, uses_anonymous_args = 0
 440 0000 80B5     		push	{r7, lr}
 441              		.cfi_def_cfa_offset 8
 442              		.cfi_offset 7, -8
 443              		.cfi_offset 14, -4
 444 0002 82B0     		sub	sp, sp, #8
 445              		.cfi_def_cfa_offset 16
 446 0004 00AF     		add	r7, sp, #0
 447              		.cfi_def_cfa_register 7
 448 0006 0200     		movs	r2, r0
 449 0008 FB1D     		adds	r3, r7, #7
 450 000a 1A70     		strb	r2, [r3]
 451 000c BB1D     		adds	r3, r7, #6
 452 000e 0A1C     		adds	r2, r1, #0
 453 0010 1A70     		strb	r2, [r3]
 189:debug.c       ****     #if (DEBUG_ENABLED == 1)
 190:debug.c       **** 	if(nibble == 1)
 454              		.loc 1 190 0
 455 0012 BB1D     		adds	r3, r7, #6
 456 0014 1B78     		ldrb	r3, [r3]
ARM GAS  C:\Users\run1009\AppData\Local\Temp\cczcrtUB.s 			page 13


 457 0016 012B     		cmp	r3, #1
 458 0018 1AD1     		bne	.L27
 191:debug.c       ****     {
 192:debug.c       ****         /* bit-shift the result to the right by four bits */
 193:debug.c       ****         value = value & 0xF0;
 459              		.loc 1 193 0
 460 001a FB1D     		adds	r3, r7, #7
 461 001c FA1D     		adds	r2, r7, #7
 462 001e 1278     		ldrb	r2, [r2]
 463 0020 0F21     		movs	r1, #15
 464 0022 8A43     		bics	r2, r1
 465 0024 1A70     		strb	r2, [r3]
 194:debug.c       ****         value = value >> 4;
 466              		.loc 1 194 0
 467 0026 FB1D     		adds	r3, r7, #7
 468 0028 FA1D     		adds	r2, r7, #7
 469 002a 1278     		ldrb	r2, [r2]
 470 002c 1209     		lsrs	r2, r2, #4
 471 002e 1A70     		strb	r2, [r3]
 195:debug.c       ****         
 196:debug.c       ****         if (value >9)
 472              		.loc 1 196 0
 473 0030 FB1D     		adds	r3, r7, #7
 474 0032 1B78     		ldrb	r3, [r3]
 475 0034 092B     		cmp	r3, #9
 476 0036 05D9     		bls	.L28
 197:debug.c       ****         {
 198:debug.c       ****             value = value - 10 + 'A'; /* convert to ASCII character */
 477              		.loc 1 198 0
 478 0038 FB1D     		adds	r3, r7, #7
 479 003a FA1D     		adds	r2, r7, #7
 480 003c 1278     		ldrb	r2, [r2]
 481 003e 3732     		adds	r2, r2, #55
 482 0040 1A70     		strb	r2, [r3]
 483 0042 22E0     		b	.L30
 484              	.L28:
 199:debug.c       ****         }
 200:debug.c       ****         else
 201:debug.c       ****         {
 202:debug.c       ****             value = value + '0'; /* convert to ASCII number */
 485              		.loc 1 202 0
 486 0044 FB1D     		adds	r3, r7, #7
 487 0046 FA1D     		adds	r2, r7, #7
 488 0048 1278     		ldrb	r2, [r2]
 489 004a 3032     		adds	r2, r2, #48
 490 004c 1A70     		strb	r2, [r3]
 491 004e 1CE0     		b	.L30
 492              	.L27:
 203:debug.c       ****         }
 204:debug.c       ****     }
 205:debug.c       ****     else if (nibble == 0)
 493              		.loc 1 205 0
 494 0050 BB1D     		adds	r3, r7, #6
 495 0052 1B78     		ldrb	r3, [r3]
 496 0054 002B     		cmp	r3, #0
 497 0056 15D1     		bne	.L31
 206:debug.c       ****     {
ARM GAS  C:\Users\run1009\AppData\Local\Temp\cczcrtUB.s 			page 14


 207:debug.c       ****         /* extract the lower nibble */
 208:debug.c       ****         value = value & 0x0F;
 498              		.loc 1 208 0
 499 0058 FB1D     		adds	r3, r7, #7
 500 005a FA1D     		adds	r2, r7, #7
 501 005c 1278     		ldrb	r2, [r2]
 502 005e 0F21     		movs	r1, #15
 503 0060 0A40     		ands	r2, r1
 504 0062 1A70     		strb	r2, [r3]
 209:debug.c       ****         
 210:debug.c       ****         if (value >9)
 505              		.loc 1 210 0
 506 0064 FB1D     		adds	r3, r7, #7
 507 0066 1B78     		ldrb	r3, [r3]
 508 0068 092B     		cmp	r3, #9
 509 006a 05D9     		bls	.L32
 211:debug.c       ****         {
 212:debug.c       ****             value = value - 10 + 'A'; /* convert to ASCII character */
 510              		.loc 1 212 0
 511 006c FB1D     		adds	r3, r7, #7
 512 006e FA1D     		adds	r2, r7, #7
 513 0070 1278     		ldrb	r2, [r2]
 514 0072 3732     		adds	r2, r2, #55
 515 0074 1A70     		strb	r2, [r3]
 516 0076 08E0     		b	.L30
 517              	.L32:
 213:debug.c       ****         }
 214:debug.c       ****         else
 215:debug.c       ****         {
 216:debug.c       ****             value = value + '0'; /* convert to ASCII number */
 518              		.loc 1 216 0
 519 0078 FB1D     		adds	r3, r7, #7
 520 007a FA1D     		adds	r2, r7, #7
 521 007c 1278     		ldrb	r2, [r2]
 522 007e 3032     		adds	r2, r2, #48
 523 0080 1A70     		strb	r2, [r3]
 524 0082 02E0     		b	.L30
 525              	.L31:
 217:debug.c       ****         }
 218:debug.c       ****     }
 219:debug.c       ****     else
 220:debug.c       ****     {
 221:debug.c       ****         value = ' ';  /* return space for invalid inputs */
 526              		.loc 1 221 0
 527 0084 FB1D     		adds	r3, r7, #7
 528 0086 2022     		movs	r2, #32
 529 0088 1A70     		strb	r2, [r3]
 530              	.L30:
 222:debug.c       ****     }
 223:debug.c       ****     
 224:debug.c       ****     return value;
 531              		.loc 1 224 0
 532 008a FB1D     		adds	r3, r7, #7
 533 008c 1B78     		ldrb	r3, [r3]
 225:debug.c       **** 	#else
 226:debug.c       **** 		value = value;
 227:debug.c       **** 		nibble = nibble;
ARM GAS  C:\Users\run1009\AppData\Local\Temp\cczcrtUB.s 			page 15


 228:debug.c       **** 		return(1);
 229:debug.c       **** 	#endif
 230:debug.c       **** }
 534              		.loc 1 230 0
 535 008e 1800     		movs	r0, r3
 536 0090 BD46     		mov	sp, r7
 537 0092 02B0     		add	sp, sp, #8
 538              		@ sp needed
 539 0094 80BD     		pop	{r7, pc}
 540              		.cfi_endproc
 541              	.LFE39:
 542              		.size	HexToAscii, .-HexToAscii
 543              		.global	__aeabi_fcmplt
 544              		.global	__aeabi_f2uiz
 545              		.global	__aeabi_ui2f
 546              		.global	__aeabi_fsub
 547              		.global	__aeabi_f2d
 548              		.global	__aeabi_dmul
 549              		.global	__aeabi_d2uiz
 550 0096 C046     		.section	.rodata
 551              		.align	2
 552              	.LC20:
 553 0144 256C752E 		.ascii	"%lu.%3.3lu\000"
 553      25332E33 
 553      6C7500
 554              		.section	.text.ftoa,"ax",%progbits
 555              		.align	2
 556              		.global	ftoa
 557              		.code	16
 558              		.thumb_func
 559              		.type	ftoa, %function
 560              	ftoa:
 561              	.LFB40:
 231:debug.c       **** 
 232:debug.c       **** char *ftoa(float f)
 233:debug.c       **** {
 562              		.loc 1 233 0
 563              		.cfi_startproc
 564              		@ args = 0, pretend = 0, frame = 24
 565              		@ frame_needed = 1, uses_anonymous_args = 0
 566 0000 90B5     		push	{r4, r7, lr}
 567              		.cfi_def_cfa_offset 12
 568              		.cfi_offset 4, -12
 569              		.cfi_offset 7, -8
 570              		.cfi_offset 14, -4
 571 0002 87B0     		sub	sp, sp, #28
 572              		.cfi_def_cfa_offset 40
 573 0004 00AF     		add	r7, sp, #0
 574              		.cfi_def_cfa_register 7
 575 0006 7860     		str	r0, [r7, #4]
 234:debug.c       ****     static char buf[17];
 235:debug.c       ****     char *cp = buf;  
 576              		.loc 1 235 0
 577 0008 1D4B     		ldr	r3, .L40
 578 000a 7B61     		str	r3, [r7, #20]
 236:debug.c       ****     unsigned long l, rem;
 237:debug.c       ****     
ARM GAS  C:\Users\run1009\AppData\Local\Temp\cczcrtUB.s 			page 16


 238:debug.c       ****     if(f < 0) {
 579              		.loc 1 238 0
 580 000c 0021     		movs	r1, #0
 581 000e 7868     		ldr	r0, [r7, #4]
 582 0010 FFF7FEFF 		bl	__aeabi_fcmplt
 583 0014 031E     		subs	r3, r0, #0
 584 0016 09D0     		beq	.L36
 239:debug.c       ****         *cp++ = '-';
 585              		.loc 1 239 0
 586 0018 7B69     		ldr	r3, [r7, #20]
 587 001a 5A1C     		adds	r2, r3, #1
 588 001c 7A61     		str	r2, [r7, #20]
 589 001e 2D22     		movs	r2, #45
 590 0020 1A70     		strb	r2, [r3]
 240:debug.c       ****         f = -f;
 591              		.loc 1 240 0
 592 0022 7B68     		ldr	r3, [r7, #4]
 593 0024 8022     		movs	r2, #128
 594 0026 1206     		lsls	r2, r2, #24
 595 0028 5340     		eors	r3, r2
 596 002a 7B60     		str	r3, [r7, #4]
 597              	.L36:
 241:debug.c       ****     }
 242:debug.c       **** 
 243:debug.c       ****     l = (unsigned long)f;
 598              		.loc 1 243 0
 599 002c 7868     		ldr	r0, [r7, #4]
 600 002e FFF7FEFF 		bl	__aeabi_f2uiz
 601 0032 0300     		movs	r3, r0
 602 0034 3B61     		str	r3, [r7, #16]
 244:debug.c       ****  
 245:debug.c       ****     f -= (float)l;
 603              		.loc 1 245 0
 604 0036 3869     		ldr	r0, [r7, #16]
 605 0038 FFF7FEFF 		bl	__aeabi_ui2f
 606 003c 031C     		adds	r3, r0, #0
 607 003e 191C     		adds	r1, r3, #0
 608 0040 7868     		ldr	r0, [r7, #4]
 609 0042 FFF7FEFF 		bl	__aeabi_fsub
 610 0046 031C     		adds	r3, r0, #0
 611 0048 7B60     		str	r3, [r7, #4]
 246:debug.c       ****  
 247:debug.c       ****     rem = (unsigned long)(f * 1e6);
 612              		.loc 1 247 0
 613 004a 7868     		ldr	r0, [r7, #4]
 614 004c FFF7FEFF 		bl	__aeabi_f2d
 615 0050 0022     		movs	r2, #0
 616 0052 0C4B     		ldr	r3, .L40+4
 617 0054 FFF7FEFF 		bl	__aeabi_dmul
 618 0058 0300     		movs	r3, r0
 619 005a 0C00     		movs	r4, r1
 620 005c 1800     		movs	r0, r3
 621 005e 2100     		movs	r1, r4
 622 0060 FFF7FEFF 		bl	__aeabi_d2uiz
 623 0064 0300     		movs	r3, r0
 624 0066 FB60     		str	r3, [r7, #12]
 248:debug.c       ****  
ARM GAS  C:\Users\run1009\AppData\Local\Temp\cczcrtUB.s 			page 17


 249:debug.c       ****     sprintf(cp, "%lu.%3.3lu", l, rem);
 625              		.loc 1 249 0
 626 0068 FB68     		ldr	r3, [r7, #12]
 627 006a 3A69     		ldr	r2, [r7, #16]
 628 006c 0649     		ldr	r1, .L40+8
 629 006e 7869     		ldr	r0, [r7, #20]
 630 0070 FFF7FEFF 		bl	sprintf
 250:debug.c       **** 
 251:debug.c       ****     return buf;  
 631              		.loc 1 251 0
 632 0074 024B     		ldr	r3, .L40
 252:debug.c       **** }
 633              		.loc 1 252 0
 634 0076 1800     		movs	r0, r3
 635 0078 BD46     		mov	sp, r7
 636 007a 07B0     		add	sp, sp, #28
 637              		@ sp needed
 638 007c 90BD     		pop	{r4, r7, pc}
 639              	.L41:
 640 007e C046     		.align	2
 641              	.L40:
 642 0080 00000000 		.word	buf.9341
 643 0084 80842E41 		.word	1093567616
 644 0088 44010000 		.word	.LC20
 645              		.cfi_endproc
 646              	.LFE40:
 647              		.size	ftoa, .-ftoa
 648              		.bss
 649              		.align	2
 650              	buf.9341:
 651 0000 00000000 		.space	17
 651      00000000 
 651      00000000 
 651      00000000 
 651      00
 652              		.text
 653              	.Letext0:
 654              		.file 2 "Generated_Source\\PSoC4/cytypes.h"
 655              		.file 3 "Generated_Source\\PSoC4/BLE_eventHandler.h"
 656              		.file 4 "./main.h"