ARM GAS  C:\Users\run1009\AppData\Local\Temp\ccPyTLFl.s 			page 1


   1              		.syntax unified
   2              		.cpu cortex-m0
   3              		.fpu softvfp
   4              		.eabi_attribute 20, 1
   5              		.eabi_attribute 21, 1
   6              		.eabi_attribute 23, 3
   7              		.eabi_attribute 24, 1
   8              		.eabi_attribute 25, 1
   9              		.eabi_attribute 26, 1
  10              		.eabi_attribute 30, 6
  11              		.eabi_attribute 34, 0
  12              		.eabi_attribute 18, 4
  13              		.thumb
  14              		.syntax unified
  15              		.file	"envsensor_process.c"
  16              		.text
  17              	.Ltext0:
  18              		.cfi_sections	.debug_frame
  19              		.comm	sensor,68,4
  20              		.global	__aeabi_i2d
  21              		.global	__aeabi_ddiv
  22              		.global	__aeabi_d2f
  23              		.global	__aeabi_dmul
  24              		.section	.text.EnvSensorProcess,"ax",%progbits
  25              		.align	2
  26              		.global	EnvSensorProcess
  27              		.code	16
  28              		.thumb_func
  29              		.type	EnvSensorProcess, %function
  30              	EnvSensorProcess:
  31              	.LFB36:
  32              		.file 1 "envsensor_process.c"
   1:envsensor_process.c **** /* ========================================
   2:envsensor_process.c ****  *
   3:envsensor_process.c ****  * Copyright Sopicha S., 2018
   4:envsensor_process.c ****  * All Rights Reserved
   5:envsensor_process.c ****  * UNPUBLISHED, LICENSED SOFTWARE.
   6:envsensor_process.c ****  *
   7:envsensor_process.c ****  * CONFIDENTIAL AND PROPRIETARY INFORMATION
   8:envsensor_process.c ****  * WHICH IS THE PROPERTY OF your company.
   9:envsensor_process.c ****  *
  10:envsensor_process.c ****  * ========================================
  11:envsensor_process.c **** */
  12:envsensor_process.c **** 
  13:envsensor_process.c **** /* [] END OF FILE */
  14:envsensor_process.c **** 
  15:envsensor_process.c **** #include <main.h>
  16:envsensor_process.c **** #include "math.h"
  17:envsensor_process.c **** ENV_SENSOR_T sensor;
  18:envsensor_process.c **** #define BEACON_MEASURED_POWER  -59  //BEACON Measured power (RSSI at 1m distance)
  19:envsensor_process.c **** /*******************************************************************************
  20:envsensor_process.c **** * Function Name: EnvSensorProcess
  21:envsensor_process.c **** ********************************************************************************
  22:envsensor_process.c **** * Summary:
  23:envsensor_process.c **** *        Get Omron sensor data from BLE, then interpret a paylaod as enironment
  24:envsensor_process.c **** * sensor data 
  25:envsensor_process.c **** * For this project, we get only temperature data from Omron sensor and transfer  
ARM GAS  C:\Users\run1009\AppData\Local\Temp\ccPyTLFl.s 			page 2


  26:envsensor_process.c **** * temperature data from its node to the mesh network
  27:envsensor_process.c **** *
  28:envsensor_process.c **** * Parameters:
  29:envsensor_process.c **** *  uint8* data (Length: 31)
  30:envsensor_process.c **** *
  31:envsensor_process.c **** * Return:
  32:envsensor_process.c **** *  void
  33:envsensor_process.c **** *
  34:envsensor_process.c **** *******************************************************************************/
  35:envsensor_process.c **** void EnvSensorProcess(int8 rssi ,uint8* data){       
  33              		.loc 1 35 0
  34              		.cfi_startproc
  35              		@ args = 0, pretend = 0, frame = 8
  36              		@ frame_needed = 1, uses_anonymous_args = 0
  37 0000 90B5     		push	{r4, r7, lr}
  38              		.cfi_def_cfa_offset 12
  39              		.cfi_offset 4, -12
  40              		.cfi_offset 7, -8
  41              		.cfi_offset 14, -4
  42 0002 83B0     		sub	sp, sp, #12
  43              		.cfi_def_cfa_offset 24
  44 0004 00AF     		add	r7, sp, #0
  45              		.cfi_def_cfa_register 7
  46 0006 0200     		movs	r2, r0
  47 0008 3960     		str	r1, [r7]
  48 000a FB1D     		adds	r3, r7, #7
  49 000c 1A70     		strb	r2, [r3]
  36:envsensor_process.c ****      sensor.seqNum = data[7];
  50              		.loc 1 36 0
  51 000e 3B68     		ldr	r3, [r7]
  52 0010 DA79     		ldrb	r2, [r3, #7]
  53 0012 804B     		ldr	r3, .L2
  54 0014 1A71     		strb	r2, [r3, #4]
  37:envsensor_process.c ****      sensor.temp = Byte2Short(data[9],data[8])/100.0;
  55              		.loc 1 37 0
  56 0016 3B68     		ldr	r3, [r7]
  57 0018 0933     		adds	r3, r3, #9
  58 001a 1A78     		ldrb	r2, [r3]
  59 001c 3B68     		ldr	r3, [r7]
  60 001e 0833     		adds	r3, r3, #8
  61 0020 1B78     		ldrb	r3, [r3]
  62 0022 1900     		movs	r1, r3
  63 0024 1000     		movs	r0, r2
  64 0026 FFF7FEFF 		bl	Byte2Short
  65 002a 0300     		movs	r3, r0
  66 002c 1800     		movs	r0, r3
  67 002e FFF7FEFF 		bl	__aeabi_i2d
  68 0032 0022     		movs	r2, #0
  69 0034 784B     		ldr	r3, .L2+4
  70 0036 FFF7FEFF 		bl	__aeabi_ddiv
  71 003a 0300     		movs	r3, r0
  72 003c 0C00     		movs	r4, r1
  73 003e 1800     		movs	r0, r3
  74 0040 2100     		movs	r1, r4
  75 0042 FFF7FEFF 		bl	__aeabi_d2f
  76 0046 021C     		adds	r2, r0, #0
  77 0048 724B     		ldr	r3, .L2
ARM GAS  C:\Users\run1009\AppData\Local\Temp\ccPyTLFl.s 			page 3


  78 004a 9A60     		str	r2, [r3, #8]
  38:envsensor_process.c ****      sensor.humi = Byte2UShort(data[10],data[11])/100.0;
  79              		.loc 1 38 0
  80 004c 3B68     		ldr	r3, [r7]
  81 004e 0A33     		adds	r3, r3, #10
  82 0050 1A78     		ldrb	r2, [r3]
  83 0052 3B68     		ldr	r3, [r7]
  84 0054 0B33     		adds	r3, r3, #11
  85 0056 1B78     		ldrb	r3, [r3]
  86 0058 1900     		movs	r1, r3
  87 005a 1000     		movs	r0, r2
  88 005c FFF7FEFF 		bl	Byte2UShort
  89 0060 0300     		movs	r3, r0
  90 0062 1800     		movs	r0, r3
  91 0064 FFF7FEFF 		bl	__aeabi_i2d
  92 0068 0022     		movs	r2, #0
  93 006a 6B4B     		ldr	r3, .L2+4
  94 006c FFF7FEFF 		bl	__aeabi_ddiv
  95 0070 0300     		movs	r3, r0
  96 0072 0C00     		movs	r4, r1
  97 0074 1800     		movs	r0, r3
  98 0076 2100     		movs	r1, r4
  99 0078 FFF7FEFF 		bl	__aeabi_d2f
 100 007c 021C     		adds	r2, r0, #0
 101 007e 654B     		ldr	r3, .L2
 102 0080 DA60     		str	r2, [r3, #12]
  39:envsensor_process.c ****      sensor.light = Byte2UShort(data[13],data[12]);
 103              		.loc 1 39 0
 104 0082 3B68     		ldr	r3, [r7]
 105 0084 0D33     		adds	r3, r3, #13
 106 0086 1A78     		ldrb	r2, [r3]
 107 0088 3B68     		ldr	r3, [r7]
 108 008a 0C33     		adds	r3, r3, #12
 109 008c 1B78     		ldrb	r3, [r3]
 110 008e 1900     		movs	r1, r3
 111 0090 1000     		movs	r0, r2
 112 0092 FFF7FEFF 		bl	Byte2UShort
 113 0096 0300     		movs	r3, r0
 114 0098 1AB2     		sxth	r2, r3
 115 009a 5E4B     		ldr	r3, .L2
 116 009c 1A82     		strh	r2, [r3, #16]
  40:envsensor_process.c ****      sensor.uv = Byte2UShort(data[15],data[14])/100.0;
 117              		.loc 1 40 0
 118 009e 3B68     		ldr	r3, [r7]
 119 00a0 0F33     		adds	r3, r3, #15
 120 00a2 1A78     		ldrb	r2, [r3]
 121 00a4 3B68     		ldr	r3, [r7]
 122 00a6 0E33     		adds	r3, r3, #14
 123 00a8 1B78     		ldrb	r3, [r3]
 124 00aa 1900     		movs	r1, r3
 125 00ac 1000     		movs	r0, r2
 126 00ae FFF7FEFF 		bl	Byte2UShort
 127 00b2 0300     		movs	r3, r0
 128 00b4 1800     		movs	r0, r3
 129 00b6 FFF7FEFF 		bl	__aeabi_i2d
 130 00ba 0022     		movs	r2, #0
 131 00bc 564B     		ldr	r3, .L2+4
ARM GAS  C:\Users\run1009\AppData\Local\Temp\ccPyTLFl.s 			page 4


 132 00be FFF7FEFF 		bl	__aeabi_ddiv
 133 00c2 0300     		movs	r3, r0
 134 00c4 0C00     		movs	r4, r1
 135 00c6 1800     		movs	r0, r3
 136 00c8 2100     		movs	r1, r4
 137 00ca FFF7FEFF 		bl	__aeabi_d2f
 138 00ce 021C     		adds	r2, r0, #0
 139 00d0 504B     		ldr	r3, .L2
 140 00d2 5A61     		str	r2, [r3, #20]
  41:envsensor_process.c ****      sensor.pressure = Byte2UShort(data[17],data[16])/10.0;
 141              		.loc 1 41 0
 142 00d4 3B68     		ldr	r3, [r7]
 143 00d6 1133     		adds	r3, r3, #17
 144 00d8 1A78     		ldrb	r2, [r3]
 145 00da 3B68     		ldr	r3, [r7]
 146 00dc 1033     		adds	r3, r3, #16
 147 00de 1B78     		ldrb	r3, [r3]
 148 00e0 1900     		movs	r1, r3
 149 00e2 1000     		movs	r0, r2
 150 00e4 FFF7FEFF 		bl	Byte2UShort
 151 00e8 0300     		movs	r3, r0
 152 00ea 1800     		movs	r0, r3
 153 00ec FFF7FEFF 		bl	__aeabi_i2d
 154 00f0 0022     		movs	r2, #0
 155 00f2 4A4B     		ldr	r3, .L2+8
 156 00f4 FFF7FEFF 		bl	__aeabi_ddiv
 157 00f8 0300     		movs	r3, r0
 158 00fa 0C00     		movs	r4, r1
 159 00fc 1800     		movs	r0, r3
 160 00fe 2100     		movs	r1, r4
 161 0100 FFF7FEFF 		bl	__aeabi_d2f
 162 0104 021C     		adds	r2, r0, #0
 163 0106 434B     		ldr	r3, .L2
 164 0108 9A61     		str	r2, [r3, #24]
  42:envsensor_process.c ****      sensor.noise = Byte2UShort(data[19],data[18])/100.0;
 165              		.loc 1 42 0
 166 010a 3B68     		ldr	r3, [r7]
 167 010c 1333     		adds	r3, r3, #19
 168 010e 1A78     		ldrb	r2, [r3]
 169 0110 3B68     		ldr	r3, [r7]
 170 0112 1233     		adds	r3, r3, #18
 171 0114 1B78     		ldrb	r3, [r3]
 172 0116 1900     		movs	r1, r3
 173 0118 1000     		movs	r0, r2
 174 011a FFF7FEFF 		bl	Byte2UShort
 175 011e 0300     		movs	r3, r0
 176 0120 1800     		movs	r0, r3
 177 0122 FFF7FEFF 		bl	__aeabi_i2d
 178 0126 0022     		movs	r2, #0
 179 0128 3B4B     		ldr	r3, .L2+4
 180 012a FFF7FEFF 		bl	__aeabi_ddiv
 181 012e 0300     		movs	r3, r0
 182 0130 0C00     		movs	r4, r1
 183 0132 1800     		movs	r0, r3
 184 0134 2100     		movs	r1, r4
 185 0136 FFF7FEFF 		bl	__aeabi_d2f
 186 013a 021C     		adds	r2, r0, #0
ARM GAS  C:\Users\run1009\AppData\Local\Temp\ccPyTLFl.s 			page 5


 187 013c 354B     		ldr	r3, .L2
 188 013e DA61     		str	r2, [r3, #28]
  43:envsensor_process.c ****      sensor.battery = (data[26]+100)* 10.0;
 189              		.loc 1 43 0
 190 0140 3B68     		ldr	r3, [r7]
 191 0142 1A33     		adds	r3, r3, #26
 192 0144 1B78     		ldrb	r3, [r3]
 193 0146 6433     		adds	r3, r3, #100
 194 0148 1800     		movs	r0, r3
 195 014a FFF7FEFF 		bl	__aeabi_i2d
 196 014e 0022     		movs	r2, #0
 197 0150 324B     		ldr	r3, .L2+8
 198 0152 FFF7FEFF 		bl	__aeabi_dmul
 199 0156 0300     		movs	r3, r0
 200 0158 0C00     		movs	r4, r1
 201 015a 1800     		movs	r0, r3
 202 015c 2100     		movs	r1, r4
 203 015e FFF7FEFF 		bl	__aeabi_d2f
 204 0162 021C     		adds	r2, r0, #0
 205 0164 2B4B     		ldr	r3, .L2
 206 0166 5A63     		str	r2, [r3, #52]
  44:envsensor_process.c ****      sensor.ax = 0.0;
 207              		.loc 1 44 0
 208 0168 2A4B     		ldr	r3, .L2
 209 016a 0022     		movs	r2, #0
 210 016c 9A62     		str	r2, [r3, #40]
  45:envsensor_process.c ****      sensor.ay = 0.0;
 211              		.loc 1 45 0
 212 016e 294B     		ldr	r3, .L2
 213 0170 0022     		movs	r2, #0
 214 0172 DA62     		str	r2, [r3, #44]
  46:envsensor_process.c ****      sensor.az = 0.0;
 215              		.loc 1 46 0
 216 0174 274B     		ldr	r3, .L2
 217 0176 0022     		movs	r2, #0
 218 0178 1A63     		str	r2, [r3, #48]
  47:envsensor_process.c ****      sensor.di = Byte2Short(data[21],data[20])/100.0;
 219              		.loc 1 47 0
 220 017a 3B68     		ldr	r3, [r7]
 221 017c 1533     		adds	r3, r3, #21
 222 017e 1A78     		ldrb	r2, [r3]
 223 0180 3B68     		ldr	r3, [r7]
 224 0182 1433     		adds	r3, r3, #20
 225 0184 1B78     		ldrb	r3, [r3]
 226 0186 1900     		movs	r1, r3
 227 0188 1000     		movs	r0, r2
 228 018a FFF7FEFF 		bl	Byte2Short
 229 018e 0300     		movs	r3, r0
 230 0190 1800     		movs	r0, r3
 231 0192 FFF7FEFF 		bl	__aeabi_i2d
 232 0196 0022     		movs	r2, #0
 233 0198 1F4B     		ldr	r3, .L2+4
 234 019a FFF7FEFF 		bl	__aeabi_ddiv
 235 019e 0300     		movs	r3, r0
 236 01a0 0C00     		movs	r4, r1
 237 01a2 1800     		movs	r0, r3
 238 01a4 2100     		movs	r1, r4
ARM GAS  C:\Users\run1009\AppData\Local\Temp\ccPyTLFl.s 			page 6


 239 01a6 FFF7FEFF 		bl	__aeabi_d2f
 240 01aa 021C     		adds	r2, r0, #0
 241 01ac 194B     		ldr	r3, .L2
 242 01ae 1A62     		str	r2, [r3, #32]
  48:envsensor_process.c ****      sensor.heat = Byte2Short(data[23],data[22])/100.0;
 243              		.loc 1 48 0
 244 01b0 3B68     		ldr	r3, [r7]
 245 01b2 1733     		adds	r3, r3, #23
 246 01b4 1A78     		ldrb	r2, [r3]
 247 01b6 3B68     		ldr	r3, [r7]
 248 01b8 1633     		adds	r3, r3, #22
 249 01ba 1B78     		ldrb	r3, [r3]
 250 01bc 1900     		movs	r1, r3
 251 01be 1000     		movs	r0, r2
 252 01c0 FFF7FEFF 		bl	Byte2Short
 253 01c4 0300     		movs	r3, r0
 254 01c6 1800     		movs	r0, r3
 255 01c8 FFF7FEFF 		bl	__aeabi_i2d
 256 01cc 0022     		movs	r2, #0
 257 01ce 124B     		ldr	r3, .L2+4
 258 01d0 FFF7FEFF 		bl	__aeabi_ddiv
 259 01d4 0300     		movs	r3, r0
 260 01d6 0C00     		movs	r4, r1
 261 01d8 1800     		movs	r0, r3
 262 01da 2100     		movs	r1, r4
 263 01dc FFF7FEFF 		bl	__aeabi_d2f
 264 01e0 021C     		adds	r2, r0, #0
 265 01e2 0C4B     		ldr	r3, .L2
 266 01e4 5A62     		str	r2, [r3, #36]
  49:envsensor_process.c ****      sensor.rssi = rssi;
 267              		.loc 1 49 0
 268 01e6 0B4B     		ldr	r3, .L2
 269 01e8 FA1D     		adds	r2, r7, #7
 270 01ea 3821     		movs	r1, #56
 271 01ec 1278     		ldrb	r2, [r2]
 272 01ee 5A54     		strb	r2, [r3, r1]
  50:envsensor_process.c ****      sensor.distance = ReturnAccuracy(sensor.rssi);
 273              		.loc 1 50 0
 274 01f0 084B     		ldr	r3, .L2
 275 01f2 3822     		movs	r2, #56
 276 01f4 9B56     		ldrsb	r3, [r3, r2]
 277 01f6 1800     		movs	r0, r3
 278 01f8 FFF7FEFF 		bl	ReturnAccuracy
 279 01fc 021C     		adds	r2, r0, #0
 280 01fe 054B     		ldr	r3, .L2
 281 0200 DA63     		str	r2, [r3, #60]
  51:envsensor_process.c ****      sensor.flagActive = TRUE;
 282              		.loc 1 51 0
 283 0202 044B     		ldr	r3, .L2
 284 0204 4022     		movs	r2, #64
 285 0206 0121     		movs	r1, #1
 286 0208 9954     		strb	r1, [r3, r2]
  52:envsensor_process.c **** }
 287              		.loc 1 52 0
 288 020a C046     		nop
 289 020c BD46     		mov	sp, r7
 290 020e 03B0     		add	sp, sp, #12
ARM GAS  C:\Users\run1009\AppData\Local\Temp\ccPyTLFl.s 			page 7


 291              		@ sp needed
 292 0210 90BD     		pop	{r4, r7, pc}
 293              	.L3:
 294 0212 C046     		.align	2
 295              	.L2:
 296 0214 00000000 		.word	sensor
 297 0218 00005940 		.word	1079574528
 298 021c 00002440 		.word	1076101120
 299              		.cfi_endproc
 300              	.LFE36:
 301              		.size	EnvSensorProcess, .-EnvSensorProcess
 302              		.global	__aeabi_fcmplt
 303              		.global	__aeabi_f2d
 304              		.global	__aeabi_dadd
 305              		.section	.text.ReturnAccuracy,"ax",%progbits
 306              		.align	2
 307              		.global	ReturnAccuracy
 308              		.code	16
 309              		.thumb_func
 310              		.type	ReturnAccuracy, %function
 311              	ReturnAccuracy:
 312              	.LFB37:
  53:envsensor_process.c **** /*******************************************************************************
  54:envsensor_process.c **** * Function Name: ReturnAccuracy
  55:envsensor_process.c **** ********************************************************************************
  56:envsensor_process.c **** * Summary:
  57:envsensor_process.c **** *        This function will calculate the distance between CypressBoard and 
  58:envsensor_process.c **** * Omron sensor with rssi and BLE measured power
  59:envsensor_process.c **** *
  60:envsensor_process.c **** * Parameters:
  61:envsensor_process.c **** *  void
  62:envsensor_process.c **** *
  63:envsensor_process.c **** * Return:
  64:envsensor_process.c **** *  short
  65:envsensor_process.c **** *
  66:envsensor_process.c **** *******************************************************************************/
  67:envsensor_process.c **** float ReturnAccuracy(int8 rssi){
 313              		.loc 1 67 0
 314              		.cfi_startproc
 315              		@ args = 0, pretend = 0, frame = 24
 316              		@ frame_needed = 1, uses_anonymous_args = 0
 317 0000 90B5     		push	{r4, r7, lr}
 318              		.cfi_def_cfa_offset 12
 319              		.cfi_offset 4, -12
 320              		.cfi_offset 7, -8
 321              		.cfi_offset 14, -4
 322 0002 87B0     		sub	sp, sp, #28
 323              		.cfi_def_cfa_offset 40
 324 0004 00AF     		add	r7, sp, #0
 325              		.cfi_def_cfa_register 7
 326 0006 0200     		movs	r2, r0
 327 0008 FB1D     		adds	r3, r7, #7
 328 000a 1A70     		strb	r2, [r3]
  68:envsensor_process.c ****         int8 RSSI = abs(rssi);
 329              		.loc 1 68 0
 330 000c FB1D     		adds	r3, r7, #7
 331 000e 1B78     		ldrb	r3, [r3]
ARM GAS  C:\Users\run1009\AppData\Local\Temp\ccPyTLFl.s 			page 8


 332 0010 5BB2     		sxtb	r3, r3
 333 0012 D917     		asrs	r1, r3, #31
 334 0014 5A18     		adds	r2, r3, r1
 335 0016 4A40     		eors	r2, r1
 336 0018 1723     		movs	r3, #23
 337 001a FB18     		adds	r3, r7, r3
 338 001c 1A70     		strb	r2, [r3]
  69:envsensor_process.c ****         if (RSSI == 0)
 339              		.loc 1 69 0
 340 001e 1723     		movs	r3, #23
 341 0020 FB18     		adds	r3, r7, r3
 342 0022 1B78     		ldrb	r3, [r3]
 343 0024 5BB2     		sxtb	r3, r3
 344 0026 002B     		cmp	r3, #0
 345 0028 01D1     		bne	.L5
  70:envsensor_process.c ****             return -1;
 346              		.loc 1 70 0
 347 002a 274B     		ldr	r3, .L11
 348 002c 48E0     		b	.L6
 349              	.L5:
  71:envsensor_process.c ****         if (BEACON_MEASURED_POWER == 0)
  72:envsensor_process.c ****             return -1;
  73:envsensor_process.c **** 
  74:envsensor_process.c ****         float ratio = RSSI * 1.0 / abs(BEACON_MEASURED_POWER);
 350              		.loc 1 74 0
 351 002e 1723     		movs	r3, #23
 352 0030 FB18     		adds	r3, r7, r3
 353 0032 1B78     		ldrb	r3, [r3]
 354 0034 5BB2     		sxtb	r3, r3
 355 0036 1800     		movs	r0, r3
 356 0038 FFF7FEFF 		bl	__aeabi_i2d
 357 003c 0022     		movs	r2, #0
 358 003e 234B     		ldr	r3, .L11+4
 359 0040 FFF7FEFF 		bl	__aeabi_ddiv
 360 0044 0300     		movs	r3, r0
 361 0046 0C00     		movs	r4, r1
 362 0048 1800     		movs	r0, r3
 363 004a 2100     		movs	r1, r4
 364 004c FFF7FEFF 		bl	__aeabi_d2f
 365 0050 031C     		adds	r3, r0, #0
 366 0052 3B61     		str	r3, [r7, #16]
  75:envsensor_process.c ****         if (ratio < 1.0)
 367              		.loc 1 75 0
 368 0054 FE21     		movs	r1, #254
 369 0056 8905     		lsls	r1, r1, #22
 370 0058 3869     		ldr	r0, [r7, #16]
 371 005a FFF7FEFF 		bl	__aeabi_fcmplt
 372 005e 031E     		subs	r3, r0, #0
 373 0060 10D0     		beq	.L10
  76:envsensor_process.c ****             return pow(ratio, 8.0);
 374              		.loc 1 76 0
 375 0062 3869     		ldr	r0, [r7, #16]
 376 0064 FFF7FEFF 		bl	__aeabi_f2d
 377 0068 0023     		movs	r3, #0
 378 006a 194C     		ldr	r4, .L11+8
 379 006c 1A00     		movs	r2, r3
 380 006e 2300     		movs	r3, r4
ARM GAS  C:\Users\run1009\AppData\Local\Temp\ccPyTLFl.s 			page 9


 381 0070 FFF7FEFF 		bl	pow
 382 0074 0300     		movs	r3, r0
 383 0076 0C00     		movs	r4, r1
 384 0078 1800     		movs	r0, r3
 385 007a 2100     		movs	r1, r4
 386 007c FFF7FEFF 		bl	__aeabi_d2f
 387 0080 031C     		adds	r3, r0, #0
 388 0082 1DE0     		b	.L6
 389              	.L10:
  77:envsensor_process.c ****         float accuracy = 0.69976 * pow(ratio, 7.7095) + 0.111;
 390              		.loc 1 77 0
 391 0084 3869     		ldr	r0, [r7, #16]
 392 0086 FFF7FEFF 		bl	__aeabi_f2d
 393 008a 124B     		ldr	r3, .L11+12
 394 008c 124C     		ldr	r4, .L11+16
 395 008e 1A00     		movs	r2, r3
 396 0090 2300     		movs	r3, r4
 397 0092 FFF7FEFF 		bl	pow
 398 0096 114A     		ldr	r2, .L11+20
 399 0098 114B     		ldr	r3, .L11+24
 400 009a FFF7FEFF 		bl	__aeabi_dmul
 401 009e 0300     		movs	r3, r0
 402 00a0 0C00     		movs	r4, r1
 403 00a2 1800     		movs	r0, r3
 404 00a4 2100     		movs	r1, r4
 405 00a6 0F4A     		ldr	r2, .L11+28
 406 00a8 0F4B     		ldr	r3, .L11+32
 407 00aa FFF7FEFF 		bl	__aeabi_dadd
 408 00ae 0300     		movs	r3, r0
 409 00b0 0C00     		movs	r4, r1
 410 00b2 1800     		movs	r0, r3
 411 00b4 2100     		movs	r1, r4
 412 00b6 FFF7FEFF 		bl	__aeabi_d2f
 413 00ba 031C     		adds	r3, r0, #0
 414 00bc FB60     		str	r3, [r7, #12]
  78:envsensor_process.c ****         // accuracy = 0.89976 * pow(ratio, 7.7095) + 0.111
  79:envsensor_process.c **** 
  80:envsensor_process.c ****         return accuracy;
 415              		.loc 1 80 0
 416 00be FB68     		ldr	r3, [r7, #12]
 417              	.L6:
  81:envsensor_process.c **** }
 418              		.loc 1 81 0
 419 00c0 181C     		adds	r0, r3, #0
 420 00c2 BD46     		mov	sp, r7
 421 00c4 07B0     		add	sp, sp, #28
 422              		@ sp needed
 423 00c6 90BD     		pop	{r4, r7, pc}
 424              	.L12:
 425              		.align	2
 426              	.L11:
 427 00c8 000080BF 		.word	-1082130432
 428 00cc 00804D40 		.word	1078820864
 429 00d0 00002040 		.word	1075838976
 430 00d4 4A0C022B 		.word	721554506
 431 00d8 87D61E40 		.word	1075762823
 432 00dc 15916115 		.word	358715669
ARM GAS  C:\Users\run1009\AppData\Local\Temp\ccPyTLFl.s 			page 10


 433 00e0 6F64E63F 		.word	1072063599
 434 00e4 D122DBF9 		.word	-103079215
 435 00e8 7E6ABC3F 		.word	1069312638
 436              		.cfi_endproc
 437              	.LFE37:
 438              		.size	ReturnAccuracy, .-ReturnAccuracy
 439              		.section	.text.GetSensorData,"ax",%progbits
 440              		.align	2
 441              		.global	GetSensorData
 442              		.code	16
 443              		.thumb_func
 444              		.type	GetSensorData, %function
 445              	GetSensorData:
 446              	.LFB38:
  82:envsensor_process.c **** /*******************************************************************************
  83:envsensor_process.c **** * Function Name: GetTemperature
  84:envsensor_process.c **** ********************************************************************************
  85:envsensor_process.c **** * Summary:
  86:envsensor_process.c **** *        When this function is called, it will transfer the temperature data that
  87:envsensor_process.c **** * get from the Omron environment sensor
  88:envsensor_process.c **** *
  89:envsensor_process.c **** * Parameters:
  90:envsensor_process.c **** *  void
  91:envsensor_process.c **** *
  92:envsensor_process.c **** * Return:
  93:envsensor_process.c **** *  short
  94:envsensor_process.c **** *
  95:envsensor_process.c **** *******************************************************************************/
  96:envsensor_process.c **** ENV_SENSOR_T GetSensorData(){
 447              		.loc 1 96 0
 448              		.cfi_startproc
 449              		@ args = 0, pretend = 0, frame = 8
 450              		@ frame_needed = 1, uses_anonymous_args = 0
 451 0000 80B5     		push	{r7, lr}
 452              		.cfi_def_cfa_offset 8
 453              		.cfi_offset 7, -8
 454              		.cfi_offset 14, -4
 455 0002 82B0     		sub	sp, sp, #8
 456              		.cfi_def_cfa_offset 16
 457 0004 00AF     		add	r7, sp, #0
 458              		.cfi_def_cfa_register 7
 459 0006 7860     		str	r0, [r7, #4]
  97:envsensor_process.c ****     return sensor;
 460              		.loc 1 97 0
 461 0008 7A68     		ldr	r2, [r7, #4]
 462 000a 054B     		ldr	r3, .L15
 463 000c 1000     		movs	r0, r2
 464 000e 1900     		movs	r1, r3
 465 0010 4423     		movs	r3, #68
 466 0012 1A00     		movs	r2, r3
 467 0014 FFF7FEFF 		bl	memcpy
  98:envsensor_process.c **** }
 468              		.loc 1 98 0
 469 0018 7868     		ldr	r0, [r7, #4]
 470 001a BD46     		mov	sp, r7
 471 001c 02B0     		add	sp, sp, #8
 472              		@ sp needed
ARM GAS  C:\Users\run1009\AppData\Local\Temp\ccPyTLFl.s 			page 11


 473 001e 80BD     		pop	{r7, pc}
 474              	.L16:
 475              		.align	2
 476              	.L15:
 477 0020 00000000 		.word	sensor
 478              		.cfi_endproc
 479              	.LFE38:
 480              		.size	GetSensorData, .-GetSensorData
 481              		.section	.text.Byte2Short,"ax",%progbits
 482              		.align	2
 483              		.global	Byte2Short
 484              		.code	16
 485              		.thumb_func
 486              		.type	Byte2Short, %function
 487              	Byte2Short:
 488              	.LFB39:
  99:envsensor_process.c **** /*******************************************************************************
 100:envsensor_process.c **** * Function Name: Byte2Short
 101:envsensor_process.c **** ********************************************************************************
 102:envsensor_process.c **** * Summary:
 103:envsensor_process.c **** *        This function converts byte data to short data and return it
 104:envsensor_process.c **** *
 105:envsensor_process.c **** * Parameters:
 106:envsensor_process.c **** *  uint8 high paylaod and uint8 low payload
 107:envsensor_process.c **** *
 108:envsensor_process.c **** * Return:
 109:envsensor_process.c **** *  short
 110:envsensor_process.c **** *
 111:envsensor_process.c **** *******************************************************************************/
 112:envsensor_process.c **** short Byte2Short(uint8 hi, uint8 lo){
 489              		.loc 1 112 0
 490              		.cfi_startproc
 491              		@ args = 0, pretend = 0, frame = 16
 492              		@ frame_needed = 1, uses_anonymous_args = 0
 493 0000 80B5     		push	{r7, lr}
 494              		.cfi_def_cfa_offset 8
 495              		.cfi_offset 7, -8
 496              		.cfi_offset 14, -4
 497 0002 84B0     		sub	sp, sp, #16
 498              		.cfi_def_cfa_offset 24
 499 0004 00AF     		add	r7, sp, #0
 500              		.cfi_def_cfa_register 7
 501 0006 0200     		movs	r2, r0
 502 0008 FB1D     		adds	r3, r7, #7
 503 000a 1A70     		strb	r2, [r3]
 504 000c BB1D     		adds	r3, r7, #6
 505 000e 0A1C     		adds	r2, r1, #0
 506 0010 1A70     		strb	r2, [r3]
 113:envsensor_process.c ****     short short_val;
 114:envsensor_process.c ****     short val = (hi << 8) | lo;
 507              		.loc 1 114 0
 508 0012 FB1D     		adds	r3, r7, #7
 509 0014 1B78     		ldrb	r3, [r3]
 510 0016 1B02     		lsls	r3, r3, #8
 511 0018 19B2     		sxth	r1, r3
 512 001a BB1D     		adds	r3, r7, #6
 513 001c 1B78     		ldrb	r3, [r3]
ARM GAS  C:\Users\run1009\AppData\Local\Temp\ccPyTLFl.s 			page 12


 514 001e 1AB2     		sxth	r2, r3
 515 0020 0C23     		movs	r3, #12
 516 0022 FB18     		adds	r3, r7, r3
 517 0024 0A43     		orrs	r2, r1
 518 0026 1A80     		strh	r2, [r3]
 115:envsensor_process.c ****     if ((hi & 0b10000000) == 0b10000000){
 519              		.loc 1 115 0
 520 0028 FB1D     		adds	r3, r7, #7
 521 002a 1B78     		ldrb	r3, [r3]
 522 002c 5BB2     		sxtb	r3, r3
 523 002e 002B     		cmp	r3, #0
 524 0030 17DA     		bge	.L18
 525              	.LBB2:
 116:envsensor_process.c ****        short val_inv = val ^ 0b1111111111111111;
 526              		.loc 1 116 0
 527 0032 0A23     		movs	r3, #10
 528 0034 FB18     		adds	r3, r7, r3
 529 0036 0C22     		movs	r2, #12
 530 0038 BA18     		adds	r2, r7, r2
 531 003a 1288     		ldrh	r2, [r2]
 532 003c D243     		mvns	r2, r2
 533 003e 1A80     		strh	r2, [r3]
 117:envsensor_process.c ****         val_inv = val_inv + 1;
 534              		.loc 1 117 0
 535 0040 0A23     		movs	r3, #10
 536 0042 FB18     		adds	r3, r7, r3
 537 0044 1B88     		ldrh	r3, [r3]
 538 0046 0133     		adds	r3, r3, #1
 539 0048 9AB2     		uxth	r2, r3
 540 004a 0A23     		movs	r3, #10
 541 004c FB18     		adds	r3, r7, r3
 542 004e 1A80     		strh	r2, [r3]
 118:envsensor_process.c ****         short_val = val_inv * (-1);
 543              		.loc 1 118 0
 544 0050 0A23     		movs	r3, #10
 545 0052 FB18     		adds	r3, r7, r3
 546 0054 1B88     		ldrh	r3, [r3]
 547 0056 5B42     		rsbs	r3, r3, #0
 548 0058 9AB2     		uxth	r2, r3
 549 005a 0E23     		movs	r3, #14
 550 005c FB18     		adds	r3, r7, r3
 551 005e 1A80     		strh	r2, [r3]
 552              	.LBE2:
 553 0060 05E0     		b	.L19
 554              	.L18:
 119:envsensor_process.c ****     }
 120:envsensor_process.c ****     else{
 121:envsensor_process.c ****         short_val = val;
 555              		.loc 1 121 0
 556 0062 0E23     		movs	r3, #14
 557 0064 FB18     		adds	r3, r7, r3
 558 0066 0C22     		movs	r2, #12
 559 0068 BA18     		adds	r2, r7, r2
 560 006a 1288     		ldrh	r2, [r2]
 561 006c 1A80     		strh	r2, [r3]
 562              	.L19:
 122:envsensor_process.c ****     }
ARM GAS  C:\Users\run1009\AppData\Local\Temp\ccPyTLFl.s 			page 13


 123:envsensor_process.c ****     return short_val;
 563              		.loc 1 123 0
 564 006e 0E23     		movs	r3, #14
 565 0070 FB18     		adds	r3, r7, r3
 566 0072 0022     		movs	r2, #0
 567 0074 9B5E     		ldrsh	r3, [r3, r2]
 124:envsensor_process.c **** }
 568              		.loc 1 124 0
 569 0076 1800     		movs	r0, r3
 570 0078 BD46     		mov	sp, r7
 571 007a 04B0     		add	sp, sp, #16
 572              		@ sp needed
 573 007c 80BD     		pop	{r7, pc}
 574              		.cfi_endproc
 575              	.LFE39:
 576              		.size	Byte2Short, .-Byte2Short
 577 007e C046     		.section	.text.Byte2UShort,"ax",%progbits
 578              		.align	2
 579              		.global	Byte2UShort
 580              		.code	16
 581              		.thumb_func
 582              		.type	Byte2UShort, %function
 583              	Byte2UShort:
 584              	.LFB40:
 125:envsensor_process.c **** /*******************************************************************************
 126:envsensor_process.c **** * Function Name: Byte2UShort
 127:envsensor_process.c **** ********************************************************************************
 128:envsensor_process.c **** * Summary:
 129:envsensor_process.c **** *        This function converts byte data to unsigned short data and return it
 130:envsensor_process.c **** *
 131:envsensor_process.c **** * Parameters:
 132:envsensor_process.c **** *  uint8 high paylaod and uint8 low payload
 133:envsensor_process.c **** *
 134:envsensor_process.c **** * Return:
 135:envsensor_process.c **** *  unsigned short
 136:envsensor_process.c **** *
 137:envsensor_process.c **** *******************************************************************************/
 138:envsensor_process.c **** unsigned short Byte2UShort(uint8 hi, uint8 lo){
 585              		.loc 1 138 0
 586              		.cfi_startproc
 587              		@ args = 0, pretend = 0, frame = 16
 588              		@ frame_needed = 1, uses_anonymous_args = 0
 589 0000 80B5     		push	{r7, lr}
 590              		.cfi_def_cfa_offset 8
 591              		.cfi_offset 7, -8
 592              		.cfi_offset 14, -4
 593 0002 84B0     		sub	sp, sp, #16
 594              		.cfi_def_cfa_offset 24
 595 0004 00AF     		add	r7, sp, #0
 596              		.cfi_def_cfa_register 7
 597 0006 0200     		movs	r2, r0
 598 0008 FB1D     		adds	r3, r7, #7
 599 000a 1A70     		strb	r2, [r3]
 600 000c BB1D     		adds	r3, r7, #6
 601 000e 0A1C     		adds	r2, r1, #0
 602 0010 1A70     		strb	r2, [r3]
 139:envsensor_process.c ****     unsigned short ushort_val  = (hi << 8) | lo;
ARM GAS  C:\Users\run1009\AppData\Local\Temp\ccPyTLFl.s 			page 14


 603              		.loc 1 139 0
 604 0012 FB1D     		adds	r3, r7, #7
 605 0014 1B78     		ldrb	r3, [r3]
 606 0016 1B02     		lsls	r3, r3, #8
 607 0018 1AB2     		sxth	r2, r3
 608 001a BB1D     		adds	r3, r7, #6
 609 001c 1B78     		ldrb	r3, [r3]
 610 001e 1BB2     		sxth	r3, r3
 611 0020 1343     		orrs	r3, r2
 612 0022 1AB2     		sxth	r2, r3
 613 0024 0E23     		movs	r3, #14
 614 0026 FB18     		adds	r3, r7, r3
 615 0028 1A80     		strh	r2, [r3]
 140:envsensor_process.c ****     return ushort_val ;
 616              		.loc 1 140 0
 617 002a 0E23     		movs	r3, #14
 618 002c FB18     		adds	r3, r7, r3
 619 002e 1B88     		ldrh	r3, [r3]
 141:envsensor_process.c **** }
 620              		.loc 1 141 0
 621 0030 1800     		movs	r0, r3
 622 0032 BD46     		mov	sp, r7
 623 0034 04B0     		add	sp, sp, #16
 624              		@ sp needed
 625 0036 80BD     		pop	{r7, pc}
 626              		.cfi_endproc
 627              	.LFE40:
 628              		.size	Byte2UShort, .-Byte2UShort
 629              		.text
 630              	.Letext0:
 631              		.file 2 "Generated_Source\\PSoC4/cytypes.h"
 632              		.file 3 "Generated_Source\\PSoC4/BLE_Stack.h"
 633              		.file 4 "Generated_Source\\PSoC4/BLE_eventHandler.h"
 634              		.file 5 "./envsensor_process.h"
 635              		.section	.debug_info,"",%progbits
 636              	.Ldebug_info0:
 637 0000 C2040000 		.4byte	0x4c2
 638 0004 0400     		.2byte	0x4
 639 0006 00000000 		.4byte	.Ldebug_abbrev0
 640 000a 04       		.byte	0x4
 641 000b 01       		.uleb128 0x1
 642 000c AF050000 		.4byte	.LASF116
 643 0010 0C       		.byte	0xc
 644 0011 2E040000 		.4byte	.LASF117
 645 0015 7A020000 		.4byte	.LASF118
 646 0019 00000000 		.4byte	.Ldebug_ranges0+0
 647 001d 00000000 		.4byte	0
 648 0021 00000000 		.4byte	.Ldebug_line0
 649 0025 02       		.uleb128 0x2
 650 0026 01       		.byte	0x1
 651 0027 06       		.byte	0x6
 652 0028 E0010000 		.4byte	.LASF0
 653 002c 02       		.uleb128 0x2
 654 002d 01       		.byte	0x1
 655 002e 08       		.byte	0x8
 656 002f 3A080000 		.4byte	.LASF1
 657 0033 02       		.uleb128 0x2
ARM GAS  C:\Users\run1009\AppData\Local\Temp\ccPyTLFl.s 			page 15


 658 0034 02       		.byte	0x2
 659 0035 05       		.byte	0x5
 660 0036 76080000 		.4byte	.LASF2
 661 003a 02       		.uleb128 0x2
 662 003b 02       		.byte	0x2
 663 003c 07       		.byte	0x7
 664 003d D9040000 		.4byte	.LASF3
 665 0041 02       		.uleb128 0x2
 666 0042 04       		.byte	0x4
 667 0043 05       		.byte	0x5
 668 0044 0B010000 		.4byte	.LASF4
 669 0048 02       		.uleb128 0x2
 670 0049 04       		.byte	0x4
 671 004a 07       		.byte	0x7
 672 004b 04040000 		.4byte	.LASF5
 673 004f 02       		.uleb128 0x2
 674 0050 08       		.byte	0x8
 675 0051 05       		.byte	0x5
 676 0052 D2010000 		.4byte	.LASF6
 677 0056 02       		.uleb128 0x2
 678 0057 08       		.byte	0x8
 679 0058 07       		.byte	0x7
 680 0059 14010000 		.4byte	.LASF7
 681 005d 03       		.uleb128 0x3
 682 005e 04       		.byte	0x4
 683 005f 05       		.byte	0x5
 684 0060 696E7400 		.ascii	"int\000"
 685 0064 02       		.uleb128 0x2
 686 0065 04       		.byte	0x4
 687 0066 07       		.byte	0x7
 688 0067 D8030000 		.4byte	.LASF8
 689 006b 04       		.uleb128 0x4
 690 006c 0D030000 		.4byte	.LASF9
 691 0070 02       		.byte	0x2
 692 0071 E401     		.2byte	0x1e4
 693 0073 2C000000 		.4byte	0x2c
 694 0077 04       		.uleb128 0x4
 695 0078 3A050000 		.4byte	.LASF10
 696 007c 02       		.byte	0x2
 697 007d E701     		.2byte	0x1e7
 698 007f 25000000 		.4byte	0x25
 699 0083 02       		.uleb128 0x2
 700 0084 04       		.byte	0x4
 701 0085 04       		.byte	0x4
 702 0086 34080000 		.4byte	.LASF11
 703 008a 02       		.uleb128 0x2
 704 008b 08       		.byte	0x8
 705 008c 04       		.byte	0x4
 706 008d 3F030000 		.4byte	.LASF12
 707 0091 02       		.uleb128 0x2
 708 0092 01       		.byte	0x1
 709 0093 08       		.byte	0x8
 710 0094 71090000 		.4byte	.LASF13
 711 0098 02       		.uleb128 0x2
 712 0099 08       		.byte	0x8
 713 009a 04       		.byte	0x4
 714 009b 65090000 		.4byte	.LASF14
ARM GAS  C:\Users\run1009\AppData\Local\Temp\ccPyTLFl.s 			page 16


 715 009f 02       		.uleb128 0x2
 716 00a0 04       		.byte	0x4
 717 00a1 07       		.byte	0x7
 718 00a2 B30A0000 		.4byte	.LASF15
 719 00a6 05       		.uleb128 0x5
 720 00a7 01       		.byte	0x1
 721 00a8 2C000000 		.4byte	0x2c
 722 00ac 03       		.byte	0x3
 723 00ad 3501     		.2byte	0x135
 724 00af 64020000 		.4byte	0x264
 725 00b3 06       		.uleb128 0x6
 726 00b4 EC040000 		.4byte	.LASF16
 727 00b8 00       		.byte	0
 728 00b9 06       		.uleb128 0x6
 729 00ba EC010000 		.4byte	.LASF17
 730 00be 01       		.byte	0x1
 731 00bf 06       		.uleb128 0x6
 732 00c0 F9000000 		.4byte	.LASF18
 733 00c4 02       		.byte	0x2
 734 00c5 06       		.uleb128 0x6
 735 00c6 880A0000 		.4byte	.LASF19
 736 00ca 03       		.byte	0x3
 737 00cb 06       		.uleb128 0x6
 738 00cc 2B010000 		.4byte	.LASF20
 739 00d0 04       		.byte	0x4
 740 00d1 06       		.uleb128 0x6
 741 00d2 1E000000 		.4byte	.LASF21
 742 00d6 05       		.byte	0x5
 743 00d7 06       		.uleb128 0x6
 744 00d8 21050000 		.4byte	.LASF22
 745 00dc 06       		.byte	0x6
 746 00dd 06       		.uleb128 0x6
 747 00de 74060000 		.4byte	.LASF23
 748 00e2 20       		.byte	0x20
 749 00e3 06       		.uleb128 0x6
 750 00e4 2C020000 		.4byte	.LASF24
 751 00e8 21       		.byte	0x21
 752 00e9 06       		.uleb128 0x6
 753 00ea 46050000 		.4byte	.LASF25
 754 00ee 22       		.byte	0x22
 755 00ef 06       		.uleb128 0x6
 756 00f0 620A0000 		.4byte	.LASF26
 757 00f4 23       		.byte	0x23
 758 00f5 06       		.uleb128 0x6
 759 00f6 87070000 		.4byte	.LASF27
 760 00fa 24       		.byte	0x24
 761 00fb 06       		.uleb128 0x6
 762 00fc 11070000 		.4byte	.LASF28
 763 0100 25       		.byte	0x25
 764 0101 06       		.uleb128 0x6
 765 0102 C7020000 		.4byte	.LASF29
 766 0106 26       		.byte	0x26
 767 0107 06       		.uleb128 0x6
 768 0108 6A050000 		.4byte	.LASF30
 769 010c 27       		.byte	0x27
 770 010d 06       		.uleb128 0x6
 771 010e 95090000 		.4byte	.LASF31
ARM GAS  C:\Users\run1009\AppData\Local\Temp\ccPyTLFl.s 			page 17


 772 0112 28       		.byte	0x28
 773 0113 06       		.uleb128 0x6
 774 0114 84010000 		.4byte	.LASF32
 775 0118 29       		.byte	0x29
 776 0119 06       		.uleb128 0x6
 777 011a 61000000 		.4byte	.LASF33
 778 011e 2A       		.byte	0x2a
 779 011f 06       		.uleb128 0x6
 780 0120 0D020000 		.4byte	.LASF34
 781 0124 2B       		.byte	0x2b
 782 0125 06       		.uleb128 0x6
 783 0126 E30A0000 		.4byte	.LASF35
 784 012a 2C       		.byte	0x2c
 785 012b 06       		.uleb128 0x6
 786 012c A1010000 		.4byte	.LASF36
 787 0130 2D       		.byte	0x2d
 788 0131 06       		.uleb128 0x6
 789 0132 48080000 		.4byte	.LASF37
 790 0136 2E       		.byte	0x2e
 791 0137 06       		.uleb128 0x6
 792 0138 AB000000 		.4byte	.LASF38
 793 013c 2F       		.byte	0x2f
 794 013d 06       		.uleb128 0x6
 795 013e 66070000 		.4byte	.LASF39
 796 0142 30       		.byte	0x30
 797 0143 06       		.uleb128 0x6
 798 0144 530B0000 		.4byte	.LASF40
 799 0148 31       		.byte	0x31
 800 0149 06       		.uleb128 0x6
 801 014a 45070000 		.4byte	.LASF41
 802 014e 32       		.byte	0x32
 803 014f 06       		.uleb128 0x6
 804 0150 24090000 		.4byte	.LASF42
 805 0154 33       		.byte	0x33
 806 0155 06       		.uleb128 0x6
 807 0156 16040000 		.4byte	.LASF43
 808 015a 34       		.byte	0x34
 809 015b 06       		.uleb128 0x6
 810 015c 94030000 		.4byte	.LASF44
 811 0160 35       		.byte	0x35
 812 0161 06       		.uleb128 0x6
 813 0162 8E050000 		.4byte	.LASF45
 814 0166 36       		.byte	0x36
 815 0167 06       		.uleb128 0x6
 816 0168 98060000 		.4byte	.LASF46
 817 016c 37       		.byte	0x37
 818 016d 06       		.uleb128 0x6
 819 016e 0A090000 		.4byte	.LASF47
 820 0172 40       		.byte	0x40
 821 0173 06       		.uleb128 0x6
 822 0174 3D060000 		.4byte	.LASF48
 823 0178 41       		.byte	0x41
 824 0179 06       		.uleb128 0x6
 825 017a 800B0000 		.4byte	.LASF49
 826 017e 42       		.byte	0x42
 827 017f 06       		.uleb128 0x6
 828 0180 EF020000 		.4byte	.LASF50
ARM GAS  C:\Users\run1009\AppData\Local\Temp\ccPyTLFl.s 			page 18


 829 0184 43       		.byte	0x43
 830 0185 06       		.uleb128 0x6
 831 0186 5C040000 		.4byte	.LASF51
 832 018a 44       		.byte	0x44
 833 018b 06       		.uleb128 0x6
 834 018c 0D080000 		.4byte	.LASF52
 835 0190 45       		.byte	0x45
 836 0191 06       		.uleb128 0x6
 837 0192 EB060000 		.4byte	.LASF53
 838 0196 46       		.byte	0x46
 839 0197 06       		.uleb128 0x6
 840 0198 03050000 		.4byte	.LASF54
 841 019c 47       		.byte	0x47
 842 019d 06       		.uleb128 0x6
 843 019e BC0A0000 		.4byte	.LASF55
 844 01a2 48       		.byte	0x48
 845 01a3 06       		.uleb128 0x6
 846 01a4 43020000 		.4byte	.LASF56
 847 01a8 49       		.byte	0x49
 848 01a9 06       		.uleb128 0x6
 849 01aa 00000000 		.4byte	.LASF57
 850 01ae 4A       		.byte	0x4a
 851 01af 06       		.uleb128 0x6
 852 01b0 76090000 		.4byte	.LASF58
 853 01b4 4B       		.byte	0x4b
 854 01b5 06       		.uleb128 0x6
 855 01b6 42040000 		.4byte	.LASF59
 856 01ba 4C       		.byte	0x4c
 857 01bb 06       		.uleb128 0x6
 858 01bc 2B070000 		.4byte	.LASF60
 859 01c0 4D       		.byte	0x4d
 860 01c1 06       		.uleb128 0x6
 861 01c2 5C020000 		.4byte	.LASF61
 862 01c6 4E       		.byte	0x4e
 863 01c7 06       		.uleb128 0x6
 864 01c8 B3080000 		.4byte	.LASF62
 865 01cc 4F       		.byte	0x4f
 866 01cd 06       		.uleb128 0x6
 867 01ce D4000000 		.4byte	.LASF63
 868 01d2 50       		.byte	0x50
 869 01d3 06       		.uleb128 0x6
 870 01d4 20030000 		.4byte	.LASF64
 871 01d8 51       		.byte	0x51
 872 01d9 06       		.uleb128 0x6
 873 01da A3070000 		.4byte	.LASF65
 874 01de 52       		.byte	0x52
 875 01df 06       		.uleb128 0x6
 876 01e0 80080000 		.4byte	.LASF66
 877 01e4 53       		.byte	0x53
 878 01e5 06       		.uleb128 0x6
 879 01e6 E9080000 		.4byte	.LASF67
 880 01ea 54       		.byte	0x54
 881 01eb 06       		.uleb128 0x6
 882 01ec 7A040000 		.4byte	.LASF68
 883 01f0 55       		.byte	0x55
 884 01f1 06       		.uleb128 0x6
 885 01f2 B6030000 		.4byte	.LASF69
ARM GAS  C:\Users\run1009\AppData\Local\Temp\ccPyTLFl.s 			page 19


 886 01f6 56       		.byte	0x56
 887 01f7 06       		.uleb128 0x6
 888 01f8 D3090000 		.4byte	.LASF70
 889 01fc 57       		.byte	0x57
 890 01fd 06       		.uleb128 0x6
 891 01fe A9040000 		.4byte	.LASF71
 892 0202 58       		.byte	0x58
 893 0203 06       		.uleb128 0x6
 894 0204 5E010000 		.4byte	.LASF72
 895 0208 70       		.byte	0x70
 896 0209 06       		.uleb128 0x6
 897 020a 2D0B0000 		.4byte	.LASF73
 898 020e 71       		.byte	0x71
 899 020f 06       		.uleb128 0x6
 900 0210 58060000 		.4byte	.LASF74
 901 0214 72       		.byte	0x72
 902 0215 06       		.uleb128 0x6
 903 0216 CD060000 		.4byte	.LASF75
 904 021a 73       		.byte	0x73
 905 021b 06       		.uleb128 0x6
 906 021c E0070000 		.4byte	.LASF76
 907 0220 74       		.byte	0x74
 908 0221 06       		.uleb128 0x6
 909 0222 070B0000 		.4byte	.LASF77
 910 0226 75       		.byte	0x75
 911 0227 06       		.uleb128 0x6
 912 0228 8A000000 		.4byte	.LASF78
 913 022c 76       		.byte	0x76
 914 022d 06       		.uleb128 0x6
 915 022e 42000000 		.4byte	.LASF79
 916 0232 77       		.byte	0x77
 917 0233 06       		.uleb128 0x6
 918 0234 FC090000 		.4byte	.LASF80
 919 0238 78       		.byte	0x78
 920 0239 06       		.uleb128 0x6
 921 023a 250A0000 		.4byte	.LASF81
 922 023e 79       		.byte	0x79
 923 023f 06       		.uleb128 0x6
 924 0240 6B030000 		.4byte	.LASF82
 925 0244 7A       		.byte	0x7a
 926 0245 06       		.uleb128 0x6
 927 0246 40010000 		.4byte	.LASF83
 928 024a FA       		.byte	0xfa
 929 024b 06       		.uleb128 0x6
 930 024c E5030000 		.4byte	.LASF84
 931 0250 FB       		.byte	0xfb
 932 0251 06       		.uleb128 0x6
 933 0252 A1080000 		.4byte	.LASF85
 934 0256 FC       		.byte	0xfc
 935 0257 06       		.uleb128 0x6
 936 0258 9E0B0000 		.4byte	.LASF86
 937 025c FD       		.byte	0xfd
 938 025d 06       		.uleb128 0x6
 939 025e 5D030000 		.4byte	.LASF87
 940 0262 FF       		.byte	0xff
 941 0263 00       		.byte	0
 942 0264 07       		.uleb128 0x7
ARM GAS  C:\Users\run1009\AppData\Local\Temp\ccPyTLFl.s 			page 20


 943 0265 04       		.byte	0x4
 944 0266 6B000000 		.4byte	0x6b
 945 026a 05       		.uleb128 0x5
 946 026b 01       		.byte	0x1
 947 026c 2C000000 		.4byte	0x2c
 948 0270 04       		.byte	0x4
 949 0271 9D08     		.2byte	0x89d
 950 0273 96020000 		.4byte	0x296
 951 0277 06       		.uleb128 0x6
 952 0278 56090000 		.4byte	.LASF88
 953 027c 00       		.byte	0
 954 027d 06       		.uleb128 0x6
 955 027e C3090000 		.4byte	.LASF89
 956 0282 01       		.byte	0x1
 957 0283 06       		.uleb128 0x6
 958 0284 C4070000 		.4byte	.LASF90
 959 0288 02       		.byte	0x2
 960 0289 06       		.uleb128 0x6
 961 028a 46030000 		.4byte	.LASF91
 962 028e 03       		.byte	0x3
 963 028f 06       		.uleb128 0x6
 964 0290 D2080000 		.4byte	.LASF92
 965 0294 04       		.byte	0x4
 966 0295 00       		.byte	0
 967 0296 08       		.uleb128 0x8
 968 0297 44       		.byte	0x44
 969 0298 05       		.byte	0x5
 970 0299 16       		.byte	0x16
 971 029a 66030000 		.4byte	0x366
 972 029e 09       		.uleb128 0x9
 973 029f CA010000 		.4byte	.LASF93
 974 02a3 05       		.byte	0x5
 975 02a4 1A       		.byte	0x1a
 976 02a5 64020000 		.4byte	0x264
 977 02a9 00       		.byte	0
 978 02aa 09       		.uleb128 0x9
 979 02ab AC0A0000 		.4byte	.LASF94
 980 02af 05       		.byte	0x5
 981 02b0 1D       		.byte	0x1d
 982 02b1 6B000000 		.4byte	0x6b
 983 02b5 04       		.byte	0x4
 984 02b6 09       		.uleb128 0x9
 985 02b7 B1030000 		.4byte	.LASF95
 986 02bb 05       		.byte	0x5
 987 02bc 20       		.byte	0x20
 988 02bd 83000000 		.4byte	0x83
 989 02c1 08       		.byte	0x8
 990 02c2 09       		.uleb128 0x9
 991 02c3 89050000 		.4byte	.LASF96
 992 02c7 05       		.byte	0x5
 993 02c8 23       		.byte	0x23
 994 02c9 83000000 		.4byte	0x83
 995 02cd 0C       		.byte	0xc
 996 02ce 09       		.uleb128 0x9
 997 02cf F3000000 		.4byte	.LASF97
 998 02d3 05       		.byte	0x5
 999 02d4 26       		.byte	0x26
ARM GAS  C:\Users\run1009\AppData\Local\Temp\ccPyTLFl.s 			page 21


 1000 02d5 33000000 		.4byte	0x33
 1001 02d9 10       		.byte	0x10
 1002 02da 0A       		.uleb128 0xa
 1003 02db 757600   		.ascii	"uv\000"
 1004 02de 05       		.byte	0x5
 1005 02df 29       		.byte	0x29
 1006 02e0 83000000 		.4byte	0x83
 1007 02e4 14       		.byte	0x14
 1008 02e5 09       		.uleb128 0x9
 1009 02e6 D7070000 		.4byte	.LASF98
 1010 02ea 05       		.byte	0x5
 1011 02eb 2C       		.byte	0x2c
 1012 02ec 83000000 		.4byte	0x83
 1013 02f0 18       		.byte	0x18
 1014 02f1 09       		.uleb128 0x9
 1015 02f2 E3080000 		.4byte	.LASF99
 1016 02f6 05       		.byte	0x5
 1017 02f7 2F       		.byte	0x2f
 1018 02f8 83000000 		.4byte	0x83
 1019 02fc 1C       		.byte	0x1c
 1020 02fd 0A       		.uleb128 0xa
 1021 02fe 646900   		.ascii	"di\000"
 1022 0301 05       		.byte	0x5
 1023 0302 32       		.byte	0x32
 1024 0303 83000000 		.4byte	0x83
 1025 0307 20       		.byte	0x20
 1026 0308 09       		.uleb128 0x9
 1027 0309 8F030000 		.4byte	.LASF100
 1028 030d 05       		.byte	0x5
 1029 030e 35       		.byte	0x35
 1030 030f 83000000 		.4byte	0x83
 1031 0313 24       		.byte	0x24
 1032 0314 0A       		.uleb128 0xa
 1033 0315 617800   		.ascii	"ax\000"
 1034 0318 05       		.byte	0x5
 1035 0319 38       		.byte	0x38
 1036 031a 83000000 		.4byte	0x83
 1037 031e 28       		.byte	0x28
 1038 031f 0A       		.uleb128 0xa
 1039 0320 617900   		.ascii	"ay\000"
 1040 0323 05       		.byte	0x5
 1041 0324 3B       		.byte	0x3b
 1042 0325 83000000 		.4byte	0x83
 1043 0329 2C       		.byte	0x2c
 1044 032a 0A       		.uleb128 0xa
 1045 032b 617A00   		.ascii	"az\000"
 1046 032e 05       		.byte	0x5
 1047 032f 3E       		.byte	0x3e
 1048 0330 83000000 		.4byte	0x83
 1049 0334 30       		.byte	0x30
 1050 0335 09       		.uleb128 0x9
 1051 0336 D1040000 		.4byte	.LASF101
 1052 033a 05       		.byte	0x5
 1053 033b 41       		.byte	0x41
 1054 033c 83000000 		.4byte	0x83
 1055 0340 34       		.byte	0x34
 1056 0341 09       		.uleb128 0x9
ARM GAS  C:\Users\run1009\AppData\Local\Temp\ccPyTLFl.s 			page 22


 1057 0342 280B0000 		.4byte	.LASF102
 1058 0346 05       		.byte	0x5
 1059 0347 46       		.byte	0x46
 1060 0348 77000000 		.4byte	0x77
 1061 034c 38       		.byte	0x38
 1062 034d 09       		.uleb128 0x9
 1063 034e 480A0000 		.4byte	.LASF103
 1064 0352 05       		.byte	0x5
 1065 0353 49       		.byte	0x49
 1066 0354 83000000 		.4byte	0x83
 1067 0358 3C       		.byte	0x3c
 1068 0359 09       		.uleb128 0x9
 1069 035a A10A0000 		.4byte	.LASF104
 1070 035e 05       		.byte	0x5
 1071 035f 4B       		.byte	0x4b
 1072 0360 6B000000 		.4byte	0x6b
 1073 0364 40       		.byte	0x40
 1074 0365 00       		.byte	0
 1075 0366 0B       		.uleb128 0xb
 1076 0367 13030000 		.4byte	.LASF105
 1077 036b 05       		.byte	0x5
 1078 036c 4D       		.byte	0x4d
 1079 036d 96020000 		.4byte	0x296
 1080 0371 0C       		.uleb128 0xc
 1081 0372 510A0000 		.4byte	.LASF119
 1082 0376 01       		.byte	0x1
 1083 0377 23       		.byte	0x23
 1084 0378 00000000 		.4byte	.LFB36
 1085 037c 20020000 		.4byte	.LFE36-.LFB36
 1086 0380 01       		.uleb128 0x1
 1087 0381 9C       		.byte	0x9c
 1088 0382 A3030000 		.4byte	0x3a3
 1089 0386 0D       		.uleb128 0xd
 1090 0387 280B0000 		.4byte	.LASF102
 1091 038b 01       		.byte	0x1
 1092 038c 23       		.byte	0x23
 1093 038d 77000000 		.4byte	0x77
 1094 0391 02       		.uleb128 0x2
 1095 0392 91       		.byte	0x91
 1096 0393 6F       		.sleb128 -17
 1097 0394 0D       		.uleb128 0xd
 1098 0395 CC040000 		.4byte	.LASF106
 1099 0399 01       		.byte	0x1
 1100 039a 23       		.byte	0x23
 1101 039b 64020000 		.4byte	0x264
 1102 039f 02       		.uleb128 0x2
 1103 03a0 91       		.byte	0x91
 1104 03a1 68       		.sleb128 -24
 1105 03a2 00       		.byte	0
 1106 03a3 0E       		.uleb128 0xe
 1107 03a4 FE070000 		.4byte	.LASF110
 1108 03a8 01       		.byte	0x1
 1109 03a9 43       		.byte	0x43
 1110 03aa 83000000 		.4byte	0x83
 1111 03ae 00000000 		.4byte	.LFB37
 1112 03b2 EC000000 		.4byte	.LFE37-.LFB37
 1113 03b6 01       		.uleb128 0x1
ARM GAS  C:\Users\run1009\AppData\Local\Temp\ccPyTLFl.s 			page 23


 1114 03b7 9C       		.byte	0x9c
 1115 03b8 F5030000 		.4byte	0x3f5
 1116 03bc 0D       		.uleb128 0xd
 1117 03bd 280B0000 		.4byte	.LASF102
 1118 03c1 01       		.byte	0x1
 1119 03c2 43       		.byte	0x43
 1120 03c3 77000000 		.4byte	0x77
 1121 03c7 02       		.uleb128 0x2
 1122 03c8 91       		.byte	0x91
 1123 03c9 5F       		.sleb128 -33
 1124 03ca 0F       		.uleb128 0xf
 1125 03cb 0C070000 		.4byte	.LASF107
 1126 03cf 01       		.byte	0x1
 1127 03d0 44       		.byte	0x44
 1128 03d1 77000000 		.4byte	0x77
 1129 03d5 02       		.uleb128 0x2
 1130 03d6 91       		.byte	0x91
 1131 03d7 6F       		.sleb128 -17
 1132 03d8 0F       		.uleb128 0xf
 1133 03d9 1F0A0000 		.4byte	.LASF108
 1134 03dd 01       		.byte	0x1
 1135 03de 4A       		.byte	0x4a
 1136 03df 83000000 		.4byte	0x83
 1137 03e3 02       		.uleb128 0x2
 1138 03e4 91       		.byte	0x91
 1139 03e5 68       		.sleb128 -24
 1140 03e6 0F       		.uleb128 0xf
 1141 03e7 770B0000 		.4byte	.LASF109
 1142 03eb 01       		.byte	0x1
 1143 03ec 4D       		.byte	0x4d
 1144 03ed 83000000 		.4byte	0x83
 1145 03f1 02       		.uleb128 0x2
 1146 03f2 91       		.byte	0x91
 1147 03f3 64       		.sleb128 -28
 1148 03f4 00       		.byte	0
 1149 03f5 10       		.uleb128 0x10
 1150 03f6 FF010000 		.4byte	.LASF120
 1151 03fa 01       		.byte	0x1
 1152 03fb 60       		.byte	0x60
 1153 03fc 66030000 		.4byte	0x366
 1154 0400 00000000 		.4byte	.LFB38
 1155 0404 24000000 		.4byte	.LFE38-.LFB38
 1156 0408 01       		.uleb128 0x1
 1157 0409 9C       		.byte	0x9c
 1158 040a 11       		.uleb128 0x11
 1159 040b 4B090000 		.4byte	.LASF111
 1160 040f 01       		.byte	0x1
 1161 0410 70       		.byte	0x70
 1162 0411 33000000 		.4byte	0x33
 1163 0415 00000000 		.4byte	.LFB39
 1164 0419 7E000000 		.4byte	.LFE39-.LFB39
 1165 041d 01       		.uleb128 0x1
 1166 041e 9C       		.byte	0x9c
 1167 041f 72040000 		.4byte	0x472
 1168 0423 12       		.uleb128 0x12
 1169 0424 686900   		.ascii	"hi\000"
 1170 0427 01       		.byte	0x1
ARM GAS  C:\Users\run1009\AppData\Local\Temp\ccPyTLFl.s 			page 24


 1171 0428 70       		.byte	0x70
 1172 0429 6B000000 		.4byte	0x6b
 1173 042d 02       		.uleb128 0x2
 1174 042e 91       		.byte	0x91
 1175 042f 6F       		.sleb128 -17
 1176 0430 12       		.uleb128 0x12
 1177 0431 6C6F00   		.ascii	"lo\000"
 1178 0434 01       		.byte	0x1
 1179 0435 70       		.byte	0x70
 1180 0436 6B000000 		.4byte	0x6b
 1181 043a 02       		.uleb128 0x2
 1182 043b 91       		.byte	0x91
 1183 043c 6E       		.sleb128 -18
 1184 043d 0F       		.uleb128 0xf
 1185 043e 6C080000 		.4byte	.LASF112
 1186 0442 01       		.byte	0x1
 1187 0443 71       		.byte	0x71
 1188 0444 33000000 		.4byte	0x33
 1189 0448 02       		.uleb128 0x2
 1190 0449 91       		.byte	0x91
 1191 044a 76       		.sleb128 -10
 1192 044b 13       		.uleb128 0x13
 1193 044c 76616C00 		.ascii	"val\000"
 1194 0450 01       		.byte	0x1
 1195 0451 72       		.byte	0x72
 1196 0452 33000000 		.4byte	0x33
 1197 0456 02       		.uleb128 0x2
 1198 0457 91       		.byte	0x91
 1199 0458 74       		.sleb128 -12
 1200 0459 14       		.uleb128 0x14
 1201 045a 32000000 		.4byte	.LBB2
 1202 045e 2E000000 		.4byte	.LBE2-.LBB2
 1203 0462 0F       		.uleb128 0xf
 1204 0463 3A000000 		.4byte	.LASF113
 1205 0467 01       		.byte	0x1
 1206 0468 74       		.byte	0x74
 1207 0469 33000000 		.4byte	0x33
 1208 046d 02       		.uleb128 0x2
 1209 046e 91       		.byte	0x91
 1210 046f 72       		.sleb128 -14
 1211 0470 00       		.byte	0
 1212 0471 00       		.byte	0
 1213 0472 11       		.uleb128 0x11
 1214 0473 B7090000 		.4byte	.LASF114
 1215 0477 01       		.byte	0x1
 1216 0478 8A       		.byte	0x8a
 1217 0479 3A000000 		.4byte	0x3a
 1218 047d 00000000 		.4byte	.LFB40
 1219 0481 38000000 		.4byte	.LFE40-.LFB40
 1220 0485 01       		.uleb128 0x1
 1221 0486 9C       		.byte	0x9c
 1222 0487 B4040000 		.4byte	0x4b4
 1223 048b 12       		.uleb128 0x12
 1224 048c 686900   		.ascii	"hi\000"
 1225 048f 01       		.byte	0x1
 1226 0490 8A       		.byte	0x8a
 1227 0491 6B000000 		.4byte	0x6b
ARM GAS  C:\Users\run1009\AppData\Local\Temp\ccPyTLFl.s 			page 25


 1228 0495 02       		.uleb128 0x2
 1229 0496 91       		.byte	0x91
 1230 0497 6F       		.sleb128 -17
 1231 0498 12       		.uleb128 0x12
 1232 0499 6C6F00   		.ascii	"lo\000"
 1233 049c 01       		.byte	0x1
 1234 049d 8A       		.byte	0x8a
 1235 049e 6B000000 		.4byte	0x6b
 1236 04a2 02       		.uleb128 0x2
 1237 04a3 91       		.byte	0x91
 1238 04a4 6E       		.sleb128 -18
 1239 04a5 0F       		.uleb128 0xf
 1240 04a6 9E040000 		.4byte	.LASF115
 1241 04aa 01       		.byte	0x1
 1242 04ab 8B       		.byte	0x8b
 1243 04ac 3A000000 		.4byte	0x3a
 1244 04b0 02       		.uleb128 0x2
 1245 04b1 91       		.byte	0x91
 1246 04b2 76       		.sleb128 -10
 1247 04b3 00       		.byte	0
 1248 04b4 15       		.uleb128 0x15
 1249 04b5 3F050000 		.4byte	.LASF121
 1250 04b9 01       		.byte	0x1
 1251 04ba 11       		.byte	0x11
 1252 04bb 66030000 		.4byte	0x366
 1253 04bf 05       		.uleb128 0x5
 1254 04c0 03       		.byte	0x3
 1255 04c1 00000000 		.4byte	sensor
 1256 04c5 00       		.byte	0
 1257              		.section	.debug_abbrev,"",%progbits
 1258              	.Ldebug_abbrev0:
 1259 0000 01       		.uleb128 0x1
 1260 0001 11       		.uleb128 0x11
 1261 0002 01       		.byte	0x1
 1262 0003 25       		.uleb128 0x25
 1263 0004 0E       		.uleb128 0xe
 1264 0005 13       		.uleb128 0x13
 1265 0006 0B       		.uleb128 0xb
 1266 0007 03       		.uleb128 0x3
 1267 0008 0E       		.uleb128 0xe
 1268 0009 1B       		.uleb128 0x1b
 1269 000a 0E       		.uleb128 0xe
 1270 000b 55       		.uleb128 0x55
 1271 000c 17       		.uleb128 0x17
 1272 000d 11       		.uleb128 0x11
 1273 000e 01       		.uleb128 0x1
 1274 000f 10       		.uleb128 0x10
 1275 0010 17       		.uleb128 0x17
 1276 0011 00       		.byte	0
 1277 0012 00       		.byte	0
 1278 0013 02       		.uleb128 0x2
 1279 0014 24       		.uleb128 0x24
 1280 0015 00       		.byte	0
 1281 0016 0B       		.uleb128 0xb
 1282 0017 0B       		.uleb128 0xb
 1283 0018 3E       		.uleb128 0x3e
 1284 0019 0B       		.uleb128 0xb
ARM GAS  C:\Users\run1009\AppData\Local\Temp\ccPyTLFl.s 			page 26


 1285 001a 03       		.uleb128 0x3
 1286 001b 0E       		.uleb128 0xe
 1287 001c 00       		.byte	0
 1288 001d 00       		.byte	0
 1289 001e 03       		.uleb128 0x3
 1290 001f 24       		.uleb128 0x24
 1291 0020 00       		.byte	0
 1292 0021 0B       		.uleb128 0xb
 1293 0022 0B       		.uleb128 0xb
 1294 0023 3E       		.uleb128 0x3e
 1295 0024 0B       		.uleb128 0xb
 1296 0025 03       		.uleb128 0x3
 1297 0026 08       		.uleb128 0x8
 1298 0027 00       		.byte	0
 1299 0028 00       		.byte	0
 1300 0029 04       		.uleb128 0x4
 1301 002a 16       		.uleb128 0x16
 1302 002b 00       		.byte	0
 1303 002c 03       		.uleb128 0x3
 1304 002d 0E       		.uleb128 0xe
 1305 002e 3A       		.uleb128 0x3a
 1306 002f 0B       		.uleb128 0xb
 1307 0030 3B       		.uleb128 0x3b
 1308 0031 05       		.uleb128 0x5
 1309 0032 49       		.uleb128 0x49
 1310 0033 13       		.uleb128 0x13
 1311 0034 00       		.byte	0
 1312 0035 00       		.byte	0
 1313 0036 05       		.uleb128 0x5
 1314 0037 04       		.uleb128 0x4
 1315 0038 01       		.byte	0x1
 1316 0039 0B       		.uleb128 0xb
 1317 003a 0B       		.uleb128 0xb
 1318 003b 49       		.uleb128 0x49
 1319 003c 13       		.uleb128 0x13
 1320 003d 3A       		.uleb128 0x3a
 1321 003e 0B       		.uleb128 0xb
 1322 003f 3B       		.uleb128 0x3b
 1323 0040 05       		.uleb128 0x5
 1324 0041 01       		.uleb128 0x1
 1325 0042 13       		.uleb128 0x13
 1326 0043 00       		.byte	0
 1327 0044 00       		.byte	0
 1328 0045 06       		.uleb128 0x6
 1329 0046 28       		.uleb128 0x28
 1330 0047 00       		.byte	0
 1331 0048 03       		.uleb128 0x3
 1332 0049 0E       		.uleb128 0xe
 1333 004a 1C       		.uleb128 0x1c
 1334 004b 0B       		.uleb128 0xb
 1335 004c 00       		.byte	0
 1336 004d 00       		.byte	0
 1337 004e 07       		.uleb128 0x7
 1338 004f 0F       		.uleb128 0xf
 1339 0050 00       		.byte	0
 1340 0051 0B       		.uleb128 0xb
 1341 0052 0B       		.uleb128 0xb
ARM GAS  C:\Users\run1009\AppData\Local\Temp\ccPyTLFl.s 			page 27


 1342 0053 49       		.uleb128 0x49
 1343 0054 13       		.uleb128 0x13
 1344 0055 00       		.byte	0
 1345 0056 00       		.byte	0
 1346 0057 08       		.uleb128 0x8
 1347 0058 13       		.uleb128 0x13
 1348 0059 01       		.byte	0x1
 1349 005a 0B       		.uleb128 0xb
 1350 005b 0B       		.uleb128 0xb
 1351 005c 3A       		.uleb128 0x3a
 1352 005d 0B       		.uleb128 0xb
 1353 005e 3B       		.uleb128 0x3b
 1354 005f 0B       		.uleb128 0xb
 1355 0060 01       		.uleb128 0x1
 1356 0061 13       		.uleb128 0x13
 1357 0062 00       		.byte	0
 1358 0063 00       		.byte	0
 1359 0064 09       		.uleb128 0x9
 1360 0065 0D       		.uleb128 0xd
 1361 0066 00       		.byte	0
 1362 0067 03       		.uleb128 0x3
 1363 0068 0E       		.uleb128 0xe
 1364 0069 3A       		.uleb128 0x3a
 1365 006a 0B       		.uleb128 0xb
 1366 006b 3B       		.uleb128 0x3b
 1367 006c 0B       		.uleb128 0xb
 1368 006d 49       		.uleb128 0x49
 1369 006e 13       		.uleb128 0x13
 1370 006f 38       		.uleb128 0x38
 1371 0070 0B       		.uleb128 0xb
 1372 0071 00       		.byte	0
 1373 0072 00       		.byte	0
 1374 0073 0A       		.uleb128 0xa
 1375 0074 0D       		.uleb128 0xd
 1376 0075 00       		.byte	0
 1377 0076 03       		.uleb128 0x3
 1378 0077 08       		.uleb128 0x8
 1379 0078 3A       		.uleb128 0x3a
 1380 0079 0B       		.uleb128 0xb
 1381 007a 3B       		.uleb128 0x3b
 1382 007b 0B       		.uleb128 0xb
 1383 007c 49       		.uleb128 0x49
 1384 007d 13       		.uleb128 0x13
 1385 007e 38       		.uleb128 0x38
 1386 007f 0B       		.uleb128 0xb
 1387 0080 00       		.byte	0
 1388 0081 00       		.byte	0
 1389 0082 0B       		.uleb128 0xb
 1390 0083 16       		.uleb128 0x16
 1391 0084 00       		.byte	0
 1392 0085 03       		.uleb128 0x3
 1393 0086 0E       		.uleb128 0xe
 1394 0087 3A       		.uleb128 0x3a
 1395 0088 0B       		.uleb128 0xb
 1396 0089 3B       		.uleb128 0x3b
 1397 008a 0B       		.uleb128 0xb
 1398 008b 49       		.uleb128 0x49
ARM GAS  C:\Users\run1009\AppData\Local\Temp\ccPyTLFl.s 			page 28


 1399 008c 13       		.uleb128 0x13
 1400 008d 00       		.byte	0
 1401 008e 00       		.byte	0
 1402 008f 0C       		.uleb128 0xc
 1403 0090 2E       		.uleb128 0x2e
 1404 0091 01       		.byte	0x1
 1405 0092 3F       		.uleb128 0x3f
 1406 0093 19       		.uleb128 0x19
 1407 0094 03       		.uleb128 0x3
 1408 0095 0E       		.uleb128 0xe
 1409 0096 3A       		.uleb128 0x3a
 1410 0097 0B       		.uleb128 0xb
 1411 0098 3B       		.uleb128 0x3b
 1412 0099 0B       		.uleb128 0xb
 1413 009a 27       		.uleb128 0x27
 1414 009b 19       		.uleb128 0x19
 1415 009c 11       		.uleb128 0x11
 1416 009d 01       		.uleb128 0x1
 1417 009e 12       		.uleb128 0x12
 1418 009f 06       		.uleb128 0x6
 1419 00a0 40       		.uleb128 0x40
 1420 00a1 18       		.uleb128 0x18
 1421 00a2 9642     		.uleb128 0x2116
 1422 00a4 19       		.uleb128 0x19
 1423 00a5 01       		.uleb128 0x1
 1424 00a6 13       		.uleb128 0x13
 1425 00a7 00       		.byte	0
 1426 00a8 00       		.byte	0
 1427 00a9 0D       		.uleb128 0xd
 1428 00aa 05       		.uleb128 0x5
 1429 00ab 00       		.byte	0
 1430 00ac 03       		.uleb128 0x3
 1431 00ad 0E       		.uleb128 0xe
 1432 00ae 3A       		.uleb128 0x3a
 1433 00af 0B       		.uleb128 0xb
 1434 00b0 3B       		.uleb128 0x3b
 1435 00b1 0B       		.uleb128 0xb
 1436 00b2 49       		.uleb128 0x49
 1437 00b3 13       		.uleb128 0x13
 1438 00b4 02       		.uleb128 0x2
 1439 00b5 18       		.uleb128 0x18
 1440 00b6 00       		.byte	0
 1441 00b7 00       		.byte	0
 1442 00b8 0E       		.uleb128 0xe
 1443 00b9 2E       		.uleb128 0x2e
 1444 00ba 01       		.byte	0x1
 1445 00bb 3F       		.uleb128 0x3f
 1446 00bc 19       		.uleb128 0x19
 1447 00bd 03       		.uleb128 0x3
 1448 00be 0E       		.uleb128 0xe
 1449 00bf 3A       		.uleb128 0x3a
 1450 00c0 0B       		.uleb128 0xb
 1451 00c1 3B       		.uleb128 0x3b
 1452 00c2 0B       		.uleb128 0xb
 1453 00c3 27       		.uleb128 0x27
 1454 00c4 19       		.uleb128 0x19
 1455 00c5 49       		.uleb128 0x49
ARM GAS  C:\Users\run1009\AppData\Local\Temp\ccPyTLFl.s 			page 29


 1456 00c6 13       		.uleb128 0x13
 1457 00c7 11       		.uleb128 0x11
 1458 00c8 01       		.uleb128 0x1
 1459 00c9 12       		.uleb128 0x12
 1460 00ca 06       		.uleb128 0x6
 1461 00cb 40       		.uleb128 0x40
 1462 00cc 18       		.uleb128 0x18
 1463 00cd 9642     		.uleb128 0x2116
 1464 00cf 19       		.uleb128 0x19
 1465 00d0 01       		.uleb128 0x1
 1466 00d1 13       		.uleb128 0x13
 1467 00d2 00       		.byte	0
 1468 00d3 00       		.byte	0
 1469 00d4 0F       		.uleb128 0xf
 1470 00d5 34       		.uleb128 0x34
 1471 00d6 00       		.byte	0
 1472 00d7 03       		.uleb128 0x3
 1473 00d8 0E       		.uleb128 0xe
 1474 00d9 3A       		.uleb128 0x3a
 1475 00da 0B       		.uleb128 0xb
 1476 00db 3B       		.uleb128 0x3b
 1477 00dc 0B       		.uleb128 0xb
 1478 00dd 49       		.uleb128 0x49
 1479 00de 13       		.uleb128 0x13
 1480 00df 02       		.uleb128 0x2
 1481 00e0 18       		.uleb128 0x18
 1482 00e1 00       		.byte	0
 1483 00e2 00       		.byte	0
 1484 00e3 10       		.uleb128 0x10
 1485 00e4 2E       		.uleb128 0x2e
 1486 00e5 00       		.byte	0
 1487 00e6 3F       		.uleb128 0x3f
 1488 00e7 19       		.uleb128 0x19
 1489 00e8 03       		.uleb128 0x3
 1490 00e9 0E       		.uleb128 0xe
 1491 00ea 3A       		.uleb128 0x3a
 1492 00eb 0B       		.uleb128 0xb
 1493 00ec 3B       		.uleb128 0x3b
 1494 00ed 0B       		.uleb128 0xb
 1495 00ee 27       		.uleb128 0x27
 1496 00ef 19       		.uleb128 0x19
 1497 00f0 49       		.uleb128 0x49
 1498 00f1 13       		.uleb128 0x13
 1499 00f2 11       		.uleb128 0x11
 1500 00f3 01       		.uleb128 0x1
 1501 00f4 12       		.uleb128 0x12
 1502 00f5 06       		.uleb128 0x6
 1503 00f6 40       		.uleb128 0x40
 1504 00f7 18       		.uleb128 0x18
 1505 00f8 9642     		.uleb128 0x2116
 1506 00fa 19       		.uleb128 0x19
 1507 00fb 00       		.byte	0
 1508 00fc 00       		.byte	0
 1509 00fd 11       		.uleb128 0x11
 1510 00fe 2E       		.uleb128 0x2e
 1511 00ff 01       		.byte	0x1
 1512 0100 3F       		.uleb128 0x3f
ARM GAS  C:\Users\run1009\AppData\Local\Temp\ccPyTLFl.s 			page 30


 1513 0101 19       		.uleb128 0x19
 1514 0102 03       		.uleb128 0x3
 1515 0103 0E       		.uleb128 0xe
 1516 0104 3A       		.uleb128 0x3a
 1517 0105 0B       		.uleb128 0xb
 1518 0106 3B       		.uleb128 0x3b
 1519 0107 0B       		.uleb128 0xb
 1520 0108 27       		.uleb128 0x27
 1521 0109 19       		.uleb128 0x19
 1522 010a 49       		.uleb128 0x49
 1523 010b 13       		.uleb128 0x13
 1524 010c 11       		.uleb128 0x11
 1525 010d 01       		.uleb128 0x1
 1526 010e 12       		.uleb128 0x12
 1527 010f 06       		.uleb128 0x6
 1528 0110 40       		.uleb128 0x40
 1529 0111 18       		.uleb128 0x18
 1530 0112 9742     		.uleb128 0x2117
 1531 0114 19       		.uleb128 0x19
 1532 0115 01       		.uleb128 0x1
 1533 0116 13       		.uleb128 0x13
 1534 0117 00       		.byte	0
 1535 0118 00       		.byte	0
 1536 0119 12       		.uleb128 0x12
 1537 011a 05       		.uleb128 0x5
 1538 011b 00       		.byte	0
 1539 011c 03       		.uleb128 0x3
 1540 011d 08       		.uleb128 0x8
 1541 011e 3A       		.uleb128 0x3a
 1542 011f 0B       		.uleb128 0xb
 1543 0120 3B       		.uleb128 0x3b
 1544 0121 0B       		.uleb128 0xb
 1545 0122 49       		.uleb128 0x49
 1546 0123 13       		.uleb128 0x13
 1547 0124 02       		.uleb128 0x2
 1548 0125 18       		.uleb128 0x18
 1549 0126 00       		.byte	0
 1550 0127 00       		.byte	0
 1551 0128 13       		.uleb128 0x13
 1552 0129 34       		.uleb128 0x34
 1553 012a 00       		.byte	0
 1554 012b 03       		.uleb128 0x3
 1555 012c 08       		.uleb128 0x8
 1556 012d 3A       		.uleb128 0x3a
 1557 012e 0B       		.uleb128 0xb
 1558 012f 3B       		.uleb128 0x3b
 1559 0130 0B       		.uleb128 0xb
 1560 0131 49       		.uleb128 0x49
 1561 0132 13       		.uleb128 0x13
 1562 0133 02       		.uleb128 0x2
 1563 0134 18       		.uleb128 0x18
 1564 0135 00       		.byte	0
 1565 0136 00       		.byte	0
 1566 0137 14       		.uleb128 0x14
 1567 0138 0B       		.uleb128 0xb
 1568 0139 01       		.byte	0x1
 1569 013a 11       		.uleb128 0x11
ARM GAS  C:\Users\run1009\AppData\Local\Temp\ccPyTLFl.s 			page 31


 1570 013b 01       		.uleb128 0x1
 1571 013c 12       		.uleb128 0x12
 1572 013d 06       		.uleb128 0x6
 1573 013e 00       		.byte	0
 1574 013f 00       		.byte	0
 1575 0140 15       		.uleb128 0x15
 1576 0141 34       		.uleb128 0x34
 1577 0142 00       		.byte	0
 1578 0143 03       		.uleb128 0x3
 1579 0144 0E       		.uleb128 0xe
 1580 0145 3A       		.uleb128 0x3a
 1581 0146 0B       		.uleb128 0xb
 1582 0147 3B       		.uleb128 0x3b
 1583 0148 0B       		.uleb128 0xb
 1584 0149 49       		.uleb128 0x49
 1585 014a 13       		.uleb128 0x13
 1586 014b 3F       		.uleb128 0x3f
 1587 014c 19       		.uleb128 0x19
 1588 014d 02       		.uleb128 0x2
 1589 014e 18       		.uleb128 0x18
 1590 014f 00       		.byte	0
 1591 0150 00       		.byte	0
 1592 0151 00       		.byte	0
 1593              		.section	.debug_aranges,"",%progbits
 1594 0000 3C000000 		.4byte	0x3c
 1595 0004 0200     		.2byte	0x2
 1596 0006 00000000 		.4byte	.Ldebug_info0
 1597 000a 04       		.byte	0x4
 1598 000b 00       		.byte	0
 1599 000c 0000     		.2byte	0
 1600 000e 0000     		.2byte	0
 1601 0010 00000000 		.4byte	.LFB36
 1602 0014 20020000 		.4byte	.LFE36-.LFB36
 1603 0018 00000000 		.4byte	.LFB37
 1604 001c EC000000 		.4byte	.LFE37-.LFB37
 1605 0020 00000000 		.4byte	.LFB38
 1606 0024 24000000 		.4byte	.LFE38-.LFB38
 1607 0028 00000000 		.4byte	.LFB39
 1608 002c 7E000000 		.4byte	.LFE39-.LFB39
 1609 0030 00000000 		.4byte	.LFB40
 1610 0034 38000000 		.4byte	.LFE40-.LFB40
 1611 0038 00000000 		.4byte	0
 1612 003c 00000000 		.4byte	0
 1613              		.section	.debug_ranges,"",%progbits
 1614              	.Ldebug_ranges0:
 1615 0000 00000000 		.4byte	.LFB36
 1616 0004 20020000 		.4byte	.LFE36
 1617 0008 00000000 		.4byte	.LFB37
 1618 000c EC000000 		.4byte	.LFE37
 1619 0010 00000000 		.4byte	.LFB38
 1620 0014 24000000 		.4byte	.LFE38
 1621 0018 00000000 		.4byte	.LFB39
 1622 001c 7E000000 		.4byte	.LFE39
 1623 0020 00000000 		.4byte	.LFB40
 1624 0024 38000000 		.4byte	.LFE40
 1625 0028 00000000 		.4byte	0
 1626 002c 00000000 		.4byte	0
ARM GAS  C:\Users\run1009\AppData\Local\Temp\ccPyTLFl.s 			page 32


 1627              		.section	.debug_line,"",%progbits
 1628              	.Ldebug_line0:
 1629 0000 13010000 		.section	.debug_str,"MS",%progbits,1
 1629      02008C00 
 1629      00000201 
 1629      FB0E0D00 
 1629      01010101 
 1630              	.LASF57:
 1631 0000 4359424C 		.ascii	"CYBLE_EVT_GATTC_READ_BLOB_RSP\000"
 1631      455F4556 
 1631      545F4741 
 1631      5454435F 
 1631      52454144 
 1632              	.LASF21:
 1633 001e 4359424C 		.ascii	"CYBLE_EVT_STACK_BUSY_STATUS\000"
 1633      455F4556 
 1633      545F5354 
 1633      41434B5F 
 1633      42555359 
 1634              	.LASF113:
 1635 003a 76616C5F 		.ascii	"val_inv\000"
 1635      696E7600 
 1636              	.LASF79:
 1637 0042 4359424C 		.ascii	"CYBLE_EVT_L2CAP_CBFC_DATA_READ\000"
 1637      455F4556 
 1637      545F4C32 
 1637      4341505F 
 1637      43424643 
 1638              	.LASF33:
 1639 0061 4359424C 		.ascii	"CYBLE_EVT_GAP_CONNECTION_UPDATE_COMPLETE\000"
 1639      455F4556 
 1639      545F4741 
 1639      505F434F 
 1639      4E4E4543 
 1640              	.LASF78:
 1641 008a 4359424C 		.ascii	"CYBLE_EVT_L2CAP_CBFC_DISCONN_CNF\000"
 1641      455F4556 
 1641      545F4C32 
 1641      4341505F 
 1641      43424643 
 1642              	.LASF38:
 1643 00ab 4359424C 		.ascii	"CYBLE_EVT_GAP_OOB_GENERATED_NOTIFICATION\000"
 1643      455F4556 
 1643      545F4741 
 1643      505F4F4F 
 1643      425F4745 
 1644              	.LASF63:
 1645 00d4 4359424C 		.ascii	"CYBLE_EVT_GATTS_EXEC_WRITE_REQ\000"
 1645      455F4556 
 1645      545F4741 
 1645      5454535F 
 1645      45584543 
 1646              	.LASF97:
 1647 00f3 6C696768 		.ascii	"light\000"
 1647      7400
 1648              	.LASF18:
 1649 00f9 4359424C 		.ascii	"CYBLE_EVT_TIMEOUT\000"
ARM GAS  C:\Users\run1009\AppData\Local\Temp\ccPyTLFl.s 			page 33


 1649      455F4556 
 1649      545F5449 
 1649      4D454F55 
 1649      5400
 1650              	.LASF4:
 1651 010b 6C6F6E67 		.ascii	"long int\000"
 1651      20696E74 
 1651      00
 1652              	.LASF7:
 1653 0114 6C6F6E67 		.ascii	"long long unsigned int\000"
 1653      206C6F6E 
 1653      6720756E 
 1653      7369676E 
 1653      65642069 
 1654              	.LASF20:
 1655 012b 4359424C 		.ascii	"CYBLE_EVT_HCI_STATUS\000"
 1655      455F4556 
 1655      545F4843 
 1655      495F5354 
 1655      41545553 
 1656              	.LASF83:
 1657 0140 4359424C 		.ascii	"CYBLE_EVT_PENDING_FLASH_WRITE\000"
 1657      455F4556 
 1657      545F5045 
 1657      4E44494E 
 1657      475F464C 
 1658              	.LASF72:
 1659 015e 4359424C 		.ascii	"CYBLE_EVT_L2CAP_CONN_PARAM_UPDATE_REQ\000"
 1659      455F4556 
 1659      545F4C32 
 1659      4341505F 
 1659      434F4E4E 
 1660              	.LASF32:
 1661 0184 4359424C 		.ascii	"CYBLE_EVT_GAP_ENCRYPT_CHANGE\000"
 1661      455F4556 
 1661      545F4741 
 1661      505F454E 
 1661      43525950 
 1662              	.LASF36:
 1663 01a1 4359424C 		.ascii	"CYBLE_EVT_GAP_NUMERIC_COMPARISON_REQUEST\000"
 1663      455F4556 
 1663      545F4741 
 1663      505F4E55 
 1663      4D455249 
 1664              	.LASF93:
 1665 01ca 626C6541 		.ascii	"bleAddr\000"
 1665      64647200 
 1666              	.LASF6:
 1667 01d2 6C6F6E67 		.ascii	"long long int\000"
 1667      206C6F6E 
 1667      6720696E 
 1667      7400
 1668              	.LASF0:
 1669 01e0 7369676E 		.ascii	"signed char\000"
 1669      65642063 
 1669      68617200 
 1670              	.LASF17:
ARM GAS  C:\Users\run1009\AppData\Local\Temp\ccPyTLFl.s 			page 34


 1671 01ec 4359424C 		.ascii	"CYBLE_EVT_STACK_ON\000"
 1671      455F4556 
 1671      545F5354 
 1671      41434B5F 
 1671      4F4E00
 1672              	.LASF120:
 1673 01ff 47657453 		.ascii	"GetSensorData\000"
 1673      656E736F 
 1673      72446174 
 1673      6100
 1674              	.LASF34:
 1675 020d 4359424C 		.ascii	"CYBLE_EVT_GAPC_SCAN_START_STOP\000"
 1675      455F4556 
 1675      545F4741 
 1675      50435F53 
 1675      43414E5F 
 1676              	.LASF24:
 1677 022c 4359424C 		.ascii	"CYBLE_EVT_GAP_AUTH_REQ\000"
 1677      455F4556 
 1677      545F4741 
 1677      505F4155 
 1677      54485F52 
 1678              	.LASF56:
 1679 0243 4359424C 		.ascii	"CYBLE_EVT_GATTC_READ_RSP\000"
 1679      455F4556 
 1679      545F4741 
 1679      5454435F 
 1679      52454144 
 1680              	.LASF61:
 1681 025c 4359424C 		.ascii	"CYBLE_EVT_GATTS_WRITE_CMD_REQ\000"
 1681      455F4556 
 1681      545F4741 
 1681      5454535F 
 1681      57524954 
 1682              	.LASF118:
 1683 027a 433A5C55 		.ascii	"C:\\Users\\run1009\\Documents\\Mesh_Flood_DIR_Senso"
 1683      73657273 
 1683      5C72756E 
 1683      31303039 
 1683      5C446F63 
 1684 02a9 725C4D65 		.ascii	"r\\Mesh_Flood_DIR_Sensor.cydsn\000"
 1684      73685F46 
 1684      6C6F6F64 
 1684      5F444952 
 1684      5F53656E 
 1685              	.LASF29:
 1686 02c7 4359424C 		.ascii	"CYBLE_EVT_GAPP_ADVERTISEMENT_START_STOP\000"
 1686      455F4556 
 1686      545F4741 
 1686      50505F41 
 1686      44564552 
 1687              	.LASF50:
 1688 02ef 4359424C 		.ascii	"CYBLE_EVT_GATTS_XCNHG_MTU_REQ\000"
 1688      455F4556 
 1688      545F4741 
 1688      5454535F 
 1688      58434E48 
ARM GAS  C:\Users\run1009\AppData\Local\Temp\ccPyTLFl.s 			page 35


 1689              	.LASF9:
 1690 030d 75696E74 		.ascii	"uint8\000"
 1690      3800
 1691              	.LASF105:
 1692 0313 454E565F 		.ascii	"ENV_SENSOR_T\000"
 1692      53454E53 
 1692      4F525F54 
 1692      00
 1693              	.LASF64:
 1694 0320 4359424C 		.ascii	"CYBLE_EVT_GATTC_EXEC_WRITE_RSP\000"
 1694      455F4556 
 1694      545F4741 
 1694      5454435F 
 1694      45584543 
 1695              	.LASF12:
 1696 033f 646F7562 		.ascii	"double\000"
 1696      6C6500
 1697              	.LASF91:
 1698 0346 4359424C 		.ascii	"CYBLE_SRVI_CUSTOMS_END\000"
 1698      455F5352 
 1698      56495F43 
 1698      5553544F 
 1698      4D535F45 
 1699              	.LASF87:
 1700 035d 4359424C 		.ascii	"CYBLE_EVT_MAX\000"
 1700      455F4556 
 1700      545F4D41 
 1700      5800
 1701              	.LASF82:
 1702 036b 4359424C 		.ascii	"CYBLE_EVT_L2CAP_CBFC_DATA_WRITE_IND\000"
 1702      455F4556 
 1702      545F4C32 
 1702      4341505F 
 1702      43424643 
 1703              	.LASF100:
 1704 038f 68656174 		.ascii	"heat\000"
 1704      00
 1705              	.LASF44:
 1706 0394 4359424C 		.ascii	"CYBLE_EVT_GAP_SCAN_REQ_RECVD\000"
 1706      455F4556 
 1706      545F4741 
 1706      505F5343 
 1706      414E5F52 
 1707              	.LASF95:
 1708 03b1 74656D70 		.ascii	"temp\000"
 1708      00
 1709              	.LASF69:
 1710 03b6 4359424C 		.ascii	"CYBLE_EVT_GATTC_STOP_CMD_COMPLETE\000"
 1710      455F4556 
 1710      545F4741 
 1710      5454435F 
 1710      53544F50 
 1711              	.LASF8:
 1712 03d8 756E7369 		.ascii	"unsigned int\000"
 1712      676E6564 
 1712      20696E74 
 1712      00
ARM GAS  C:\Users\run1009\AppData\Local\Temp\ccPyTLFl.s 			page 36


 1713              	.LASF84:
 1714 03e5 4359424C 		.ascii	"CYBLE_EVT_LE_PING_AUTH_TIMEOUT\000"
 1714      455F4556 
 1714      545F4C45 
 1714      5F50494E 
 1714      475F4155 
 1715              	.LASF5:
 1716 0404 6C6F6E67 		.ascii	"long unsigned int\000"
 1716      20756E73 
 1716      69676E65 
 1716      6420696E 
 1716      7400
 1717              	.LASF43:
 1718 0416 4359424C 		.ascii	"CYBLE_EVT_GAP_CONN_ESTB\000"
 1718      455F4556 
 1718      545F4741 
 1718      505F434F 
 1718      4E4E5F45 
 1719              	.LASF117:
 1720 042e 656E7673 		.ascii	"envsensor_process.c\000"
 1720      656E736F 
 1720      725F7072 
 1720      6F636573 
 1720      732E6300 
 1721              	.LASF59:
 1722 0442 4359424C 		.ascii	"CYBLE_EVT_GATTS_WRITE_REQ\000"
 1722      455F4556 
 1722      545F4741 
 1722      5454535F 
 1722      57524954 
 1723              	.LASF51:
 1724 045c 4359424C 		.ascii	"CYBLE_EVT_GATTC_XCHNG_MTU_RSP\000"
 1724      455F4556 
 1724      545F4741 
 1724      5454435F 
 1724      5843484E 
 1725              	.LASF68:
 1726 047a 4359424C 		.ascii	"CYBLE_EVT_GATTS_DATA_SIGNED_CMD_REQ\000"
 1726      455F4556 
 1726      545F4741 
 1726      5454535F 
 1726      44415441 
 1727              	.LASF115:
 1728 049e 7573686F 		.ascii	"ushort_val\000"
 1728      72745F76 
 1728      616C00
 1729              	.LASF71:
 1730 04a9 4359424C 		.ascii	"CYBLE_EVT_GATTC_LONG_PROCEDURE_END\000"
 1730      455F4556 
 1730      545F4741 
 1730      5454435F 
 1730      4C4F4E47 
 1731              	.LASF106:
 1732 04cc 64617461 		.ascii	"data\000"
 1732      00
 1733              	.LASF101:
 1734 04d1 62617474 		.ascii	"battery\000"
ARM GAS  C:\Users\run1009\AppData\Local\Temp\ccPyTLFl.s 			page 37


 1734      65727900 
 1735              	.LASF3:
 1736 04d9 73686F72 		.ascii	"short unsigned int\000"
 1736      7420756E 
 1736      7369676E 
 1736      65642069 
 1736      6E7400
 1737              	.LASF16:
 1738 04ec 4359424C 		.ascii	"CYBLE_EVT_HOST_INVALID\000"
 1738      455F4556 
 1738      545F484F 
 1738      53545F49 
 1738      4E56414C 
 1739              	.LASF54:
 1740 0503 4359424C 		.ascii	"CYBLE_EVT_GATTC_FIND_INFO_RSP\000"
 1740      455F4556 
 1740      545F4741 
 1740      5454435F 
 1740      46494E44 
 1741              	.LASF22:
 1742 0521 4359424C 		.ascii	"CYBLE_EVT_MEMORY_REQUEST\000"
 1742      455F4556 
 1742      545F4D45 
 1742      4D4F5259 
 1742      5F524551 
 1743              	.LASF10:
 1744 053a 696E7438 		.ascii	"int8\000"
 1744      00
 1745              	.LASF121:
 1746 053f 73656E73 		.ascii	"sensor\000"
 1746      6F7200
 1747              	.LASF25:
 1748 0546 4359424C 		.ascii	"CYBLE_EVT_GAP_PASSKEY_ENTRY_REQUEST\000"
 1748      455F4556 
 1748      545F4741 
 1748      505F5041 
 1748      53534B45 
 1749              	.LASF30:
 1750 056a 4359424C 		.ascii	"CYBLE_EVT_GAP_DEVICE_CONNECTED\000"
 1750      455F4556 
 1750      545F4741 
 1750      505F4445 
 1750      56494345 
 1751              	.LASF96:
 1752 0589 68756D69 		.ascii	"humi\000"
 1752      00
 1753              	.LASF45:
 1754 058e 4359424C 		.ascii	"CYBLE_EVT_GAP_AUTH_REQ_REPLY_ERR\000"
 1754      455F4556 
 1754      545F4741 
 1754      505F4155 
 1754      54485F52 
 1755              	.LASF116:
 1756 05af 474E5520 		.ascii	"GNU C11 5.4.1 20160609 (release) [ARM/embedded-5-br"
 1756      43313120 
 1756      352E342E 
 1756      31203230 
ARM GAS  C:\Users\run1009\AppData\Local\Temp\ccPyTLFl.s 			page 38


 1756      31363036 
 1757 05e2 616E6368 		.ascii	"anch revision 237715] -mcpu=cortex-m0 -mthumb -g -O"
 1757      20726576 
 1757      6973696F 
 1757      6E203233 
 1757      37373135 
 1758 0615 30202D66 		.ascii	"0 -ffunction-sections -ffat-lto-objects\000"
 1758      66756E63 
 1758      74696F6E 
 1758      2D736563 
 1758      74696F6E 
 1759              	.LASF48:
 1760 063d 4359424C 		.ascii	"CYBLE_EVT_GATT_CONNECT_IND\000"
 1760      455F4556 
 1760      545F4741 
 1760      54545F43 
 1760      4F4E4E45 
 1761              	.LASF74:
 1762 0658 4359424C 		.ascii	"CYBLE_EVT_L2CAP_COMMAND_REJ\000"
 1762      455F4556 
 1762      545F4C32 
 1762      4341505F 
 1762      434F4D4D 
 1763              	.LASF23:
 1764 0674 4359424C 		.ascii	"CYBLE_EVT_GAPC_SCAN_PROGRESS_RESULT\000"
 1764      455F4556 
 1764      545F4741 
 1764      50435F53 
 1764      43414E5F 
 1765              	.LASF46:
 1766 0698 4359424C 		.ascii	"CYBLE_EVT_GAP_SMP_LOC_P256_KEYS_GEN_AND_SET_COMPLET"
 1766      455F4556 
 1766      545F4741 
 1766      505F534D 
 1766      505F4C4F 
 1767 06cb 4500     		.ascii	"E\000"
 1768              	.LASF75:
 1769 06cd 4359424C 		.ascii	"CYBLE_EVT_L2CAP_CBFC_CONN_IND\000"
 1769      455F4556 
 1769      545F4C32 
 1769      4341505F 
 1769      43424643 
 1770              	.LASF53:
 1771 06eb 4359424C 		.ascii	"CYBLE_EVT_GATTC_READ_BY_TYPE_RSP\000"
 1771      455F4556 
 1771      545F4741 
 1771      5454435F 
 1771      52454144 
 1772              	.LASF107:
 1773 070c 52535349 		.ascii	"RSSI\000"
 1773      00
 1774              	.LASF28:
 1775 0711 4359424C 		.ascii	"CYBLE_EVT_GAP_AUTH_FAILED\000"
 1775      455F4556 
 1775      545F4741 
 1775      505F4155 
 1775      54485F46 
ARM GAS  C:\Users\run1009\AppData\Local\Temp\ccPyTLFl.s 			page 39


 1776              	.LASF60:
 1777 072b 4359424C 		.ascii	"CYBLE_EVT_GATTC_WRITE_RSP\000"
 1777      455F4556 
 1777      545F4741 
 1777      5454435F 
 1777      57524954 
 1778              	.LASF41:
 1779 0745 4359424C 		.ascii	"CYBLE_EVT_GAPC_DIRECT_ADV_REPORT\000"
 1779      455F4556 
 1779      545F4741 
 1779      50435F44 
 1779      49524543 
 1780              	.LASF39:
 1781 0766 4359424C 		.ascii	"CYBLE_EVT_GAP_DATA_LENGTH_CHANGE\000"
 1781      455F4556 
 1781      545F4741 
 1781      505F4441 
 1781      54415F4C 
 1782              	.LASF27:
 1783 0787 4359424C 		.ascii	"CYBLE_EVT_GAP_AUTH_COMPLETE\000"
 1783      455F4556 
 1783      545F4741 
 1783      505F4155 
 1783      54485F43 
 1784              	.LASF65:
 1785 07a3 4359424C 		.ascii	"CYBLE_EVT_GATTC_HANDLE_VALUE_NTF\000"
 1785      455F4556 
 1785      545F4741 
 1785      5454435F 
 1785      48414E44 
 1786              	.LASF90:
 1787 07c4 4359424C 		.ascii	"CYBLE_SRVI_CUSTOMS\000"
 1787      455F5352 
 1787      56495F43 
 1787      5553544F 
 1787      4D5300
 1788              	.LASF98:
 1789 07d7 70726573 		.ascii	"pressure\000"
 1789      73757265 
 1789      00
 1790              	.LASF76:
 1791 07e0 4359424C 		.ascii	"CYBLE_EVT_L2CAP_CBFC_CONN_CNF\000"
 1791      455F4556 
 1791      545F4C32 
 1791      4341505F 
 1791      43424643 
 1792              	.LASF110:
 1793 07fe 52657475 		.ascii	"ReturnAccuracy\000"
 1793      726E4163 
 1793      63757261 
 1793      637900
 1794              	.LASF52:
 1795 080d 4359424C 		.ascii	"CYBLE_EVT_GATTC_READ_BY_GROUP_TYPE_RSP\000"
 1795      455F4556 
 1795      545F4741 
 1795      5454435F 
 1795      52454144 
ARM GAS  C:\Users\run1009\AppData\Local\Temp\ccPyTLFl.s 			page 40


 1796              	.LASF11:
 1797 0834 666C6F61 		.ascii	"float\000"
 1797      7400
 1798              	.LASF1:
 1799 083a 756E7369 		.ascii	"unsigned char\000"
 1799      676E6564 
 1799      20636861 
 1799      7200
 1800              	.LASF37:
 1801 0848 4359424C 		.ascii	"CYBLE_EVT_GAP_KEYPRESS_NOTIFICATION\000"
 1801      455F4556 
 1801      545F4741 
 1801      505F4B45 
 1801      59505245 
 1802              	.LASF112:
 1803 086c 73686F72 		.ascii	"short_val\000"
 1803      745F7661 
 1803      6C00
 1804              	.LASF2:
 1805 0876 73686F72 		.ascii	"short int\000"
 1805      7420696E 
 1805      7400
 1806              	.LASF66:
 1807 0880 4359424C 		.ascii	"CYBLE_EVT_GATTC_HANDLE_VALUE_IND\000"
 1807      455F4556 
 1807      545F4741 
 1807      5454435F 
 1807      48414E44 
 1808              	.LASF85:
 1809 08a1 4359424C 		.ascii	"CYBLE_EVT_HCI_PKT\000"
 1809      455F4556 
 1809      545F4843 
 1809      495F504B 
 1809      5400
 1810              	.LASF62:
 1811 08b3 4359424C 		.ascii	"CYBLE_EVT_GATTS_PREP_WRITE_REQ\000"
 1811      455F4556 
 1811      545F4741 
 1811      5454535F 
 1811      50524550 
 1812              	.LASF92:
 1813 08d2 4359424C 		.ascii	"CYBLE_SRVI_COUNT\000"
 1813      455F5352 
 1813      56495F43 
 1813      4F554E54 
 1813      00
 1814              	.LASF99:
 1815 08e3 6E6F6973 		.ascii	"noise\000"
 1815      6500
 1816              	.LASF67:
 1817 08e9 4359424C 		.ascii	"CYBLE_EVT_GATTS_HANDLE_VALUE_CNF\000"
 1817      455F4556 
 1817      545F4741 
 1817      5454535F 
 1817      48414E44 
 1818              	.LASF47:
 1819 090a 4359424C 		.ascii	"CYBLE_EVT_GATTC_ERROR_RSP\000"
ARM GAS  C:\Users\run1009\AppData\Local\Temp\ccPyTLFl.s 			page 41


 1819      455F4556 
 1819      545F4741 
 1819      5454435F 
 1819      4552524F 
 1820              	.LASF42:
 1821 0924 4359424C 		.ascii	"CYBLE_EVT_GAP_SMP_NEGOTIATED_AUTH_INFO\000"
 1821      455F4556 
 1821      545F4741 
 1821      505F534D 
 1821      505F4E45 
 1822              	.LASF111:
 1823 094b 42797465 		.ascii	"Byte2Short\000"
 1823      3253686F 
 1823      727400
 1824              	.LASF88:
 1825 0956 4359424C 		.ascii	"CYBLE_SRVI_GAP\000"
 1825      455F5352 
 1825      56495F47 
 1825      415000
 1826              	.LASF14:
 1827 0965 6C6F6E67 		.ascii	"long double\000"
 1827      20646F75 
 1827      626C6500 
 1828              	.LASF13:
 1829 0971 63686172 		.ascii	"char\000"
 1829      00
 1830              	.LASF58:
 1831 0976 4359424C 		.ascii	"CYBLE_EVT_GATTC_READ_MULTI_RSP\000"
 1831      455F4556 
 1831      545F4741 
 1831      5454435F 
 1831      52454144 
 1832              	.LASF31:
 1833 0995 4359424C 		.ascii	"CYBLE_EVT_GAP_DEVICE_DISCONNECTED\000"
 1833      455F4556 
 1833      545F4741 
 1833      505F4445 
 1833      56494345 
 1834              	.LASF114:
 1835 09b7 42797465 		.ascii	"Byte2UShort\000"
 1835      32555368 
 1835      6F727400 
 1836              	.LASF89:
 1837 09c3 4359424C 		.ascii	"CYBLE_SRVI_GATT\000"
 1837      455F5352 
 1837      56495F47 
 1837      41545400 
 1838              	.LASF70:
 1839 09d3 4359424C 		.ascii	"CYBLE_EVT_GATTS_READ_CHAR_VAL_ACCESS_REQ\000"
 1839      455F4556 
 1839      545F4741 
 1839      5454535F 
 1839      52454144 
 1840              	.LASF80:
 1841 09fc 4359424C 		.ascii	"CYBLE_EVT_L2CAP_CBFC_RX_CREDIT_IND\000"
 1841      455F4556 
 1841      545F4C32 
ARM GAS  C:\Users\run1009\AppData\Local\Temp\ccPyTLFl.s 			page 42


 1841      4341505F 
 1841      43424643 
 1842              	.LASF108:
 1843 0a1f 72617469 		.ascii	"ratio\000"
 1843      6F00
 1844              	.LASF81:
 1845 0a25 4359424C 		.ascii	"CYBLE_EVT_L2CAP_CBFC_TX_CREDIT_IND\000"
 1845      455F4556 
 1845      545F4C32 
 1845      4341505F 
 1845      43424643 
 1846              	.LASF103:
 1847 0a48 64697374 		.ascii	"distance\000"
 1847      616E6365 
 1847      00
 1848              	.LASF119:
 1849 0a51 456E7653 		.ascii	"EnvSensorProcess\000"
 1849      656E736F 
 1849      7250726F 
 1849      63657373 
 1849      00
 1850              	.LASF26:
 1851 0a62 4359424C 		.ascii	"CYBLE_EVT_GAP_PASSKEY_DISPLAY_REQUEST\000"
 1851      455F4556 
 1851      545F4741 
 1851      505F5041 
 1851      53534B45 
 1852              	.LASF19:
 1853 0a88 4359424C 		.ascii	"CYBLE_EVT_HARDWARE_ERROR\000"
 1853      455F4556 
 1853      545F4841 
 1853      52445741 
 1853      52455F45 
 1854              	.LASF104:
 1855 0aa1 666C6167 		.ascii	"flagActive\000"
 1855      41637469 
 1855      766500
 1856              	.LASF94:
 1857 0aac 7365714E 		.ascii	"seqNum\000"
 1857      756D00
 1858              	.LASF15:
 1859 0ab3 73697A65 		.ascii	"sizetype\000"
 1859      74797065 
 1859      00
 1860              	.LASF55:
 1861 0abc 4359424C 		.ascii	"CYBLE_EVT_GATTC_FIND_BY_TYPE_VALUE_RSP\000"
 1861      455F4556 
 1861      545F4741 
 1861      5454435F 
 1861      46494E44 
 1862              	.LASF35:
 1863 0ae3 4359424C 		.ascii	"CYBLE_EVT_GAP_KEYINFO_EXCHNGE_CMPLT\000"
 1863      455F4556 
 1863      545F4741 
 1863      505F4B45 
 1863      59494E46 
 1864              	.LASF77:
ARM GAS  C:\Users\run1009\AppData\Local\Temp\ccPyTLFl.s 			page 43


 1865 0b07 4359424C 		.ascii	"CYBLE_EVT_L2CAP_CBFC_DISCONN_IND\000"
 1865      455F4556 
 1865      545F4C32 
 1865      4341505F 
 1865      43424643 
 1866              	.LASF102:
 1867 0b28 72737369 		.ascii	"rssi\000"
 1867      00
 1868              	.LASF73:
 1869 0b2d 4359424C 		.ascii	"CYBLE_EVT_L2CAP_CONN_PARAM_UPDATE_RSP\000"
 1869      455F4556 
 1869      545F4C32 
 1869      4341505F 
 1869      434F4E4E 
 1870              	.LASF40:
 1871 0b53 4359424C 		.ascii	"CYBLE_EVT_GAP_ENHANCE_CONN_COMPLETE\000"
 1871      455F4556 
 1871      545F4741 
 1871      505F454E 
 1871      48414E43 
 1872              	.LASF109:
 1873 0b77 61636375 		.ascii	"accuracy\000"
 1873      72616379 
 1873      00
 1874              	.LASF49:
 1875 0b80 4359424C 		.ascii	"CYBLE_EVT_GATT_DISCONNECT_IND\000"
 1875      455F4556 
 1875      545F4741 
 1875      54545F44 
 1875      4953434F 
 1876              	.LASF86:
 1877 0b9e 4359424C 		.ascii	"CYBLE_EVT_FLASH_CORRUPT\000"
 1877      455F4556 
 1877      545F464C 
 1877      4153485F 
 1877      434F5252 
 1878              		.ident	"GCC: (GNU Tools for ARM Embedded Processors) 5.4.1 20160609 (release) [ARM/embedded-5-bran
