ARM GAS  C:\Users\run1009\AppData\Local\Temp\cce6BleD.s 			page 1


   1              		.syntax unified
   2              		.cpu cortex-m0
   3              		.fpu softvfp
   4              		.eabi_attribute 20, 1
   5              		.eabi_attribute 21, 1
   6              		.eabi_attribute 23, 3
   7              		.eabi_attribute 24, 1
   8              		.eabi_attribute 25, 1
   9              		.eabi_attribute 26, 1
  10              		.eabi_attribute 30, 6
  11              		.eabi_attribute 34, 0
  12              		.eabi_attribute 18, 4
  13              		.thumb
  14              		.syntax unified
  15              		.file	"envsensor_process.c"
  16              		.text
  17              	.Ltext0:
  18              		.cfi_sections	.debug_frame
  19              		.comm	sensor,68,4
  20              		.global	__aeabi_i2d
  21              		.global	__aeabi_ddiv
  22              		.global	__aeabi_d2f
  23              		.section	.text.EnvSensorProcess,"ax",%progbits
  24              		.align	2
  25              		.global	EnvSensorProcess
  26              		.code	16
  27              		.thumb_func
  28              		.type	EnvSensorProcess, %function
  29              	EnvSensorProcess:
  30              	.LFB36:
  31              		.file 1 "envsensor_process.c"
   1:envsensor_process.c **** /* ========================================
   2:envsensor_process.c ****  *
   3:envsensor_process.c ****  * Copyright Sopicha S., 2018
   4:envsensor_process.c ****  * All Rights Reserved
   5:envsensor_process.c ****  * UNPUBLISHED, LICENSED SOFTWARE.
   6:envsensor_process.c ****  *
   7:envsensor_process.c ****  * CONFIDENTIAL AND PROPRIETARY INFORMATION
   8:envsensor_process.c ****  * WHICH IS THE PROPERTY OF your company.
   9:envsensor_process.c ****  *
  10:envsensor_process.c ****  * ========================================
  11:envsensor_process.c **** */
  12:envsensor_process.c **** 
  13:envsensor_process.c **** /* [] END OF FILE */
  14:envsensor_process.c **** 
  15:envsensor_process.c **** #include <main.h>
  16:envsensor_process.c **** ENV_SENSOR_T sensor;
  17:envsensor_process.c **** #define BEACON_MEASURED_POWER  -59  //BEACON Measured power (RSSI at 1m distance)
  18:envsensor_process.c **** /*******************************************************************************
  19:envsensor_process.c **** * Function Name: EnvSensorProcess
  20:envsensor_process.c **** ********************************************************************************
  21:envsensor_process.c **** * Summary:
  22:envsensor_process.c **** *        Get Omron sensor data from BLE, then interpret a paylaod as enironment
  23:envsensor_process.c **** * sensor data 
  24:envsensor_process.c **** * For this project, we get only temperature data from Omron sensor and transfer  
  25:envsensor_process.c **** * temperature data from its node to the mesh network
  26:envsensor_process.c **** *
ARM GAS  C:\Users\run1009\AppData\Local\Temp\cce6BleD.s 			page 2


  27:envsensor_process.c **** * Parameters:
  28:envsensor_process.c **** *  uint8* data (Length: 31)
  29:envsensor_process.c **** *
  30:envsensor_process.c **** * Return:
  31:envsensor_process.c **** *  void
  32:envsensor_process.c **** *
  33:envsensor_process.c **** *******************************************************************************/
  34:envsensor_process.c **** void EnvSensorProcess(int8 rssi ,uint8* data){       
  32              		.loc 1 34 0
  33              		.cfi_startproc
  34              		@ args = 0, pretend = 0, frame = 8
  35              		@ frame_needed = 1, uses_anonymous_args = 0
  36 0000 90B5     		push	{r4, r7, lr}
  37              		.cfi_def_cfa_offset 12
  38              		.cfi_offset 4, -12
  39              		.cfi_offset 7, -8
  40              		.cfi_offset 14, -4
  41 0002 83B0     		sub	sp, sp, #12
  42              		.cfi_def_cfa_offset 24
  43 0004 00AF     		add	r7, sp, #0
  44              		.cfi_def_cfa_register 7
  45 0006 0200     		movs	r2, r0
  46 0008 3960     		str	r1, [r7]
  47 000a FB1D     		adds	r3, r7, #7
  48 000c 1A70     		strb	r2, [r3]
  35:envsensor_process.c ****      sensor.seqNum = data[7];
  49              		.loc 1 35 0
  50 000e 3B68     		ldr	r3, [r7]
  51 0010 DA79     		ldrb	r2, [r3, #7]
  52 0012 124B     		ldr	r3, .L2
  53 0014 1A71     		strb	r2, [r3, #4]
  36:envsensor_process.c ****      sensor.temp = Byte2Short(data[9],data[8])/100.0;
  54              		.loc 1 36 0
  55 0016 3B68     		ldr	r3, [r7]
  56 0018 0933     		adds	r3, r3, #9
  57 001a 1A78     		ldrb	r2, [r3]
  58 001c 3B68     		ldr	r3, [r7]
  59 001e 0833     		adds	r3, r3, #8
  60 0020 1B78     		ldrb	r3, [r3]
  61 0022 1900     		movs	r1, r3
  62 0024 1000     		movs	r0, r2
  63 0026 FFF7FEFF 		bl	Byte2Short
  64 002a 0300     		movs	r3, r0
  65 002c 1800     		movs	r0, r3
  66 002e FFF7FEFF 		bl	__aeabi_i2d
  67 0032 0022     		movs	r2, #0
  68 0034 0A4B     		ldr	r3, .L2+4
  69 0036 FFF7FEFF 		bl	__aeabi_ddiv
  70 003a 0300     		movs	r3, r0
  71 003c 0C00     		movs	r4, r1
  72 003e 1800     		movs	r0, r3
  73 0040 2100     		movs	r1, r4
  74 0042 FFF7FEFF 		bl	__aeabi_d2f
  75 0046 021C     		adds	r2, r0, #0
  76 0048 044B     		ldr	r3, .L2
  77 004a 9A60     		str	r2, [r3, #8]
  37:envsensor_process.c ****      /*
ARM GAS  C:\Users\run1009\AppData\Local\Temp\cce6BleD.s 			page 3


  38:envsensor_process.c ****      sensor.humi = Byte2UShort(data[10],data[11])/100.0;
  39:envsensor_process.c ****      sensor.light = Byte2UShort(data[13],data[12]);
  40:envsensor_process.c ****      sensor.uv = Byte2UShort(data[15],data[14])/100.0;
  41:envsensor_process.c ****      sensor.pressure = Byte2UShort(data[17],data[16])/10.0;
  42:envsensor_process.c ****      sensor.noise = Byte2UShort(data[19],data[18])/100.0;
  43:envsensor_process.c ****      sensor.battery = (data[26]+100)* 10.0;
  44:envsensor_process.c ****      sensor.ax = 0.0;
  45:envsensor_process.c ****      sensor.ay = 0.0;
  46:envsensor_process.c ****      sensor.az = 0.0;
  47:envsensor_process.c ****      sensor.di = Byte2Short(data[21],data[20])/100.0;
  48:envsensor_process.c ****      sensor.heat = Byte2Short(data[23],data[22])/100.0;
  49:envsensor_process.c ****      sensor.rssi = rssi;
  50:envsensor_process.c ****      sensor.distance = ReturnAccuracy(sensor.rssi); */
  51:envsensor_process.c ****      sensor.flagActive = TRUE;
  78              		.loc 1 51 0
  79 004c 034B     		ldr	r3, .L2
  80 004e 4022     		movs	r2, #64
  81 0050 0121     		movs	r1, #1
  82 0052 9954     		strb	r1, [r3, r2]
  52:envsensor_process.c **** }
  83              		.loc 1 52 0
  84 0054 C046     		nop
  85 0056 BD46     		mov	sp, r7
  86 0058 03B0     		add	sp, sp, #12
  87              		@ sp needed
  88 005a 90BD     		pop	{r4, r7, pc}
  89              	.L3:
  90              		.align	2
  91              	.L2:
  92 005c 00000000 		.word	sensor
  93 0060 00005940 		.word	1079574528
  94              		.cfi_endproc
  95              	.LFE36:
  96              		.size	EnvSensorProcess, .-EnvSensorProcess
  97              		.global	__aeabi_fcmplt
  98              		.global	__aeabi_f2d
  99              		.global	__aeabi_dmul
 100              		.global	__aeabi_dadd
 101              		.section	.text.ReturnAccuracy,"ax",%progbits
 102              		.align	2
 103              		.global	ReturnAccuracy
 104              		.code	16
 105              		.thumb_func
 106              		.type	ReturnAccuracy, %function
 107              	ReturnAccuracy:
 108              	.LFB37:
  53:envsensor_process.c **** /*******************************************************************************
  54:envsensor_process.c **** * Function Name: ReturnAccuracy
  55:envsensor_process.c **** ********************************************************************************
  56:envsensor_process.c **** * Summary:
  57:envsensor_process.c **** *        This function will calculate the distance between CypressBoard and 
  58:envsensor_process.c **** * Omron sensor with rssi and BLE measured power
  59:envsensor_process.c **** *
  60:envsensor_process.c **** * Parameters:
  61:envsensor_process.c **** *  void
  62:envsensor_process.c **** *
  63:envsensor_process.c **** * Return:
ARM GAS  C:\Users\run1009\AppData\Local\Temp\cce6BleD.s 			page 4


  64:envsensor_process.c **** *  short
  65:envsensor_process.c **** *
  66:envsensor_process.c **** *******************************************************************************/
  67:envsensor_process.c **** float ReturnAccuracy(int8 rssi){
 109              		.loc 1 67 0
 110              		.cfi_startproc
 111              		@ args = 0, pretend = 0, frame = 24
 112              		@ frame_needed = 1, uses_anonymous_args = 0
 113 0000 90B5     		push	{r4, r7, lr}
 114              		.cfi_def_cfa_offset 12
 115              		.cfi_offset 4, -12
 116              		.cfi_offset 7, -8
 117              		.cfi_offset 14, -4
 118 0002 87B0     		sub	sp, sp, #28
 119              		.cfi_def_cfa_offset 40
 120 0004 00AF     		add	r7, sp, #0
 121              		.cfi_def_cfa_register 7
 122 0006 0200     		movs	r2, r0
 123 0008 FB1D     		adds	r3, r7, #7
 124 000a 1A70     		strb	r2, [r3]
  68:envsensor_process.c ****         int8 RSSI = abs(rssi);
 125              		.loc 1 68 0
 126 000c FB1D     		adds	r3, r7, #7
 127 000e 1B78     		ldrb	r3, [r3]
 128 0010 5BB2     		sxtb	r3, r3
 129 0012 D917     		asrs	r1, r3, #31
 130 0014 5A18     		adds	r2, r3, r1
 131 0016 4A40     		eors	r2, r1
 132 0018 1723     		movs	r3, #23
 133 001a FB18     		adds	r3, r7, r3
 134 001c 1A70     		strb	r2, [r3]
  69:envsensor_process.c ****         if (RSSI == 0)
 135              		.loc 1 69 0
 136 001e 1723     		movs	r3, #23
 137 0020 FB18     		adds	r3, r7, r3
 138 0022 1B78     		ldrb	r3, [r3]
 139 0024 5BB2     		sxtb	r3, r3
 140 0026 002B     		cmp	r3, #0
 141 0028 01D1     		bne	.L5
  70:envsensor_process.c ****             return -1;
 142              		.loc 1 70 0
 143 002a 274B     		ldr	r3, .L11
 144 002c 48E0     		b	.L6
 145              	.L5:
  71:envsensor_process.c ****         if (BEACON_MEASURED_POWER == 0)
  72:envsensor_process.c ****             return -1;
  73:envsensor_process.c **** 
  74:envsensor_process.c ****         float ratio = RSSI * 1.0 / abs(BEACON_MEASURED_POWER);
 146              		.loc 1 74 0
 147 002e 1723     		movs	r3, #23
 148 0030 FB18     		adds	r3, r7, r3
 149 0032 1B78     		ldrb	r3, [r3]
 150 0034 5BB2     		sxtb	r3, r3
 151 0036 1800     		movs	r0, r3
 152 0038 FFF7FEFF 		bl	__aeabi_i2d
 153 003c 0022     		movs	r2, #0
 154 003e 234B     		ldr	r3, .L11+4
ARM GAS  C:\Users\run1009\AppData\Local\Temp\cce6BleD.s 			page 5


 155 0040 FFF7FEFF 		bl	__aeabi_ddiv
 156 0044 0300     		movs	r3, r0
 157 0046 0C00     		movs	r4, r1
 158 0048 1800     		movs	r0, r3
 159 004a 2100     		movs	r1, r4
 160 004c FFF7FEFF 		bl	__aeabi_d2f
 161 0050 031C     		adds	r3, r0, #0
 162 0052 3B61     		str	r3, [r7, #16]
  75:envsensor_process.c ****         if (ratio < 1.0)
 163              		.loc 1 75 0
 164 0054 FE21     		movs	r1, #254
 165 0056 8905     		lsls	r1, r1, #22
 166 0058 3869     		ldr	r0, [r7, #16]
 167 005a FFF7FEFF 		bl	__aeabi_fcmplt
 168 005e 031E     		subs	r3, r0, #0
 169 0060 10D0     		beq	.L10
  76:envsensor_process.c ****             return pow(ratio, 8.0);
 170              		.loc 1 76 0
 171 0062 3869     		ldr	r0, [r7, #16]
 172 0064 FFF7FEFF 		bl	__aeabi_f2d
 173 0068 0023     		movs	r3, #0
 174 006a 194C     		ldr	r4, .L11+8
 175 006c 1A00     		movs	r2, r3
 176 006e 2300     		movs	r3, r4
 177 0070 FFF7FEFF 		bl	pow
 178 0074 0300     		movs	r3, r0
 179 0076 0C00     		movs	r4, r1
 180 0078 1800     		movs	r0, r3
 181 007a 2100     		movs	r1, r4
 182 007c FFF7FEFF 		bl	__aeabi_d2f
 183 0080 031C     		adds	r3, r0, #0
 184 0082 1DE0     		b	.L6
 185              	.L10:
  77:envsensor_process.c ****         float accuracy = 0.69976 * pow(ratio, 7.7095) + 0.111;
 186              		.loc 1 77 0
 187 0084 3869     		ldr	r0, [r7, #16]
 188 0086 FFF7FEFF 		bl	__aeabi_f2d
 189 008a 124B     		ldr	r3, .L11+12
 190 008c 124C     		ldr	r4, .L11+16
 191 008e 1A00     		movs	r2, r3
 192 0090 2300     		movs	r3, r4
 193 0092 FFF7FEFF 		bl	pow
 194 0096 114A     		ldr	r2, .L11+20
 195 0098 114B     		ldr	r3, .L11+24
 196 009a FFF7FEFF 		bl	__aeabi_dmul
 197 009e 0300     		movs	r3, r0
 198 00a0 0C00     		movs	r4, r1
 199 00a2 1800     		movs	r0, r3
 200 00a4 2100     		movs	r1, r4
 201 00a6 0F4A     		ldr	r2, .L11+28
 202 00a8 0F4B     		ldr	r3, .L11+32
 203 00aa FFF7FEFF 		bl	__aeabi_dadd
 204 00ae 0300     		movs	r3, r0
 205 00b0 0C00     		movs	r4, r1
 206 00b2 1800     		movs	r0, r3
 207 00b4 2100     		movs	r1, r4
 208 00b6 FFF7FEFF 		bl	__aeabi_d2f
ARM GAS  C:\Users\run1009\AppData\Local\Temp\cce6BleD.s 			page 6


 209 00ba 031C     		adds	r3, r0, #0
 210 00bc FB60     		str	r3, [r7, #12]
  78:envsensor_process.c ****         // accuracy = 0.89976 * pow(ratio, 7.7095) + 0.111
  79:envsensor_process.c **** 
  80:envsensor_process.c ****         return accuracy;
 211              		.loc 1 80 0
 212 00be FB68     		ldr	r3, [r7, #12]
 213              	.L6:
  81:envsensor_process.c **** }
 214              		.loc 1 81 0
 215 00c0 181C     		adds	r0, r3, #0
 216 00c2 BD46     		mov	sp, r7
 217 00c4 07B0     		add	sp, sp, #28
 218              		@ sp needed
 219 00c6 90BD     		pop	{r4, r7, pc}
 220              	.L12:
 221              		.align	2
 222              	.L11:
 223 00c8 000080BF 		.word	-1082130432
 224 00cc 00804D40 		.word	1078820864
 225 00d0 00002040 		.word	1075838976
 226 00d4 4A0C022B 		.word	721554506
 227 00d8 87D61E40 		.word	1075762823
 228 00dc 15916115 		.word	358715669
 229 00e0 6F64E63F 		.word	1072063599
 230 00e4 D122DBF9 		.word	-103079215
 231 00e8 7E6ABC3F 		.word	1069312638
 232              		.cfi_endproc
 233              	.LFE37:
 234              		.size	ReturnAccuracy, .-ReturnAccuracy
 235              		.section	.text.GetSensorData,"ax",%progbits
 236              		.align	2
 237              		.global	GetSensorData
 238              		.code	16
 239              		.thumb_func
 240              		.type	GetSensorData, %function
 241              	GetSensorData:
 242              	.LFB38:
  82:envsensor_process.c **** /*******************************************************************************
  83:envsensor_process.c **** * Function Name: GetTemperature
  84:envsensor_process.c **** ********************************************************************************
  85:envsensor_process.c **** * Summary:
  86:envsensor_process.c **** *        When this function is called, it will transfer the temperature data that
  87:envsensor_process.c **** * get from the Omron environment sensor
  88:envsensor_process.c **** *
  89:envsensor_process.c **** * Parameters:
  90:envsensor_process.c **** *  void
  91:envsensor_process.c **** *
  92:envsensor_process.c **** * Return:
  93:envsensor_process.c **** *  short
  94:envsensor_process.c **** *
  95:envsensor_process.c **** *******************************************************************************/
  96:envsensor_process.c **** ENV_SENSOR_T GetSensorData(){
 243              		.loc 1 96 0
 244              		.cfi_startproc
 245              		@ args = 0, pretend = 0, frame = 8
 246              		@ frame_needed = 1, uses_anonymous_args = 0
ARM GAS  C:\Users\run1009\AppData\Local\Temp\cce6BleD.s 			page 7


 247 0000 80B5     		push	{r7, lr}
 248              		.cfi_def_cfa_offset 8
 249              		.cfi_offset 7, -8
 250              		.cfi_offset 14, -4
 251 0002 82B0     		sub	sp, sp, #8
 252              		.cfi_def_cfa_offset 16
 253 0004 00AF     		add	r7, sp, #0
 254              		.cfi_def_cfa_register 7
 255 0006 7860     		str	r0, [r7, #4]
  97:envsensor_process.c ****     return sensor;
 256              		.loc 1 97 0
 257 0008 7A68     		ldr	r2, [r7, #4]
 258 000a 054B     		ldr	r3, .L15
 259 000c 1000     		movs	r0, r2
 260 000e 1900     		movs	r1, r3
 261 0010 4423     		movs	r3, #68
 262 0012 1A00     		movs	r2, r3
 263 0014 FFF7FEFF 		bl	memcpy
  98:envsensor_process.c **** }
 264              		.loc 1 98 0
 265 0018 7868     		ldr	r0, [r7, #4]
 266 001a BD46     		mov	sp, r7
 267 001c 02B0     		add	sp, sp, #8
 268              		@ sp needed
 269 001e 80BD     		pop	{r7, pc}
 270              	.L16:
 271              		.align	2
 272              	.L15:
 273 0020 00000000 		.word	sensor
 274              		.cfi_endproc
 275              	.LFE38:
 276              		.size	GetSensorData, .-GetSensorData
 277              		.section	.text.Byte2Short,"ax",%progbits
 278              		.align	2
 279              		.global	Byte2Short
 280              		.code	16
 281              		.thumb_func
 282              		.type	Byte2Short, %function
 283              	Byte2Short:
 284              	.LFB39:
  99:envsensor_process.c **** /*******************************************************************************
 100:envsensor_process.c **** * Function Name: Byte2Short
 101:envsensor_process.c **** ********************************************************************************
 102:envsensor_process.c **** * Summary:
 103:envsensor_process.c **** *        This function converts byte data to short data and return it
 104:envsensor_process.c **** *
 105:envsensor_process.c **** * Parameters:
 106:envsensor_process.c **** *  uint8 high paylaod and uint8 low payload
 107:envsensor_process.c **** *
 108:envsensor_process.c **** * Return:
 109:envsensor_process.c **** *  short
 110:envsensor_process.c **** *
 111:envsensor_process.c **** *******************************************************************************/
 112:envsensor_process.c **** short Byte2Short(uint8 hi, uint8 lo){
 285              		.loc 1 112 0
 286              		.cfi_startproc
 287              		@ args = 0, pretend = 0, frame = 16
ARM GAS  C:\Users\run1009\AppData\Local\Temp\cce6BleD.s 			page 8


 288              		@ frame_needed = 1, uses_anonymous_args = 0
 289 0000 80B5     		push	{r7, lr}
 290              		.cfi_def_cfa_offset 8
 291              		.cfi_offset 7, -8
 292              		.cfi_offset 14, -4
 293 0002 84B0     		sub	sp, sp, #16
 294              		.cfi_def_cfa_offset 24
 295 0004 00AF     		add	r7, sp, #0
 296              		.cfi_def_cfa_register 7
 297 0006 0200     		movs	r2, r0
 298 0008 FB1D     		adds	r3, r7, #7
 299 000a 1A70     		strb	r2, [r3]
 300 000c BB1D     		adds	r3, r7, #6
 301 000e 0A1C     		adds	r2, r1, #0
 302 0010 1A70     		strb	r2, [r3]
 113:envsensor_process.c ****     short short_val;
 114:envsensor_process.c ****     short val = (hi << 8) | lo;
 303              		.loc 1 114 0
 304 0012 FB1D     		adds	r3, r7, #7
 305 0014 1B78     		ldrb	r3, [r3]
 306 0016 1B02     		lsls	r3, r3, #8
 307 0018 19B2     		sxth	r1, r3
 308 001a BB1D     		adds	r3, r7, #6
 309 001c 1B78     		ldrb	r3, [r3]
 310 001e 1AB2     		sxth	r2, r3
 311 0020 0C23     		movs	r3, #12
 312 0022 FB18     		adds	r3, r7, r3
 313 0024 0A43     		orrs	r2, r1
 314 0026 1A80     		strh	r2, [r3]
 115:envsensor_process.c ****     if ((hi & 0b10000000) == 0b10000000){
 315              		.loc 1 115 0
 316 0028 FB1D     		adds	r3, r7, #7
 317 002a 1B78     		ldrb	r3, [r3]
 318 002c 5BB2     		sxtb	r3, r3
 319 002e 002B     		cmp	r3, #0
 320 0030 17DA     		bge	.L18
 321              	.LBB2:
 116:envsensor_process.c ****        short val_inv = val ^ 0b1111111111111111;
 322              		.loc 1 116 0
 323 0032 0A23     		movs	r3, #10
 324 0034 FB18     		adds	r3, r7, r3
 325 0036 0C22     		movs	r2, #12
 326 0038 BA18     		adds	r2, r7, r2
 327 003a 1288     		ldrh	r2, [r2]
 328 003c D243     		mvns	r2, r2
 329 003e 1A80     		strh	r2, [r3]
 117:envsensor_process.c ****         val_inv = val_inv + 1;
 330              		.loc 1 117 0
 331 0040 0A23     		movs	r3, #10
 332 0042 FB18     		adds	r3, r7, r3
 333 0044 1B88     		ldrh	r3, [r3]
 334 0046 0133     		adds	r3, r3, #1
 335 0048 9AB2     		uxth	r2, r3
 336 004a 0A23     		movs	r3, #10
 337 004c FB18     		adds	r3, r7, r3
 338 004e 1A80     		strh	r2, [r3]
 118:envsensor_process.c ****         short_val = val_inv * (-1);
ARM GAS  C:\Users\run1009\AppData\Local\Temp\cce6BleD.s 			page 9


 339              		.loc 1 118 0
 340 0050 0A23     		movs	r3, #10
 341 0052 FB18     		adds	r3, r7, r3
 342 0054 1B88     		ldrh	r3, [r3]
 343 0056 5B42     		rsbs	r3, r3, #0
 344 0058 9AB2     		uxth	r2, r3
 345 005a 0E23     		movs	r3, #14
 346 005c FB18     		adds	r3, r7, r3
 347 005e 1A80     		strh	r2, [r3]
 348              	.LBE2:
 349 0060 05E0     		b	.L19
 350              	.L18:
 119:envsensor_process.c ****     }
 120:envsensor_process.c ****     else{
 121:envsensor_process.c ****         short_val = val;
 351              		.loc 1 121 0
 352 0062 0E23     		movs	r3, #14
 353 0064 FB18     		adds	r3, r7, r3
 354 0066 0C22     		movs	r2, #12
 355 0068 BA18     		adds	r2, r7, r2
 356 006a 1288     		ldrh	r2, [r2]
 357 006c 1A80     		strh	r2, [r3]
 358              	.L19:
 122:envsensor_process.c ****     }
 123:envsensor_process.c ****     return short_val;
 359              		.loc 1 123 0
 360 006e 0E23     		movs	r3, #14
 361 0070 FB18     		adds	r3, r7, r3
 362 0072 0022     		movs	r2, #0
 363 0074 9B5E     		ldrsh	r3, [r3, r2]
 124:envsensor_process.c **** }
 364              		.loc 1 124 0
 365 0076 1800     		movs	r0, r3
 366 0078 BD46     		mov	sp, r7
 367 007a 04B0     		add	sp, sp, #16
 368              		@ sp needed
 369 007c 80BD     		pop	{r7, pc}
 370              		.cfi_endproc
 371              	.LFE39:
 372              		.size	Byte2Short, .-Byte2Short
 373 007e C046     		.section	.text.Byte2UShort,"ax",%progbits
 374              		.align	2
 375              		.global	Byte2UShort
 376              		.code	16
 377              		.thumb_func
 378              		.type	Byte2UShort, %function
 379              	Byte2UShort:
 380              	.LFB40:
 125:envsensor_process.c **** /*******************************************************************************
 126:envsensor_process.c **** * Function Name: Byte2UShort
 127:envsensor_process.c **** ********************************************************************************
 128:envsensor_process.c **** * Summary:
 129:envsensor_process.c **** *        This function converts byte data to unsigned short data and return it
 130:envsensor_process.c **** *
 131:envsensor_process.c **** * Parameters:
 132:envsensor_process.c **** *  uint8 high paylaod and uint8 low payload
 133:envsensor_process.c **** *
ARM GAS  C:\Users\run1009\AppData\Local\Temp\cce6BleD.s 			page 10


 134:envsensor_process.c **** * Return:
 135:envsensor_process.c **** *  unsigned short
 136:envsensor_process.c **** *
 137:envsensor_process.c **** *******************************************************************************/
 138:envsensor_process.c **** unsigned short Byte2UShort(uint8 hi, uint8 lo){
 381              		.loc 1 138 0
 382              		.cfi_startproc
 383              		@ args = 0, pretend = 0, frame = 16
 384              		@ frame_needed = 1, uses_anonymous_args = 0
 385 0000 80B5     		push	{r7, lr}
 386              		.cfi_def_cfa_offset 8
 387              		.cfi_offset 7, -8
 388              		.cfi_offset 14, -4
 389 0002 84B0     		sub	sp, sp, #16
 390              		.cfi_def_cfa_offset 24
 391 0004 00AF     		add	r7, sp, #0
 392              		.cfi_def_cfa_register 7
 393 0006 0200     		movs	r2, r0
 394 0008 FB1D     		adds	r3, r7, #7
 395 000a 1A70     		strb	r2, [r3]
 396 000c BB1D     		adds	r3, r7, #6
 397 000e 0A1C     		adds	r2, r1, #0
 398 0010 1A70     		strb	r2, [r3]
 139:envsensor_process.c ****     unsigned short ushort_val  = (hi << 8) | lo;
 399              		.loc 1 139 0
 400 0012 FB1D     		adds	r3, r7, #7
 401 0014 1B78     		ldrb	r3, [r3]
 402 0016 1B02     		lsls	r3, r3, #8
 403 0018 1AB2     		sxth	r2, r3
 404 001a BB1D     		adds	r3, r7, #6
 405 001c 1B78     		ldrb	r3, [r3]
 406 001e 1BB2     		sxth	r3, r3
 407 0020 1343     		orrs	r3, r2
 408 0022 1AB2     		sxth	r2, r3
 409 0024 0E23     		movs	r3, #14
 410 0026 FB18     		adds	r3, r7, r3
 411 0028 1A80     		strh	r2, [r3]
 140:envsensor_process.c ****     return ushort_val ;
 412              		.loc 1 140 0
 413 002a 0E23     		movs	r3, #14
 414 002c FB18     		adds	r3, r7, r3
 415 002e 1B88     		ldrh	r3, [r3]
 141:envsensor_process.c **** }
 416              		.loc 1 141 0
 417 0030 1800     		movs	r0, r3
 418 0032 BD46     		mov	sp, r7
 419 0034 04B0     		add	sp, sp, #16
 420              		@ sp needed
 421 0036 80BD     		pop	{r7, pc}
 422              		.cfi_endproc
 423              	.LFE40:
 424              		.size	Byte2UShort, .-Byte2UShort
 425              		.text
 426              	.Letext0:
 427              		.file 2 "Generated_Source\\PSoC4/cytypes.h"
 428              		.file 3 "Generated_Source\\PSoC4/BLE_Stack.h"
 429              		.file 4 "Generated_Source\\PSoC4/BLE_eventHandler.h"
ARM GAS  C:\Users\run1009\AppData\Local\Temp\cce6BleD.s 			page 11


 430              		.file 5 "./envsensor_process.h"