ARM GAS  C:\Users\run1009\AppData\Local\Temp\cck0WVUf.s 			page 1


   1              		.syntax unified
   2              		.cpu cortex-m0
   3              		.fpu softvfp
   4              		.eabi_attribute 20, 1
   5              		.eabi_attribute 21, 1
   6              		.eabi_attribute 23, 3
   7              		.eabi_attribute 24, 1
   8              		.eabi_attribute 25, 1
   9              		.eabi_attribute 26, 1
  10              		.eabi_attribute 30, 6
  11              		.eabi_attribute 34, 0
  12              		.eabi_attribute 18, 4
  13              		.thumb
  14              		.syntax unified
  15              		.file	"main.c"
  16              		.text
  17              	.Ltext0:
  18              		.cfi_sections	.debug_frame
  19              		.global	stackRestartIssued
  20              		.bss
  21              		.type	stackRestartIssued, %object
  22              		.size	stackRestartIssued, 1
  23              	stackRestartIssued:
  24 0000 00       		.space	1
  25              		.section	.rodata
  26              		.align	2
  27              	.LC1:
  28 0000 20202020 		.ascii	"     \\//\\//\\//\\// Restart BLE Stack \\//\\//\\/"
  28      205C2F2F 
  28      5C2F2F5C 
  28      2F2F5C2F 
  28      2F205265 
  29 002c 2F5C2F2F 		.ascii	"/\\// \000"
  29      2000
  30              		.section	.text.main,"ax",%progbits
  31              		.align	2
  32              		.global	main
  33              		.code	16
  34              		.thumb_func
  35              		.type	main, %function
  36              	main:
  37              	.LFB36:
  38              		.file 1 "main.c"
   1:main.c        **** /******************************************************************************
   2:main.c        **** * Project Name		: Mesh_Flood_DIR_Sensor
   3:main.c        **** * File Name			: main.c
   4:main.c        **** * Version 			: 1.0
   5:main.c        **** * Device Used		: CY8C4247LQI-BL483
   6:main.c        **** * Software Used		: PSoC Creator 3.3
   7:main.c        **** * Compiler    		: ARM GCC 4.8.4, ARM MDK Generic
   8:main.c        **** * Related Hardware	: CY8CKIT-042-BLE Bluetooth Low Energy Pioneer Kit 
   9:main.c        **** * Owner             : roit@cypress.com
  10:main.c        **** *
  11:main.c        **** ********************************************************************************
  12:main.c        **** * Copyright (2014-15), Cypress Semiconductor Corporation. All Rights Reserved.
  13:main.c        **** ********************************************************************************
  14:main.c        **** * This software is owned by Cypress Semiconductor Corporation (Cypress)
ARM GAS  C:\Users\run1009\AppData\Local\Temp\cck0WVUf.s 			page 2


  15:main.c        **** * and is protected by and subject to worldwide patent protection (United
  16:main.c        **** * States and foreign), United States copyright laws and international treaty
  17:main.c        **** * provisions. Cypress hereby grants to licensee a personal, non-exclusive,
  18:main.c        **** * non-transferable license to copy, use, modify, create derivative works of,
  19:main.c        **** * and compile the Cypress Source Code and derivative works for the sole
  20:main.c        **** * purpose of creating custom software in support of licensee product to be
  21:main.c        **** * used only in conjunction with a Cypress integrated circuit as specified in
  22:main.c        **** * the applicable agreement. Any reproduction, modification, translation,
  23:main.c        **** * compilation, or representation of this software except as specified above 
  24:main.c        **** * is prohibited without the express written permission of Cypress.
  25:main.c        **** *
  26:main.c        **** * Disclaimer: CYPRESS MAKES NO WARRANTY OF ANY KIND, EXPRESS OR IMPLIED, WITH 
  27:main.c        **** * REGARD TO THIS MATERIAL, INCLUDING, BUT NOT LIMITED TO, THE IMPLIED 
  28:main.c        **** * WARRANTIES OF MERCHANTABILITY AND FITNESS FOR A PARTICULAR PURPOSE.
  29:main.c        **** * Cypress reserves the right to make changes without further notice to the 
  30:main.c        **** * materials described herein. Cypress does not assume any liability arising out 
  31:main.c        **** * of the application or use of any product or circuit described herein. Cypress 
  32:main.c        **** * does not authorize its products for use as critical components in life-support 
  33:main.c        **** * systems where a malfunction or failure may reasonably be expected to result in 
  34:main.c        **** * significant injury to the user. The inclusion of Cypress' product in a life-
  35:main.c        **** * support systems application implies that the manufacturer assumes all risk of 
  36:main.c        **** * such use and in doing so indemnifies Cypress against all charges. 
  37:main.c        **** *
  38:main.c        **** * Use of this Software may be limited by and subject to the applicable Cypress
  39:main.c        **** * software license agreement. 
  40:main.c        **** *******************************************************************************/
  41:main.c        **** #include <main.h>
  42:main.c        **** 
  43:main.c        **** extern uint8 switch_Role;
  44:main.c        **** extern uint8 ble_gap_state;
  45:main.c        **** extern uint8 deviceConnected;
  46:main.c        **** 
  47:main.c        **** extern uint8 restartScanning;
  48:main.c        **** 
  49:main.c        **** extern uint8 dataADVCounter;
  50:main.c        **** 
  51:main.c        **** #ifdef ENABLE_ADV_DATA_COUNTER
  52:main.c        **** extern CYBLE_GAPP_DISC_DATA_T  new_advData;
  53:main.c        **** extern uint8 potential_node_found;
  54:main.c        **** extern uint8 potential_node_bdAddr[6];
  55:main.c        **** extern uint8 potential_node_bdAddrType;
  56:main.c        **** #endif
  57:main.c        **** 
  58:main.c        **** extern volatile uint8 clientConnectToDevice;
  59:main.c        **** extern CYBLE_GAP_BD_ADDR_T				peripAddr;
  60:main.c        **** extern uint8 shut_down_led;
  61:main.c        **** extern uint16 node_address;
  62:main.c        **** 
  63:main.c        **** CY_ISR_PROTO(Button_ISR);
  64:main.c        **** 
  65:main.c        **** #ifdef RESTART_BLE_STACK
  66:main.c        **** uint8 stackRestartIssued = FALSE;
  67:main.c        **** #endif
  68:main.c        **** /*******************************************************************************
  69:main.c        **** * Function Name: main
  70:main.c        **** ********************************************************************************
  71:main.c        **** * Summary:
ARM GAS  C:\Users\run1009\AppData\Local\Temp\cck0WVUf.s 			page 3


  72:main.c        **** *       Entry point for the firmware, Starts the system and continuously processes
  73:main.c        **** * Application and BLE events.
  74:main.c        **** *
  75:main.c        **** * Parameters:
  76:main.c        **** *  void
  77:main.c        **** *
  78:main.c        **** * Return:
  79:main.c        **** *  int
  80:main.c        **** *
  81:main.c        **** *******************************************************************************/
  82:main.c        **** int main()
  83:main.c        **** {
  39              		.loc 1 83 0
  40              		.cfi_startproc
  41              		@ args = 0, pretend = 0, frame = 8
  42              		@ frame_needed = 1, uses_anonymous_args = 0
  43 0000 80B5     		push	{r7, lr}
  44              		.cfi_def_cfa_offset 8
  45              		.cfi_offset 7, -8
  46              		.cfi_offset 14, -4
  47 0002 82B0     		sub	sp, sp, #8
  48              		.cfi_def_cfa_offset 16
  49 0004 00AF     		add	r7, sp, #0
  50              		.cfi_def_cfa_register 7
  84:main.c        **** 	#ifdef RESTART_BLE_STACK
  85:main.c        **** 		uint16	hwRegConnected;	
  86:main.c        **** 	#endif
  87:main.c        **** 	
  88:main.c        **** 	/* Initialize system */	
  89:main.c        **** InitializeSystem();
  51              		.loc 1 89 0
  52 0006 FFF7FEFF 		bl	InitializeSystem
  53              	.L3:
  90:main.c        **** 	
  91:main.c        ****     for(;;)
  92:main.c        ****     {
  93:main.c        **** 		/* Process BLE Events. This function generates the respective 
  94:main.c        **** 		* events to application layer */
  95:main.c        **** 		CyBle_ProcessEvents();
  54              		.loc 1 95 0
  55 000a FFF7FEFF 		bl	CyBle_ProcessEvents
  96:main.c        **** 		
  97:main.c        **** 		/* If flag is set, then switch the GAP role between Peripheral and 
  98:main.c        **** 		* Central. This function disconnects existing connection, if any, 
  99:main.c        **** 		* before switching role. Depending on switched role, the system will
 100:main.c        **** 		* either start scanning or start advertisement */
 101:main.c        **** 		SwitchRole();
  56              		.loc 1 101 0
  57 000e FFF7FEFF 		bl	SwitchRole
 102:main.c        ****         
 103:main.c        **** 		/* If a valid node is found, then this function will initiate a connection 
 104:main.c        **** 		* to that node. */
 105:main.c        **** 		ConnectToPeripheralDevice();
  58              		.loc 1 105 0
  59 0012 FFF7FEFF 		bl	ConnectToPeripheralDevice
 106:main.c        **** 		
 107:main.c        **** 		/* This function will restart scanning when earlier connection has been
ARM GAS  C:\Users\run1009\AppData\Local\Temp\cck0WVUf.s 			page 4


 108:main.c        **** 		* disconnected. This function also checks internal counter and sets flag to
 109:main.c        **** 		* switch role from Central to Peripheral when the count is above set value. */
 110:main.c        **** 		RestartCentralScanning();
  60              		.loc 1 110 0
  61 0016 FFF7FEFF 		bl	RestartCentralScanning
 111:main.c        **** 		
 112:main.c        **** 		#ifdef SENSOR_DATA_ROUTING
 113:main.c        **** 		/* Application API to collect the new sensor data and send it over to all nodes
 114:main.c        **** 		* using mesh network. CUrrently, the sensor data is the new RGB data selected on 
 115:main.c        **** 		* each button press. The content in the API can be changed to collect and data 
 116:main.c        **** 		* and forward it to the mesh network. */
 117:main.c        **** 		CheckSensorStatus();
  62              		.loc 1 117 0
  63 001a FFF7FEFF 		bl	CheckSensorStatus
 118:main.c        **** 		#endif
 119:main.c        **** 		
 120:main.c        **** 		#ifdef RESTART_BLE_STACK
 121:main.c        **** 			/* Check the LL Config Status resgister for hardware connection and compare 
 122:main.c        **** 			* it with BLE state. If they mismatch, then assume the stack disconnection issue 
 123:main.c        **** 			* and restart the stack */
 124:main.c        **** 			CyBLE_Bless_LlRegRead((uint32*)CYREG_BLE_BLELL_CE_CNFG_STS_REGISTER,&hwRegConnected); 
  64              		.loc 1 124 0
  65 001e BB1D     		adds	r3, r7, #6
  66 0020 124A     		ldr	r2, .L4
  67 0022 1900     		movs	r1, r3
  68 0024 1000     		movs	r0, r2
  69 0026 FFF7FEFF 		bl	CyBLE_Bless_LlRegRead
 125:main.c        ****  
 126:main.c        **** 	        if((CyBle_GetState()==CYBLE_STATE_CONNECTED) && (!(0x400 & hwRegConnected))) 
  70              		.loc 1 126 0
  71 002a 114B     		ldr	r3, .L4+4
  72 002c 1B78     		ldrb	r3, [r3]
  73 002e 022B     		cmp	r3, #2
  74 0030 EBD1     		bne	.L3
  75              		.loc 1 126 0 is_stmt 0 discriminator 1
  76 0032 BB1D     		adds	r3, r7, #6
  77 0034 1A88     		ldrh	r2, [r3]
  78 0036 8023     		movs	r3, #128
  79 0038 DB00     		lsls	r3, r3, #3
  80 003a 1340     		ands	r3, r2
  81 003c 9BB2     		uxth	r3, r3
  82 003e 002B     		cmp	r3, #0
  83 0040 E3D1     		bne	.L3
 127:main.c        **** 	        { 
 128:main.c        **** 	            /* Restart BLE STACK */ 
 129:main.c        **** 				#if (DEBUG_ENABLED == 1)
 130:main.c        **** 					UART_UartPutString("     \\//\\//\\//\\// Restart BLE Stack \\//\\//\\//\\// ");
  84              		.loc 1 130 0 is_stmt 1
  85 0042 0C4B     		ldr	r3, .L4+8
  86 0044 1800     		movs	r0, r3
  87 0046 FFF7FEFF 		bl	UART_UartPutString
 131:main.c        **** 					UART_UartPutCRLF(' ');
  88              		.loc 1 131 0
  89 004a 2020     		movs	r0, #32
  90 004c FFF7FEFF 		bl	UART_UartPutCRLF
 132:main.c        **** 				#endif
 133:main.c        **** 
ARM GAS  C:\Users\run1009\AppData\Local\Temp\cck0WVUf.s 			page 5


 134:main.c        **** 	            CyBle_Stop();
  91              		.loc 1 134 0
  92 0050 FFF7FEFF 		bl	CyBle_Stop
 135:main.c        **** 	            CyBle_Start(GenericEventHandler);
  93              		.loc 1 135 0
  94 0054 084B     		ldr	r3, .L4+12
  95 0056 1800     		movs	r0, r3
  96 0058 FFF7FEFF 		bl	CyBle_Start
 136:main.c        **** 			
 137:main.c        **** 				stackRestartIssued = TRUE;
  97              		.loc 1 137 0
  98 005c 074B     		ldr	r3, .L4+16
  99 005e 0122     		movs	r2, #1
 100 0060 1A70     		strb	r2, [r3]
 138:main.c        **** 				
 139:main.c        **** 				/* Reset the BLE gap state flag */
 140:main.c        **** 				ble_gap_state = BLE_PERIPHERAL;
 101              		.loc 1 140 0
 102 0062 074B     		ldr	r3, .L4+20
 103 0064 0122     		movs	r2, #1
 104 0066 1A70     		strb	r2, [r3]
 141:main.c        **** 	        }
 142:main.c        **** 		#endif
 143:main.c        **** 		
 144:main.c        **** 		#ifdef ENABLE_LOW_POWER_MODE
 145:main.c        **** 		/* This function puts the system to Sleep/Deep Sleep, depending on BLESS 
 146:main.c        **** 		* state */
 147:main.c        **** 		HandleLowPowerMode();
 148:main.c        **** 		#endif
 149:main.c        **** 
 150:main.c        ****     }
 105              		.loc 1 150 0
 106 0068 CFE7     		b	.L3
 107              	.L5:
 108 006a C046     		.align	2
 109              	.L4:
 110 006c 1C112E40 		.word	1076760860
 111 0070 00000000 		.word	cyBle_state
 112 0074 00000000 		.word	.LC1
 113 0078 00000000 		.word	GenericEventHandler
 114 007c 00000000 		.word	stackRestartIssued
 115 0080 00000000 		.word	ble_gap_state
 116              		.cfi_endproc
 117              	.LFE36:
 118              		.size	main, .-main
 119              		.section	.rodata
 120 0032 0000     		.align	2
 121              	.LC13:
 122 0034 2D2D2D2D 		.ascii	"-----------------------------Mesh Directed Flood---"
 122      2D2D2D2D 
 122      2D2D2D2D 
 122      2D2D2D2D 
 122      2D2D2D2D 
 123 0067 2D2D2D2D 		.ascii	"--------------------------------\000"
 123      2D2D2D2D 
 123      2D2D2D2D 
 123      2D2D2D2D 
ARM GAS  C:\Users\run1009\AppData\Local\Temp\cck0WVUf.s 			page 6


 123      2D2D2D2D 
 124              		.section	.text.InitializeSystem,"ax",%progbits
 125              		.align	2
 126              		.global	InitializeSystem
 127              		.code	16
 128              		.thumb_func
 129              		.type	InitializeSystem, %function
 130              	InitializeSystem:
 131              	.LFB37:
 151:main.c        **** }
 152:main.c        **** 
 153:main.c        **** /*******************************************************************************
 154:main.c        **** * Function Name: InitializeSystem
 155:main.c        **** ********************************************************************************
 156:main.c        **** * Summary:
 157:main.c        **** *       Starts the components in the project and registers BLE event handler 
 158:main.c        **** * function. It also modifies the advertisement packet and appends data counter
 159:main.c        **** * at its end.
 160:main.c        **** *
 161:main.c        **** * Parameters:
 162:main.c        **** *  void
 163:main.c        **** *
 164:main.c        **** * Return:
 165:main.c        **** *  void
 166:main.c        **** *
 167:main.c        **** *******************************************************************************/
 168:main.c        **** void InitializeSystem(void)
 169:main.c        **** {
 132              		.loc 1 169 0
 133              		.cfi_startproc
 134              		@ args = 0, pretend = 0, frame = 24
 135              		@ frame_needed = 1, uses_anonymous_args = 0
 136 0000 80B5     		push	{r7, lr}
 137              		.cfi_def_cfa_offset 8
 138              		.cfi_offset 7, -8
 139              		.cfi_offset 14, -4
 140 0002 86B0     		sub	sp, sp, #24
 141              		.cfi_def_cfa_offset 32
 142 0004 00AF     		add	r7, sp, #0
 143              		.cfi_def_cfa_register 7
 170:main.c        **** 	#ifdef STORE_SFLASH_NODE_ADDRESS
 171:main.c        **** 		uint8 *sflashPtr;
 172:main.c        **** 		uint8 readData[2];
 173:main.c        **** 		CYBLE_GATT_HANDLE_VALUE_PAIR_T	handleValPair;	
 174:main.c        **** 	#endif
 175:main.c        **** 
 176:main.c        **** 	/* Enable global interrupts. */
 177:main.c        **** 	CyGlobalIntEnable; 
 144              		.loc 1 177 0
 145              		.syntax divided
 146              	@ 177 "main.c" 1
 147 0006 62B6     		CPSIE   i
 148              	@ 0 "" 2
 178:main.c        **** 	
 179:main.c        **** 	/* Start BLE component and Register the generic Event callback function */
 180:main.c        **** 	CyBle_Start(GenericEventHandler);
 149              		.loc 1 180 0
ARM GAS  C:\Users\run1009\AppData\Local\Temp\cck0WVUf.s 			page 7


 150              		.thumb
 151              		.syntax unified
 152 0008 5A4B     		ldr	r3, .L11
 153 000a 1800     		movs	r0, r3
 154 000c FFF7FEFF 		bl	CyBle_Start
 181:main.c        **** 
 182:main.c        **** 	/* Start the PrISM component and configure drive mode of LED pins to be
 183:main.c        **** 	* initially OFF*/
 184:main.c        **** 	PrISM_1_Start();
 155              		.loc 1 184 0
 156 0010 FFF7FEFF 		bl	PrISM_1_Start
 185:main.c        **** 	PrISM_2_Start();
 157              		.loc 1 185 0
 158 0014 FFF7FEFF 		bl	PrISM_2_Start
 186:main.c        **** 	
 187:main.c        **** 	PrISM_1_WritePulse0(255);
 159              		.loc 1 187 0
 160 0018 FF20     		movs	r0, #255
 161 001a FFF7FEFF 		bl	PrISM_1_WritePulse0
 188:main.c        **** 	PrISM_1_WritePulse1(255);
 162              		.loc 1 188 0
 163 001e FF20     		movs	r0, #255
 164 0020 FFF7FEFF 		bl	PrISM_1_WritePulse1
 189:main.c        **** 	PrISM_2_WritePulse0(255);
 165              		.loc 1 189 0
 166 0024 FF20     		movs	r0, #255
 167 0026 FFF7FEFF 		bl	PrISM_2_WritePulse0
 190:main.c        **** 	
 191:main.c        **** 	RED_SetDriveMode(RED_DM_STRONG);
 168              		.loc 1 191 0
 169 002a 0620     		movs	r0, #6
 170 002c FFF7FEFF 		bl	RED_SetDriveMode
 192:main.c        **** 	GREEN_SetDriveMode(GREEN_DM_STRONG);
 171              		.loc 1 192 0
 172 0030 0620     		movs	r0, #6
 173 0032 FFF7FEFF 		bl	GREEN_SetDriveMode
 193:main.c        **** 	BLUE_SetDriveMode(BLUE_DM_STRONG);
 174              		.loc 1 193 0
 175 0036 0620     		movs	r0, #6
 176 0038 FFF7FEFF 		bl	BLUE_SetDriveMode
 194:main.c        **** 	
 195:main.c        **** 	/* Configure the Watchdog (WDT) timer for 100 millisecond timing */
 196:main.c        **** 	InitializeWatchdog(WATCHDOG_COUNT_VAL);
 177              		.loc 1 196 0
 178 003c 4E4B     		ldr	r3, .L11+4
 179 003e 1800     		movs	r0, r3
 180 0040 FFF7FEFF 		bl	InitializeWatchdog
 197:main.c        **** 	
 198:main.c        **** 	/* Provide a color pusle on RGB LED to indicate startup */
 199:main.c        **** 	PrISM_2_WritePulse0(128);
 181              		.loc 1 199 0
 182 0044 8020     		movs	r0, #128
 183 0046 FFF7FEFF 		bl	PrISM_2_WritePulse0
 200:main.c        **** 	CyDelay(20);
 184              		.loc 1 200 0
 185 004a 1420     		movs	r0, #20
 186 004c FFF7FEFF 		bl	CyDelay
ARM GAS  C:\Users\run1009\AppData\Local\Temp\cck0WVUf.s 			page 8


 201:main.c        **** 	PrISM_2_WritePulse0(255);
 187              		.loc 1 201 0
 188 0050 FF20     		movs	r0, #255
 189 0052 FFF7FEFF 		bl	PrISM_2_WritePulse0
 202:main.c        **** 
 203:main.c        **** 	
 204:main.c        **** 	#ifdef ENABLE_ADV_DATA_COUNTER
 205:main.c        **** 	new_advData = *cyBle_discoveryModeInfo.advData;
 190              		.loc 1 205 0
 191 0056 494B     		ldr	r3, .L11+8
 192 0058 9B68     		ldr	r3, [r3, #8]
 193 005a 494A     		ldr	r2, .L11+12
 194 005c 1000     		movs	r0, r2
 195 005e 1900     		movs	r1, r3
 196 0060 2023     		movs	r3, #32
 197 0062 1A00     		movs	r2, r3
 198 0064 FFF7FEFF 		bl	memcpy
 206:main.c        **** 	
 207:main.c        **** 	if( cyBle_discoveryModeInfo.advData->advDataLen < 29)
 199              		.loc 1 207 0
 200 0068 444B     		ldr	r3, .L11+8
 201 006a 9B68     		ldr	r3, [r3, #8]
 202 006c DB7F     		ldrb	r3, [r3, #31]
 203 006e 1C2B     		cmp	r3, #28
 204 0070 15D8     		bhi	.L7
 208:main.c        **** 	{
 209:main.c        **** 		/* Initialize the DataCounter data in advertisement packet. This is custom data in 
 210:main.c        **** 		* ADV packet and used to track whether the RGB LED data is latest or not */
 211:main.c        **** 		new_advData.advData[cyBle_discoveryModeInfo.advData->advDataLen] = CUSTOM_ADV_DATA_MARKER;	//leng
 205              		.loc 1 211 0
 206 0072 424B     		ldr	r3, .L11+8
 207 0074 9B68     		ldr	r3, [r3, #8]
 208 0076 DB7F     		ldrb	r3, [r3, #31]
 209 0078 1A00     		movs	r2, r3
 210 007a 414B     		ldr	r3, .L11+12
 211 007c 0121     		movs	r1, #1
 212 007e 9954     		strb	r1, [r3, r2]
 212:main.c        **** 		new_advData.advData[cyBle_discoveryModeInfo.advData->advDataLen+1] = dataADVCounter;
 213              		.loc 1 212 0
 214 0080 3E4B     		ldr	r3, .L11+8
 215 0082 9B68     		ldr	r3, [r3, #8]
 216 0084 DB7F     		ldrb	r3, [r3, #31]
 217 0086 0133     		adds	r3, r3, #1
 218 0088 3E4A     		ldr	r2, .L11+16
 219 008a 1178     		ldrb	r1, [r2]
 220 008c 3C4A     		ldr	r2, .L11+12
 221 008e D154     		strb	r1, [r2, r3]
 213:main.c        **** 		new_advData.advDataLen = cyBle_discoveryModeInfo.advData->advDataLen+2;
 222              		.loc 1 213 0
 223 0090 3A4B     		ldr	r3, .L11+8
 224 0092 9B68     		ldr	r3, [r3, #8]
 225 0094 DB7F     		ldrb	r3, [r3, #31]
 226 0096 0233     		adds	r3, r3, #2
 227 0098 DAB2     		uxtb	r2, r3
 228 009a 394B     		ldr	r3, .L11+12
 229 009c DA77     		strb	r2, [r3, #31]
 230              	.L7:
ARM GAS  C:\Users\run1009\AppData\Local\Temp\cck0WVUf.s 			page 9


 214:main.c        **** 	}
 215:main.c        **** 	
 216:main.c        **** 	/* Assign the new ADV data to stack */
 217:main.c        **** 	cyBle_discoveryModeInfo.advData = &new_advData;
 231              		.loc 1 217 0
 232 009e 374B     		ldr	r3, .L11+8
 233 00a0 374A     		ldr	r2, .L11+12
 234 00a2 9A60     		str	r2, [r3, #8]
 218:main.c        **** 	#endif
 219:main.c        **** 	
 220:main.c        **** 	#ifdef STORE_SFLASH_NODE_ADDRESS
 221:main.c        **** 		/* Read the index 0 in row 1 for node address */
 222:main.c        **** 		sflashPtr = (uint8 *)USER_SFLASH_BASE_ADDRESS 
 235              		.loc 1 222 0
 236 00a4 384B     		ldr	r3, .L11+20
 237 00a6 7B61     		str	r3, [r7, #20]
 223:main.c        **** 							+ (NODE_ADDRESS_SFLASH_ROW * USER_SFLASH_ROW_SIZE) 
 224:main.c        **** 							+ SFLASH_NODE_ADDRESS_INDEX; 
 225:main.c        **** 		
 226:main.c        **** 		readData[NODE_ADDRESS_LSB_INDEX] = *sflashPtr++;
 238              		.loc 1 226 0
 239 00a8 7B69     		ldr	r3, [r7, #20]
 240 00aa 5A1C     		adds	r2, r3, #1
 241 00ac 7A61     		str	r2, [r7, #20]
 242 00ae 1A78     		ldrb	r2, [r3]
 243 00b0 1023     		movs	r3, #16
 244 00b2 FB18     		adds	r3, r7, r3
 245 00b4 1A70     		strb	r2, [r3]
 227:main.c        **** 		readData[NODE_ADDRESS_MSB_INDEX] = *sflashPtr;
 246              		.loc 1 227 0
 247 00b6 7B69     		ldr	r3, [r7, #20]
 248 00b8 1A78     		ldrb	r2, [r3]
 249 00ba 1023     		movs	r3, #16
 250 00bc FB18     		adds	r3, r7, r3
 251 00be 5A70     		strb	r2, [r3, #1]
 228:main.c        **** 
 229:main.c        **** 		if(((0xFF != readData[0]) || (0xFF != readData[1]))
 252              		.loc 1 229 0
 253 00c0 1023     		movs	r3, #16
 254 00c2 FB18     		adds	r3, r7, r3
 255 00c4 1B78     		ldrb	r3, [r3]
 256 00c6 FF2B     		cmp	r3, #255
 257 00c8 04D1     		bne	.L8
 258              		.loc 1 229 0 is_stmt 0 discriminator 1
 259 00ca 1023     		movs	r3, #16
 260 00cc FB18     		adds	r3, r7, r3
 261 00ce 5B78     		ldrb	r3, [r3, #1]
 262 00d0 FF2B     		cmp	r3, #255
 263 00d2 39D0     		beq	.L9
 264              	.L8:
 230:main.c        **** 			&& ((0x00 != readData[0]) || (0x00 != readData[1])))
 265              		.loc 1 230 0 is_stmt 1
 266 00d4 1023     		movs	r3, #16
 267 00d6 FB18     		adds	r3, r7, r3
 268 00d8 1B78     		ldrb	r3, [r3]
 269 00da 002B     		cmp	r3, #0
 270 00dc 04D1     		bne	.L10
ARM GAS  C:\Users\run1009\AppData\Local\Temp\cck0WVUf.s 			page 10


 271              		.loc 1 230 0 is_stmt 0 discriminator 1
 272 00de 1023     		movs	r3, #16
 273 00e0 FB18     		adds	r3, r7, r3
 274 00e2 5B78     		ldrb	r3, [r3, #1]
 275 00e4 002B     		cmp	r3, #0
 276 00e6 2FD0     		beq	.L9
 277              	.L10:
 231:main.c        **** 		{
 232:main.c        **** 			/* If the read adress is not equal to 0xFFFF or 0x0000, then it is  
 233:main.c        **** 			* assumed that a valid node address has been already assigned. Rename 
 234:main.c        **** 			* the BLE device to Titan to indicate that the device can be connected
 235:main.c        **** 			* and RGB LED data transffered */
 236:main.c        **** 			node_address = (uint16)(((uint16)readData[NODE_ADDRESS_MSB_INDEX] << 8)
 278              		.loc 1 236 0 is_stmt 1
 279 00e8 1023     		movs	r3, #16
 280 00ea FB18     		adds	r3, r7, r3
 281 00ec 5B78     		ldrb	r3, [r3, #1]
 282 00ee 1B02     		lsls	r3, r3, #8
 283 00f0 1AB2     		sxth	r2, r3
 237:main.c        **** 									| (uint16)readData[NODE_ADDRESS_LSB_INDEX]);
 284              		.loc 1 237 0
 285 00f2 1023     		movs	r3, #16
 286 00f4 FB18     		adds	r3, r7, r3
 287 00f6 1B78     		ldrb	r3, [r3]
 236:main.c        **** 									| (uint16)readData[NODE_ADDRESS_LSB_INDEX]);
 288              		.loc 1 236 0
 289 00f8 1BB2     		sxth	r3, r3
 290 00fa 1343     		orrs	r3, r2
 291 00fc 1BB2     		sxth	r3, r3
 292 00fe 9AB2     		uxth	r2, r3
 293 0100 224B     		ldr	r3, .L11+24
 294 0102 1A80     		strh	r2, [r3]
 238:main.c        **** 			
 239:main.c        **** 			new_advData.advData[ADV_DATA_NAME_START_INDEX] = 'T';
 295              		.loc 1 239 0
 296 0104 1E4B     		ldr	r3, .L11+12
 297 0106 5422     		movs	r2, #84
 298 0108 5A71     		strb	r2, [r3, #5]
 240:main.c        **** 			new_advData.advData[ADV_DATA_NAME_START_INDEX+1] = 'i';
 299              		.loc 1 240 0
 300 010a 1D4B     		ldr	r3, .L11+12
 301 010c 6922     		movs	r2, #105
 302 010e 9A71     		strb	r2, [r3, #6]
 241:main.c        **** 			new_advData.advData[ADV_DATA_NAME_START_INDEX+2] = 't';
 303              		.loc 1 241 0
 304 0110 1B4B     		ldr	r3, .L11+12
 305 0112 7422     		movs	r2, #116
 306 0114 DA71     		strb	r2, [r3, #7]
 242:main.c        **** 			new_advData.advData[ADV_DATA_NAME_START_INDEX+3] = 'a';
 307              		.loc 1 242 0
 308 0116 1A4B     		ldr	r3, .L11+12
 309 0118 6122     		movs	r2, #97
 310 011a 1A72     		strb	r2, [r3, #8]
 243:main.c        **** 			new_advData.advData[ADV_DATA_NAME_START_INDEX+4] = 'n';
 311              		.loc 1 243 0
 312 011c 184B     		ldr	r3, .L11+12
 313 011e 6E22     		movs	r2, #110
ARM GAS  C:\Users\run1009\AppData\Local\Temp\cck0WVUf.s 			page 11


 314 0120 5A72     		strb	r2, [r3, #9]
 244:main.c        **** 			
 245:main.c        **** 			cyBle_discoveryModeInfo.advData = &new_advData;
 315              		.loc 1 245 0
 316 0122 164B     		ldr	r3, .L11+8
 317 0124 164A     		ldr	r2, .L11+12
 318 0126 9A60     		str	r2, [r3, #8]
 246:main.c        **** 			
 247:main.c        **** 			/* Update the GATT DB with the valid node address read from SFLASH */
 248:main.c        **** 			handleValPair.attrHandle = CYBLE_NODE_ADDRESS_CHAR_HANDLE;
 319              		.loc 1 248 0
 320 0128 3B1D     		adds	r3, r7, #4
 321 012a 1522     		movs	r2, #21
 322 012c 1A81     		strh	r2, [r3, #8]
 249:main.c        **** 			handleValPair.value.len = 2;
 323              		.loc 1 249 0
 324 012e 3B1D     		adds	r3, r7, #4
 325 0130 0222     		movs	r2, #2
 326 0132 9A80     		strh	r2, [r3, #4]
 250:main.c        **** 			handleValPair.value.val = readData;
 327              		.loc 1 250 0
 328 0134 3B1D     		adds	r3, r7, #4
 329 0136 1022     		movs	r2, #16
 330 0138 BA18     		adds	r2, r7, r2
 331 013a 1A60     		str	r2, [r3]
 251:main.c        **** 			
 252:main.c        **** 			CyBle_GattsWriteAttributeValue(&handleValPair,0,&cyBle_connHandle,CYBLE_GATT_DB_LOCALLY_INITIATE
 332              		.loc 1 252 0
 333 013c 144A     		ldr	r2, .L11+28
 334 013e 381D     		adds	r0, r7, #4
 335 0140 0023     		movs	r3, #0
 336 0142 0021     		movs	r1, #0
 337 0144 FFF7FEFF 		bl	CyBle_GattsWriteAttributeValue
 338              	.L9:
 253:main.c        **** 		}
 254:main.c        **** 	#endif
 255:main.c        **** 	
 256:main.c        **** 	#ifdef SENSOR_DATA_ROUTING
 257:main.c        **** 	/* Clear pending interrupts and enable ISR to record Button press through Glitch Filter */
 258:main.c        **** 	isr_button_ClearPending();	
 339              		.loc 1 258 0
 340 0148 FFF7FEFF 		bl	isr_button_ClearPending
 259:main.c        **** 	isr_button_StartEx(Button_ISR);
 341              		.loc 1 259 0
 342 014c 114B     		ldr	r3, .L11+32
 343 014e 1800     		movs	r0, r3
 344 0150 FFF7FEFF 		bl	isr_button_StartEx
 260:main.c        **** 	#endif
 261:main.c        **** 
 262:main.c        **** 	#if (DEBUG_ENABLED == 1)
 263:main.c        **** 		UART_Start();
 345              		.loc 1 263 0
 346 0154 FFF7FEFF 		bl	UART_Start
 264:main.c        **** 		UART_UartPutCRLF(' ');
 347              		.loc 1 264 0
 348 0158 2020     		movs	r0, #32
 349 015a FFF7FEFF 		bl	UART_UartPutCRLF
ARM GAS  C:\Users\run1009\AppData\Local\Temp\cck0WVUf.s 			page 12


 265:main.c        **** 		UART_UartPutString("-----------------------------Mesh Directed Flood-----------------------------
 350              		.loc 1 265 0
 351 015e 0E4B     		ldr	r3, .L11+36
 352 0160 1800     		movs	r0, r3
 353 0162 FFF7FEFF 		bl	UART_UartPutString
 266:main.c        **** 		UART_UartPutCRLF(' ');
 354              		.loc 1 266 0
 355 0166 2020     		movs	r0, #32
 356 0168 FFF7FEFF 		bl	UART_UartPutCRLF
 267:main.c        **** 	#endif
 268:main.c        **** }
 357              		.loc 1 268 0
 358 016c C046     		nop
 359 016e BD46     		mov	sp, r7
 360 0170 06B0     		add	sp, sp, #24
 361              		@ sp needed
 362 0172 80BD     		pop	{r7, pc}
 363              	.L12:
 364              		.align	2
 365              	.L11:
 366 0174 00000000 		.word	GenericEventHandler
 367 0178 CC0C0000 		.word	3276
 368 017c 00000000 		.word	cyBle_discoveryModeInfo
 369 0180 00000000 		.word	new_advData
 370 0184 00000000 		.word	dataADVCounter
 371 0188 80F2FF0F 		.word	268432000
 372 018c 00000000 		.word	node_address
 373 0190 00000000 		.word	cyBle_connHandle
 374 0194 00000000 		.word	Button_ISR
 375 0198 34000000 		.word	.LC13
 376              		.cfi_endproc
 377              	.LFE37:
 378              		.size	InitializeSystem, .-InitializeSystem
 379              		.global	__aeabi_idiv
 380              		.section	.rodata
 381              		.align	2
 382              	.LC15:
 383 0088 50724953 		.ascii	"PrISM Updated \000"
 383      4D205570 
 383      64617465 
 383      642000
 384              		.section	.text.UpdateRGBled,"ax",%progbits
 385              		.align	2
 386              		.global	UpdateRGBled
 387              		.code	16
 388              		.thumb_func
 389              		.type	UpdateRGBled, %function
 390              	UpdateRGBled:
 391              	.LFB38:
 269:main.c        **** 
 270:main.c        **** /*******************************************************************************
 271:main.c        **** * Function Name: UpdateRGBled
 272:main.c        **** ********************************************************************************
 273:main.c        **** * Summary:
 274:main.c        **** *        Update the RGB LED color by reconfiguring PrISM component. This function 
 275:main.c        **** * is valid for PSoC 4 BLE parts and not PROC BLE, as PRoC BLE does not have UDBs
 276:main.c        **** * that makes up the PrISM component. To replace this with software PrISM, refer to
ARM GAS  C:\Users\run1009\AppData\Local\Temp\cck0WVUf.s 			page 13


 277:main.c        **** * CY8CKIT-042-BLE Pioneer Kit example project, PRoC_BLE_CapSense_Slider_LED, from
 278:main.c        **** * http://www.cypress.com/CY8CKIT-042-BLE
 279:main.c        **** *
 280:main.c        **** * Parameters:
 281:main.c        **** *  rgb_led_data: array storing the RGB and Intensity vlaue
 282:main.c        **** *  len: length of the array.
 283:main.c        **** *
 284:main.c        **** * Return:
 285:main.c        **** *  void
 286:main.c        **** *
 287:main.c        **** *******************************************************************************/
 288:main.c        **** void UpdateRGBled(uint8 * rgb_led_data, uint8 len)
 289:main.c        **** {
 392              		.loc 1 289 0
 393              		.cfi_startproc
 394              		@ args = 0, pretend = 0, frame = 16
 395              		@ frame_needed = 1, uses_anonymous_args = 0
 396 0000 80B5     		push	{r7, lr}
 397              		.cfi_def_cfa_offset 8
 398              		.cfi_offset 7, -8
 399              		.cfi_offset 14, -4
 400 0002 84B0     		sub	sp, sp, #16
 401              		.cfi_def_cfa_offset 24
 402 0004 00AF     		add	r7, sp, #0
 403              		.cfi_def_cfa_register 7
 404 0006 7860     		str	r0, [r7, #4]
 405 0008 0A00     		movs	r2, r1
 406 000a FB1C     		adds	r3, r7, #3
 407 000c 1A70     		strb	r2, [r3]
 290:main.c        **** 	uint8 calc_red, calc_green, calc_blue;
 291:main.c        **** 	
 292:main.c        **** 	if(len == RGB_PAYLOAD_LEN)
 408              		.loc 1 292 0
 409 000e FB1C     		adds	r3, r7, #3
 410 0010 1B78     		ldrb	r3, [r3]
 411 0012 042B     		cmp	r3, #4
 412 0014 50D1     		bne	.L15
 293:main.c        **** 	{
 294:main.c        **** 		/* If a valid length packet has been sent, calculate the intensity of each of
 295:main.c        **** 		* R, G and B color and update the PrISM module */
 296:main.c        **** 		calc_red = (uint8)(((uint16)rgb_led_data[RGB_RED_INDEX]*rgb_led_data[RGB_INTENSITY_INDEX])/RGB_LE
 413              		.loc 1 296 0
 414 0016 7B68     		ldr	r3, [r7, #4]
 415 0018 1B78     		ldrb	r3, [r3]
 416 001a 1A00     		movs	r2, r3
 417 001c 7B68     		ldr	r3, [r7, #4]
 418 001e 0333     		adds	r3, r3, #3
 419 0020 1B78     		ldrb	r3, [r3]
 420 0022 5343     		muls	r3, r2
 421 0024 FF21     		movs	r1, #255
 422 0026 1800     		movs	r0, r3
 423 0028 FFF7FEFF 		bl	__aeabi_idiv
 424 002c 0300     		movs	r3, r0
 425 002e 1A00     		movs	r2, r3
 426 0030 0F23     		movs	r3, #15
 427 0032 FB18     		adds	r3, r7, r3
 428 0034 1A70     		strb	r2, [r3]
ARM GAS  C:\Users\run1009\AppData\Local\Temp\cck0WVUf.s 			page 14


 297:main.c        **** 		calc_green = (uint8)(((uint16)rgb_led_data[RGB_GREEN_INDEX]*rgb_led_data[RGB_INTENSITY_INDEX])/RG
 429              		.loc 1 297 0
 430 0036 7B68     		ldr	r3, [r7, #4]
 431 0038 0133     		adds	r3, r3, #1
 432 003a 1B78     		ldrb	r3, [r3]
 433 003c 1A00     		movs	r2, r3
 434 003e 7B68     		ldr	r3, [r7, #4]
 435 0040 0333     		adds	r3, r3, #3
 436 0042 1B78     		ldrb	r3, [r3]
 437 0044 5343     		muls	r3, r2
 438 0046 FF21     		movs	r1, #255
 439 0048 1800     		movs	r0, r3
 440 004a FFF7FEFF 		bl	__aeabi_idiv
 441 004e 0300     		movs	r3, r0
 442 0050 1A00     		movs	r2, r3
 443 0052 0E23     		movs	r3, #14
 444 0054 FB18     		adds	r3, r7, r3
 445 0056 1A70     		strb	r2, [r3]
 298:main.c        **** 		calc_blue = (uint8)(((uint16)rgb_led_data[RGB_BLUE_INDEX]*rgb_led_data[RGB_INTENSITY_INDEX])/RGB_
 446              		.loc 1 298 0
 447 0058 7B68     		ldr	r3, [r7, #4]
 448 005a 0233     		adds	r3, r3, #2
 449 005c 1B78     		ldrb	r3, [r3]
 450 005e 1A00     		movs	r2, r3
 451 0060 7B68     		ldr	r3, [r7, #4]
 452 0062 0333     		adds	r3, r3, #3
 453 0064 1B78     		ldrb	r3, [r3]
 454 0066 5343     		muls	r3, r2
 455 0068 FF21     		movs	r1, #255
 456 006a 1800     		movs	r0, r3
 457 006c FFF7FEFF 		bl	__aeabi_idiv
 458 0070 0300     		movs	r3, r0
 459 0072 1A00     		movs	r2, r3
 460 0074 0D23     		movs	r3, #13
 461 0076 FB18     		adds	r3, r7, r3
 462 0078 1A70     		strb	r2, [r3]
 299:main.c        **** 		
 300:main.c        **** 		PrISM_1_WritePulse0(RGB_LED_MAX_VAL - calc_red);
 463              		.loc 1 300 0
 464 007a 0F23     		movs	r3, #15
 465 007c FB18     		adds	r3, r7, r3
 466 007e 1B78     		ldrb	r3, [r3]
 467 0080 DB43     		mvns	r3, r3
 468 0082 DBB2     		uxtb	r3, r3
 469 0084 1800     		movs	r0, r3
 470 0086 FFF7FEFF 		bl	PrISM_1_WritePulse0
 301:main.c        **** 		PrISM_1_WritePulse1(RGB_LED_MAX_VAL - calc_green);
 471              		.loc 1 301 0
 472 008a 0E23     		movs	r3, #14
 473 008c FB18     		adds	r3, r7, r3
 474 008e 1B78     		ldrb	r3, [r3]
 475 0090 DB43     		mvns	r3, r3
 476 0092 DBB2     		uxtb	r3, r3
 477 0094 1800     		movs	r0, r3
 478 0096 FFF7FEFF 		bl	PrISM_1_WritePulse1
 302:main.c        **** 		PrISM_2_WritePulse0(RGB_LED_MAX_VAL - calc_blue);
 479              		.loc 1 302 0
ARM GAS  C:\Users\run1009\AppData\Local\Temp\cck0WVUf.s 			page 15


 480 009a 0D23     		movs	r3, #13
 481 009c FB18     		adds	r3, r7, r3
 482 009e 1B78     		ldrb	r3, [r3]
 483 00a0 DB43     		mvns	r3, r3
 484 00a2 DBB2     		uxtb	r3, r3
 485 00a4 1800     		movs	r0, r3
 486 00a6 FFF7FEFF 		bl	PrISM_2_WritePulse0
 303:main.c        **** 		
 304:main.c        **** 		#ifdef ENABLE_LOW_POWER_MODE
 305:main.c        **** 			/* Depending on whether there is color or not, set the shut_down_led flag
 306:main.c        **** 			* to allow the system to go to deep sleep. Else, reset the flag to 0 to 
 307:main.c        **** 			* allow the system to go to sleep only, as PrISM is active */
 308:main.c        **** 			if((calc_red<RGB_OFF_THRESHOLD) 
 309:main.c        **** 				&& (calc_green<RGB_OFF_THRESHOLD)
 310:main.c        **** 				&& (calc_blue<RGB_OFF_THRESHOLD))
 311:main.c        **** 			{
 312:main.c        **** 				shut_down_led = TRUE;
 313:main.c        **** 			}
 314:main.c        **** 			else
 315:main.c        **** 			{
 316:main.c        **** 				shut_down_led = FALSE;	
 317:main.c        **** 			}
 318:main.c        **** 		#endif
 319:main.c        **** 		
 320:main.c        **** 		#if (DEBUG_ENABLED == 1)
 321:main.c        **** 			UART_UartPutString("PrISM Updated ");
 487              		.loc 1 321 0
 488 00aa 054B     		ldr	r3, .L16
 489 00ac 1800     		movs	r0, r3
 490 00ae FFF7FEFF 		bl	UART_UartPutString
 322:main.c        **** 			UART_UartPutCRLF(' ');
 491              		.loc 1 322 0
 492 00b2 2020     		movs	r0, #32
 493 00b4 FFF7FEFF 		bl	UART_UartPutCRLF
 494              	.L15:
 323:main.c        **** 		#endif
 324:main.c        **** 	}
 325:main.c        **** }
 495              		.loc 1 325 0
 496 00b8 C046     		nop
 497 00ba BD46     		mov	sp, r7
 498 00bc 04B0     		add	sp, sp, #16
 499              		@ sp needed
 500 00be 80BD     		pop	{r7, pc}
 501              	.L17:
 502              		.align	2
 503              	.L16:
 504 00c0 88000000 		.word	.LC15
 505              		.cfi_endproc
 506              	.LFE38:
 507              		.size	UpdateRGBled, .-UpdateRGBled
 508              		.text
 509              	.Letext0:
 510              		.file 2 "Generated_Source\\PSoC4/cytypes.h"
 511              		.file 3 "Generated_Source\\PSoC4/BLE_Stack.h"
 512              		.file 4 "Generated_Source\\PSoC4/BLE_StackGap.h"
 513              		.file 5 "Generated_Source\\PSoC4/BLE_StackGatt.h"
ARM GAS  C:\Users\run1009\AppData\Local\Temp\cck0WVUf.s 			page 16


 514              		.file 6 "Generated_Source\\PSoC4/BLE_eventHandler.h"
 515              		.file 7 "Generated_Source\\PSoC4/BLE.h"