ARM GAS  C:\Users\run1009\AppData\Local\Temp\ccyCEo1d.s 			page 1


   1              		.syntax unified
   2              		.cpu cortex-m0
   3              		.fpu softvfp
   4              		.eabi_attribute 20, 1
   5              		.eabi_attribute 21, 1
   6              		.eabi_attribute 23, 3
   7              		.eabi_attribute 24, 1
   8              		.eabi_attribute 25, 1
   9              		.eabi_attribute 26, 1
  10              		.eabi_attribute 30, 6
  11              		.eabi_attribute 34, 0
  12              		.eabi_attribute 18, 4
  13              		.thumb
  14              		.syntax unified
  15              		.file	"sensor_process.c"
  16              		.text
  17              	.Ltext0:
  18              		.cfi_sections	.debug_frame
  19              		.global	check_pressed
  20              		.bss
  21              		.type	check_pressed, %object
  22              		.size	check_pressed, 1
  23              	check_pressed:
  24 0000 00       		.space	1
  25              		.section	.rodata
  26              		.align	2
  27              	.LC2:
  28 0000 54696D65 		.ascii	"Time to get sensor data:  \000"
  28      20746F20 
  28      67657420 
  28      73656E73 
  28      6F722064 
  29              		.section	.text.CheckSensorStatus,"ax",%progbits
  30              		.align	2
  31              		.global	CheckSensorStatus
  32              		.code	16
  33              		.thumb_func
  34              		.type	CheckSensorStatus, %function
  35              	CheckSensorStatus:
  36              	.LFB36:
  37              		.file 1 "sensor_process.c"
   1:sensor_process.c **** /*******************************************************************************
   2:sensor_process.c **** * File Name: sensor_process.c
   3:sensor_process.c **** *
   4:sensor_process.c **** * Version: 1.0
   5:sensor_process.c **** *
   6:sensor_process.c **** * Description:
   7:sensor_process.c **** * This file contains the definiton for sensor related functions.
   8:sensor_process.c **** *
   9:sensor_process.c **** ********************************************************************************
  10:sensor_process.c **** * Copyright 2015, Cypress Semiconductor Corporation.  All rights reserved.
  11:sensor_process.c **** * You may use this file only in accordance with the license, terms, conditions,
  12:sensor_process.c **** * disclaimers, and limitations in the end user license agreement accompanying
  13:sensor_process.c **** * the software package with which this file was provided.
  14:sensor_process.c **** *******************************************************************************/
  15:sensor_process.c **** /*******************************************************************************
  16:sensor_process.c **** * For this project, the sensor input is the button press and sensor data is
ARM GAS  C:\Users\run1009\AppData\Local\Temp\ccyCEo1d.s 			page 2


  17:sensor_process.c **** * a new RGB LED data to all nodes.
  18:sensor_process.c **** *******************************************************************************/
  19:sensor_process.c **** 
  20:sensor_process.c **** #include <main.h>
  21:sensor_process.c **** extern uint8 ble_gap_state;
  22:sensor_process.c **** extern uint8 RGBData[];
  23:sensor_process.c **** extern uint8 switch_Role;
  24:sensor_process.c **** extern uint8 dataADVCounter;
  25:sensor_process.c **** 
  26:sensor_process.c **** uint8 check_pressed = FALSE;
  27:sensor_process.c **** 
  28:sensor_process.c **** /*******************************************************************************
  29:sensor_process.c **** * Function Name: CheckSensorStatus
  30:sensor_process.c **** ********************************************************************************
  31:sensor_process.c **** * Summary:
  32:sensor_process.c **** *        Scans for new sensor data and initiates BLE data transfer over Mesh, if
  33:sensor_process.c **** * new sensor data found. 
  34:sensor_process.c **** * For this project, the sensor input is User switch and sensor data is a new RGB 
  35:sensor_process.c **** * LED data sent to all the nodes (broadcast)
  36:sensor_process.c **** *
  37:sensor_process.c **** * Parameters:
  38:sensor_process.c **** *  void
  39:sensor_process.c **** *
  40:sensor_process.c **** * Return:
  41:sensor_process.c **** *  void
  42:sensor_process.c **** *
  43:sensor_process.c **** *******************************************************************************/
  44:sensor_process.c **** void CheckSensorStatus(void)
  45:sensor_process.c **** {
  38              		.loc 1 45 0
  39              		.cfi_startproc
  40              		@ args = 0, pretend = 0, frame = 0
  41              		@ frame_needed = 1, uses_anonymous_args = 0
  42 0000 80B5     		push	{r7, lr}
  43              		.cfi_def_cfa_offset 8
  44              		.cfi_offset 7, -8
  45              		.cfi_offset 14, -4
  46 0002 00AF     		add	r7, sp, #0
  47              		.cfi_def_cfa_register 7
  46:sensor_process.c **** 	/* Is ISR registered a button press... */
  47:sensor_process.c **** 	//if(TRUE == check_pressed)
  48:sensor_process.c **** 	//{
  49:sensor_process.c **** 		/* Change color (new sensor data) only when the node is in
  50:sensor_process.c **** 		* peripheral mode and advertising */
  51:sensor_process.c **** 		if((BLE_PERIPHERAL == ble_gap_state)
  48              		.loc 1 51 0
  49 0004 094B     		ldr	r3, .L4
  50 0006 1B78     		ldrb	r3, [r3]
  51 0008 012B     		cmp	r3, #1
  52 000a 0CD1     		bne	.L3
  52:sensor_process.c **** 			&& (CYBLE_STATE_ADVERTISING == CyBle_GetState()))
  53              		.loc 1 52 0
  54 000c 084B     		ldr	r3, .L4+4
  55 000e 1B78     		ldrb	r3, [r3]
  56 0010 032B     		cmp	r3, #3
  57 0012 08D1     		bne	.L3
  53:sensor_process.c **** 		{
ARM GAS  C:\Users\run1009\AppData\Local\Temp\ccyCEo1d.s 			page 3


  54:sensor_process.c **** 			#if (DEBUG_ENABLED == 1)
  55:sensor_process.c **** 			UART_UartPutString("Time to get sensor data:  ");
  58              		.loc 1 55 0
  59 0014 074B     		ldr	r3, .L4+8
  60 0016 1800     		movs	r0, r3
  61 0018 FFF7FEFF 		bl	UART_UartPutString
  56:sensor_process.c **** 			UART_UartPutCRLF(' ');
  62              		.loc 1 56 0
  63 001c 2020     		movs	r0, #32
  64 001e FFF7FEFF 		bl	UART_UartPutCRLF
  57:sensor_process.c **** 			#endif
  58:sensor_process.c **** 			
  59:sensor_process.c **** 			/* Set the next RGB LED color as reflection of new sensor data.
  60:sensor_process.c **** 			* Broadcast to all. */
  61:sensor_process.c **** 			SetNextColor();	
  65              		.loc 1 61 0
  66 0022 FFF7FEFF 		bl	SetNextColor
  67              	.L3:
  62:sensor_process.c **** 		}
  63:sensor_process.c **** 		
  64:sensor_process.c **** 		/* Reset flag */
  65:sensor_process.c **** 		//check_pressed = FALSE;
  66:sensor_process.c **** 	//}
  67:sensor_process.c **** }
  68              		.loc 1 67 0
  69 0026 C046     		nop
  70 0028 BD46     		mov	sp, r7
  71              		@ sp needed
  72 002a 80BD     		pop	{r7, pc}
  73              	.L5:
  74              		.align	2
  75              	.L4:
  76 002c 00000000 		.word	ble_gap_state
  77 0030 00000000 		.word	cyBle_state
  78 0034 00000000 		.word	.LC2
  79              		.cfi_endproc
  80              	.LFE36:
  81              		.size	CheckSensorStatus, .-CheckSensorStatus
  82              		.section	.rodata
  83 001b 00       		.align	2
  84              	.LC8:
  85 001c 73776974 		.ascii	"switch_Role called from SetNextColor() \000"
  85      63685F52 
  85      6F6C6520 
  85      63616C6C 
  85      65642066 
  86              		.section	.text.SetNextColor,"ax",%progbits
  87              		.align	2
  88              		.global	SetNextColor
  89              		.code	16
  90              		.thumb_func
  91              		.type	SetNextColor, %function
  92              	SetNextColor:
  93              	.LFB37:
  68:sensor_process.c **** 
  69:sensor_process.c **** /*******************************************************************************
  70:sensor_process.c **** * Function Name: SetNextColor
ARM GAS  C:\Users\run1009\AppData\Local\Temp\ccyCEo1d.s 			page 4


  71:sensor_process.c **** ********************************************************************************
  72:sensor_process.c **** * Summary:
  73:sensor_process.c **** *        Sets next RGB color and intensity data
  74:sensor_process.c **** *
  75:sensor_process.c **** * Parameters:
  76:sensor_process.c **** *  Global variables for R,G,B and intensity
  77:sensor_process.c **** *
  78:sensor_process.c **** * Return:
  79:sensor_process.c **** *  void
  80:sensor_process.c **** *
  81:sensor_process.c **** *******************************************************************************/
  82:sensor_process.c **** void SetNextColor(void)
  83:sensor_process.c **** {
  94              		.loc 1 83 0
  95              		.cfi_startproc
  96              		@ args = 0, pretend = 0, frame = 8
  97              		@ frame_needed = 1, uses_anonymous_args = 0
  98 0000 80B5     		push	{r7, lr}
  99              		.cfi_def_cfa_offset 8
 100              		.cfi_offset 7, -8
 101              		.cfi_offset 14, -4
 102 0002 82B0     		sub	sp, sp, #8
 103              		.cfi_def_cfa_offset 16
 104 0004 00AF     		add	r7, sp, #0
 105              		.cfi_def_cfa_register 7
  84:sensor_process.c **** 	/* State variable for controlling color */
  85:sensor_process.c **** 	static uint8 color_state = COLOR_STATE_RED;
  86:sensor_process.c **** 	uint8 red, green, blue, intensity;
  87:sensor_process.c **** 	
  88:sensor_process.c **** 	switch(color_state)
 106              		.loc 1 88 0
 107 0006 614B     		ldr	r3, .L18
 108 0008 1B78     		ldrb	r3, [r3]
 109 000a 082B     		cmp	r3, #8
 110 000c 00D9     		bls	.LCB57
 111 000e 84E0     		b	.L7	@long jump
 112              	.LCB57:
 113 0010 9A00     		lsls	r2, r3, #2
 114 0012 5F4B     		ldr	r3, .L18+4
 115 0014 D318     		adds	r3, r2, r3
 116 0016 1B68     		ldr	r3, [r3]
 117 0018 9F46     		mov	pc, r3
 118              		.section	.rodata
 119              		.align	2
 120              	.L9:
 121 0044 1A010000 		.word	.L7
 122 0048 1A000000 		.word	.L8
 123 004c 3A000000 		.word	.L10
 124 0050 5A000000 		.word	.L11
 125 0054 7A000000 		.word	.L12
 126 0058 9A000000 		.word	.L13
 127 005c BA000000 		.word	.L14
 128 0060 DA000000 		.word	.L15
 129 0064 FA000000 		.word	.L16
 130              		.section	.text.SetNextColor
 131              	.L8:
  89:sensor_process.c **** 	{
ARM GAS  C:\Users\run1009\AppData\Local\Temp\ccyCEo1d.s 			page 5


  90:sensor_process.c **** 		case COLOR_STATE_RED:
  91:sensor_process.c **** 			red = 0xFF;
 132              		.loc 1 91 0
 133 001a FB1D     		adds	r3, r7, #7
 134 001c FF22     		movs	r2, #255
 135 001e 1A70     		strb	r2, [r3]
  92:sensor_process.c **** 			green = 0x00;
 136              		.loc 1 92 0
 137 0020 BB1D     		adds	r3, r7, #6
 138 0022 0022     		movs	r2, #0
 139 0024 1A70     		strb	r2, [r3]
  93:sensor_process.c **** 			blue = 0x00;
 140              		.loc 1 93 0
 141 0026 7B1D     		adds	r3, r7, #5
 142 0028 0022     		movs	r2, #0
 143 002a 1A70     		strb	r2, [r3]
  94:sensor_process.c **** 			intensity = 0xFF;
 144              		.loc 1 94 0
 145 002c 3B1D     		adds	r3, r7, #4
 146 002e FF22     		movs	r2, #255
 147 0030 1A70     		strb	r2, [r3]
  95:sensor_process.c **** 		
  96:sensor_process.c **** 			color_state = COLOR_STATE_GREEN;
 148              		.loc 1 96 0
 149 0032 564B     		ldr	r3, .L18
 150 0034 0222     		movs	r2, #2
 151 0036 1A70     		strb	r2, [r3]
  97:sensor_process.c **** 		break;
 152              		.loc 1 97 0
 153 0038 7FE0     		b	.L17
 154              	.L10:
  98:sensor_process.c **** 		
  99:sensor_process.c **** 		case COLOR_STATE_GREEN:
 100:sensor_process.c **** 			red = 0x00;
 155              		.loc 1 100 0
 156 003a FB1D     		adds	r3, r7, #7
 157 003c 0022     		movs	r2, #0
 158 003e 1A70     		strb	r2, [r3]
 101:sensor_process.c **** 			green = 0xFF;
 159              		.loc 1 101 0
 160 0040 BB1D     		adds	r3, r7, #6
 161 0042 FF22     		movs	r2, #255
 162 0044 1A70     		strb	r2, [r3]
 102:sensor_process.c **** 			blue = 0x00;
 163              		.loc 1 102 0
 164 0046 7B1D     		adds	r3, r7, #5
 165 0048 0022     		movs	r2, #0
 166 004a 1A70     		strb	r2, [r3]
 103:sensor_process.c **** 			intensity = 0xFF;
 167              		.loc 1 103 0
 168 004c 3B1D     		adds	r3, r7, #4
 169 004e FF22     		movs	r2, #255
 170 0050 1A70     		strb	r2, [r3]
 104:sensor_process.c **** 		
 105:sensor_process.c **** 			color_state = COLOR_STATE_BLUE;
 171              		.loc 1 105 0
 172 0052 4E4B     		ldr	r3, .L18
ARM GAS  C:\Users\run1009\AppData\Local\Temp\ccyCEo1d.s 			page 6


 173 0054 0322     		movs	r2, #3
 174 0056 1A70     		strb	r2, [r3]
 106:sensor_process.c **** 		break;
 175              		.loc 1 106 0
 176 0058 6FE0     		b	.L17
 177              	.L11:
 107:sensor_process.c **** 		
 108:sensor_process.c **** 		case COLOR_STATE_BLUE:
 109:sensor_process.c **** 			red = 0x00;
 178              		.loc 1 109 0
 179 005a FB1D     		adds	r3, r7, #7
 180 005c 0022     		movs	r2, #0
 181 005e 1A70     		strb	r2, [r3]
 110:sensor_process.c **** 			green = 0x00;
 182              		.loc 1 110 0
 183 0060 BB1D     		adds	r3, r7, #6
 184 0062 0022     		movs	r2, #0
 185 0064 1A70     		strb	r2, [r3]
 111:sensor_process.c **** 			blue = 0xFF;
 186              		.loc 1 111 0
 187 0066 7B1D     		adds	r3, r7, #5
 188 0068 FF22     		movs	r2, #255
 189 006a 1A70     		strb	r2, [r3]
 112:sensor_process.c **** 			intensity = 0xFF;
 190              		.loc 1 112 0
 191 006c 3B1D     		adds	r3, r7, #4
 192 006e FF22     		movs	r2, #255
 193 0070 1A70     		strb	r2, [r3]
 113:sensor_process.c **** 		
 114:sensor_process.c **** 			color_state = COLOR_STATE_YELLOW;
 194              		.loc 1 114 0
 195 0072 464B     		ldr	r3, .L18
 196 0074 0422     		movs	r2, #4
 197 0076 1A70     		strb	r2, [r3]
 115:sensor_process.c **** 		break;
 198              		.loc 1 115 0
 199 0078 5FE0     		b	.L17
 200              	.L12:
 116:sensor_process.c **** 		
 117:sensor_process.c **** 		case COLOR_STATE_YELLOW:
 118:sensor_process.c **** 			red = 0xFF;
 201              		.loc 1 118 0
 202 007a FB1D     		adds	r3, r7, #7
 203 007c FF22     		movs	r2, #255
 204 007e 1A70     		strb	r2, [r3]
 119:sensor_process.c **** 			green = 0xFF;
 205              		.loc 1 119 0
 206 0080 BB1D     		adds	r3, r7, #6
 207 0082 FF22     		movs	r2, #255
 208 0084 1A70     		strb	r2, [r3]
 120:sensor_process.c **** 			blue = 0x00;
 209              		.loc 1 120 0
 210 0086 7B1D     		adds	r3, r7, #5
 211 0088 0022     		movs	r2, #0
 212 008a 1A70     		strb	r2, [r3]
 121:sensor_process.c **** 			intensity = 0xFF;
 213              		.loc 1 121 0
ARM GAS  C:\Users\run1009\AppData\Local\Temp\ccyCEo1d.s 			page 7


 214 008c 3B1D     		adds	r3, r7, #4
 215 008e FF22     		movs	r2, #255
 216 0090 1A70     		strb	r2, [r3]
 122:sensor_process.c **** 		
 123:sensor_process.c **** 			color_state = COLOR_STATE_CYAN;
 217              		.loc 1 123 0
 218 0092 3E4B     		ldr	r3, .L18
 219 0094 0522     		movs	r2, #5
 220 0096 1A70     		strb	r2, [r3]
 124:sensor_process.c **** 		break;
 221              		.loc 1 124 0
 222 0098 4FE0     		b	.L17
 223              	.L13:
 125:sensor_process.c **** 		
 126:sensor_process.c **** 		case COLOR_STATE_CYAN:
 127:sensor_process.c **** 			red = 0x00;
 224              		.loc 1 127 0
 225 009a FB1D     		adds	r3, r7, #7
 226 009c 0022     		movs	r2, #0
 227 009e 1A70     		strb	r2, [r3]
 128:sensor_process.c **** 			green = 0xFF;
 228              		.loc 1 128 0
 229 00a0 BB1D     		adds	r3, r7, #6
 230 00a2 FF22     		movs	r2, #255
 231 00a4 1A70     		strb	r2, [r3]
 129:sensor_process.c **** 			blue = 0xFF;
 232              		.loc 1 129 0
 233 00a6 7B1D     		adds	r3, r7, #5
 234 00a8 FF22     		movs	r2, #255
 235 00aa 1A70     		strb	r2, [r3]
 130:sensor_process.c **** 			intensity = 0xFF;
 236              		.loc 1 130 0
 237 00ac 3B1D     		adds	r3, r7, #4
 238 00ae FF22     		movs	r2, #255
 239 00b0 1A70     		strb	r2, [r3]
 131:sensor_process.c **** 		
 132:sensor_process.c **** 			color_state = COLOR_STATE_PURPLE;
 240              		.loc 1 132 0
 241 00b2 364B     		ldr	r3, .L18
 242 00b4 0622     		movs	r2, #6
 243 00b6 1A70     		strb	r2, [r3]
 133:sensor_process.c **** 		break;
 244              		.loc 1 133 0
 245 00b8 3FE0     		b	.L17
 246              	.L14:
 134:sensor_process.c **** 		
 135:sensor_process.c **** 		case COLOR_STATE_PURPLE:
 136:sensor_process.c **** 			red = 0xFF;
 247              		.loc 1 136 0
 248 00ba FB1D     		adds	r3, r7, #7
 249 00bc FF22     		movs	r2, #255
 250 00be 1A70     		strb	r2, [r3]
 137:sensor_process.c **** 			green = 0x00;
 251              		.loc 1 137 0
 252 00c0 BB1D     		adds	r3, r7, #6
 253 00c2 0022     		movs	r2, #0
 254 00c4 1A70     		strb	r2, [r3]
ARM GAS  C:\Users\run1009\AppData\Local\Temp\ccyCEo1d.s 			page 8


 138:sensor_process.c **** 			blue = 0xFF;
 255              		.loc 1 138 0
 256 00c6 7B1D     		adds	r3, r7, #5
 257 00c8 FF22     		movs	r2, #255
 258 00ca 1A70     		strb	r2, [r3]
 139:sensor_process.c **** 			intensity = 0xFF;
 259              		.loc 1 139 0
 260 00cc 3B1D     		adds	r3, r7, #4
 261 00ce FF22     		movs	r2, #255
 262 00d0 1A70     		strb	r2, [r3]
 140:sensor_process.c **** 		
 141:sensor_process.c **** 			color_state = COLOR_STATE_WHITE;
 263              		.loc 1 141 0
 264 00d2 2E4B     		ldr	r3, .L18
 265 00d4 0722     		movs	r2, #7
 266 00d6 1A70     		strb	r2, [r3]
 142:sensor_process.c **** 		break;
 267              		.loc 1 142 0
 268 00d8 2FE0     		b	.L17
 269              	.L15:
 143:sensor_process.c **** 		
 144:sensor_process.c **** 		case COLOR_STATE_WHITE:
 145:sensor_process.c **** 			red = 0xFF;
 270              		.loc 1 145 0
 271 00da FB1D     		adds	r3, r7, #7
 272 00dc FF22     		movs	r2, #255
 273 00de 1A70     		strb	r2, [r3]
 146:sensor_process.c **** 			green = 0xFF;
 274              		.loc 1 146 0
 275 00e0 BB1D     		adds	r3, r7, #6
 276 00e2 FF22     		movs	r2, #255
 277 00e4 1A70     		strb	r2, [r3]
 147:sensor_process.c **** 			blue = 0xFF;
 278              		.loc 1 147 0
 279 00e6 7B1D     		adds	r3, r7, #5
 280 00e8 FF22     		movs	r2, #255
 281 00ea 1A70     		strb	r2, [r3]
 148:sensor_process.c **** 			intensity = 0xFF;
 282              		.loc 1 148 0
 283 00ec 3B1D     		adds	r3, r7, #4
 284 00ee FF22     		movs	r2, #255
 285 00f0 1A70     		strb	r2, [r3]
 149:sensor_process.c **** 		
 150:sensor_process.c **** 			color_state = COLOR_STATE_HALF_INT;
 286              		.loc 1 150 0
 287 00f2 264B     		ldr	r3, .L18
 288 00f4 0822     		movs	r2, #8
 289 00f6 1A70     		strb	r2, [r3]
 151:sensor_process.c **** 		break;
 290              		.loc 1 151 0
 291 00f8 1FE0     		b	.L17
 292              	.L16:
 152:sensor_process.c **** 		
 153:sensor_process.c **** 		case COLOR_STATE_HALF_INT:
 154:sensor_process.c **** 			red = 0xFF;
 293              		.loc 1 154 0
 294 00fa FB1D     		adds	r3, r7, #7
ARM GAS  C:\Users\run1009\AppData\Local\Temp\ccyCEo1d.s 			page 9


 295 00fc FF22     		movs	r2, #255
 296 00fe 1A70     		strb	r2, [r3]
 155:sensor_process.c **** 			green = 0xFF;
 297              		.loc 1 155 0
 298 0100 BB1D     		adds	r3, r7, #6
 299 0102 FF22     		movs	r2, #255
 300 0104 1A70     		strb	r2, [r3]
 156:sensor_process.c **** 			blue = 0xFF;
 301              		.loc 1 156 0
 302 0106 7B1D     		adds	r3, r7, #5
 303 0108 FF22     		movs	r2, #255
 304 010a 1A70     		strb	r2, [r3]
 157:sensor_process.c **** 			intensity = 0x22;
 305              		.loc 1 157 0
 306 010c 3B1D     		adds	r3, r7, #4
 307 010e 2222     		movs	r2, #34
 308 0110 1A70     		strb	r2, [r3]
 158:sensor_process.c **** 		
 159:sensor_process.c **** 			color_state = COLOR_STATE_RED;
 309              		.loc 1 159 0
 310 0112 1E4B     		ldr	r3, .L18
 311 0114 0122     		movs	r2, #1
 312 0116 1A70     		strb	r2, [r3]
 160:sensor_process.c **** 		break;
 313              		.loc 1 160 0
 314 0118 0FE0     		b	.L17
 315              	.L7:
 161:sensor_process.c **** 		
 162:sensor_process.c **** 		default:
 163:sensor_process.c **** 			red = 0xFF;
 316              		.loc 1 163 0
 317 011a FB1D     		adds	r3, r7, #7
 318 011c FF22     		movs	r2, #255
 319 011e 1A70     		strb	r2, [r3]
 164:sensor_process.c **** 			green = 0x00;
 320              		.loc 1 164 0
 321 0120 BB1D     		adds	r3, r7, #6
 322 0122 0022     		movs	r2, #0
 323 0124 1A70     		strb	r2, [r3]
 165:sensor_process.c **** 			blue = 0x00;
 324              		.loc 1 165 0
 325 0126 7B1D     		adds	r3, r7, #5
 326 0128 0022     		movs	r2, #0
 327 012a 1A70     		strb	r2, [r3]
 166:sensor_process.c **** 			intensity = 0xFF;
 328              		.loc 1 166 0
 329 012c 3B1D     		adds	r3, r7, #4
 330 012e FF22     		movs	r2, #255
 331 0130 1A70     		strb	r2, [r3]
 167:sensor_process.c **** 		
 168:sensor_process.c **** 			color_state = COLOR_STATE_RED;	
 332              		.loc 1 168 0
 333 0132 164B     		ldr	r3, .L18
 334 0134 0122     		movs	r2, #1
 335 0136 1A70     		strb	r2, [r3]
 169:sensor_process.c **** 		break;
 336              		.loc 1 169 0
ARM GAS  C:\Users\run1009\AppData\Local\Temp\ccyCEo1d.s 			page 10


 337 0138 C046     		nop
 338              	.L17:
 170:sensor_process.c **** 	}
 171:sensor_process.c **** 	
 172:sensor_process.c **** 	/* Update PrISM parameters for new RGB LED color */
 173:sensor_process.c **** 	RGBData[RGB_RED_INDEX] = red;
 339              		.loc 1 173 0
 340 013a 164B     		ldr	r3, .L18+8
 341 013c FA1D     		adds	r2, r7, #7
 342 013e 1278     		ldrb	r2, [r2]
 343 0140 1A70     		strb	r2, [r3]
 174:sensor_process.c **** 	RGBData[RGB_GREEN_INDEX] = green;
 344              		.loc 1 174 0
 345 0142 144B     		ldr	r3, .L18+8
 346 0144 BA1D     		adds	r2, r7, #6
 347 0146 1278     		ldrb	r2, [r2]
 348 0148 5A70     		strb	r2, [r3, #1]
 175:sensor_process.c **** 	RGBData[RGB_BLUE_INDEX] = blue;
 349              		.loc 1 175 0
 350 014a 124B     		ldr	r3, .L18+8
 351 014c 7A1D     		adds	r2, r7, #5
 352 014e 1278     		ldrb	r2, [r2]
 353 0150 9A70     		strb	r2, [r3, #2]
 176:sensor_process.c **** 	RGBData[RGB_INTENSITY_INDEX] = intensity;
 354              		.loc 1 176 0
 355 0152 104B     		ldr	r3, .L18+8
 356 0154 3A1D     		adds	r2, r7, #4
 357 0156 1278     		ldrb	r2, [r2]
 358 0158 DA70     		strb	r2, [r3, #3]
 177:sensor_process.c **** 	
 178:sensor_process.c **** 	/* Update PrISM parameters for new  RGB LED data */
 179:sensor_process.c **** 	UpdateRGBled(RGBData, 4);
 359              		.loc 1 179 0
 360 015a 0E4B     		ldr	r3, .L18+8
 361 015c 0421     		movs	r1, #4
 362 015e 1800     		movs	r0, r3
 363 0160 FFF7FEFF 		bl	UpdateRGBled
 180:sensor_process.c **** 	
 181:sensor_process.c **** 	#ifdef ENABLE_ADV_DATA_COUNTER
 182:sensor_process.c **** 	/* Increment the ADV data counter so that scanning Central device knows
 183:sensor_process.c **** 	* if this device has updated RGB LED data or not */
 184:sensor_process.c **** 	//dataADVCounter++;
 185:sensor_process.c **** 	#endif
 186:sensor_process.c **** 	
 187:sensor_process.c **** 	/* Set the role switch flag so that main loop can switch to Central role */
 188:sensor_process.c **** 	switch_Role = TRUE;
 364              		.loc 1 188 0
 365 0164 0C4B     		ldr	r3, .L18+12
 366 0166 0122     		movs	r2, #1
 367 0168 1A70     		strb	r2, [r3]
 189:sensor_process.c **** 	#if (DEBUG_ENABLED == 1)
 190:sensor_process.c **** 		UART_UartPutString("switch_Role called from SetNextColor() ");
 368              		.loc 1 190 0
 369 016a 0C4B     		ldr	r3, .L18+16
 370 016c 1800     		movs	r0, r3
 371 016e FFF7FEFF 		bl	UART_UartPutString
 191:sensor_process.c **** 		SendBLEStatetoUART(CyBle_GetState());
ARM GAS  C:\Users\run1009\AppData\Local\Temp\ccyCEo1d.s 			page 11


 372              		.loc 1 191 0
 373 0172 0B4B     		ldr	r3, .L18+20
 374 0174 1B78     		ldrb	r3, [r3]
 375 0176 1800     		movs	r0, r3
 376 0178 FFF7FEFF 		bl	SendBLEStatetoUART
 192:sensor_process.c **** 		UART_UartPutCRLF(' ');
 377              		.loc 1 192 0
 378 017c 2020     		movs	r0, #32
 379 017e FFF7FEFF 		bl	UART_UartPutCRLF
 193:sensor_process.c **** 	#endif
 194:sensor_process.c **** 	
 195:sensor_process.c **** }
 380              		.loc 1 195 0
 381 0182 C046     		nop
 382 0184 BD46     		mov	sp, r7
 383 0186 02B0     		add	sp, sp, #8
 384              		@ sp needed
 385 0188 80BD     		pop	{r7, pc}
 386              	.L19:
 387 018a C046     		.align	2
 388              	.L18:
 389 018c 00000000 		.word	color_state.8788
 390 0190 44000000 		.word	.L9
 391 0194 00000000 		.word	RGBData
 392 0198 00000000 		.word	switch_Role
 393 019c 1C000000 		.word	.LC8
 394 01a0 00000000 		.word	cyBle_state
 395              		.cfi_endproc
 396              	.LFE37:
 397              		.size	SetNextColor, .-SetNextColor
 398              		.section	.text.Button_ISR,"ax",%progbits
 399              		.align	2
 400              		.global	Button_ISR
 401              		.code	16
 402              		.thumb_func
 403              		.type	Button_ISR, %function
 404              	Button_ISR:
 405              	.LFB38:
 196:sensor_process.c **** 
 197:sensor_process.c **** /*******************************************************************************
 198:sensor_process.c **** * Function Name: Button_ISR
 199:sensor_process.c **** ********************************************************************************
 200:sensor_process.c **** * Summary:
 201:sensor_process.c **** *        ISR for Button Press Event thgough Glitch Filter
 202:sensor_process.c **** *
 203:sensor_process.c **** * Parameters:
 204:sensor_process.c **** *  void
 205:sensor_process.c **** *
 206:sensor_process.c **** * Return:
 207:sensor_process.c **** *  void
 208:sensor_process.c **** *
 209:sensor_process.c **** *******************************************************************************/
 210:sensor_process.c **** void Button_ISR(void)
 211:sensor_process.c **** {
 406              		.loc 1 211 0
 407              		.cfi_startproc
 408              		@ args = 0, pretend = 0, frame = 0
ARM GAS  C:\Users\run1009\AppData\Local\Temp\ccyCEo1d.s 			page 12


 409              		@ frame_needed = 1, uses_anonymous_args = 0
 410 0000 80B5     		push	{r7, lr}
 411              		.cfi_def_cfa_offset 8
 412              		.cfi_offset 7, -8
 413              		.cfi_offset 14, -4
 414 0002 00AF     		add	r7, sp, #0
 415              		.cfi_def_cfa_register 7
 212:sensor_process.c **** 	/* Clear pending button interrupt */
 213:sensor_process.c **** 	isr_button_ClearPending();
 416              		.loc 1 213 0
 417 0004 FFF7FEFF 		bl	isr_button_ClearPending
 214:sensor_process.c **** 	
 215:sensor_process.c **** 	/* Set flag for processing button application */
 216:sensor_process.c **** 	check_pressed = TRUE;
 418              		.loc 1 216 0
 419 0008 024B     		ldr	r3, .L21
 420 000a 0122     		movs	r2, #1
 421 000c 1A70     		strb	r2, [r3]
 217:sensor_process.c **** }
 422              		.loc 1 217 0
 423 000e C046     		nop
 424 0010 BD46     		mov	sp, r7
 425              		@ sp needed
 426 0012 80BD     		pop	{r7, pc}
 427              	.L22:
 428              		.align	2
 429              	.L21:
 430 0014 00000000 		.word	check_pressed
 431              		.cfi_endproc
 432              	.LFE38:
 433              		.size	Button_ISR, .-Button_ISR
 434              		.data
 435              		.type	color_state.8788, %object
 436              		.size	color_state.8788, 1
 437              	color_state.8788:
 438 0000 01       		.byte	1
 439              		.text
 440              	.Letext0:
 441              		.file 2 "Generated_Source\\PSoC4/BLE_Stack.h"
 442              		.file 3 "Generated_Source\\PSoC4/BLE_eventHandler.h"
 443              		.file 4 "Generated_Source\\PSoC4/cytypes.h"