ARM GAS  C:\Users\run1009\AppData\Local\Temp\ccMb2OKh.s 			page 1


   1              		.syntax unified
   2              		.cpu cortex-m0
   3              		.fpu softvfp
   4              		.eabi_attribute 20, 1
   5              		.eabi_attribute 21, 1
   6              		.eabi_attribute 23, 3
   7              		.eabi_attribute 24, 1
   8              		.eabi_attribute 25, 1
   9              		.eabi_attribute 26, 1
  10              		.eabi_attribute 30, 6
  11              		.eabi_attribute 34, 0
  12              		.eabi_attribute 18, 4
  13              		.thumb
  14              		.syntax unified
  15              		.file	"store.c"
  16              		.text
  17              	.Ltext0:
  18              		.cfi_sections	.debug_frame
  19              		.comm	nodeTable,1908,4
  20              		.global	number_of_node
  21              		.bss
  22              		.type	number_of_node, %object
  23              		.size	number_of_node, 1
  24              	number_of_node:
  25 0000 00       		.space	1
  26              		.comm	nodeIndex,1,1
  27              		.section	.text.nodeInit,"ax",%progbits
  28              		.align	2
  29              		.global	nodeInit
  30              		.code	16
  31              		.thumb_func
  32              		.type	nodeInit, %function
  33              	nodeInit:
  34              	.LFB36:
  35              		.file 1 "store.c"
   1:store.c       **** /* ========================================
   2:store.c       ****  *
   3:store.c       ****  * Copyright YOUR COMPANY, THE YEAR
   4:store.c       ****  * All Rights Reserved
   5:store.c       ****  * UNPUBLISHED, LICENSED SOFTWARE.
   6:store.c       ****  *
   7:store.c       ****  * CONFIDENTIAL AND PROPRIETARY INFORMATION
   8:store.c       ****  * WHICH IS THE PROPERTY OF your company.
   9:store.c       ****  *
  10:store.c       ****  * ========================================
  11:store.c       **** */
  12:store.c       **** 
  13:store.c       **** /* [] END OF FILE */
  14:store.c       **** #include <main.h>
  15:store.c       **** NODE_TABLE_T nodeTable[MAX_NODE];
  16:store.c       **** uint8 number_of_node = 0;
  17:store.c       **** uint8 nodeIndex;
  18:store.c       **** /*******************************************************************************
  19:store.c       **** * Function Name: nodeInit
  20:store.c       **** ********************************************************************************
  21:store.c       **** * Summary:
  22:store.c       **** *       This function initailzes the data node
ARM GAS  C:\Users\run1009\AppData\Local\Temp\ccMb2OKh.s 			page 2


  23:store.c       **** *
  24:store.c       **** * Parameters: 
  25:store.c       **** *  uint8 index 
  26:store.c       **** *
  27:store.c       **** * Return:
  28:store.c       **** *  null
  29:store.c       **** *
  30:store.c       **** *******************************************************************************/
  31:store.c       **** void nodeInit(uint8 index){
  36              		.loc 1 31 0
  37              		.cfi_startproc
  38              		@ args = 0, pretend = 0, frame = 8
  39              		@ frame_needed = 1, uses_anonymous_args = 0
  40 0000 80B5     		push	{r7, lr}
  41              		.cfi_def_cfa_offset 8
  42              		.cfi_offset 7, -8
  43              		.cfi_offset 14, -4
  44 0002 82B0     		sub	sp, sp, #8
  45              		.cfi_def_cfa_offset 16
  46 0004 00AF     		add	r7, sp, #0
  47              		.cfi_def_cfa_register 7
  48 0006 0200     		movs	r2, r0
  49 0008 FB1D     		adds	r3, r7, #7
  50 000a 1A70     		strb	r2, [r3]
  32:store.c       ****     nodeTable[index].total = 0;
  51              		.loc 1 32 0
  52 000c FB1D     		adds	r3, r7, #7
  53 000e 1B78     		ldrb	r3, [r3]
  54 0010 0F4A     		ldr	r2, .L2
  55 0012 CE21     		movs	r1, #206
  56 0014 D420     		movs	r0, #212
  57 0016 4343     		muls	r3, r0
  58 0018 D318     		adds	r3, r2, r3
  59 001a 5B18     		adds	r3, r3, r1
  60 001c 0022     		movs	r2, #0
  61 001e 1A80     		strh	r2, [r3]
  33:store.c       ****     nodeTable[index].fistByteAvgData = 0;
  62              		.loc 1 33 0
  63 0020 FB1D     		adds	r3, r7, #7
  64 0022 1B78     		ldrb	r3, [r3]
  65 0024 0A4A     		ldr	r2, .L2
  66 0026 CC21     		movs	r1, #204
  67 0028 D420     		movs	r0, #212
  68 002a 4343     		muls	r3, r0
  69 002c D318     		adds	r3, r2, r3
  70 002e 5B18     		adds	r3, r3, r1
  71 0030 0022     		movs	r2, #0
  72 0032 1A70     		strb	r2, [r3]
  34:store.c       ****     nodeTable[index].secondByteAvgData = 0;
  73              		.loc 1 34 0
  74 0034 FB1D     		adds	r3, r7, #7
  75 0036 1B78     		ldrb	r3, [r3]
  76 0038 054A     		ldr	r2, .L2
  77 003a CD21     		movs	r1, #205
  78 003c D420     		movs	r0, #212
  79 003e 4343     		muls	r3, r0
  80 0040 D318     		adds	r3, r2, r3
ARM GAS  C:\Users\run1009\AppData\Local\Temp\ccMb2OKh.s 			page 3


  81 0042 5B18     		adds	r3, r3, r1
  82 0044 0022     		movs	r2, #0
  83 0046 1A70     		strb	r2, [r3]
  35:store.c       **** }
  84              		.loc 1 35 0
  85 0048 C046     		nop
  86 004a BD46     		mov	sp, r7
  87 004c 02B0     		add	sp, sp, #8
  88              		@ sp needed
  89 004e 80BD     		pop	{r7, pc}
  90              	.L3:
  91              		.align	2
  92              	.L2:
  93 0050 00000000 		.word	nodeTable
  94              		.cfi_endproc
  95              	.LFE36:
  96              		.size	nodeInit, .-nodeInit
  97              		.section	.text.updateNodeTable,"ax",%progbits
  98              		.align	2
  99              		.global	updateNodeTable
 100              		.code	16
 101              		.thumb_func
 102              		.type	updateNodeTable, %function
 103              	updateNodeTable:
 104              	.LFB37:
  36:store.c       **** /*******************************************************************************
  37:store.c       **** * Function Name: updateNodeTable
  38:store.c       **** ********************************************************************************
  39:store.c       **** * Summary:
  40:store.c       **** *        After receving temperature data from each node, this function will 
  41:store.c       **** * collect sensor data and store it as a table 
  42:store.c       **** *        The maximum value to store temperature data of 1 node is 800. If it's  
  43:store.c       **** * full, we need to clear all data
  44:store.c       **** *
  45:store.c       **** * Parameters:
  46:store.c       **** *  uint16 nodeAddr 
  47:store.c       **** *  uint8 advdata 
  48:store.c       **** *  uint8 firstByteTemp
  49:store.c       **** *  uint8 secondByteTemp
  50:store.c       **** *  uint16 timestamp
  51:store.c       **** *
  52:store.c       **** * Return:
  53:store.c       **** *  TRUE when update success, and FALSE vice versa
  54:store.c       **** *
  55:store.c       **** *******************************************************************************/
  56:store.c       **** uint8 updateNodeTable(CYBLE_GAP_BD_ADDR_T* nodeAddr, uint8 advdata, uint8 firstByteTemp, uint8 seco
 105              		.loc 1 56 0
 106              		.cfi_startproc
 107              		@ args = 4, pretend = 0, frame = 24
 108              		@ frame_needed = 1, uses_anonymous_args = 0
 109 0000 90B5     		push	{r4, r7, lr}
 110              		.cfi_def_cfa_offset 12
 111              		.cfi_offset 4, -12
 112              		.cfi_offset 7, -8
 113              		.cfi_offset 14, -4
 114 0002 87B0     		sub	sp, sp, #28
 115              		.cfi_def_cfa_offset 40
ARM GAS  C:\Users\run1009\AppData\Local\Temp\ccMb2OKh.s 			page 4


 116 0004 00AF     		add	r7, sp, #0
 117              		.cfi_def_cfa_register 7
 118 0006 7860     		str	r0, [r7, #4]
 119 0008 0C00     		movs	r4, r1
 120 000a 1000     		movs	r0, r2
 121 000c 1900     		movs	r1, r3
 122 000e FB1C     		adds	r3, r7, #3
 123 0010 221C     		adds	r2, r4, #0
 124 0012 1A70     		strb	r2, [r3]
 125 0014 BB1C     		adds	r3, r7, #2
 126 0016 021C     		adds	r2, r0, #0
 127 0018 1A70     		strb	r2, [r3]
 128 001a 7B1C     		adds	r3, r7, #1
 129 001c 0A1C     		adds	r2, r1, #0
 130 001e 1A70     		strb	r2, [r3]
  57:store.c       ****  
  58:store.c       ****     if(number_of_node != 0){
 131              		.loc 1 58 0
 132 0020 874B     		ldr	r3, .L17
 133 0022 1B78     		ldrb	r3, [r3]
 134 0024 002B     		cmp	r3, #0
 135 0026 58D0     		beq	.L5
 136              	.LBB2:
  59:store.c       ****         uint8 foundStoredNode = FALSE;
 137              		.loc 1 59 0
 138 0028 1723     		movs	r3, #23
 139 002a FB18     		adds	r3, r7, r3
 140 002c 0022     		movs	r2, #0
 141 002e 1A70     		strb	r2, [r3]
  60:store.c       ****         uint8 count = 0;
 142              		.loc 1 60 0
 143 0030 1623     		movs	r3, #22
 144 0032 FB18     		adds	r3, r7, r3
 145 0034 0022     		movs	r2, #0
 146 0036 1A70     		strb	r2, [r3]
 147              	.LBB3:
  61:store.c       ****         /** check if the node has already stored */
  62:store.c       ****         for(int i= 0;i<MAX_NODE;i++){            
 148              		.loc 1 62 0
 149 0038 0023     		movs	r3, #0
 150 003a 3B61     		str	r3, [r7, #16]
 151 003c 35E0     		b	.L6
 152              	.L12:
 153              	.LBB4:
  63:store.c       ****             for(int j= 0;j<6;j++){
 154              		.loc 1 63 0
 155 003e 0023     		movs	r3, #0
 156 0040 FB60     		str	r3, [r7, #12]
 157 0042 17E0     		b	.L7
 158              	.L9:
  64:store.c       ****             if(nodeTable[i].nodeAddr->bdAddr[j] == nodeAddr->bdAddr[j])
 159              		.loc 1 64 0
 160 0044 7F4B     		ldr	r3, .L17+4
 161 0046 3A69     		ldr	r2, [r7, #16]
 162 0048 D421     		movs	r1, #212
 163 004a 4A43     		muls	r2, r1
 164 004c D258     		ldr	r2, [r2, r3]
ARM GAS  C:\Users\run1009\AppData\Local\Temp\ccMb2OKh.s 			page 5


 165 004e FB68     		ldr	r3, [r7, #12]
 166 0050 D318     		adds	r3, r2, r3
 167 0052 1A78     		ldrb	r2, [r3]
 168 0054 7968     		ldr	r1, [r7, #4]
 169 0056 FB68     		ldr	r3, [r7, #12]
 170 0058 CB18     		adds	r3, r1, r3
 171 005a 1B78     		ldrb	r3, [r3]
 172 005c 9A42     		cmp	r2, r3
 173 005e 06D1     		bne	.L8
  65:store.c       ****                 count++;
 174              		.loc 1 65 0
 175 0060 1623     		movs	r3, #22
 176 0062 FB18     		adds	r3, r7, r3
 177 0064 1A78     		ldrb	r2, [r3]
 178 0066 1623     		movs	r3, #22
 179 0068 FB18     		adds	r3, r7, r3
 180 006a 0132     		adds	r2, r2, #1
 181 006c 1A70     		strb	r2, [r3]
 182              	.L8:
  63:store.c       ****             for(int j= 0;j<6;j++){
 183              		.loc 1 63 0 discriminator 2
 184 006e FB68     		ldr	r3, [r7, #12]
 185 0070 0133     		adds	r3, r3, #1
 186 0072 FB60     		str	r3, [r7, #12]
 187              	.L7:
  63:store.c       ****             for(int j= 0;j<6;j++){
 188              		.loc 1 63 0 is_stmt 0 discriminator 1
 189 0074 FB68     		ldr	r3, [r7, #12]
 190 0076 052B     		cmp	r3, #5
 191 0078 E4DD     		ble	.L9
 192              	.LBE4:
  66:store.c       ****             }
  67:store.c       ****            if(nodeTable[i].nodeAddr->bdAddr == nodeAddr->bdAddr){
 193              		.loc 1 67 0 is_stmt 1
 194 007a 724B     		ldr	r3, .L17+4
 195 007c 3A69     		ldr	r2, [r7, #16]
 196 007e D421     		movs	r1, #212
 197 0080 4A43     		muls	r2, r1
 198 0082 D258     		ldr	r2, [r2, r3]
 199 0084 7B68     		ldr	r3, [r7, #4]
 200 0086 9A42     		cmp	r2, r3
 201 0088 08D1     		bne	.L10
  68:store.c       ****                 /** if found node address, get the old index */
  69:store.c       ****                 nodeIndex = i;
 202              		.loc 1 69 0
 203 008a 3B69     		ldr	r3, [r7, #16]
 204 008c DAB2     		uxtb	r2, r3
 205 008e 6E4B     		ldr	r3, .L17+8
 206 0090 1A70     		strb	r2, [r3]
  70:store.c       ****                 foundStoredNode = TRUE;
 207              		.loc 1 70 0
 208 0092 1723     		movs	r3, #23
 209 0094 FB18     		adds	r3, r7, r3
 210 0096 0122     		movs	r2, #1
 211 0098 1A70     		strb	r2, [r3]
  71:store.c       ****                 break;
 212              		.loc 1 71 0
ARM GAS  C:\Users\run1009\AppData\Local\Temp\ccMb2OKh.s 			page 6


 213 009a 09E0     		b	.L11
 214              	.L10:
  72:store.c       ****             }    
  73:store.c       ****         count = 0;
 215              		.loc 1 73 0 discriminator 2
 216 009c 1623     		movs	r3, #22
 217 009e FB18     		adds	r3, r7, r3
 218 00a0 0022     		movs	r2, #0
 219 00a2 1A70     		strb	r2, [r3]
  62:store.c       ****             for(int j= 0;j<6;j++){
 220              		.loc 1 62 0 discriminator 2
 221 00a4 3B69     		ldr	r3, [r7, #16]
 222 00a6 0133     		adds	r3, r3, #1
 223 00a8 3B61     		str	r3, [r7, #16]
 224              	.L6:
  62:store.c       ****             for(int j= 0;j<6;j++){
 225              		.loc 1 62 0 is_stmt 0 discriminator 1
 226 00aa 3B69     		ldr	r3, [r7, #16]
 227 00ac 082B     		cmp	r3, #8
 228 00ae C6DD     		ble	.L12
 229              	.L11:
 230              	.LBE3:
  74:store.c       ****         }
  75:store.c       ****         
  76:store.c       ****         if(!foundStoredNode){
 231              		.loc 1 76 0 is_stmt 1
 232 00b0 1723     		movs	r3, #23
 233 00b2 FB18     		adds	r3, r7, r3
 234 00b4 1B78     		ldrb	r3, [r3]
 235 00b6 002B     		cmp	r3, #0
 236 00b8 1DD1     		bne	.L14
  77:store.c       ****                 /** update new node */
  78:store.c       ****                 nodeIndex = number_of_node;
 237              		.loc 1 78 0
 238 00ba 614B     		ldr	r3, .L17
 239 00bc 1A78     		ldrb	r2, [r3]
 240 00be 624B     		ldr	r3, .L17+8
 241 00c0 1A70     		strb	r2, [r3]
  79:store.c       ****                 number_of_node++;
 242              		.loc 1 79 0
 243 00c2 5F4B     		ldr	r3, .L17
 244 00c4 1B78     		ldrb	r3, [r3]
 245 00c6 0133     		adds	r3, r3, #1
 246 00c8 DAB2     		uxtb	r2, r3
 247 00ca 5D4B     		ldr	r3, .L17
 248 00cc 1A70     		strb	r2, [r3]
  80:store.c       ****                 nodeInit(nodeIndex);
 249              		.loc 1 80 0
 250 00ce 5E4B     		ldr	r3, .L17+8
 251 00d0 1B78     		ldrb	r3, [r3]
 252 00d2 1800     		movs	r0, r3
 253 00d4 FFF7FEFF 		bl	nodeInit
 254 00d8 0DE0     		b	.L14
 255              	.L5:
 256              	.LBE2:
  81:store.c       ****         }
  82:store.c       ****     }else{
ARM GAS  C:\Users\run1009\AppData\Local\Temp\ccMb2OKh.s 			page 7


  83:store.c       ****         /** first node update */
  84:store.c       ****         nodeIndex = 0;
 257              		.loc 1 84 0
 258 00da 5B4B     		ldr	r3, .L17+8
 259 00dc 0022     		movs	r2, #0
 260 00de 1A70     		strb	r2, [r3]
  85:store.c       ****         number_of_node++;
 261              		.loc 1 85 0
 262 00e0 574B     		ldr	r3, .L17
 263 00e2 1B78     		ldrb	r3, [r3]
 264 00e4 0133     		adds	r3, r3, #1
 265 00e6 DAB2     		uxtb	r2, r3
 266 00e8 554B     		ldr	r3, .L17
 267 00ea 1A70     		strb	r2, [r3]
  86:store.c       ****         nodeInit(nodeIndex);
 268              		.loc 1 86 0
 269 00ec 564B     		ldr	r3, .L17+8
 270 00ee 1B78     		ldrb	r3, [r3]
 271 00f0 1800     		movs	r0, r3
 272 00f2 FFF7FEFF 		bl	nodeInit
 273              	.L14:
  87:store.c       ****     }
  88:store.c       ****     
  89:store.c       ****     /** check if it doesn't reach the max data */
  90:store.c       ****     if(nodeTable[nodeIndex].total < MAX_TEMP_DATA){      
 274              		.loc 1 90 0
 275 00f6 544B     		ldr	r3, .L17+8
 276 00f8 1B78     		ldrb	r3, [r3]
 277 00fa 1800     		movs	r0, r3
 278 00fc 514A     		ldr	r2, .L17+4
 279 00fe CE21     		movs	r1, #206
 280 0100 D423     		movs	r3, #212
 281 0102 4343     		muls	r3, r0
 282 0104 D318     		adds	r3, r2, r3
 283 0106 5B18     		adds	r3, r3, r1
 284 0108 1B88     		ldrh	r3, [r3]
 285 010a 312B     		cmp	r3, #49
 286 010c 00D9     		bls	.LCB231
 287 010e 92E0     		b	.L15	@long jump
 288              	.LCB231:
  91:store.c       ****         nodeTable[nodeIndex].nodeAddr = nodeAddr;
 289              		.loc 1 91 0
 290 0110 4D4B     		ldr	r3, .L17+8
 291 0112 1B78     		ldrb	r3, [r3]
 292 0114 1900     		movs	r1, r3
 293 0116 4B4B     		ldr	r3, .L17+4
 294 0118 D422     		movs	r2, #212
 295 011a 4A43     		muls	r2, r1
 296 011c 7968     		ldr	r1, [r7, #4]
 297 011e D150     		str	r1, [r2, r3]
  92:store.c       ****         nodeTable[nodeIndex].adv = advdata;
 298              		.loc 1 92 0
 299 0120 494B     		ldr	r3, .L17+8
 300 0122 1B78     		ldrb	r3, [r3]
 301 0124 1800     		movs	r0, r3
 302 0126 474A     		ldr	r2, .L17+4
 303 0128 D021     		movs	r1, #208
ARM GAS  C:\Users\run1009\AppData\Local\Temp\ccMb2OKh.s 			page 8


 304 012a D423     		movs	r3, #212
 305 012c 4343     		muls	r3, r0
 306 012e D318     		adds	r3, r2, r3
 307 0130 5B18     		adds	r3, r3, r1
 308 0132 FA1C     		adds	r2, r7, #3
 309 0134 1278     		ldrb	r2, [r2]
 310 0136 1A70     		strb	r2, [r3]
  93:store.c       ****         nodeTable[nodeIndex].fistByteTempData[nodeTable[nodeIndex].total] = firstByteTemp;
 311              		.loc 1 93 0
 312 0138 434B     		ldr	r3, .L17+8
 313 013a 1B78     		ldrb	r3, [r3]
 314 013c 1800     		movs	r0, r3
 315 013e 424B     		ldr	r3, .L17+8
 316 0140 1B78     		ldrb	r3, [r3]
 317 0142 1C00     		movs	r4, r3
 318 0144 3F4A     		ldr	r2, .L17+4
 319 0146 CE21     		movs	r1, #206
 320 0148 D423     		movs	r3, #212
 321 014a 6343     		muls	r3, r4
 322 014c D318     		adds	r3, r2, r3
 323 014e 5B18     		adds	r3, r3, r1
 324 0150 1B88     		ldrh	r3, [r3]
 325 0152 1900     		movs	r1, r3
 326 0154 3B4A     		ldr	r2, .L17+4
 327 0156 D423     		movs	r3, #212
 328 0158 4343     		muls	r3, r0
 329 015a D318     		adds	r3, r2, r3
 330 015c 5B18     		adds	r3, r3, r1
 331 015e 0433     		adds	r3, r3, #4
 332 0160 BA1C     		adds	r2, r7, #2
 333 0162 1278     		ldrb	r2, [r2]
 334 0164 1A70     		strb	r2, [r3]
  94:store.c       ****         nodeTable[nodeIndex].secondByteTempData[nodeTable[nodeIndex].total] = secondByteTemp;
 335              		.loc 1 94 0
 336 0166 384B     		ldr	r3, .L17+8
 337 0168 1B78     		ldrb	r3, [r3]
 338 016a 1C00     		movs	r4, r3
 339 016c 364B     		ldr	r3, .L17+8
 340 016e 1B78     		ldrb	r3, [r3]
 341 0170 1800     		movs	r0, r3
 342 0172 344A     		ldr	r2, .L17+4
 343 0174 CE21     		movs	r1, #206
 344 0176 D423     		movs	r3, #212
 345 0178 4343     		muls	r3, r0
 346 017a D318     		adds	r3, r2, r3
 347 017c 5B18     		adds	r3, r3, r1
 348 017e 1B88     		ldrh	r3, [r3]
 349 0180 1800     		movs	r0, r3
 350 0182 304A     		ldr	r2, .L17+4
 351 0184 3621     		movs	r1, #54
 352 0186 D423     		movs	r3, #212
 353 0188 6343     		muls	r3, r4
 354 018a D318     		adds	r3, r2, r3
 355 018c 1B18     		adds	r3, r3, r0
 356 018e 5B18     		adds	r3, r3, r1
 357 0190 7A1C     		adds	r2, r7, #1
 358 0192 1278     		ldrb	r2, [r2]
ARM GAS  C:\Users\run1009\AppData\Local\Temp\ccMb2OKh.s 			page 9


 359 0194 1A70     		strb	r2, [r3]
  95:store.c       ****         nodeTable[nodeIndex].timestamp[nodeTable[nodeIndex].total] = timestamp;
 360              		.loc 1 95 0
 361 0196 2C4B     		ldr	r3, .L17+8
 362 0198 1B78     		ldrb	r3, [r3]
 363 019a 1800     		movs	r0, r3
 364 019c 2A4B     		ldr	r3, .L17+8
 365 019e 1B78     		ldrb	r3, [r3]
 366 01a0 1C00     		movs	r4, r3
 367 01a2 284A     		ldr	r2, .L17+4
 368 01a4 CE21     		movs	r1, #206
 369 01a6 D423     		movs	r3, #212
 370 01a8 6343     		muls	r3, r4
 371 01aa D318     		adds	r3, r2, r3
 372 01ac 5B18     		adds	r3, r3, r1
 373 01ae 1B88     		ldrh	r3, [r3]
 374 01b0 1900     		movs	r1, r3
 375 01b2 244B     		ldr	r3, .L17+4
 376 01b4 6A22     		movs	r2, #106
 377 01b6 4243     		muls	r2, r0
 378 01b8 5218     		adds	r2, r2, r1
 379 01ba 3432     		adds	r2, r2, #52
 380 01bc 5200     		lsls	r2, r2, #1
 381 01be 2821     		movs	r1, #40
 382 01c0 7918     		adds	r1, r7, r1
 383 01c2 0988     		ldrh	r1, [r1]
 384 01c4 D152     		strh	r1, [r2, r3]
  96:store.c       ****         calAverage(nodeTable[nodeIndex].fistByteAvgData,nodeTable[nodeIndex].secondByteAvgData);
 385              		.loc 1 96 0
 386 01c6 204B     		ldr	r3, .L17+8
 387 01c8 1B78     		ldrb	r3, [r3]
 388 01ca 1800     		movs	r0, r3
 389 01cc 1D4A     		ldr	r2, .L17+4
 390 01ce CC21     		movs	r1, #204
 391 01d0 D423     		movs	r3, #212
 392 01d2 4343     		muls	r3, r0
 393 01d4 D318     		adds	r3, r2, r3
 394 01d6 5B18     		adds	r3, r3, r1
 395 01d8 1878     		ldrb	r0, [r3]
 396 01da 1B4B     		ldr	r3, .L17+8
 397 01dc 1B78     		ldrb	r3, [r3]
 398 01de 1C00     		movs	r4, r3
 399 01e0 184A     		ldr	r2, .L17+4
 400 01e2 CD21     		movs	r1, #205
 401 01e4 D423     		movs	r3, #212
 402 01e6 6343     		muls	r3, r4
 403 01e8 D318     		adds	r3, r2, r3
 404 01ea 5B18     		adds	r3, r3, r1
 405 01ec 1B78     		ldrb	r3, [r3]
 406 01ee 1900     		movs	r1, r3
 407 01f0 FFF7FEFF 		bl	calAverage
  97:store.c       ****         nodeTable[nodeIndex].total++;
 408              		.loc 1 97 0
 409 01f4 144B     		ldr	r3, .L17+8
 410 01f6 1B78     		ldrb	r3, [r3]
 411 01f8 1249     		ldr	r1, .L17+4
 412 01fa CE20     		movs	r0, #206
ARM GAS  C:\Users\run1009\AppData\Local\Temp\ccMb2OKh.s 			page 10


 413 01fc D422     		movs	r2, #212
 414 01fe 5A43     		muls	r2, r3
 415 0200 8A18     		adds	r2, r1, r2
 416 0202 1218     		adds	r2, r2, r0
 417 0204 1288     		ldrh	r2, [r2]
 418 0206 0132     		adds	r2, r2, #1
 419 0208 94B2     		uxth	r4, r2
 420 020a 0E4A     		ldr	r2, .L17+4
 421 020c CE21     		movs	r1, #206
 422 020e D420     		movs	r0, #212
 423 0210 4343     		muls	r3, r0
 424 0212 D318     		adds	r3, r2, r3
 425 0214 5B18     		adds	r3, r3, r1
 426 0216 221C     		adds	r2, r4, #0
 427 0218 1A80     		strh	r2, [r3]
  98:store.c       ****         nodeTable[nodeIndex].adv = advdata;
 428              		.loc 1 98 0
 429 021a 0B4B     		ldr	r3, .L17+8
 430 021c 1B78     		ldrb	r3, [r3]
 431 021e 1800     		movs	r0, r3
 432 0220 084A     		ldr	r2, .L17+4
 433 0222 D021     		movs	r1, #208
 434 0224 D423     		movs	r3, #212
 435 0226 4343     		muls	r3, r0
 436 0228 D318     		adds	r3, r2, r3
 437 022a 5B18     		adds	r3, r3, r1
 438 022c FA1C     		adds	r2, r7, #3
 439 022e 1278     		ldrb	r2, [r2]
 440 0230 1A70     		strb	r2, [r3]
  99:store.c       ****         
 100:store.c       ****         return TRUE;
 441              		.loc 1 100 0
 442 0232 0123     		movs	r3, #1
 443 0234 00E0     		b	.L16
 444              	.L15:
 101:store.c       ****     }else{
 102:store.c       ****         /** node table reached the maximum data */
 103:store.c       ****         return FALSE;
 445              		.loc 1 103 0
 446 0236 0023     		movs	r3, #0
 447              	.L16:
 104:store.c       ****     }
 105:store.c       **** }
 448              		.loc 1 105 0
 449 0238 1800     		movs	r0, r3
 450 023a BD46     		mov	sp, r7
 451 023c 07B0     		add	sp, sp, #28
 452              		@ sp needed
 453 023e 90BD     		pop	{r4, r7, pc}
 454              	.L18:
 455              		.align	2
 456              	.L17:
 457 0240 00000000 		.word	number_of_node
 458 0244 00000000 		.word	nodeTable
 459 0248 00000000 		.word	nodeIndex
 460              		.cfi_endproc
 461              	.LFE37:
ARM GAS  C:\Users\run1009\AppData\Local\Temp\ccMb2OKh.s 			page 11


 462              		.size	updateNodeTable, .-updateNodeTable
 463              		.global	__aeabi_i2d
 464              		.global	__aeabi_ddiv
 465              		.global	__aeabi_d2f
 466              		.global	__aeabi_i2f
 467              		.global	__aeabi_fmul
 468              		.global	__aeabi_fadd
 469              		.global	__aeabi_fdiv
 470              		.section	.text.calAverage,"ax",%progbits
 471              		.align	2
 472              		.global	calAverage
 473              		.code	16
 474              		.thumb_func
 475              		.type	calAverage, %function
 476              	calAverage:
 477              	.LFB38:
 106:store.c       **** /*******************************************************************************
 107:store.c       **** * Function Name: calAverage
 108:store.c       **** ********************************************************************************
 109:store.c       **** * Summary:
 110:store.c       **** *       This function calculates the average temperature data
 111:store.c       **** *
 112:store.c       **** * Parameters: 
 113:store.c       **** *  uint8 firstByteTemp, uint8 secondByteTemp
 114:store.c       **** *
 115:store.c       **** * Return:
 116:store.c       **** *  null
 117:store.c       **** *
 118:store.c       **** *******************************************************************************/
 119:store.c       **** void calAverage(uint8 firstByteTemp, uint8 secondByteTemp){
 478              		.loc 1 119 0
 479              		.cfi_startproc
 480              		@ args = 0, pretend = 0, frame = 24
 481              		@ frame_needed = 1, uses_anonymous_args = 0
 482 0000 90B5     		push	{r4, r7, lr}
 483              		.cfi_def_cfa_offset 12
 484              		.cfi_offset 4, -12
 485              		.cfi_offset 7, -8
 486              		.cfi_offset 14, -4
 487 0002 87B0     		sub	sp, sp, #28
 488              		.cfi_def_cfa_offset 40
 489 0004 00AF     		add	r7, sp, #0
 490              		.cfi_def_cfa_register 7
 491 0006 0200     		movs	r2, r0
 492 0008 FB1D     		adds	r3, r7, #7
 493 000a 1A70     		strb	r2, [r3]
 494 000c BB1D     		adds	r3, r7, #6
 495 000e 0A1C     		adds	r2, r1, #0
 496 0010 1A70     		strb	r2, [r3]
 120:store.c       ****      /** if this ir the first data */
 121:store.c       ****      if(nodeTable[nodeIndex].fistByteAvgData == 0 && nodeTable[nodeIndex].secondByteAvgData == 0){
 497              		.loc 1 121 0
 498 0012 4D4B     		ldr	r3, .L22
 499 0014 1B78     		ldrb	r3, [r3]
 500 0016 1800     		movs	r0, r3
 501 0018 4C4A     		ldr	r2, .L22+4
 502 001a CC21     		movs	r1, #204
ARM GAS  C:\Users\run1009\AppData\Local\Temp\ccMb2OKh.s 			page 12


 503 001c D423     		movs	r3, #212
 504 001e 4343     		muls	r3, r0
 505 0020 D318     		adds	r3, r2, r3
 506 0022 5B18     		adds	r3, r3, r1
 507 0024 1B78     		ldrb	r3, [r3]
 508 0026 002B     		cmp	r3, #0
 509 0028 26D1     		bne	.L20
 510              		.loc 1 121 0 is_stmt 0 discriminator 1
 511 002a 474B     		ldr	r3, .L22
 512 002c 1B78     		ldrb	r3, [r3]
 513 002e 1800     		movs	r0, r3
 514 0030 464A     		ldr	r2, .L22+4
 515 0032 CD21     		movs	r1, #205
 516 0034 D423     		movs	r3, #212
 517 0036 4343     		muls	r3, r0
 518 0038 D318     		adds	r3, r2, r3
 519 003a 5B18     		adds	r3, r3, r1
 520 003c 1B78     		ldrb	r3, [r3]
 521 003e 002B     		cmp	r3, #0
 522 0040 1AD1     		bne	.L20
 122:store.c       ****         nodeTable[nodeIndex].fistByteAvgData = firstByteTemp;
 523              		.loc 1 122 0 is_stmt 1
 524 0042 414B     		ldr	r3, .L22
 525 0044 1B78     		ldrb	r3, [r3]
 526 0046 1C00     		movs	r4, r3
 527 0048 FB1D     		adds	r3, r7, #7
 528 004a 1878     		ldrb	r0, [r3]
 529 004c 3F4A     		ldr	r2, .L22+4
 530 004e CC21     		movs	r1, #204
 531 0050 D423     		movs	r3, #212
 532 0052 6343     		muls	r3, r4
 533 0054 D318     		adds	r3, r2, r3
 534 0056 5B18     		adds	r3, r3, r1
 535 0058 021C     		adds	r2, r0, #0
 536 005a 1A70     		strb	r2, [r3]
 123:store.c       ****         nodeTable[nodeIndex].secondByteAvgData = secondByteTemp;
 537              		.loc 1 123 0
 538 005c 3A4B     		ldr	r3, .L22
 539 005e 1B78     		ldrb	r3, [r3]
 540 0060 1C00     		movs	r4, r3
 541 0062 BB1D     		adds	r3, r7, #6
 542 0064 1878     		ldrb	r0, [r3]
 543 0066 394A     		ldr	r2, .L22+4
 544 0068 CD21     		movs	r1, #205
 545 006a D423     		movs	r3, #212
 546 006c 6343     		muls	r3, r4
 547 006e D318     		adds	r3, r2, r3
 548 0070 5B18     		adds	r3, r3, r1
 549 0072 021C     		adds	r2, r0, #0
 550 0074 1A70     		strb	r2, [r3]
 551 0076 63E0     		b	.L21
 552              	.L20:
 553              	.LBB5:
 124:store.c       ****      }
 125:store.c       ****      else{
 126:store.c       ****         float temp = Byte2Short(firstByteTemp,secondByteTemp)/100.0;
 554              		.loc 1 126 0
ARM GAS  C:\Users\run1009\AppData\Local\Temp\ccMb2OKh.s 			page 13


 555 0078 FB1D     		adds	r3, r7, #7
 556 007a 1A78     		ldrb	r2, [r3]
 557 007c BB1D     		adds	r3, r7, #6
 558 007e 1B78     		ldrb	r3, [r3]
 559 0080 1900     		movs	r1, r3
 560 0082 1000     		movs	r0, r2
 561 0084 FFF7FEFF 		bl	Byte2Short
 562 0088 0300     		movs	r3, r0
 563 008a 1800     		movs	r0, r3
 564 008c FFF7FEFF 		bl	__aeabi_i2d
 565 0090 0022     		movs	r2, #0
 566 0092 2F4B     		ldr	r3, .L22+8
 567 0094 FFF7FEFF 		bl	__aeabi_ddiv
 568 0098 0300     		movs	r3, r0
 569 009a 0C00     		movs	r4, r1
 570 009c 1800     		movs	r0, r3
 571 009e 2100     		movs	r1, r4
 572 00a0 FFF7FEFF 		bl	__aeabi_d2f
 573 00a4 031C     		adds	r3, r0, #0
 574 00a6 7B61     		str	r3, [r7, #20]
 127:store.c       ****         float avgTemp = Byte2Short(firstByteTemp,secondByteTemp)/100.0;
 575              		.loc 1 127 0
 576 00a8 FB1D     		adds	r3, r7, #7
 577 00aa 1A78     		ldrb	r2, [r3]
 578 00ac BB1D     		adds	r3, r7, #6
 579 00ae 1B78     		ldrb	r3, [r3]
 580 00b0 1900     		movs	r1, r3
 581 00b2 1000     		movs	r0, r2
 582 00b4 FFF7FEFF 		bl	Byte2Short
 583 00b8 0300     		movs	r3, r0
 584 00ba 1800     		movs	r0, r3
 585 00bc FFF7FEFF 		bl	__aeabi_i2d
 586 00c0 0022     		movs	r2, #0
 587 00c2 234B     		ldr	r3, .L22+8
 588 00c4 FFF7FEFF 		bl	__aeabi_ddiv
 589 00c8 0300     		movs	r3, r0
 590 00ca 0C00     		movs	r4, r1
 591 00cc 1800     		movs	r0, r3
 592 00ce 2100     		movs	r1, r4
 593 00d0 FFF7FEFF 		bl	__aeabi_d2f
 594 00d4 031C     		adds	r3, r0, #0
 595 00d6 3B61     		str	r3, [r7, #16]
 128:store.c       ****         float sum = (avgTemp*nodeTable[nodeIndex].total) + temp;
 596              		.loc 1 128 0
 597 00d8 1B4B     		ldr	r3, .L22
 598 00da 1B78     		ldrb	r3, [r3]
 599 00dc 1800     		movs	r0, r3
 600 00de 1B4A     		ldr	r2, .L22+4
 601 00e0 CE21     		movs	r1, #206
 602 00e2 D423     		movs	r3, #212
 603 00e4 4343     		muls	r3, r0
 604 00e6 D318     		adds	r3, r2, r3
 605 00e8 5B18     		adds	r3, r3, r1
 606 00ea 1B88     		ldrh	r3, [r3]
 607 00ec 1800     		movs	r0, r3
 608 00ee FFF7FEFF 		bl	__aeabi_i2f
 609 00f2 031C     		adds	r3, r0, #0
ARM GAS  C:\Users\run1009\AppData\Local\Temp\ccMb2OKh.s 			page 14


 610 00f4 3969     		ldr	r1, [r7, #16]
 611 00f6 181C     		adds	r0, r3, #0
 612 00f8 FFF7FEFF 		bl	__aeabi_fmul
 613 00fc 031C     		adds	r3, r0, #0
 614 00fe 7969     		ldr	r1, [r7, #20]
 615 0100 181C     		adds	r0, r3, #0
 616 0102 FFF7FEFF 		bl	__aeabi_fadd
 617 0106 031C     		adds	r3, r0, #0
 618 0108 FB60     		str	r3, [r7, #12]
 129:store.c       ****         float newAvgTemp = sum/(float)(nodeTable[nodeIndex].total+1);       
 619              		.loc 1 129 0
 620 010a 0F4B     		ldr	r3, .L22
 621 010c 1B78     		ldrb	r3, [r3]
 622 010e 1800     		movs	r0, r3
 623 0110 0E4A     		ldr	r2, .L22+4
 624 0112 CE21     		movs	r1, #206
 625 0114 D423     		movs	r3, #212
 626 0116 4343     		muls	r3, r0
 627 0118 D318     		adds	r3, r2, r3
 628 011a 5B18     		adds	r3, r3, r1
 629 011c 1B88     		ldrh	r3, [r3]
 630 011e 0133     		adds	r3, r3, #1
 631 0120 1800     		movs	r0, r3
 632 0122 FFF7FEFF 		bl	__aeabi_i2f
 633 0126 031C     		adds	r3, r0, #0
 634 0128 191C     		adds	r1, r3, #0
 635 012a F868     		ldr	r0, [r7, #12]
 636 012c FFF7FEFF 		bl	__aeabi_fdiv
 637 0130 031C     		adds	r3, r0, #0
 638 0132 BB60     		str	r3, [r7, #8]
 130:store.c       ****         float2Bytes(newAvgTemp,&firstByteTemp,&secondByteTemp);
 639              		.loc 1 130 0
 640 0134 BA1D     		adds	r2, r7, #6
 641 0136 F91D     		adds	r1, r7, #7
 642 0138 BB68     		ldr	r3, [r7, #8]
 643 013a 181C     		adds	r0, r3, #0
 644 013c FFF7FEFF 		bl	float2Bytes
 645              	.L21:
 646              	.LBE5:
 131:store.c       ****     }
 132:store.c       **** }
 647              		.loc 1 132 0
 648 0140 C046     		nop
 649 0142 BD46     		mov	sp, r7
 650 0144 07B0     		add	sp, sp, #28
 651              		@ sp needed
 652 0146 90BD     		pop	{r4, r7, pc}
 653              	.L23:
 654              		.align	2
 655              	.L22:
 656 0148 00000000 		.word	nodeIndex
 657 014c 00000000 		.word	nodeTable
 658 0150 00005940 		.word	1079574528
 659              		.cfi_endproc
 660              	.LFE38:
 661              		.size	calAverage, .-calAverage
 662              		.section	.rodata
ARM GAS  C:\Users\run1009\AppData\Local\Temp\ccMb2OKh.s 			page 15


 663              		.align	2
 664              	.LC6:
 665 0000 2A2A2A2A 		.ascii	"*************** convert test *************** \000"
 665      2A2A2A2A 
 665      2A2A2A2A 
 665      2A2A2A20 
 665      636F6E76 
 666 002e 0000     		.align	2
 667              	.LC8:
 668 0030 666C6F61 		.ascii	"float value: \000"
 668      74207661 
 668      6C75653A 
 668      2000
 669 003e 0000     		.align	2
 670              	.LC10:
 671 0040 636F6E76 		.ascii	"convert to Byte: \000"
 671      65727420 
 671      746F2042 
 671      7974653A 
 671      2000
 672 0052 0000     		.align	2
 673              	.LC12:
 674 0054 666C6F61 		.ascii	"float after convert value: \000"
 674      74206166 
 674      74657220 
 674      636F6E76 
 674      65727420 
 675              		.section	.text.float2Bytes,"ax",%progbits
 676              		.align	2
 677              		.global	float2Bytes
 678              		.code	16
 679              		.thumb_func
 680              		.type	float2Bytes, %function
 681              	float2Bytes:
 682              	.LFB39:
 133:store.c       **** /*******************************************************************************
 134:store.c       **** * Function Name: float2Bytes
 135:store.c       **** ********************************************************************************
 136:store.c       **** * Summary:
 137:store.c       **** *       This function converts float value to byte value
 138:store.c       **** *
 139:store.c       **** * Parameters: 
 140:store.c       **** *  float value, uint8* fistByte, uint8* secondByte
 141:store.c       **** *
 142:store.c       **** * Return:
 143:store.c       **** *  null
 144:store.c       **** *
 145:store.c       **** *******************************************************************************/
 146:store.c       **** void float2Bytes(float value, uint8* fistByte, uint8* secondByte){
 683              		.loc 1 146 0
 684              		.cfi_startproc
 685              		@ args = 0, pretend = 0, frame = 32
 686              		@ frame_needed = 1, uses_anonymous_args = 0
 687 0000 90B5     		push	{r4, r7, lr}
 688              		.cfi_def_cfa_offset 12
 689              		.cfi_offset 4, -12
 690              		.cfi_offset 7, -8
ARM GAS  C:\Users\run1009\AppData\Local\Temp\ccMb2OKh.s 			page 16


 691              		.cfi_offset 14, -4
 692 0002 89B0     		sub	sp, sp, #36
 693              		.cfi_def_cfa_offset 48
 694 0004 00AF     		add	r7, sp, #0
 695              		.cfi_def_cfa_register 7
 696 0006 F860     		str	r0, [r7, #12]
 697 0008 B960     		str	r1, [r7, #8]
 698 000a 7A60     		str	r2, [r7, #4]
 147:store.c       ****  
 148:store.c       ****   union {
 149:store.c       ****     float a;
 150:store.c       ****     uint8 bytes[2];
 151:store.c       ****   } thing;
 152:store.c       ****   thing.a = value;
 699              		.loc 1 152 0
 700 000c FB68     		ldr	r3, [r7, #12]
 701 000e 3B61     		str	r3, [r7, #16]
 153:store.c       ****   *fistByte = thing.bytes[0];
 702              		.loc 1 153 0
 703 0010 1023     		movs	r3, #16
 704 0012 FB18     		adds	r3, r7, r3
 705 0014 1A78     		ldrb	r2, [r3]
 706 0016 BB68     		ldr	r3, [r7, #8]
 707 0018 1A70     		strb	r2, [r3]
 154:store.c       ****   *secondByte = thing.bytes[1];
 708              		.loc 1 154 0
 709 001a 1023     		movs	r3, #16
 710 001c FB18     		adds	r3, r7, r3
 711 001e 5A78     		ldrb	r2, [r3, #1]
 712 0020 7B68     		ldr	r3, [r7, #4]
 713 0022 1A70     		strb	r2, [r3]
 155:store.c       **** 
 156:store.c       ****     #if (DEBUG_ENABLED == 1)
 157:store.c       ****                 UART_UartPutString("*************** convert test *************** ");
 714              		.loc 1 157 0
 715 0024 294B     		ldr	r3, .L25
 716 0026 1800     		movs	r0, r3
 717 0028 FFF7FEFF 		bl	UART_UartPutString
 158:store.c       ****                 char* varBefore = ftoa(value);
 718              		.loc 1 158 0
 719 002c FB68     		ldr	r3, [r7, #12]
 720 002e 181C     		adds	r0, r3, #0
 721 0030 FFF7FEFF 		bl	ftoa
 722 0034 0300     		movs	r3, r0
 723 0036 FB61     		str	r3, [r7, #28]
 159:store.c       ****                 UART_UartPutString("float value: ");
 724              		.loc 1 159 0
 725 0038 254B     		ldr	r3, .L25+4
 726 003a 1800     		movs	r0, r3
 727 003c FFF7FEFF 		bl	UART_UartPutString
 160:store.c       ****                 UART_UartPutString(varBefore);
 728              		.loc 1 160 0
 729 0040 FB69     		ldr	r3, [r7, #28]
 730 0042 1800     		movs	r0, r3
 731 0044 FFF7FEFF 		bl	UART_UartPutString
 161:store.c       ****                 UART_UartPutCRLF(' ');
 732              		.loc 1 161 0
ARM GAS  C:\Users\run1009\AppData\Local\Temp\ccMb2OKh.s 			page 17


 733 0048 2020     		movs	r0, #32
 734 004a FFF7FEFF 		bl	UART_UartPutCRLF
 162:store.c       **** 				UART_UartPutString("convert to Byte: ");
 735              		.loc 1 162 0
 736 004e 214B     		ldr	r3, .L25+8
 737 0050 1800     		movs	r0, r3
 738 0052 FFF7FEFF 		bl	UART_UartPutString
 163:store.c       **** 				PrintHex(*fistByte);
 739              		.loc 1 163 0
 740 0056 BB68     		ldr	r3, [r7, #8]
 741 0058 1B78     		ldrb	r3, [r3]
 742 005a 1800     		movs	r0, r3
 743 005c FFF7FEFF 		bl	PrintHex
 164:store.c       ****                 PrintHex(*secondByte);
 744              		.loc 1 164 0
 745 0060 7B68     		ldr	r3, [r7, #4]
 746 0062 1B78     		ldrb	r3, [r3]
 747 0064 1800     		movs	r0, r3
 748 0066 FFF7FEFF 		bl	PrintHex
 165:store.c       **** 				UART_UartPutCRLF(' ');
 749              		.loc 1 165 0
 750 006a 2020     		movs	r0, #32
 751 006c FFF7FEFF 		bl	UART_UartPutCRLF
 166:store.c       ****                 float tempAf = Byte2Short(*fistByte,*secondByte)/100.0;
 752              		.loc 1 166 0
 753 0070 BB68     		ldr	r3, [r7, #8]
 754 0072 1A78     		ldrb	r2, [r3]
 755 0074 7B68     		ldr	r3, [r7, #4]
 756 0076 1B78     		ldrb	r3, [r3]
 757 0078 1900     		movs	r1, r3
 758 007a 1000     		movs	r0, r2
 759 007c FFF7FEFF 		bl	Byte2Short
 760 0080 0300     		movs	r3, r0
 761 0082 1800     		movs	r0, r3
 762 0084 FFF7FEFF 		bl	__aeabi_i2d
 763 0088 0022     		movs	r2, #0
 764 008a 134B     		ldr	r3, .L25+12
 765 008c FFF7FEFF 		bl	__aeabi_ddiv
 766 0090 0300     		movs	r3, r0
 767 0092 0C00     		movs	r4, r1
 768 0094 1800     		movs	r0, r3
 769 0096 2100     		movs	r1, r4
 770 0098 FFF7FEFF 		bl	__aeabi_d2f
 771 009c 031C     		adds	r3, r0, #0
 772 009e BB61     		str	r3, [r7, #24]
 167:store.c       ****                 char* varAfter = ftoa(tempAf);
 773              		.loc 1 167 0
 774 00a0 BB69     		ldr	r3, [r7, #24]
 775 00a2 181C     		adds	r0, r3, #0
 776 00a4 FFF7FEFF 		bl	ftoa
 777 00a8 0300     		movs	r3, r0
 778 00aa 7B61     		str	r3, [r7, #20]
 168:store.c       ****                 UART_UartPutString("float after convert value: ");
 779              		.loc 1 168 0
 780 00ac 0B4B     		ldr	r3, .L25+16
 781 00ae 1800     		movs	r0, r3
 782 00b0 FFF7FEFF 		bl	UART_UartPutString
ARM GAS  C:\Users\run1009\AppData\Local\Temp\ccMb2OKh.s 			page 18


 169:store.c       ****                 UART_UartPutString(varAfter);
 783              		.loc 1 169 0
 784 00b4 7B69     		ldr	r3, [r7, #20]
 785 00b6 1800     		movs	r0, r3
 786 00b8 FFF7FEFF 		bl	UART_UartPutString
 170:store.c       ****                 UART_UartPutCRLF(' ');
 787              		.loc 1 170 0
 788 00bc 2020     		movs	r0, #32
 789 00be FFF7FEFF 		bl	UART_UartPutCRLF
 171:store.c       **** 
 172:store.c       **** 	#endif
 173:store.c       **** }
 790              		.loc 1 173 0
 791 00c2 C046     		nop
 792 00c4 BD46     		mov	sp, r7
 793 00c6 09B0     		add	sp, sp, #36
 794              		@ sp needed
 795 00c8 90BD     		pop	{r4, r7, pc}
 796              	.L26:
 797 00ca C046     		.align	2
 798              	.L25:
 799 00cc 00000000 		.word	.LC6
 800 00d0 30000000 		.word	.LC8
 801 00d4 40000000 		.word	.LC10
 802 00d8 00005940 		.word	1079574528
 803 00dc 54000000 		.word	.LC12
 804              		.cfi_endproc
 805              	.LFE39:
 806              		.size	float2Bytes, .-float2Bytes
 807              		.section	.text.getNodeFromTable,"ax",%progbits
 808              		.align	2
 809              		.global	getNodeFromTable
 810              		.code	16
 811              		.thumb_func
 812              		.type	getNodeFromTable, %function
 813              	getNodeFromTable:
 814              	.LFB40:
 174:store.c       **** /*******************************************************************************
 175:store.c       **** * Function Name: getNodeFromTable
 176:store.c       **** ********************************************************************************
 177:store.c       **** * Summary:
 178:store.c       **** *       This function will return node data that stored in a node table
 179:store.c       **** *
 180:store.c       **** * Parameters: 
 181:store.c       **** *  uint16 nodeAddr
 182:store.c       **** *
 183:store.c       **** * Return:
 184:store.c       **** *  NODE_TABLE_T node
 185:store.c       **** *
 186:store.c       **** *******************************************************************************/
 187:store.c       **** uint8 getNodeFromTable(uint8 nodeAddr[6u],NODE_TABLE_T* node){
 815              		.loc 1 187 0
 816              		.cfi_startproc
 817              		@ args = 0, pretend = 0, frame = 24
 818              		@ frame_needed = 1, uses_anonymous_args = 0
 819 0000 80B5     		push	{r7, lr}
 820              		.cfi_def_cfa_offset 8
ARM GAS  C:\Users\run1009\AppData\Local\Temp\ccMb2OKh.s 			page 19


 821              		.cfi_offset 7, -8
 822              		.cfi_offset 14, -4
 823 0002 86B0     		sub	sp, sp, #24
 824              		.cfi_def_cfa_offset 32
 825 0004 00AF     		add	r7, sp, #0
 826              		.cfi_def_cfa_register 7
 827 0006 7860     		str	r0, [r7, #4]
 828 0008 3960     		str	r1, [r7]
 188:store.c       ****     uint8 found = FALSE;
 829              		.loc 1 188 0
 830 000a 1723     		movs	r3, #23
 831 000c FB18     		adds	r3, r7, r3
 832 000e 0022     		movs	r2, #0
 833 0010 1A70     		strb	r2, [r3]
 189:store.c       ****     uint8 count = 0;
 834              		.loc 1 189 0
 835 0012 1623     		movs	r3, #22
 836 0014 FB18     		adds	r3, r7, r3
 837 0016 0022     		movs	r2, #0
 838 0018 1A70     		strb	r2, [r3]
 839              	.LBB6:
 190:store.c       ****     for(int i= 0;i<MAX_NODE;i++){
 840              		.loc 1 190 0
 841 001a 0023     		movs	r3, #0
 842 001c 3B61     		str	r3, [r7, #16]
 843 001e 38E0     		b	.L28
 844              	.L34:
 845              	.LBB7:
 191:store.c       ****         for(int j= 0;j<6;j++){
 846              		.loc 1 191 0
 847 0020 0023     		movs	r3, #0
 848 0022 FB60     		str	r3, [r7, #12]
 849 0024 17E0     		b	.L29
 850              	.L31:
 192:store.c       ****             if(nodeTable[i].nodeAddr->bdAddr[j] == nodeAddr[j])
 851              		.loc 1 192 0
 852 0026 204B     		ldr	r3, .L36
 853 0028 3A69     		ldr	r2, [r7, #16]
 854 002a D421     		movs	r1, #212
 855 002c 4A43     		muls	r2, r1
 856 002e D258     		ldr	r2, [r2, r3]
 857 0030 FB68     		ldr	r3, [r7, #12]
 858 0032 D318     		adds	r3, r2, r3
 859 0034 1A78     		ldrb	r2, [r3]
 860 0036 FB68     		ldr	r3, [r7, #12]
 861 0038 7968     		ldr	r1, [r7, #4]
 862 003a CB18     		adds	r3, r1, r3
 863 003c 1B78     		ldrb	r3, [r3]
 864 003e 9A42     		cmp	r2, r3
 865 0040 06D1     		bne	.L30
 193:store.c       ****                 count++;
 866              		.loc 1 193 0
 867 0042 1623     		movs	r3, #22
 868 0044 FB18     		adds	r3, r7, r3
 869 0046 1A78     		ldrb	r2, [r3]
 870 0048 1623     		movs	r3, #22
 871 004a FB18     		adds	r3, r7, r3
ARM GAS  C:\Users\run1009\AppData\Local\Temp\ccMb2OKh.s 			page 20


 872 004c 0132     		adds	r2, r2, #1
 873 004e 1A70     		strb	r2, [r3]
 874              	.L30:
 191:store.c       ****         for(int j= 0;j<6;j++){
 875              		.loc 1 191 0 discriminator 2
 876 0050 FB68     		ldr	r3, [r7, #12]
 877 0052 0133     		adds	r3, r3, #1
 878 0054 FB60     		str	r3, [r7, #12]
 879              	.L29:
 191:store.c       ****         for(int j= 0;j<6;j++){
 880              		.loc 1 191 0 is_stmt 0 discriminator 1
 881 0056 FB68     		ldr	r3, [r7, #12]
 882 0058 052B     		cmp	r3, #5
 883 005a E4DD     		ble	.L31
 884              	.LBE7:
 194:store.c       ****         }
 195:store.c       ****            if(count == 6){
 885              		.loc 1 195 0 is_stmt 1
 886 005c 1623     		movs	r3, #22
 887 005e FB18     		adds	r3, r7, r3
 888 0060 1B78     		ldrb	r3, [r3]
 889 0062 062B     		cmp	r3, #6
 890 0064 0ED1     		bne	.L32
 196:store.c       ****                 /** if found node address, get the old index */
 197:store.c       ****                 *node = nodeTable[i];
 891              		.loc 1 197 0
 892 0066 3868     		ldr	r0, [r7]
 893 0068 0F4A     		ldr	r2, .L36
 894 006a 3B69     		ldr	r3, [r7, #16]
 895 006c D421     		movs	r1, #212
 896 006e 4B43     		muls	r3, r1
 897 0070 D318     		adds	r3, r2, r3
 898 0072 D422     		movs	r2, #212
 899 0074 1900     		movs	r1, r3
 900 0076 FFF7FEFF 		bl	memcpy
 198:store.c       ****                 found = TRUE;
 901              		.loc 1 198 0
 902 007a 1723     		movs	r3, #23
 903 007c FB18     		adds	r3, r7, r3
 904 007e 0122     		movs	r2, #1
 905 0080 1A70     		strb	r2, [r3]
 199:store.c       ****                 break;
 906              		.loc 1 199 0
 907 0082 09E0     		b	.L33
 908              	.L32:
 200:store.c       ****             } 
 201:store.c       ****         count = 0;
 909              		.loc 1 201 0 discriminator 2
 910 0084 1623     		movs	r3, #22
 911 0086 FB18     		adds	r3, r7, r3
 912 0088 0022     		movs	r2, #0
 913 008a 1A70     		strb	r2, [r3]
 190:store.c       ****         for(int j= 0;j<6;j++){
 914              		.loc 1 190 0 discriminator 2
 915 008c 3B69     		ldr	r3, [r7, #16]
 916 008e 0133     		adds	r3, r3, #1
 917 0090 3B61     		str	r3, [r7, #16]
ARM GAS  C:\Users\run1009\AppData\Local\Temp\ccMb2OKh.s 			page 21


 918              	.L28:
 190:store.c       ****         for(int j= 0;j<6;j++){
 919              		.loc 1 190 0 is_stmt 0 discriminator 1
 920 0092 3B69     		ldr	r3, [r7, #16]
 921 0094 082B     		cmp	r3, #8
 922 0096 C3DD     		ble	.L34
 923              	.L33:
 924              	.LBE6:
 202:store.c       ****         }   
 203:store.c       ****     
 204:store.c       ****     return found;
 925              		.loc 1 204 0 is_stmt 1
 926 0098 1723     		movs	r3, #23
 927 009a FB18     		adds	r3, r7, r3
 928 009c 1B78     		ldrb	r3, [r3]
 205:store.c       **** }
 929              		.loc 1 205 0
 930 009e 1800     		movs	r0, r3
 931 00a0 BD46     		mov	sp, r7
 932 00a2 06B0     		add	sp, sp, #24
 933              		@ sp needed
 934 00a4 80BD     		pop	{r7, pc}
 935              	.L37:
 936 00a6 C046     		.align	2
 937              	.L36:
 938 00a8 00000000 		.word	nodeTable
 939              		.cfi_endproc
 940              	.LFE40:
 941              		.size	getNodeFromTable, .-getNodeFromTable
 942              		.text
 943              	.Letext0:
 944              		.file 2 "Generated_Source\\PSoC4/cytypes.h"
 945              		.file 3 "Generated_Source\\PSoC4/BLE_Stack.h"
 946              		.file 4 "Generated_Source\\PSoC4/BLE_eventHandler.h"
 947              		.file 5 "./store.h"