ARM GAS  C:\Users\run1009\AppData\Local\Temp\ccdM7sRW.s 			page 1


   1              		.syntax unified
   2              		.cpu cortex-m0
   3              		.fpu softvfp
   4              		.eabi_attribute 20, 1
   5              		.eabi_attribute 21, 1
   6              		.eabi_attribute 23, 3
   7              		.eabi_attribute 24, 1
   8              		.eabi_attribute 25, 1
   9              		.eabi_attribute 26, 1
  10              		.eabi_attribute 30, 6
  11              		.eabi_attribute 34, 0
  12              		.eabi_attribute 18, 4
  13              		.thumb
  14              		.syntax unified
  15              		.file	"WriteUserSFlash.c"
  16              		.text
  17              	.Ltext0:
  18              		.cfi_sections	.debug_frame
  19              		.section	.text.WriteUserSFlashRow,"ax",%progbits
  20              		.align	2
  21              		.global	WriteUserSFlashRow
  22              		.code	16
  23              		.thumb_func
  24              		.type	WriteUserSFlashRow, %function
  25              	WriteUserSFlashRow:
  26              	.LFB36:
  27              		.file 1 "WriteUserSFlash.c"
   1:WriteUserSFlash.c **** /*******************************************************************************
   2:WriteUserSFlash.c **** * File Name: WriteUserSFlash.c
   3:WriteUserSFlash.c **** *
   4:WriteUserSFlash.c **** * Version: 1.0
   5:WriteUserSFlash.c **** *
   6:WriteUserSFlash.c **** * Description:
   7:WriteUserSFlash.c **** *  This file contains the source code for User SFlash Write API.
   8:WriteUserSFlash.c **** *
   9:WriteUserSFlash.c **** ********************************************************************************
  10:WriteUserSFlash.c **** * Copyright 2015, Cypress Semiconductor Corporation.  All rights reserved.
  11:WriteUserSFlash.c **** * You may use this file only in accordance with the license, terms, conditions,
  12:WriteUserSFlash.c **** * disclaimers, and limitations in the end user license agreement accompanying
  13:WriteUserSFlash.c **** * the software package with which this file was provided.
  14:WriteUserSFlash.c **** *******************************************************************************/
  15:WriteUserSFlash.c **** #include <main.h>
  16:WriteUserSFlash.c **** #include <WriteUserSFlash.h>
  17:WriteUserSFlash.c **** 
  18:WriteUserSFlash.c **** /*******************************************************************************
  19:WriteUserSFlash.c **** * Function Name: WriteUserSFlashRow
  20:WriteUserSFlash.c **** ********************************************************************************
  21:WriteUserSFlash.c **** * Summary:
  22:WriteUserSFlash.c **** *        This routine calls the PSoC 4 BLE device supervisory ROM APIs to update
  23:WriteUserSFlash.c **** * the user configuration area of Supervisory Flash (SFlash).  
  24:WriteUserSFlash.c **** *
  25:WriteUserSFlash.c **** * Parameters:
  26:WriteUserSFlash.c **** *  userRowNUmber - User config SFlash row number to which data is to be written
  27:WriteUserSFlash.c **** *  dataPointer - Pointer to the data to be written. This API writes one row of
  28:WriteUserSFlash.c **** *                user config SFlash row at a time.
  29:WriteUserSFlash.c **** *
  30:WriteUserSFlash.c **** * Return:
ARM GAS  C:\Users\run1009\AppData\Local\Temp\ccdM7sRW.s 			page 2


  31:WriteUserSFlash.c **** *  uint32 - state of the user config SFlash write operation.
  32:WriteUserSFlash.c **** *
  33:WriteUserSFlash.c **** *******************************************************************************/
  34:WriteUserSFlash.c **** #if defined (__GNUC__)
  35:WriteUserSFlash.c **** #pragma GCC optimize ("O0")
  36:WriteUserSFlash.c **** #endif /* End of #if defined (__GNUC__) */
  37:WriteUserSFlash.c **** uint32 WriteUserSFlashRow(uint8 userRowNUmber, uint32 *dataPointer)
  38:WriteUserSFlash.c **** {
  28              		.loc 1 38 0
  29              		.cfi_startproc
  30              		@ args = 0, pretend = 0, frame = 176
  31              		@ frame_needed = 1, uses_anonymous_args = 0
  32 0000 80B5     		push	{r7, lr}
  33              		.cfi_def_cfa_offset 8
  34              		.cfi_offset 7, -8
  35              		.cfi_offset 14, -4
  36 0002 ACB0     		sub	sp, sp, #176
  37              		.cfi_def_cfa_offset 184
  38 0004 00AF     		add	r7, sp, #0
  39              		.cfi_def_cfa_register 7
  40 0006 0200     		movs	r2, r0
  41 0008 3960     		str	r1, [r7]
  42 000a FB1D     		adds	r3, r7, #7
  43 000c 1A70     		strb	r2, [r3]
  39:WriteUserSFlash.c **** 	#ifdef STORE_SFLASH_NODE_ADDRESS
  40:WriteUserSFlash.c ****     uint8 localCount;
  41:WriteUserSFlash.c **** 	volatile uint32 retValue=0;
  44              		.loc 1 41 0
  45 000e 0023     		movs	r3, #0
  46 0010 A822     		movs	r2, #168
  47 0012 BA18     		adds	r2, r7, r2
  48 0014 1360     		str	r3, [r2]
  42:WriteUserSFlash.c **** 	volatile uint32 cmdDataBuffer[(CY_FLASH_SIZEOF_ROW/4) + 2];
  43:WriteUserSFlash.c **** 	volatile uint32 reg1,reg2,reg3,reg4,reg5,reg6;
  44:WriteUserSFlash.c **** 	
  45:WriteUserSFlash.c **** 	/* Store the clock settings temporarily */
  46:WriteUserSFlash.c ****     reg1 =	CY_GET_XTND_REG32((void CYFAR *)(CYREG_CLK_SELECT));
  49              		.loc 1 46 0
  50 0016 3A4B     		ldr	r3, .L5
  51 0018 1B68     		ldr	r3, [r3]
  52 001a FB61     		str	r3, [r7, #28]
  47:WriteUserSFlash.c ****     reg2 =  CY_GET_XTND_REG32((void CYFAR *)(CYREG_CLK_IMO_CONFIG));
  53              		.loc 1 47 0
  54 001c 394B     		ldr	r3, .L5+4
  55 001e 1B68     		ldr	r3, [r3]
  56 0020 BB61     		str	r3, [r7, #24]
  48:WriteUserSFlash.c ****     reg3 =  CY_GET_XTND_REG32((void CYFAR *)(CYREG_PWR_BG_TRIM4));
  57              		.loc 1 48 0
  58 0022 394B     		ldr	r3, .L5+8
  59 0024 1B68     		ldr	r3, [r3]
  60 0026 7B61     		str	r3, [r7, #20]
  49:WriteUserSFlash.c ****     reg4 =  CY_GET_XTND_REG32((void CYFAR *)(CYREG_PWR_BG_TRIM5));
  61              		.loc 1 49 0
  62 0028 384B     		ldr	r3, .L5+12
  63 002a 1B68     		ldr	r3, [r3]
  64 002c 3B61     		str	r3, [r7, #16]
  50:WriteUserSFlash.c ****     reg5 =  CY_GET_XTND_REG32((void CYFAR *)(CYREG_CLK_IMO_TRIM1));
ARM GAS  C:\Users\run1009\AppData\Local\Temp\ccdM7sRW.s 			page 3


  65              		.loc 1 50 0
  66 002e 384B     		ldr	r3, .L5+16
  67 0030 1B68     		ldr	r3, [r3]
  68 0032 FB60     		str	r3, [r7, #12]
  51:WriteUserSFlash.c ****     reg6 =  CY_GET_XTND_REG32((void CYFAR *)(CYREG_CLK_IMO_TRIM2));
  69              		.loc 1 51 0
  70 0034 374B     		ldr	r3, .L5+20
  71 0036 1B68     		ldr	r3, [r3]
  72 0038 BB60     		str	r3, [r7, #8]
  52:WriteUserSFlash.c **** 	
  53:WriteUserSFlash.c **** 	/* Initialize the clock necessary for flash programming */
  54:WriteUserSFlash.c **** 	CY_SET_REG32(CYREG_CPUSS_SYSARG, 0x0000e8b6);
  73              		.loc 1 54 0
  74 003a 374B     		ldr	r3, .L5+24
  75 003c 374A     		ldr	r2, .L5+28
  76 003e 1A60     		str	r2, [r3]
  55:WriteUserSFlash.c **** 	CY_SET_REG32(CYREG_CPUSS_SYSREQ, 0x80000015);
  77              		.loc 1 55 0
  78 0040 374B     		ldr	r3, .L5+32
  79 0042 384A     		ldr	r2, .L5+36
  80 0044 1A60     		str	r2, [r3]
  56:WriteUserSFlash.c **** 	
  57:WriteUserSFlash.c **** 	/******* Initialize SRAM parameters for the LOAD FLASH command ******/
  58:WriteUserSFlash.c **** 	/* byte 3 (i.e. 00) is the Macro_select */
  59:WriteUserSFlash.c **** 	/* byte 2 (i.e. 00) is the Start addr of page latch */
  60:WriteUserSFlash.c **** 	/* byte 1 (i.e. d7) is the key 2  */
  61:WriteUserSFlash.c **** 	/* byte 0 (i.e. b6) is the key 1  */
  62:WriteUserSFlash.c ****   	cmdDataBuffer[0]=0x0000d7b6;
  81              		.loc 1 62 0
  82 0046 2023     		movs	r3, #32
  83 0048 FB18     		adds	r3, r7, r3
  84 004a 374A     		ldr	r2, .L5+40
  85 004c 1A60     		str	r2, [r3]
  63:WriteUserSFlash.c **** 	
  64:WriteUserSFlash.c **** 	/****** Initialize SRAM parameters for the LOAD FLASH command ******/
  65:WriteUserSFlash.c **** 	/* byte 3,2 and 1 are null */
  66:WriteUserSFlash.c **** 	/* byte 0 (i.e. 7F) is the number of bytes to be written */
  67:WriteUserSFlash.c **** 	cmdDataBuffer[1]=0x0000007F;	 
  86              		.loc 1 67 0
  87 004e 2023     		movs	r3, #32
  88 0050 FB18     		adds	r3, r7, r3
  89 0052 7F22     		movs	r2, #127
  90 0054 5A60     		str	r2, [r3, #4]
  68:WriteUserSFlash.c ****     
  69:WriteUserSFlash.c **** 	/* Initialize the SRAM buffer with data bytes */
  70:WriteUserSFlash.c ****     for(localCount = 0; localCount < (CY_FLASH_SIZEOF_ROW/4); localCount++)    
  91              		.loc 1 70 0
  92 0056 AF23     		movs	r3, #175
  93 0058 FB18     		adds	r3, r7, r3
  94 005a 0022     		movs	r2, #0
  95 005c 1A70     		strb	r2, [r3]
  96 005e 15E0     		b	.L2
  97              	.L3:
  71:WriteUserSFlash.c **** 	{
  72:WriteUserSFlash.c **** 		cmdDataBuffer[localCount + 2] = dataPointer[localCount]; 
  98              		.loc 1 72 0 discriminator 3
  99 0060 AF23     		movs	r3, #175
ARM GAS  C:\Users\run1009\AppData\Local\Temp\ccdM7sRW.s 			page 4


 100 0062 FB18     		adds	r3, r7, r3
 101 0064 1B78     		ldrb	r3, [r3]
 102 0066 9A1C     		adds	r2, r3, #2
 103 0068 AF23     		movs	r3, #175
 104 006a FB18     		adds	r3, r7, r3
 105 006c 1B78     		ldrb	r3, [r3]
 106 006e 9B00     		lsls	r3, r3, #2
 107 0070 3968     		ldr	r1, [r7]
 108 0072 CB18     		adds	r3, r1, r3
 109 0074 1968     		ldr	r1, [r3]
 110 0076 2023     		movs	r3, #32
 111 0078 FB18     		adds	r3, r7, r3
 112 007a 9200     		lsls	r2, r2, #2
 113 007c D150     		str	r1, [r2, r3]
  70:WriteUserSFlash.c **** 	{
 114              		.loc 1 70 0 discriminator 3
 115 007e AF23     		movs	r3, #175
 116 0080 FB18     		adds	r3, r7, r3
 117 0082 1A78     		ldrb	r2, [r3]
 118 0084 AF23     		movs	r3, #175
 119 0086 FB18     		adds	r3, r7, r3
 120 0088 0132     		adds	r2, r2, #1
 121 008a 1A70     		strb	r2, [r3]
 122              	.L2:
  70:WriteUserSFlash.c **** 	{
 123              		.loc 1 70 0 is_stmt 0 discriminator 1
 124 008c AF23     		movs	r3, #175
 125 008e FB18     		adds	r3, r7, r3
 126 0090 1B78     		ldrb	r3, [r3]
 127 0092 1F2B     		cmp	r3, #31
 128 0094 E4D9     		bls	.L3
  73:WriteUserSFlash.c **** 	}
  74:WriteUserSFlash.c **** 	
  75:WriteUserSFlash.c **** 	/* Write the following to registers to execute a LOAD FLASH bytes */
  76:WriteUserSFlash.c **** 	CY_SET_REG32(CYREG_CPUSS_SYSARG, &cmdDataBuffer[0]);
 129              		.loc 1 76 0 is_stmt 1
 130 0096 204B     		ldr	r3, .L5+24
 131 0098 2022     		movs	r2, #32
 132 009a BA18     		adds	r2, r7, r2
 133 009c 1A60     		str	r2, [r3]
  77:WriteUserSFlash.c **** 	CY_SET_REG32(CYREG_CPUSS_SYSREQ, LOAD_FLASH);
 134              		.loc 1 77 0
 135 009e 204B     		ldr	r3, .L5+32
 136 00a0 224A     		ldr	r2, .L5+44
 137 00a2 1A60     		str	r2, [r3]
  78:WriteUserSFlash.c **** 	
  79:WriteUserSFlash.c ****     /****** Initialize SRAM parameters for the WRITE ROW command ******/
  80:WriteUserSFlash.c **** 	/* byte 3 & 2 are null */
  81:WriteUserSFlash.c **** 	/* byte 1 (i.e. 0xeb) is the key 2  */
  82:WriteUserSFlash.c **** 	/* byte 0 (i.e. 0xb6) is the key 1  */
  83:WriteUserSFlash.c **** 	cmdDataBuffer[0] = 0x0000ebb6;
 138              		.loc 1 83 0
 139 00a4 2023     		movs	r3, #32
 140 00a6 FB18     		adds	r3, r7, r3
 141 00a8 214A     		ldr	r2, .L5+48
 142 00aa 1A60     		str	r2, [r3]
  84:WriteUserSFlash.c ****     
ARM GAS  C:\Users\run1009\AppData\Local\Temp\ccdM7sRW.s 			page 5


  85:WriteUserSFlash.c **** 	/* byte 7,6 and 5 are null */
  86:WriteUserSFlash.c **** 	/* byte 4 is desired SFlash user row 
  87:WriteUserSFlash.c **** 	 * Allowed values 0 - row 4
  88:WriteUserSFlash.c **** 	                  1 - row 5 
  89:WriteUserSFlash.c **** 					  2 - row 6
  90:WriteUserSFlash.c **** 					  3 - row 7 */
  91:WriteUserSFlash.c **** 	cmdDataBuffer[1] = (uint32) userRowNUmber;
 143              		.loc 1 91 0
 144 00ac FB1D     		adds	r3, r7, #7
 145 00ae 1A78     		ldrb	r2, [r3]
 146 00b0 2023     		movs	r3, #32
 147 00b2 FB18     		adds	r3, r7, r3
 148 00b4 5A60     		str	r2, [r3, #4]
  92:WriteUserSFlash.c **** 	
  93:WriteUserSFlash.c **** 	/* Write the following to registers to execute a WRITE USER SFlash ROW command */
  94:WriteUserSFlash.c **** 	CY_SET_REG32(CYREG_CPUSS_SYSARG, &cmdDataBuffer[0]);
 149              		.loc 1 94 0
 150 00b6 184B     		ldr	r3, .L5+24
 151 00b8 2022     		movs	r2, #32
 152 00ba BA18     		adds	r2, r7, r2
 153 00bc 1A60     		str	r2, [r3]
  95:WriteUserSFlash.c **** 	CY_SET_REG32(CYREG_CPUSS_SYSREQ, WRITE_USER_SFLASH_ROW);
 154              		.loc 1 95 0
 155 00be 184B     		ldr	r3, .L5+32
 156 00c0 1C4A     		ldr	r2, .L5+52
 157 00c2 1A60     		str	r2, [r3]
  96:WriteUserSFlash.c ****     
  97:WriteUserSFlash.c **** 	/* Read back SYSARG for the result. 0xA0000000 = SUCCESS; */
  98:WriteUserSFlash.c **** 	retValue = CY_GET_REG32(CYREG_CPUSS_SYSARG);
 158              		.loc 1 98 0
 159 00c4 144B     		ldr	r3, .L5+24
 160 00c6 1B68     		ldr	r3, [r3]
 161 00c8 A822     		movs	r2, #168
 162 00ca BA18     		adds	r2, r7, r2
 163 00cc 1360     		str	r3, [r2]
  99:WriteUserSFlash.c **** 	
 100:WriteUserSFlash.c **** 	/* Restore the clock settings after the flash programming is done */
 101:WriteUserSFlash.c ****     CY_SET_XTND_REG32((void CYFAR *)(CYREG_CLK_SELECT),reg1);
 164              		.loc 1 101 0
 165 00ce 0C4B     		ldr	r3, .L5
 166 00d0 FA69     		ldr	r2, [r7, #28]
 167 00d2 1A60     		str	r2, [r3]
 102:WriteUserSFlash.c ****     CY_SET_XTND_REG32((void CYFAR *)(CYREG_CLK_IMO_CONFIG),reg2);
 168              		.loc 1 102 0
 169 00d4 0B4B     		ldr	r3, .L5+4
 170 00d6 BA69     		ldr	r2, [r7, #24]
 171 00d8 1A60     		str	r2, [r3]
 103:WriteUserSFlash.c ****     CY_SET_XTND_REG32((void CYFAR *)(CYREG_PWR_BG_TRIM4),reg3);
 172              		.loc 1 103 0
 173 00da 0B4B     		ldr	r3, .L5+8
 174 00dc 7A69     		ldr	r2, [r7, #20]
 175 00de 1A60     		str	r2, [r3]
 104:WriteUserSFlash.c ****     CY_SET_XTND_REG32((void CYFAR *)(CYREG_PWR_BG_TRIM5),reg4);
 176              		.loc 1 104 0
 177 00e0 0A4B     		ldr	r3, .L5+12
 178 00e2 3A69     		ldr	r2, [r7, #16]
 179 00e4 1A60     		str	r2, [r3]
ARM GAS  C:\Users\run1009\AppData\Local\Temp\ccdM7sRW.s 			page 6


 105:WriteUserSFlash.c ****     CY_SET_XTND_REG32((void CYFAR *)(CYREG_CLK_IMO_TRIM1),reg5);
 180              		.loc 1 105 0
 181 00e6 0A4B     		ldr	r3, .L5+16
 182 00e8 FA68     		ldr	r2, [r7, #12]
 183 00ea 1A60     		str	r2, [r3]
 106:WriteUserSFlash.c ****     CY_SET_XTND_REG32((void CYFAR *)(CYREG_CLK_IMO_TRIM2),reg6);  
 184              		.loc 1 106 0
 185 00ec 094B     		ldr	r3, .L5+20
 186 00ee BA68     		ldr	r2, [r7, #8]
 187 00f0 1A60     		str	r2, [r3]
 107:WriteUserSFlash.c **** 	
 108:WriteUserSFlash.c **** 	return retValue;
 188              		.loc 1 108 0
 189 00f2 A823     		movs	r3, #168
 190 00f4 FB18     		adds	r3, r7, r3
 191 00f6 1B68     		ldr	r3, [r3]
 109:WriteUserSFlash.c **** 	#else
 110:WriteUserSFlash.c **** 		return (0);
 111:WriteUserSFlash.c **** 	#endif
 112:WriteUserSFlash.c **** }
 192              		.loc 1 112 0
 193 00f8 1800     		movs	r0, r3
 194 00fa BD46     		mov	sp, r7
 195 00fc 2CB0     		add	sp, sp, #176
 196              		@ sp needed
 197 00fe 80BD     		pop	{r7, pc}
 198              	.L6:
 199              		.align	2
 200              	.L5:
 201 0100 00010B40 		.word	1074462976
 202 0104 08010B40 		.word	1074462984
 203 0108 1CFF0B40 		.word	1074528028
 204 010c 20FF0B40 		.word	1074528032
 205 0110 28FF0B40 		.word	1074528040
 206 0114 2CFF0B40 		.word	1074528044
 207 0118 08001040 		.word	1074790408
 208 011c B6E80000 		.word	59574
 209 0120 04001040 		.word	1074790404
 210 0124 15000080 		.word	-2147483627
 211 0128 B6D70000 		.word	55222
 212 012c 04000080 		.word	-2147483644
 213 0130 B6EB0000 		.word	60342
 214 0134 18000080 		.word	-2147483624
 215              		.cfi_endproc
 216              	.LFE36:
 217              		.size	WriteUserSFlashRow, .-WriteUserSFlashRow
 218              		.section	.rodata
 219              		.align	2
 220              	.LC0:
 221 0000 2053464C 		.ascii	" SFLASH Node Address Update successful\000"
 221      41534820 
 221      4E6F6465 
 221      20416464 
 221      72657373 
 222 0027 00       		.align	2
 223              	.LC2:
 224 0028 2053464C 		.ascii	" SFLASH Node Address Update failed - \000"
ARM GAS  C:\Users\run1009\AppData\Local\Temp\ccdM7sRW.s 			page 7


 224      41534820 
 224      4E6F6465 
 224      20416464 
 224      72657373 
 225              		.section	.text.UpdateSFlashNodeAddress,"ax",%progbits
 226              		.align	2
 227              		.global	UpdateSFlashNodeAddress
 228              		.code	16
 229              		.thumb_func
 230              		.type	UpdateSFlashNodeAddress, %function
 231              	UpdateSFlashNodeAddress:
 232              	.LFB37:
 113:WriteUserSFlash.c **** 
 114:WriteUserSFlash.c **** /*******************************************************************************
 115:WriteUserSFlash.c **** * Function Name: UpdateSFlashNodeAddress
 116:WriteUserSFlash.c **** ********************************************************************************
 117:WriteUserSFlash.c **** * Summary:
 118:WriteUserSFlash.c **** *        This routine calls the PSoC 4 BLE device supervisory ROM APIs to add the 
 119:WriteUserSFlash.c **** * node address 
 120:WriteUserSFlash.c **** *
 121:WriteUserSFlash.c **** * Parameters:
 122:WriteUserSFlash.c **** *  node_addr: the address to be added to the SFLAH
 123:WriteUserSFlash.c **** *
 124:WriteUserSFlash.c **** * Return:
 125:WriteUserSFlash.c **** *  void
 126:WriteUserSFlash.c **** *
 127:WriteUserSFlash.c **** *******************************************************************************/
 128:WriteUserSFlash.c **** void UpdateSFlashNodeAddress(uint16 node_addr)
 129:WriteUserSFlash.c **** {
 233              		.loc 1 129 0
 234              		.cfi_startproc
 235              		@ args = 0, pretend = 0, frame = 152
 236              		@ frame_needed = 1, uses_anonymous_args = 0
 237 0000 80B5     		push	{r7, lr}
 238              		.cfi_def_cfa_offset 8
 239              		.cfi_offset 7, -8
 240              		.cfi_offset 14, -4
 241 0002 A6B0     		sub	sp, sp, #152
 242              		.cfi_def_cfa_offset 160
 243 0004 00AF     		add	r7, sp, #0
 244              		.cfi_def_cfa_register 7
 245 0006 0200     		movs	r2, r0
 246 0008 BB1D     		adds	r3, r7, #6
 247 000a 1A80     		strh	r2, [r3]
 130:WriteUserSFlash.c **** 	#ifdef STORE_SFLASH_NODE_ADDRESS
 131:WriteUserSFlash.c **** 	uint32 *sflashPtr;
 132:WriteUserSFlash.c **** 	uint32 readData[USER_SFLASH_ROW_SIZE/4];
 133:WriteUserSFlash.c **** 	uint16 dataIndex;
 134:WriteUserSFlash.c **** 	uint32 status;
 135:WriteUserSFlash.c **** 
 136:WriteUserSFlash.c **** 	/* Set the SFLASH read pointer to start of Row 1 of user SFLASH*/
 137:WriteUserSFlash.c **** 	sflashPtr = (uint32 *)USER_SFLASH_BASE_ADDRESS + USER_SFLASH_ROW_SIZE/4;
 248              		.loc 1 137 0
 249 000c 264B     		ldr	r3, .L13
 250 000e 9422     		movs	r2, #148
 251 0010 BA18     		adds	r2, r7, r2
 252 0012 1360     		str	r3, [r2]
ARM GAS  C:\Users\run1009\AppData\Local\Temp\ccdM7sRW.s 			page 8


 138:WriteUserSFlash.c **** 	
 139:WriteUserSFlash.c **** 	for(dataIndex = 0; dataIndex < USER_SFLASH_ROW_SIZE/4; dataIndex++)
 253              		.loc 1 139 0
 254 0014 9223     		movs	r3, #146
 255 0016 FB18     		adds	r3, r7, r3
 256 0018 0022     		movs	r2, #0
 257 001a 1A80     		strh	r2, [r3]
 258 001c 15E0     		b	.L8
 259              	.L9:
 140:WriteUserSFlash.c ****     {
 141:WriteUserSFlash.c **** 		/* Read the complete row 1 data of SFLASH. Only the required field 
 142:WriteUserSFlash.c **** 		*  will be changed and rest will be restored */
 143:WriteUserSFlash.c **** 		readData[dataIndex] = *sflashPtr++;
 260              		.loc 1 143 0 discriminator 3
 261 001e 9223     		movs	r3, #146
 262 0020 FB18     		adds	r3, r7, r3
 263 0022 1A88     		ldrh	r2, [r3]
 264 0024 9423     		movs	r3, #148
 265 0026 FB18     		adds	r3, r7, r3
 266 0028 1B68     		ldr	r3, [r3]
 267 002a 191D     		adds	r1, r3, #4
 268 002c 9420     		movs	r0, #148
 269 002e 3818     		adds	r0, r7, r0
 270 0030 0160     		str	r1, [r0]
 271 0032 1968     		ldr	r1, [r3]
 272 0034 0C23     		movs	r3, #12
 273 0036 FB18     		adds	r3, r7, r3
 274 0038 9200     		lsls	r2, r2, #2
 275 003a D150     		str	r1, [r2, r3]
 139:WriteUserSFlash.c ****     {
 276              		.loc 1 139 0 discriminator 3
 277 003c 9223     		movs	r3, #146
 278 003e FB18     		adds	r3, r7, r3
 279 0040 1A88     		ldrh	r2, [r3]
 280 0042 9223     		movs	r3, #146
 281 0044 FB18     		adds	r3, r7, r3
 282 0046 0132     		adds	r2, r2, #1
 283 0048 1A80     		strh	r2, [r3]
 284              	.L8:
 139:WriteUserSFlash.c ****     {
 285              		.loc 1 139 0 is_stmt 0 discriminator 1
 286 004a 9223     		movs	r3, #146
 287 004c FB18     		adds	r3, r7, r3
 288 004e 1B88     		ldrh	r3, [r3]
 289 0050 1F2B     		cmp	r3, #31
 290 0052 E4D9     		bls	.L9
 144:WriteUserSFlash.c **** 	}
 145:WriteUserSFlash.c **** 	
 146:WriteUserSFlash.c **** 	/* Modify the first index of read data to store the set Node address */
 147:WriteUserSFlash.c **** 	readData[SFLASH_NODE_ADDRESS_INDEX] = (uint32)node_addr;
 291              		.loc 1 147 0 is_stmt 1
 292 0054 BB1D     		adds	r3, r7, #6
 293 0056 1A88     		ldrh	r2, [r3]
 294 0058 0C23     		movs	r3, #12
 295 005a FB18     		adds	r3, r7, r3
 296 005c 1A60     		str	r2, [r3]
 148:WriteUserSFlash.c **** 	
ARM GAS  C:\Users\run1009\AppData\Local\Temp\ccdM7sRW.s 			page 9


 149:WriteUserSFlash.c **** 	/* Write the row 1 of user SFLASH with the new data. Note that this function
 150:WriteUserSFlash.c **** 	* will internally change the IMO frequency to 48 MHz while actual SFLASH
 151:WriteUserSFlash.c **** 	* write operation. Any component that is being driven using IMO should not
 152:WriteUserSFlash.c **** 	* be used during this period. */
 153:WriteUserSFlash.c **** 	status  = WriteUserSFlashRow(NODE_ADDRESS_SFLASH_ROW, &readData[0]);
 297              		.loc 1 153 0
 298 005e 0C23     		movs	r3, #12
 299 0060 FB18     		adds	r3, r7, r3
 300 0062 1900     		movs	r1, r3
 301 0064 0120     		movs	r0, #1
 302 0066 FFF7FEFF 		bl	WriteUserSFlashRow
 303 006a 0300     		movs	r3, r0
 304 006c 8C22     		movs	r2, #140
 305 006e BA18     		adds	r2, r7, r2
 306 0070 1360     		str	r3, [r2]
 154:WriteUserSFlash.c **** 	
 155:WriteUserSFlash.c **** 	if(status == USER_SFLASH_WRITE_SUCCESSFUL)
 307              		.loc 1 155 0
 308 0072 8C23     		movs	r3, #140
 309 0074 FB18     		adds	r3, r7, r3
 310 0076 1A68     		ldr	r2, [r3]
 311 0078 A023     		movs	r3, #160
 312 007a 1B06     		lsls	r3, r3, #24
 313 007c 9A42     		cmp	r2, r3
 314 007e 07D1     		bne	.L10
 156:WriteUserSFlash.c ****     {
 157:WriteUserSFlash.c **** 		#if (DEBUG_ENABLED == 1)
 158:WriteUserSFlash.c **** 		/* If SFLASH write was successfull */
 159:WriteUserSFlash.c ****         UART_UartPutString(" SFLASH Node Address Update successful");
 315              		.loc 1 159 0
 316 0080 0A4B     		ldr	r3, .L13+4
 317 0082 1800     		movs	r0, r3
 318 0084 FFF7FEFF 		bl	UART_UartPutString
 160:WriteUserSFlash.c **** 		UART_UartPutCRLF(' ');
 319              		.loc 1 160 0
 320 0088 2020     		movs	r0, #32
 321 008a FFF7FEFF 		bl	UART_UartPutCRLF
 161:WriteUserSFlash.c **** 		#endif
 162:WriteUserSFlash.c ****     }
 163:WriteUserSFlash.c ****     else
 164:WriteUserSFlash.c ****     {
 165:WriteUserSFlash.c **** 		#if (DEBUG_ENABLED == 1)
 166:WriteUserSFlash.c **** 		/* If SFLASH write was not successfull */
 167:WriteUserSFlash.c ****         UART_UartPutString(" SFLASH Node Address Update failed - ");
 168:WriteUserSFlash.c **** 		UART_UartPutCRLF(' ');
 169:WriteUserSFlash.c **** 		#endif
 170:WriteUserSFlash.c ****     }
 171:WriteUserSFlash.c **** 	#endif
 172:WriteUserSFlash.c **** }
 322              		.loc 1 172 0
 323 008e 06E0     		b	.L12
 324              	.L10:
 167:WriteUserSFlash.c **** 		UART_UartPutCRLF(' ');
 325              		.loc 1 167 0
 326 0090 074B     		ldr	r3, .L13+8
 327 0092 1800     		movs	r0, r3
 328 0094 FFF7FEFF 		bl	UART_UartPutString
ARM GAS  C:\Users\run1009\AppData\Local\Temp\ccdM7sRW.s 			page 10


 168:WriteUserSFlash.c **** 		#endif
 329              		.loc 1 168 0
 330 0098 2020     		movs	r0, #32
 331 009a FFF7FEFF 		bl	UART_UartPutCRLF
 332              	.L12:
 333              		.loc 1 172 0
 334 009e C046     		nop
 335 00a0 BD46     		mov	sp, r7
 336 00a2 26B0     		add	sp, sp, #152
 337              		@ sp needed
 338 00a4 80BD     		pop	{r7, pc}
 339              	.L14:
 340 00a6 C046     		.align	2
 341              	.L13:
 342 00a8 80F2FF0F 		.word	268432000
 343 00ac 00000000 		.word	.LC0
 344 00b0 28000000 		.word	.LC2
 345              		.cfi_endproc
 346              	.LFE37:
 347              		.size	UpdateSFlashNodeAddress, .-UpdateSFlashNodeAddress
 348              		.text
 349              	.Letext0:
 350              		.file 2 "Generated_Source\\PSoC4/cytypes.h"